ARM GAS  /tmp/ccWiXf77.s 			page 1


   1              		.cpu cortex-m0plus
   2              		.eabi_attribute 20, 1
   3              		.eabi_attribute 21, 1
   4              		.eabi_attribute 23, 3
   5              		.eabi_attribute 24, 1
   6              		.eabi_attribute 25, 1
   7              		.eabi_attribute 26, 1
   8              		.eabi_attribute 30, 1
   9              		.eabi_attribute 34, 0
  10              		.eabi_attribute 18, 4
  11              		.file	"stm32g0xx_hal_dma.c"
  12              		.text
  13              	.Ltext0:
  14              		.cfi_sections	.debug_frame
  15              		.section	.text.DMA_SetConfig,"ax",%progbits
  16              		.align	1
  17              		.arch armv6s-m
  18              		.syntax unified
  19              		.code	16
  20              		.thumb_func
  21              		.fpu softvfp
  23              	DMA_SetConfig:
  24              	.LVL0:
  25              	.LFB170:
  26              		.file 1 "Drivers/STM32G0xx_HAL_Driver/Src/stm32g0xx_hal_dma.c"
   1:Drivers/STM32G0xx_HAL_Driver/Src/stm32g0xx_hal_dma.c **** /**
   2:Drivers/STM32G0xx_HAL_Driver/Src/stm32g0xx_hal_dma.c ****   ******************************************************************************
   3:Drivers/STM32G0xx_HAL_Driver/Src/stm32g0xx_hal_dma.c ****   * @file    stm32g0xx_hal_dma.c
   4:Drivers/STM32G0xx_HAL_Driver/Src/stm32g0xx_hal_dma.c ****   * @author  MCD Application Team
   5:Drivers/STM32G0xx_HAL_Driver/Src/stm32g0xx_hal_dma.c ****   * @brief   DMA HAL module driver.
   6:Drivers/STM32G0xx_HAL_Driver/Src/stm32g0xx_hal_dma.c ****   *         This file provides firmware functions to manage the following
   7:Drivers/STM32G0xx_HAL_Driver/Src/stm32g0xx_hal_dma.c ****   *         functionalities of the Direct Memory Access (DMA) peripheral:
   8:Drivers/STM32G0xx_HAL_Driver/Src/stm32g0xx_hal_dma.c ****   *           + Initialization and de-initialization functions
   9:Drivers/STM32G0xx_HAL_Driver/Src/stm32g0xx_hal_dma.c ****   *           + IO operation functions
  10:Drivers/STM32G0xx_HAL_Driver/Src/stm32g0xx_hal_dma.c ****   *           + Peripheral State and errors functions
  11:Drivers/STM32G0xx_HAL_Driver/Src/stm32g0xx_hal_dma.c ****   @verbatim
  12:Drivers/STM32G0xx_HAL_Driver/Src/stm32g0xx_hal_dma.c ****   ==============================================================================
  13:Drivers/STM32G0xx_HAL_Driver/Src/stm32g0xx_hal_dma.c ****                         ##### How to use this driver #####
  14:Drivers/STM32G0xx_HAL_Driver/Src/stm32g0xx_hal_dma.c ****   ==============================================================================
  15:Drivers/STM32G0xx_HAL_Driver/Src/stm32g0xx_hal_dma.c ****   [..]
  16:Drivers/STM32G0xx_HAL_Driver/Src/stm32g0xx_hal_dma.c ****    (#) Enable and configure the peripheral to be connected to the DMA Channel
  17:Drivers/STM32G0xx_HAL_Driver/Src/stm32g0xx_hal_dma.c ****        (except for internal SRAM / FLASH memories: no initialization is
  18:Drivers/STM32G0xx_HAL_Driver/Src/stm32g0xx_hal_dma.c ****        necessary). Please refer to the Reference manual for connection between peripherals
  19:Drivers/STM32G0xx_HAL_Driver/Src/stm32g0xx_hal_dma.c ****        and DMA requests.
  20:Drivers/STM32G0xx_HAL_Driver/Src/stm32g0xx_hal_dma.c **** 
  21:Drivers/STM32G0xx_HAL_Driver/Src/stm32g0xx_hal_dma.c ****    (#) For a given Channel, program the required configuration through the following parameters:
  22:Drivers/STM32G0xx_HAL_Driver/Src/stm32g0xx_hal_dma.c ****        Channel request, Transfer Direction, Source and Destination data formats,
  23:Drivers/STM32G0xx_HAL_Driver/Src/stm32g0xx_hal_dma.c ****        Circular or Normal mode, Channel Priority level, Source and Destination Increment mode
  24:Drivers/STM32G0xx_HAL_Driver/Src/stm32g0xx_hal_dma.c ****        using HAL_DMA_Init() function.
  25:Drivers/STM32G0xx_HAL_Driver/Src/stm32g0xx_hal_dma.c **** 
  26:Drivers/STM32G0xx_HAL_Driver/Src/stm32g0xx_hal_dma.c ****        Prior to HAL_DMA_Init the CLK shall be enabled for both DMA & DMAMUX
  27:Drivers/STM32G0xx_HAL_Driver/Src/stm32g0xx_hal_dma.c ****        thanks to:
  28:Drivers/STM32G0xx_HAL_Driver/Src/stm32g0xx_hal_dma.c ****        DMA1   :       __HAL_RCC_DMA1_CLK_ENABLE();
  29:Drivers/STM32G0xx_HAL_Driver/Src/stm32g0xx_hal_dma.c **** 
  30:Drivers/STM32G0xx_HAL_Driver/Src/stm32g0xx_hal_dma.c ****    (#) Use HAL_DMA_GetState() function to return the DMA state and HAL_DMA_GetError() in case of er
  31:Drivers/STM32G0xx_HAL_Driver/Src/stm32g0xx_hal_dma.c ****        detection.
  32:Drivers/STM32G0xx_HAL_Driver/Src/stm32g0xx_hal_dma.c **** 
ARM GAS  /tmp/ccWiXf77.s 			page 2


  33:Drivers/STM32G0xx_HAL_Driver/Src/stm32g0xx_hal_dma.c ****    (#) Use HAL_DMA_Abort() function to abort the current transfer
  34:Drivers/STM32G0xx_HAL_Driver/Src/stm32g0xx_hal_dma.c **** 
  35:Drivers/STM32G0xx_HAL_Driver/Src/stm32g0xx_hal_dma.c ****      -@-   In Memory-to-Memory transfer mode, Circular mode is not allowed.
  36:Drivers/STM32G0xx_HAL_Driver/Src/stm32g0xx_hal_dma.c ****      *** Polling mode IO operation ***
  37:Drivers/STM32G0xx_HAL_Driver/Src/stm32g0xx_hal_dma.c ****      =================================
  38:Drivers/STM32G0xx_HAL_Driver/Src/stm32g0xx_hal_dma.c ****     [..]
  39:Drivers/STM32G0xx_HAL_Driver/Src/stm32g0xx_hal_dma.c ****           (+) Use HAL_DMA_Start() to start DMA transfer after the configuration of Source
  40:Drivers/STM32G0xx_HAL_Driver/Src/stm32g0xx_hal_dma.c ****               address and destination address and the Length of data to be transferred
  41:Drivers/STM32G0xx_HAL_Driver/Src/stm32g0xx_hal_dma.c ****           (+) Use HAL_DMA_PollForTransfer() to poll for the end of current transfer, in this
  42:Drivers/STM32G0xx_HAL_Driver/Src/stm32g0xx_hal_dma.c ****               case a fixed Timeout can be configured by User depending from his application.
  43:Drivers/STM32G0xx_HAL_Driver/Src/stm32g0xx_hal_dma.c **** 
  44:Drivers/STM32G0xx_HAL_Driver/Src/stm32g0xx_hal_dma.c ****      *** Interrupt mode IO operation ***
  45:Drivers/STM32G0xx_HAL_Driver/Src/stm32g0xx_hal_dma.c ****      ===================================
  46:Drivers/STM32G0xx_HAL_Driver/Src/stm32g0xx_hal_dma.c ****     [..]
  47:Drivers/STM32G0xx_HAL_Driver/Src/stm32g0xx_hal_dma.c ****           (+) Configure the DMA interrupt priority using HAL_NVIC_SetPriority()
  48:Drivers/STM32G0xx_HAL_Driver/Src/stm32g0xx_hal_dma.c ****           (+) Enable the DMA IRQ handler using HAL_NVIC_EnableIRQ()
  49:Drivers/STM32G0xx_HAL_Driver/Src/stm32g0xx_hal_dma.c ****           (+) Use HAL_DMA_Start_IT() to start DMA transfer after the configuration of
  50:Drivers/STM32G0xx_HAL_Driver/Src/stm32g0xx_hal_dma.c ****               Source address and destination address and the Length of data to be transferred.
  51:Drivers/STM32G0xx_HAL_Driver/Src/stm32g0xx_hal_dma.c ****               In this case the DMA interrupt is configured
  52:Drivers/STM32G0xx_HAL_Driver/Src/stm32g0xx_hal_dma.c ****           (+) Use HAL_DMA_IRQHandler() called under DMA_IRQHandler() Interrupt subroutine
  53:Drivers/STM32G0xx_HAL_Driver/Src/stm32g0xx_hal_dma.c ****           (+) At the end of data transfer HAL_DMA_IRQHandler() function is executed and user can
  54:Drivers/STM32G0xx_HAL_Driver/Src/stm32g0xx_hal_dma.c ****               add his own function by customization of function pointer XferCpltCallback and
  55:Drivers/STM32G0xx_HAL_Driver/Src/stm32g0xx_hal_dma.c ****               XferErrorCallback (i.e. a member of DMA handle structure).
  56:Drivers/STM32G0xx_HAL_Driver/Src/stm32g0xx_hal_dma.c **** 
  57:Drivers/STM32G0xx_HAL_Driver/Src/stm32g0xx_hal_dma.c ****      *** DMA HAL driver macros list ***
  58:Drivers/STM32G0xx_HAL_Driver/Src/stm32g0xx_hal_dma.c ****      =============================================
  59:Drivers/STM32G0xx_HAL_Driver/Src/stm32g0xx_hal_dma.c ****       [..]
  60:Drivers/STM32G0xx_HAL_Driver/Src/stm32g0xx_hal_dma.c ****        Below the list of most used macros in DMA HAL driver.
  61:Drivers/STM32G0xx_HAL_Driver/Src/stm32g0xx_hal_dma.c **** 
  62:Drivers/STM32G0xx_HAL_Driver/Src/stm32g0xx_hal_dma.c ****        (+) __HAL_DMA_ENABLE: Enable the specified DMA Channel.
  63:Drivers/STM32G0xx_HAL_Driver/Src/stm32g0xx_hal_dma.c ****        (+) __HAL_DMA_DISABLE: Disable the specified DMA Channel.
  64:Drivers/STM32G0xx_HAL_Driver/Src/stm32g0xx_hal_dma.c ****        (+) __HAL_DMA_GET_FLAG: Get the DMA Channel pending flags.
  65:Drivers/STM32G0xx_HAL_Driver/Src/stm32g0xx_hal_dma.c ****        (+) __HAL_DMA_CLEAR_FLAG: Clear the DMA Channel pending flags.
  66:Drivers/STM32G0xx_HAL_Driver/Src/stm32g0xx_hal_dma.c ****        (+) __HAL_DMA_ENABLE_IT: Enable the specified DMA Channel interrupts.
  67:Drivers/STM32G0xx_HAL_Driver/Src/stm32g0xx_hal_dma.c ****        (+) __HAL_DMA_DISABLE_IT: Disable the specified DMA Channel interrupts.
  68:Drivers/STM32G0xx_HAL_Driver/Src/stm32g0xx_hal_dma.c ****        (+) __HAL_DMA_GET_IT_SOURCE: Check whether the specified DMA Channel interrupt has occurred 
  69:Drivers/STM32G0xx_HAL_Driver/Src/stm32g0xx_hal_dma.c **** 
  70:Drivers/STM32G0xx_HAL_Driver/Src/stm32g0xx_hal_dma.c ****      [..]
  71:Drivers/STM32G0xx_HAL_Driver/Src/stm32g0xx_hal_dma.c ****       (@) You can refer to the DMA HAL driver header file for more useful macros
  72:Drivers/STM32G0xx_HAL_Driver/Src/stm32g0xx_hal_dma.c **** 
  73:Drivers/STM32G0xx_HAL_Driver/Src/stm32g0xx_hal_dma.c ****   @endverbatim
  74:Drivers/STM32G0xx_HAL_Driver/Src/stm32g0xx_hal_dma.c ****   ******************************************************************************
  75:Drivers/STM32G0xx_HAL_Driver/Src/stm32g0xx_hal_dma.c ****   * @attention
  76:Drivers/STM32G0xx_HAL_Driver/Src/stm32g0xx_hal_dma.c ****   *
  77:Drivers/STM32G0xx_HAL_Driver/Src/stm32g0xx_hal_dma.c ****   * <h2><center>&copy; Copyright (c) 2018 STMicroelectronics. 
  78:Drivers/STM32G0xx_HAL_Driver/Src/stm32g0xx_hal_dma.c ****   * All rights reserved.</center></h2>
  79:Drivers/STM32G0xx_HAL_Driver/Src/stm32g0xx_hal_dma.c ****   *
  80:Drivers/STM32G0xx_HAL_Driver/Src/stm32g0xx_hal_dma.c ****   * This software component is licensed by ST under BSD 3-Clause license,
  81:Drivers/STM32G0xx_HAL_Driver/Src/stm32g0xx_hal_dma.c ****   * the "License"; You may not use this file except in compliance with the 
  82:Drivers/STM32G0xx_HAL_Driver/Src/stm32g0xx_hal_dma.c ****   * License. You may obtain a copy of the License at:
  83:Drivers/STM32G0xx_HAL_Driver/Src/stm32g0xx_hal_dma.c ****   *                        opensource.org/licenses/BSD-3-Clause
  84:Drivers/STM32G0xx_HAL_Driver/Src/stm32g0xx_hal_dma.c ****   *
  85:Drivers/STM32G0xx_HAL_Driver/Src/stm32g0xx_hal_dma.c ****   ******************************************************************************
  86:Drivers/STM32G0xx_HAL_Driver/Src/stm32g0xx_hal_dma.c ****   */
  87:Drivers/STM32G0xx_HAL_Driver/Src/stm32g0xx_hal_dma.c **** 
  88:Drivers/STM32G0xx_HAL_Driver/Src/stm32g0xx_hal_dma.c **** /* Includes ------------------------------------------------------------------*/
  89:Drivers/STM32G0xx_HAL_Driver/Src/stm32g0xx_hal_dma.c **** #include "stm32g0xx_hal.h"
ARM GAS  /tmp/ccWiXf77.s 			page 3


  90:Drivers/STM32G0xx_HAL_Driver/Src/stm32g0xx_hal_dma.c **** 
  91:Drivers/STM32G0xx_HAL_Driver/Src/stm32g0xx_hal_dma.c **** /** @addtogroup STM32G0xx_HAL_Driver
  92:Drivers/STM32G0xx_HAL_Driver/Src/stm32g0xx_hal_dma.c ****   * @{
  93:Drivers/STM32G0xx_HAL_Driver/Src/stm32g0xx_hal_dma.c ****   */
  94:Drivers/STM32G0xx_HAL_Driver/Src/stm32g0xx_hal_dma.c **** 
  95:Drivers/STM32G0xx_HAL_Driver/Src/stm32g0xx_hal_dma.c **** /** @defgroup DMA DMA
  96:Drivers/STM32G0xx_HAL_Driver/Src/stm32g0xx_hal_dma.c ****   * @brief DMA HAL module driver
  97:Drivers/STM32G0xx_HAL_Driver/Src/stm32g0xx_hal_dma.c ****   * @{
  98:Drivers/STM32G0xx_HAL_Driver/Src/stm32g0xx_hal_dma.c ****   */
  99:Drivers/STM32G0xx_HAL_Driver/Src/stm32g0xx_hal_dma.c **** 
 100:Drivers/STM32G0xx_HAL_Driver/Src/stm32g0xx_hal_dma.c **** #ifdef HAL_DMA_MODULE_ENABLED
 101:Drivers/STM32G0xx_HAL_Driver/Src/stm32g0xx_hal_dma.c **** 
 102:Drivers/STM32G0xx_HAL_Driver/Src/stm32g0xx_hal_dma.c **** /* Private typedef -----------------------------------------------------------*/
 103:Drivers/STM32G0xx_HAL_Driver/Src/stm32g0xx_hal_dma.c **** /* Private define ------------------------------------------------------------*/
 104:Drivers/STM32G0xx_HAL_Driver/Src/stm32g0xx_hal_dma.c **** /* Private macro -------------------------------------------------------------*/
 105:Drivers/STM32G0xx_HAL_Driver/Src/stm32g0xx_hal_dma.c **** /* Private variables ---------------------------------------------------------*/
 106:Drivers/STM32G0xx_HAL_Driver/Src/stm32g0xx_hal_dma.c **** /* Private function prototypes -----------------------------------------------*/
 107:Drivers/STM32G0xx_HAL_Driver/Src/stm32g0xx_hal_dma.c **** 
 108:Drivers/STM32G0xx_HAL_Driver/Src/stm32g0xx_hal_dma.c **** /** @defgroup DMA_Private_Functions DMA Private Functions
 109:Drivers/STM32G0xx_HAL_Driver/Src/stm32g0xx_hal_dma.c ****   * @{
 110:Drivers/STM32G0xx_HAL_Driver/Src/stm32g0xx_hal_dma.c ****   */
 111:Drivers/STM32G0xx_HAL_Driver/Src/stm32g0xx_hal_dma.c **** static void DMA_SetConfig(DMA_HandleTypeDef *hdma, uint32_t SrcAddress, uint32_t DstAddress, uint32
 112:Drivers/STM32G0xx_HAL_Driver/Src/stm32g0xx_hal_dma.c **** static void DMA_CalcDMAMUXChannelBaseAndMask(DMA_HandleTypeDef *hdma);
 113:Drivers/STM32G0xx_HAL_Driver/Src/stm32g0xx_hal_dma.c **** static void DMA_CalcDMAMUXRequestGenBaseAndMask(DMA_HandleTypeDef *hdma);
 114:Drivers/STM32G0xx_HAL_Driver/Src/stm32g0xx_hal_dma.c **** 
 115:Drivers/STM32G0xx_HAL_Driver/Src/stm32g0xx_hal_dma.c **** /**
 116:Drivers/STM32G0xx_HAL_Driver/Src/stm32g0xx_hal_dma.c ****   * @}
 117:Drivers/STM32G0xx_HAL_Driver/Src/stm32g0xx_hal_dma.c ****   */
 118:Drivers/STM32G0xx_HAL_Driver/Src/stm32g0xx_hal_dma.c **** 
 119:Drivers/STM32G0xx_HAL_Driver/Src/stm32g0xx_hal_dma.c **** /* Exported functions ---------------------------------------------------------*/
 120:Drivers/STM32G0xx_HAL_Driver/Src/stm32g0xx_hal_dma.c **** 
 121:Drivers/STM32G0xx_HAL_Driver/Src/stm32g0xx_hal_dma.c **** /** @defgroup DMA_Exported_Functions DMA Exported Functions
 122:Drivers/STM32G0xx_HAL_Driver/Src/stm32g0xx_hal_dma.c ****   * @{
 123:Drivers/STM32G0xx_HAL_Driver/Src/stm32g0xx_hal_dma.c ****   */
 124:Drivers/STM32G0xx_HAL_Driver/Src/stm32g0xx_hal_dma.c **** 
 125:Drivers/STM32G0xx_HAL_Driver/Src/stm32g0xx_hal_dma.c **** /** @defgroup DMA_Exported_Functions_Group1 Initialization and de-initialization functions
 126:Drivers/STM32G0xx_HAL_Driver/Src/stm32g0xx_hal_dma.c ****  *  @brief   Initialization and de-initialization functions
 127:Drivers/STM32G0xx_HAL_Driver/Src/stm32g0xx_hal_dma.c ****  *
 128:Drivers/STM32G0xx_HAL_Driver/Src/stm32g0xx_hal_dma.c **** @verbatim
 129:Drivers/STM32G0xx_HAL_Driver/Src/stm32g0xx_hal_dma.c ****  ===============================================================================
 130:Drivers/STM32G0xx_HAL_Driver/Src/stm32g0xx_hal_dma.c ****              ##### Initialization and de-initialization functions  #####
 131:Drivers/STM32G0xx_HAL_Driver/Src/stm32g0xx_hal_dma.c ****  ===============================================================================
 132:Drivers/STM32G0xx_HAL_Driver/Src/stm32g0xx_hal_dma.c ****     [..]
 133:Drivers/STM32G0xx_HAL_Driver/Src/stm32g0xx_hal_dma.c ****     This section provides functions allowing to initialize the DMA Channel source
 134:Drivers/STM32G0xx_HAL_Driver/Src/stm32g0xx_hal_dma.c ****     and destination addresses, incrementation and data sizes, transfer direction,
 135:Drivers/STM32G0xx_HAL_Driver/Src/stm32g0xx_hal_dma.c ****     circular/normal mode selection, memory-to-memory mode selection and Channel priority value.
 136:Drivers/STM32G0xx_HAL_Driver/Src/stm32g0xx_hal_dma.c ****     [..]
 137:Drivers/STM32G0xx_HAL_Driver/Src/stm32g0xx_hal_dma.c ****     The HAL_DMA_Init() function follows the DMA configuration procedures as described in
 138:Drivers/STM32G0xx_HAL_Driver/Src/stm32g0xx_hal_dma.c ****     reference manual.
 139:Drivers/STM32G0xx_HAL_Driver/Src/stm32g0xx_hal_dma.c **** 
 140:Drivers/STM32G0xx_HAL_Driver/Src/stm32g0xx_hal_dma.c **** @endverbatim
 141:Drivers/STM32G0xx_HAL_Driver/Src/stm32g0xx_hal_dma.c ****   * @{
 142:Drivers/STM32G0xx_HAL_Driver/Src/stm32g0xx_hal_dma.c ****   */
 143:Drivers/STM32G0xx_HAL_Driver/Src/stm32g0xx_hal_dma.c **** 
 144:Drivers/STM32G0xx_HAL_Driver/Src/stm32g0xx_hal_dma.c **** /**
 145:Drivers/STM32G0xx_HAL_Driver/Src/stm32g0xx_hal_dma.c ****   * @brief  Initialize the DMA according to the specified
 146:Drivers/STM32G0xx_HAL_Driver/Src/stm32g0xx_hal_dma.c ****   *         parameters in the DMA_InitTypeDef and initialize the associated handle.
ARM GAS  /tmp/ccWiXf77.s 			page 4


 147:Drivers/STM32G0xx_HAL_Driver/Src/stm32g0xx_hal_dma.c ****   * @param  hdma  Pointer to a DMA_HandleTypeDef structure that contains
 148:Drivers/STM32G0xx_HAL_Driver/Src/stm32g0xx_hal_dma.c ****   *               the configuration information for the specified DMA Channel.
 149:Drivers/STM32G0xx_HAL_Driver/Src/stm32g0xx_hal_dma.c ****   * @retval HAL status
 150:Drivers/STM32G0xx_HAL_Driver/Src/stm32g0xx_hal_dma.c ****   */
 151:Drivers/STM32G0xx_HAL_Driver/Src/stm32g0xx_hal_dma.c **** HAL_StatusTypeDef HAL_DMA_Init(DMA_HandleTypeDef *hdma)
 152:Drivers/STM32G0xx_HAL_Driver/Src/stm32g0xx_hal_dma.c **** {
 153:Drivers/STM32G0xx_HAL_Driver/Src/stm32g0xx_hal_dma.c ****   /* Check the DMA handle allocation */
 154:Drivers/STM32G0xx_HAL_Driver/Src/stm32g0xx_hal_dma.c ****   if (hdma == NULL)
 155:Drivers/STM32G0xx_HAL_Driver/Src/stm32g0xx_hal_dma.c ****   {
 156:Drivers/STM32G0xx_HAL_Driver/Src/stm32g0xx_hal_dma.c ****     return HAL_ERROR;
 157:Drivers/STM32G0xx_HAL_Driver/Src/stm32g0xx_hal_dma.c ****   }
 158:Drivers/STM32G0xx_HAL_Driver/Src/stm32g0xx_hal_dma.c **** 
 159:Drivers/STM32G0xx_HAL_Driver/Src/stm32g0xx_hal_dma.c ****   /* Check the parameters */
 160:Drivers/STM32G0xx_HAL_Driver/Src/stm32g0xx_hal_dma.c ****   assert_param(IS_DMA_ALL_INSTANCE(hdma->Instance));
 161:Drivers/STM32G0xx_HAL_Driver/Src/stm32g0xx_hal_dma.c ****   assert_param(IS_DMA_DIRECTION(hdma->Init.Direction));
 162:Drivers/STM32G0xx_HAL_Driver/Src/stm32g0xx_hal_dma.c ****   assert_param(IS_DMA_PERIPHERAL_INC_STATE(hdma->Init.PeriphInc));
 163:Drivers/STM32G0xx_HAL_Driver/Src/stm32g0xx_hal_dma.c ****   assert_param(IS_DMA_MEMORY_INC_STATE(hdma->Init.MemInc));
 164:Drivers/STM32G0xx_HAL_Driver/Src/stm32g0xx_hal_dma.c ****   assert_param(IS_DMA_PERIPHERAL_DATA_SIZE(hdma->Init.PeriphDataAlignment));
 165:Drivers/STM32G0xx_HAL_Driver/Src/stm32g0xx_hal_dma.c ****   assert_param(IS_DMA_MEMORY_DATA_SIZE(hdma->Init.MemDataAlignment));
 166:Drivers/STM32G0xx_HAL_Driver/Src/stm32g0xx_hal_dma.c ****   assert_param(IS_DMA_MODE(hdma->Init.Mode));
 167:Drivers/STM32G0xx_HAL_Driver/Src/stm32g0xx_hal_dma.c ****   assert_param(IS_DMA_PRIORITY(hdma->Init.Priority));
 168:Drivers/STM32G0xx_HAL_Driver/Src/stm32g0xx_hal_dma.c **** 
 169:Drivers/STM32G0xx_HAL_Driver/Src/stm32g0xx_hal_dma.c ****   /* calculation of the channel index */
 170:Drivers/STM32G0xx_HAL_Driver/Src/stm32g0xx_hal_dma.c ****   hdma->ChannelIndex = (((uint32_t)hdma->Instance - (uint32_t)DMA1_Channel1) / ((uint32_t)DMA1_Chan
 171:Drivers/STM32G0xx_HAL_Driver/Src/stm32g0xx_hal_dma.c **** 
 172:Drivers/STM32G0xx_HAL_Driver/Src/stm32g0xx_hal_dma.c ****   /* Change DMA peripheral state */
 173:Drivers/STM32G0xx_HAL_Driver/Src/stm32g0xx_hal_dma.c ****   hdma->State = HAL_DMA_STATE_BUSY;
 174:Drivers/STM32G0xx_HAL_Driver/Src/stm32g0xx_hal_dma.c **** 
 175:Drivers/STM32G0xx_HAL_Driver/Src/stm32g0xx_hal_dma.c ****   /* Clear PL, MSIZE, PSIZE, MINC, PINC, CIRC, DIR and MEM2MEM bits */
 176:Drivers/STM32G0xx_HAL_Driver/Src/stm32g0xx_hal_dma.c ****   CLEAR_BIT(hdma->Instance->CCR, (DMA_CCR_PL    | DMA_CCR_MSIZE  | DMA_CCR_PSIZE  | \
 177:Drivers/STM32G0xx_HAL_Driver/Src/stm32g0xx_hal_dma.c ****                                   DMA_CCR_MINC  | DMA_CCR_PINC   | DMA_CCR_CIRC   | \
 178:Drivers/STM32G0xx_HAL_Driver/Src/stm32g0xx_hal_dma.c ****                                   DMA_CCR_DIR   | DMA_CCR_MEM2MEM));
 179:Drivers/STM32G0xx_HAL_Driver/Src/stm32g0xx_hal_dma.c **** 
 180:Drivers/STM32G0xx_HAL_Driver/Src/stm32g0xx_hal_dma.c ****   /* Set the DMA Channel configuration */
 181:Drivers/STM32G0xx_HAL_Driver/Src/stm32g0xx_hal_dma.c ****   SET_BIT(hdma->Instance->CCR, (hdma->Init.Direction           |                               \
 182:Drivers/STM32G0xx_HAL_Driver/Src/stm32g0xx_hal_dma.c ****                                 hdma->Init.PeriphInc           | hdma->Init.MemInc           | \
 183:Drivers/STM32G0xx_HAL_Driver/Src/stm32g0xx_hal_dma.c ****                                 hdma->Init.PeriphDataAlignment | hdma->Init.MemDataAlignment | \
 184:Drivers/STM32G0xx_HAL_Driver/Src/stm32g0xx_hal_dma.c ****                                 hdma->Init.Mode                | hdma->Init.Priority));
 185:Drivers/STM32G0xx_HAL_Driver/Src/stm32g0xx_hal_dma.c **** 
 186:Drivers/STM32G0xx_HAL_Driver/Src/stm32g0xx_hal_dma.c ****   /* Initialize parameters for DMAMUX channel :
 187:Drivers/STM32G0xx_HAL_Driver/Src/stm32g0xx_hal_dma.c ****      DMAmuxChannel, DMAmuxChannelStatus and DMAmuxChannelStatusMask
 188:Drivers/STM32G0xx_HAL_Driver/Src/stm32g0xx_hal_dma.c ****   */
 189:Drivers/STM32G0xx_HAL_Driver/Src/stm32g0xx_hal_dma.c ****   DMA_CalcDMAMUXChannelBaseAndMask(hdma);
 190:Drivers/STM32G0xx_HAL_Driver/Src/stm32g0xx_hal_dma.c **** 
 191:Drivers/STM32G0xx_HAL_Driver/Src/stm32g0xx_hal_dma.c ****   if (hdma->Init.Direction == DMA_MEMORY_TO_MEMORY)
 192:Drivers/STM32G0xx_HAL_Driver/Src/stm32g0xx_hal_dma.c ****   {
 193:Drivers/STM32G0xx_HAL_Driver/Src/stm32g0xx_hal_dma.c ****     /* if memory to memory force the request to 0*/
 194:Drivers/STM32G0xx_HAL_Driver/Src/stm32g0xx_hal_dma.c ****     hdma->Init.Request = DMA_REQUEST_MEM2MEM;
 195:Drivers/STM32G0xx_HAL_Driver/Src/stm32g0xx_hal_dma.c ****   }
 196:Drivers/STM32G0xx_HAL_Driver/Src/stm32g0xx_hal_dma.c **** 
 197:Drivers/STM32G0xx_HAL_Driver/Src/stm32g0xx_hal_dma.c ****   /* Set peripheral request  to DMAMUX channel */
 198:Drivers/STM32G0xx_HAL_Driver/Src/stm32g0xx_hal_dma.c ****   hdma->DMAmuxChannel->CCR = (hdma->Init.Request & DMAMUX_CxCR_DMAREQ_ID);
 199:Drivers/STM32G0xx_HAL_Driver/Src/stm32g0xx_hal_dma.c **** 
 200:Drivers/STM32G0xx_HAL_Driver/Src/stm32g0xx_hal_dma.c ****   /* Clear the DMAMUX synchro overrun flag */
 201:Drivers/STM32G0xx_HAL_Driver/Src/stm32g0xx_hal_dma.c ****   hdma->DMAmuxChannelStatus->CFR = hdma->DMAmuxChannelStatusMask;
 202:Drivers/STM32G0xx_HAL_Driver/Src/stm32g0xx_hal_dma.c **** 
 203:Drivers/STM32G0xx_HAL_Driver/Src/stm32g0xx_hal_dma.c ****   if (((hdma->Init.Request >  0UL) && (hdma->Init.Request <= DMA_REQUEST_GENERATOR3)))
ARM GAS  /tmp/ccWiXf77.s 			page 5


 204:Drivers/STM32G0xx_HAL_Driver/Src/stm32g0xx_hal_dma.c ****   {
 205:Drivers/STM32G0xx_HAL_Driver/Src/stm32g0xx_hal_dma.c ****     /* Initialize parameters for DMAMUX request generator :
 206:Drivers/STM32G0xx_HAL_Driver/Src/stm32g0xx_hal_dma.c ****        DMAmuxRequestGen, DMAmuxRequestGenStatus and DMAmuxRequestGenStatusMask
 207:Drivers/STM32G0xx_HAL_Driver/Src/stm32g0xx_hal_dma.c ****     */
 208:Drivers/STM32G0xx_HAL_Driver/Src/stm32g0xx_hal_dma.c ****     DMA_CalcDMAMUXRequestGenBaseAndMask(hdma);
 209:Drivers/STM32G0xx_HAL_Driver/Src/stm32g0xx_hal_dma.c **** 
 210:Drivers/STM32G0xx_HAL_Driver/Src/stm32g0xx_hal_dma.c ****     /* Reset the DMAMUX request generator register*/
 211:Drivers/STM32G0xx_HAL_Driver/Src/stm32g0xx_hal_dma.c ****     hdma->DMAmuxRequestGen->RGCR = 0U;
 212:Drivers/STM32G0xx_HAL_Driver/Src/stm32g0xx_hal_dma.c **** 
 213:Drivers/STM32G0xx_HAL_Driver/Src/stm32g0xx_hal_dma.c ****     /* Clear the DMAMUX request generator overrun flag */
 214:Drivers/STM32G0xx_HAL_Driver/Src/stm32g0xx_hal_dma.c ****     hdma->DMAmuxRequestGenStatus->RGCFR = hdma->DMAmuxRequestGenStatusMask;
 215:Drivers/STM32G0xx_HAL_Driver/Src/stm32g0xx_hal_dma.c ****   }
 216:Drivers/STM32G0xx_HAL_Driver/Src/stm32g0xx_hal_dma.c ****   else
 217:Drivers/STM32G0xx_HAL_Driver/Src/stm32g0xx_hal_dma.c ****   {
 218:Drivers/STM32G0xx_HAL_Driver/Src/stm32g0xx_hal_dma.c ****     hdma->DMAmuxRequestGen = 0U;
 219:Drivers/STM32G0xx_HAL_Driver/Src/stm32g0xx_hal_dma.c ****     hdma->DMAmuxRequestGenStatus = 0U;
 220:Drivers/STM32G0xx_HAL_Driver/Src/stm32g0xx_hal_dma.c ****     hdma->DMAmuxRequestGenStatusMask = 0U;
 221:Drivers/STM32G0xx_HAL_Driver/Src/stm32g0xx_hal_dma.c ****   }
 222:Drivers/STM32G0xx_HAL_Driver/Src/stm32g0xx_hal_dma.c **** 
 223:Drivers/STM32G0xx_HAL_Driver/Src/stm32g0xx_hal_dma.c ****   /* Initialize the error code */
 224:Drivers/STM32G0xx_HAL_Driver/Src/stm32g0xx_hal_dma.c ****   hdma->ErrorCode = HAL_DMA_ERROR_NONE;
 225:Drivers/STM32G0xx_HAL_Driver/Src/stm32g0xx_hal_dma.c **** 
 226:Drivers/STM32G0xx_HAL_Driver/Src/stm32g0xx_hal_dma.c ****   /* Initialize the DMA state*/
 227:Drivers/STM32G0xx_HAL_Driver/Src/stm32g0xx_hal_dma.c ****   hdma->State  = HAL_DMA_STATE_READY;
 228:Drivers/STM32G0xx_HAL_Driver/Src/stm32g0xx_hal_dma.c **** 
 229:Drivers/STM32G0xx_HAL_Driver/Src/stm32g0xx_hal_dma.c ****   /* Release Lock */
 230:Drivers/STM32G0xx_HAL_Driver/Src/stm32g0xx_hal_dma.c ****   __HAL_UNLOCK(hdma);
 231:Drivers/STM32G0xx_HAL_Driver/Src/stm32g0xx_hal_dma.c **** 
 232:Drivers/STM32G0xx_HAL_Driver/Src/stm32g0xx_hal_dma.c ****   return HAL_OK;
 233:Drivers/STM32G0xx_HAL_Driver/Src/stm32g0xx_hal_dma.c **** }
 234:Drivers/STM32G0xx_HAL_Driver/Src/stm32g0xx_hal_dma.c **** 
 235:Drivers/STM32G0xx_HAL_Driver/Src/stm32g0xx_hal_dma.c **** /**
 236:Drivers/STM32G0xx_HAL_Driver/Src/stm32g0xx_hal_dma.c ****   * @brief  DeInitialize the DMA peripheral.
 237:Drivers/STM32G0xx_HAL_Driver/Src/stm32g0xx_hal_dma.c ****   * @param  hdma  pointer to a DMA_HandleTypeDef structure that contains
 238:Drivers/STM32G0xx_HAL_Driver/Src/stm32g0xx_hal_dma.c ****   *               the configuration information for the specified DMA Channel.
 239:Drivers/STM32G0xx_HAL_Driver/Src/stm32g0xx_hal_dma.c ****   * @retval HAL status
 240:Drivers/STM32G0xx_HAL_Driver/Src/stm32g0xx_hal_dma.c ****   */
 241:Drivers/STM32G0xx_HAL_Driver/Src/stm32g0xx_hal_dma.c **** HAL_StatusTypeDef HAL_DMA_DeInit(DMA_HandleTypeDef *hdma)
 242:Drivers/STM32G0xx_HAL_Driver/Src/stm32g0xx_hal_dma.c **** {
 243:Drivers/STM32G0xx_HAL_Driver/Src/stm32g0xx_hal_dma.c ****   /* Check the DMA handle allocation */
 244:Drivers/STM32G0xx_HAL_Driver/Src/stm32g0xx_hal_dma.c ****   if (NULL == hdma)
 245:Drivers/STM32G0xx_HAL_Driver/Src/stm32g0xx_hal_dma.c ****   {
 246:Drivers/STM32G0xx_HAL_Driver/Src/stm32g0xx_hal_dma.c ****     return HAL_ERROR;
 247:Drivers/STM32G0xx_HAL_Driver/Src/stm32g0xx_hal_dma.c ****   }
 248:Drivers/STM32G0xx_HAL_Driver/Src/stm32g0xx_hal_dma.c **** 
 249:Drivers/STM32G0xx_HAL_Driver/Src/stm32g0xx_hal_dma.c ****   /* Check the parameters */
 250:Drivers/STM32G0xx_HAL_Driver/Src/stm32g0xx_hal_dma.c ****   assert_param(IS_DMA_ALL_INSTANCE(hdma->Instance));
 251:Drivers/STM32G0xx_HAL_Driver/Src/stm32g0xx_hal_dma.c **** 
 252:Drivers/STM32G0xx_HAL_Driver/Src/stm32g0xx_hal_dma.c ****   /* Disable the selected DMA Channelx */
 253:Drivers/STM32G0xx_HAL_Driver/Src/stm32g0xx_hal_dma.c ****   __HAL_DMA_DISABLE(hdma);
 254:Drivers/STM32G0xx_HAL_Driver/Src/stm32g0xx_hal_dma.c **** 
 255:Drivers/STM32G0xx_HAL_Driver/Src/stm32g0xx_hal_dma.c ****   /* calculation of the channel index */
 256:Drivers/STM32G0xx_HAL_Driver/Src/stm32g0xx_hal_dma.c ****   hdma->ChannelIndex = (((uint32_t)hdma->Instance - (uint32_t)DMA1_Channel1) / ((uint32_t)DMA1_Chan
 257:Drivers/STM32G0xx_HAL_Driver/Src/stm32g0xx_hal_dma.c **** 
 258:Drivers/STM32G0xx_HAL_Driver/Src/stm32g0xx_hal_dma.c ****   /* Reset DMA Channel control register */
 259:Drivers/STM32G0xx_HAL_Driver/Src/stm32g0xx_hal_dma.c ****   hdma->Instance->CCR  = 0U;
 260:Drivers/STM32G0xx_HAL_Driver/Src/stm32g0xx_hal_dma.c **** 
ARM GAS  /tmp/ccWiXf77.s 			page 6


 261:Drivers/STM32G0xx_HAL_Driver/Src/stm32g0xx_hal_dma.c ****   /* Clear all flags */
 262:Drivers/STM32G0xx_HAL_Driver/Src/stm32g0xx_hal_dma.c ****   __HAL_DMA_CLEAR_FLAG(hdma, (DMA_FLAG_GI1 << (hdma->ChannelIndex & 0x1cU)));
 263:Drivers/STM32G0xx_HAL_Driver/Src/stm32g0xx_hal_dma.c **** 
 264:Drivers/STM32G0xx_HAL_Driver/Src/stm32g0xx_hal_dma.c ****   /* Initialize parameters for DMAMUX channel :
 265:Drivers/STM32G0xx_HAL_Driver/Src/stm32g0xx_hal_dma.c ****      DMAmuxChannel, DMAmuxChannelStatus and DMAmuxChannelStatusMask */
 266:Drivers/STM32G0xx_HAL_Driver/Src/stm32g0xx_hal_dma.c **** 
 267:Drivers/STM32G0xx_HAL_Driver/Src/stm32g0xx_hal_dma.c ****   DMA_CalcDMAMUXChannelBaseAndMask(hdma);
 268:Drivers/STM32G0xx_HAL_Driver/Src/stm32g0xx_hal_dma.c **** 
 269:Drivers/STM32G0xx_HAL_Driver/Src/stm32g0xx_hal_dma.c ****   /* Reset the DMAMUX channel that corresponds to the DMA channel */
 270:Drivers/STM32G0xx_HAL_Driver/Src/stm32g0xx_hal_dma.c ****   hdma->DMAmuxChannel->CCR = 0U;
 271:Drivers/STM32G0xx_HAL_Driver/Src/stm32g0xx_hal_dma.c **** 
 272:Drivers/STM32G0xx_HAL_Driver/Src/stm32g0xx_hal_dma.c ****   /* Clear the DMAMUX synchro overrun flag */
 273:Drivers/STM32G0xx_HAL_Driver/Src/stm32g0xx_hal_dma.c ****   hdma->DMAmuxChannelStatus->CFR = hdma->DMAmuxChannelStatusMask;
 274:Drivers/STM32G0xx_HAL_Driver/Src/stm32g0xx_hal_dma.c **** 
 275:Drivers/STM32G0xx_HAL_Driver/Src/stm32g0xx_hal_dma.c ****   /* Reset Request generator parameters if any */
 276:Drivers/STM32G0xx_HAL_Driver/Src/stm32g0xx_hal_dma.c ****   if (((hdma->Init.Request >  0UL) && (hdma->Init.Request <= DMA_REQUEST_GENERATOR3)))
 277:Drivers/STM32G0xx_HAL_Driver/Src/stm32g0xx_hal_dma.c ****   {
 278:Drivers/STM32G0xx_HAL_Driver/Src/stm32g0xx_hal_dma.c ****     /* Initialize parameters for DMAMUX request generator :
 279:Drivers/STM32G0xx_HAL_Driver/Src/stm32g0xx_hal_dma.c ****        DMAmuxRequestGen, DMAmuxRequestGenStatus and DMAmuxRequestGenStatusMask
 280:Drivers/STM32G0xx_HAL_Driver/Src/stm32g0xx_hal_dma.c ****     */
 281:Drivers/STM32G0xx_HAL_Driver/Src/stm32g0xx_hal_dma.c ****     DMA_CalcDMAMUXRequestGenBaseAndMask(hdma);
 282:Drivers/STM32G0xx_HAL_Driver/Src/stm32g0xx_hal_dma.c **** 
 283:Drivers/STM32G0xx_HAL_Driver/Src/stm32g0xx_hal_dma.c ****     /* Reset the DMAMUX request generator register*/
 284:Drivers/STM32G0xx_HAL_Driver/Src/stm32g0xx_hal_dma.c ****     hdma->DMAmuxRequestGen->RGCR = 0U;
 285:Drivers/STM32G0xx_HAL_Driver/Src/stm32g0xx_hal_dma.c **** 
 286:Drivers/STM32G0xx_HAL_Driver/Src/stm32g0xx_hal_dma.c ****     /* Clear the DMAMUX request generator overrun flag */
 287:Drivers/STM32G0xx_HAL_Driver/Src/stm32g0xx_hal_dma.c ****     hdma->DMAmuxRequestGenStatus->RGCFR = hdma->DMAmuxRequestGenStatusMask;
 288:Drivers/STM32G0xx_HAL_Driver/Src/stm32g0xx_hal_dma.c ****   }
 289:Drivers/STM32G0xx_HAL_Driver/Src/stm32g0xx_hal_dma.c **** 
 290:Drivers/STM32G0xx_HAL_Driver/Src/stm32g0xx_hal_dma.c ****   /* Clean callbacks */
 291:Drivers/STM32G0xx_HAL_Driver/Src/stm32g0xx_hal_dma.c ****   hdma->XferCpltCallback = NULL;
 292:Drivers/STM32G0xx_HAL_Driver/Src/stm32g0xx_hal_dma.c ****   hdma->XferHalfCpltCallback = NULL;
 293:Drivers/STM32G0xx_HAL_Driver/Src/stm32g0xx_hal_dma.c ****   hdma->XferErrorCallback = NULL;
 294:Drivers/STM32G0xx_HAL_Driver/Src/stm32g0xx_hal_dma.c ****   hdma->XferAbortCallback = NULL;
 295:Drivers/STM32G0xx_HAL_Driver/Src/stm32g0xx_hal_dma.c **** 
 296:Drivers/STM32G0xx_HAL_Driver/Src/stm32g0xx_hal_dma.c ****   hdma->DMAmuxRequestGen = 0U;
 297:Drivers/STM32G0xx_HAL_Driver/Src/stm32g0xx_hal_dma.c ****   hdma->DMAmuxRequestGenStatus = 0U;
 298:Drivers/STM32G0xx_HAL_Driver/Src/stm32g0xx_hal_dma.c ****   hdma->DMAmuxRequestGenStatusMask = 0U;
 299:Drivers/STM32G0xx_HAL_Driver/Src/stm32g0xx_hal_dma.c **** 
 300:Drivers/STM32G0xx_HAL_Driver/Src/stm32g0xx_hal_dma.c ****   /* Initialize the error code */
 301:Drivers/STM32G0xx_HAL_Driver/Src/stm32g0xx_hal_dma.c ****   hdma->ErrorCode = HAL_DMA_ERROR_NONE;
 302:Drivers/STM32G0xx_HAL_Driver/Src/stm32g0xx_hal_dma.c **** 
 303:Drivers/STM32G0xx_HAL_Driver/Src/stm32g0xx_hal_dma.c ****   /* Initialize the DMA state */
 304:Drivers/STM32G0xx_HAL_Driver/Src/stm32g0xx_hal_dma.c ****   hdma->State = HAL_DMA_STATE_RESET;
 305:Drivers/STM32G0xx_HAL_Driver/Src/stm32g0xx_hal_dma.c **** 
 306:Drivers/STM32G0xx_HAL_Driver/Src/stm32g0xx_hal_dma.c ****   /* Release Lock */
 307:Drivers/STM32G0xx_HAL_Driver/Src/stm32g0xx_hal_dma.c ****   __HAL_UNLOCK(hdma);
 308:Drivers/STM32G0xx_HAL_Driver/Src/stm32g0xx_hal_dma.c **** 
 309:Drivers/STM32G0xx_HAL_Driver/Src/stm32g0xx_hal_dma.c ****   return HAL_OK;
 310:Drivers/STM32G0xx_HAL_Driver/Src/stm32g0xx_hal_dma.c **** }
 311:Drivers/STM32G0xx_HAL_Driver/Src/stm32g0xx_hal_dma.c **** 
 312:Drivers/STM32G0xx_HAL_Driver/Src/stm32g0xx_hal_dma.c **** /**
 313:Drivers/STM32G0xx_HAL_Driver/Src/stm32g0xx_hal_dma.c ****   * @}
 314:Drivers/STM32G0xx_HAL_Driver/Src/stm32g0xx_hal_dma.c ****   */
 315:Drivers/STM32G0xx_HAL_Driver/Src/stm32g0xx_hal_dma.c **** 
 316:Drivers/STM32G0xx_HAL_Driver/Src/stm32g0xx_hal_dma.c **** /** @defgroup DMA_Exported_Functions_Group2 Input and Output operation functions
 317:Drivers/STM32G0xx_HAL_Driver/Src/stm32g0xx_hal_dma.c ****  *  @brief   Input and Output operation functions
ARM GAS  /tmp/ccWiXf77.s 			page 7


 318:Drivers/STM32G0xx_HAL_Driver/Src/stm32g0xx_hal_dma.c ****  *
 319:Drivers/STM32G0xx_HAL_Driver/Src/stm32g0xx_hal_dma.c **** @verbatim
 320:Drivers/STM32G0xx_HAL_Driver/Src/stm32g0xx_hal_dma.c ****  ===============================================================================
 321:Drivers/STM32G0xx_HAL_Driver/Src/stm32g0xx_hal_dma.c ****                       #####  IO operation functions  #####
 322:Drivers/STM32G0xx_HAL_Driver/Src/stm32g0xx_hal_dma.c ****  ===============================================================================
 323:Drivers/STM32G0xx_HAL_Driver/Src/stm32g0xx_hal_dma.c ****     [..]  This section provides functions allowing to:
 324:Drivers/STM32G0xx_HAL_Driver/Src/stm32g0xx_hal_dma.c ****       (+) Configure the source, destination address and data length and Start DMA transfer
 325:Drivers/STM32G0xx_HAL_Driver/Src/stm32g0xx_hal_dma.c ****       (+) Configure the source, destination address and data length and
 326:Drivers/STM32G0xx_HAL_Driver/Src/stm32g0xx_hal_dma.c ****           Start DMA transfer with interrupt
 327:Drivers/STM32G0xx_HAL_Driver/Src/stm32g0xx_hal_dma.c ****       (+) Abort DMA transfer
 328:Drivers/STM32G0xx_HAL_Driver/Src/stm32g0xx_hal_dma.c ****       (+) Poll for transfer complete
 329:Drivers/STM32G0xx_HAL_Driver/Src/stm32g0xx_hal_dma.c ****       (+) Handle DMA interrupt request
 330:Drivers/STM32G0xx_HAL_Driver/Src/stm32g0xx_hal_dma.c **** 
 331:Drivers/STM32G0xx_HAL_Driver/Src/stm32g0xx_hal_dma.c **** @endverbatim
 332:Drivers/STM32G0xx_HAL_Driver/Src/stm32g0xx_hal_dma.c ****   * @{
 333:Drivers/STM32G0xx_HAL_Driver/Src/stm32g0xx_hal_dma.c ****   */
 334:Drivers/STM32G0xx_HAL_Driver/Src/stm32g0xx_hal_dma.c **** 
 335:Drivers/STM32G0xx_HAL_Driver/Src/stm32g0xx_hal_dma.c **** /**
 336:Drivers/STM32G0xx_HAL_Driver/Src/stm32g0xx_hal_dma.c ****   * @brief  Start the DMA Transfer.
 337:Drivers/STM32G0xx_HAL_Driver/Src/stm32g0xx_hal_dma.c ****   * @param hdma Pointer to a DMA_HandleTypeDef structure that contains
 338:Drivers/STM32G0xx_HAL_Driver/Src/stm32g0xx_hal_dma.c ****   *               the configuration information for the specified DMA Channel.
 339:Drivers/STM32G0xx_HAL_Driver/Src/stm32g0xx_hal_dma.c ****   * @param SrcAddress The source memory Buffer address
 340:Drivers/STM32G0xx_HAL_Driver/Src/stm32g0xx_hal_dma.c ****   * @param DstAddress The destination memory Buffer address
 341:Drivers/STM32G0xx_HAL_Driver/Src/stm32g0xx_hal_dma.c ****   * @param DataLength The length of data to be transferred from source to destination
 342:Drivers/STM32G0xx_HAL_Driver/Src/stm32g0xx_hal_dma.c ****   * @retval HAL status
 343:Drivers/STM32G0xx_HAL_Driver/Src/stm32g0xx_hal_dma.c ****   */
 344:Drivers/STM32G0xx_HAL_Driver/Src/stm32g0xx_hal_dma.c **** HAL_StatusTypeDef HAL_DMA_Start(DMA_HandleTypeDef *hdma, uint32_t SrcAddress, uint32_t DstAddress, 
 345:Drivers/STM32G0xx_HAL_Driver/Src/stm32g0xx_hal_dma.c **** {
 346:Drivers/STM32G0xx_HAL_Driver/Src/stm32g0xx_hal_dma.c ****   HAL_StatusTypeDef status = HAL_OK;
 347:Drivers/STM32G0xx_HAL_Driver/Src/stm32g0xx_hal_dma.c **** 
 348:Drivers/STM32G0xx_HAL_Driver/Src/stm32g0xx_hal_dma.c ****   /* Check the parameters */
 349:Drivers/STM32G0xx_HAL_Driver/Src/stm32g0xx_hal_dma.c ****   assert_param(IS_DMA_BUFFER_SIZE(DataLength));
 350:Drivers/STM32G0xx_HAL_Driver/Src/stm32g0xx_hal_dma.c **** 
 351:Drivers/STM32G0xx_HAL_Driver/Src/stm32g0xx_hal_dma.c ****   /* Process locked */
 352:Drivers/STM32G0xx_HAL_Driver/Src/stm32g0xx_hal_dma.c ****   __HAL_LOCK(hdma);
 353:Drivers/STM32G0xx_HAL_Driver/Src/stm32g0xx_hal_dma.c **** 
 354:Drivers/STM32G0xx_HAL_Driver/Src/stm32g0xx_hal_dma.c ****   if (HAL_DMA_STATE_READY == hdma->State)
 355:Drivers/STM32G0xx_HAL_Driver/Src/stm32g0xx_hal_dma.c ****   {
 356:Drivers/STM32G0xx_HAL_Driver/Src/stm32g0xx_hal_dma.c ****     /* Change DMA peripheral state */
 357:Drivers/STM32G0xx_HAL_Driver/Src/stm32g0xx_hal_dma.c ****     hdma->State = HAL_DMA_STATE_BUSY;
 358:Drivers/STM32G0xx_HAL_Driver/Src/stm32g0xx_hal_dma.c ****     hdma->ErrorCode = HAL_DMA_ERROR_NONE;
 359:Drivers/STM32G0xx_HAL_Driver/Src/stm32g0xx_hal_dma.c **** 
 360:Drivers/STM32G0xx_HAL_Driver/Src/stm32g0xx_hal_dma.c ****     /* Disable the peripheral */
 361:Drivers/STM32G0xx_HAL_Driver/Src/stm32g0xx_hal_dma.c ****     __HAL_DMA_DISABLE(hdma);
 362:Drivers/STM32G0xx_HAL_Driver/Src/stm32g0xx_hal_dma.c **** 
 363:Drivers/STM32G0xx_HAL_Driver/Src/stm32g0xx_hal_dma.c ****     /* Configure the source, destination address and the data length & clear flags*/
 364:Drivers/STM32G0xx_HAL_Driver/Src/stm32g0xx_hal_dma.c ****     DMA_SetConfig(hdma, SrcAddress, DstAddress, DataLength);
 365:Drivers/STM32G0xx_HAL_Driver/Src/stm32g0xx_hal_dma.c **** 
 366:Drivers/STM32G0xx_HAL_Driver/Src/stm32g0xx_hal_dma.c ****     /* Enable the Peripheral */
 367:Drivers/STM32G0xx_HAL_Driver/Src/stm32g0xx_hal_dma.c ****     __HAL_DMA_ENABLE(hdma);
 368:Drivers/STM32G0xx_HAL_Driver/Src/stm32g0xx_hal_dma.c ****   }
 369:Drivers/STM32G0xx_HAL_Driver/Src/stm32g0xx_hal_dma.c ****   else
 370:Drivers/STM32G0xx_HAL_Driver/Src/stm32g0xx_hal_dma.c ****   {
 371:Drivers/STM32G0xx_HAL_Driver/Src/stm32g0xx_hal_dma.c ****     /* Process Unlocked */
 372:Drivers/STM32G0xx_HAL_Driver/Src/stm32g0xx_hal_dma.c ****     __HAL_UNLOCK(hdma);
 373:Drivers/STM32G0xx_HAL_Driver/Src/stm32g0xx_hal_dma.c ****     status = HAL_BUSY;
 374:Drivers/STM32G0xx_HAL_Driver/Src/stm32g0xx_hal_dma.c ****   }
ARM GAS  /tmp/ccWiXf77.s 			page 8


 375:Drivers/STM32G0xx_HAL_Driver/Src/stm32g0xx_hal_dma.c **** 
 376:Drivers/STM32G0xx_HAL_Driver/Src/stm32g0xx_hal_dma.c ****   /* Process locked */
 377:Drivers/STM32G0xx_HAL_Driver/Src/stm32g0xx_hal_dma.c ****   __HAL_UNLOCK(hdma);
 378:Drivers/STM32G0xx_HAL_Driver/Src/stm32g0xx_hal_dma.c **** 
 379:Drivers/STM32G0xx_HAL_Driver/Src/stm32g0xx_hal_dma.c ****   return status;
 380:Drivers/STM32G0xx_HAL_Driver/Src/stm32g0xx_hal_dma.c **** }
 381:Drivers/STM32G0xx_HAL_Driver/Src/stm32g0xx_hal_dma.c **** 
 382:Drivers/STM32G0xx_HAL_Driver/Src/stm32g0xx_hal_dma.c **** /**
 383:Drivers/STM32G0xx_HAL_Driver/Src/stm32g0xx_hal_dma.c ****   * @brief  Start the DMA Transfer with interrupt enabled.
 384:Drivers/STM32G0xx_HAL_Driver/Src/stm32g0xx_hal_dma.c ****   * @param hdma Pointer to a DMA_HandleTypeDef structure that contains
 385:Drivers/STM32G0xx_HAL_Driver/Src/stm32g0xx_hal_dma.c ****   *               the configuration information for the specified DMA Channel.
 386:Drivers/STM32G0xx_HAL_Driver/Src/stm32g0xx_hal_dma.c ****   * @param SrcAddress The source memory Buffer address
 387:Drivers/STM32G0xx_HAL_Driver/Src/stm32g0xx_hal_dma.c ****   * @param DstAddress The destination memory Buffer address
 388:Drivers/STM32G0xx_HAL_Driver/Src/stm32g0xx_hal_dma.c ****   * @param DataLength The length of data to be transferred from source to destination
 389:Drivers/STM32G0xx_HAL_Driver/Src/stm32g0xx_hal_dma.c ****   * @retval HAL status
 390:Drivers/STM32G0xx_HAL_Driver/Src/stm32g0xx_hal_dma.c ****   */
 391:Drivers/STM32G0xx_HAL_Driver/Src/stm32g0xx_hal_dma.c **** HAL_StatusTypeDef HAL_DMA_Start_IT(DMA_HandleTypeDef *hdma, uint32_t SrcAddress, uint32_t DstAddres
 392:Drivers/STM32G0xx_HAL_Driver/Src/stm32g0xx_hal_dma.c **** {
 393:Drivers/STM32G0xx_HAL_Driver/Src/stm32g0xx_hal_dma.c ****   HAL_StatusTypeDef status = HAL_OK;
 394:Drivers/STM32G0xx_HAL_Driver/Src/stm32g0xx_hal_dma.c **** 
 395:Drivers/STM32G0xx_HAL_Driver/Src/stm32g0xx_hal_dma.c ****   /* Check the parameters */
 396:Drivers/STM32G0xx_HAL_Driver/Src/stm32g0xx_hal_dma.c ****   assert_param(IS_DMA_BUFFER_SIZE(DataLength));
 397:Drivers/STM32G0xx_HAL_Driver/Src/stm32g0xx_hal_dma.c **** 
 398:Drivers/STM32G0xx_HAL_Driver/Src/stm32g0xx_hal_dma.c ****   /* Process locked */
 399:Drivers/STM32G0xx_HAL_Driver/Src/stm32g0xx_hal_dma.c ****   __HAL_LOCK(hdma);
 400:Drivers/STM32G0xx_HAL_Driver/Src/stm32g0xx_hal_dma.c **** 
 401:Drivers/STM32G0xx_HAL_Driver/Src/stm32g0xx_hal_dma.c ****   if (HAL_DMA_STATE_READY == hdma->State)
 402:Drivers/STM32G0xx_HAL_Driver/Src/stm32g0xx_hal_dma.c ****   {
 403:Drivers/STM32G0xx_HAL_Driver/Src/stm32g0xx_hal_dma.c ****     /* Change DMA peripheral state */
 404:Drivers/STM32G0xx_HAL_Driver/Src/stm32g0xx_hal_dma.c ****     hdma->State = HAL_DMA_STATE_BUSY;
 405:Drivers/STM32G0xx_HAL_Driver/Src/stm32g0xx_hal_dma.c ****     hdma->ErrorCode = HAL_DMA_ERROR_NONE;
 406:Drivers/STM32G0xx_HAL_Driver/Src/stm32g0xx_hal_dma.c **** 
 407:Drivers/STM32G0xx_HAL_Driver/Src/stm32g0xx_hal_dma.c ****     /* Disable the peripheral */
 408:Drivers/STM32G0xx_HAL_Driver/Src/stm32g0xx_hal_dma.c ****     __HAL_DMA_DISABLE(hdma);
 409:Drivers/STM32G0xx_HAL_Driver/Src/stm32g0xx_hal_dma.c **** 
 410:Drivers/STM32G0xx_HAL_Driver/Src/stm32g0xx_hal_dma.c ****     /* Configure the source, destination address and the data length & clear flags*/
 411:Drivers/STM32G0xx_HAL_Driver/Src/stm32g0xx_hal_dma.c ****     DMA_SetConfig(hdma, SrcAddress, DstAddress, DataLength);
 412:Drivers/STM32G0xx_HAL_Driver/Src/stm32g0xx_hal_dma.c **** 
 413:Drivers/STM32G0xx_HAL_Driver/Src/stm32g0xx_hal_dma.c ****     /* Enable the transfer complete interrupt */
 414:Drivers/STM32G0xx_HAL_Driver/Src/stm32g0xx_hal_dma.c ****     /* Enable the transfer Error interrupt */
 415:Drivers/STM32G0xx_HAL_Driver/Src/stm32g0xx_hal_dma.c ****     if (NULL != hdma->XferHalfCpltCallback)
 416:Drivers/STM32G0xx_HAL_Driver/Src/stm32g0xx_hal_dma.c ****     {
 417:Drivers/STM32G0xx_HAL_Driver/Src/stm32g0xx_hal_dma.c ****       /* Enable the Half transfer complete interrupt as well */
 418:Drivers/STM32G0xx_HAL_Driver/Src/stm32g0xx_hal_dma.c ****       __HAL_DMA_ENABLE_IT(hdma, (DMA_IT_TC | DMA_IT_HT | DMA_IT_TE));
 419:Drivers/STM32G0xx_HAL_Driver/Src/stm32g0xx_hal_dma.c ****     }
 420:Drivers/STM32G0xx_HAL_Driver/Src/stm32g0xx_hal_dma.c ****     else
 421:Drivers/STM32G0xx_HAL_Driver/Src/stm32g0xx_hal_dma.c ****     {
 422:Drivers/STM32G0xx_HAL_Driver/Src/stm32g0xx_hal_dma.c ****       __HAL_DMA_DISABLE_IT(hdma, DMA_IT_HT);
 423:Drivers/STM32G0xx_HAL_Driver/Src/stm32g0xx_hal_dma.c ****       __HAL_DMA_ENABLE_IT(hdma, (DMA_IT_TC | DMA_IT_TE));
 424:Drivers/STM32G0xx_HAL_Driver/Src/stm32g0xx_hal_dma.c ****     }
 425:Drivers/STM32G0xx_HAL_Driver/Src/stm32g0xx_hal_dma.c **** 
 426:Drivers/STM32G0xx_HAL_Driver/Src/stm32g0xx_hal_dma.c ****     /* Check if DMAMUX Synchronization is enabled*/
 427:Drivers/STM32G0xx_HAL_Driver/Src/stm32g0xx_hal_dma.c ****     if ((hdma->DMAmuxChannel->CCR & DMAMUX_CxCR_SE) != 0U)
 428:Drivers/STM32G0xx_HAL_Driver/Src/stm32g0xx_hal_dma.c ****     {
 429:Drivers/STM32G0xx_HAL_Driver/Src/stm32g0xx_hal_dma.c ****       /* Enable DMAMUX sync overrun IT*/
 430:Drivers/STM32G0xx_HAL_Driver/Src/stm32g0xx_hal_dma.c ****       hdma->DMAmuxChannel->CCR |= DMAMUX_CxCR_SOIE;
 431:Drivers/STM32G0xx_HAL_Driver/Src/stm32g0xx_hal_dma.c ****     }
ARM GAS  /tmp/ccWiXf77.s 			page 9


 432:Drivers/STM32G0xx_HAL_Driver/Src/stm32g0xx_hal_dma.c **** 
 433:Drivers/STM32G0xx_HAL_Driver/Src/stm32g0xx_hal_dma.c ****     if (hdma->DMAmuxRequestGen != 0U)
 434:Drivers/STM32G0xx_HAL_Driver/Src/stm32g0xx_hal_dma.c ****     {
 435:Drivers/STM32G0xx_HAL_Driver/Src/stm32g0xx_hal_dma.c ****       /* if using DMAMUX request generator, enable the DMAMUX request generator overrun IT*/
 436:Drivers/STM32G0xx_HAL_Driver/Src/stm32g0xx_hal_dma.c ****       /* enable the request gen overrun IT*/
 437:Drivers/STM32G0xx_HAL_Driver/Src/stm32g0xx_hal_dma.c ****       hdma->DMAmuxRequestGen->RGCR |= DMAMUX_RGxCR_OIE;
 438:Drivers/STM32G0xx_HAL_Driver/Src/stm32g0xx_hal_dma.c ****     }
 439:Drivers/STM32G0xx_HAL_Driver/Src/stm32g0xx_hal_dma.c **** 
 440:Drivers/STM32G0xx_HAL_Driver/Src/stm32g0xx_hal_dma.c ****     /* Enable the Peripheral */
 441:Drivers/STM32G0xx_HAL_Driver/Src/stm32g0xx_hal_dma.c ****     __HAL_DMA_ENABLE(hdma);
 442:Drivers/STM32G0xx_HAL_Driver/Src/stm32g0xx_hal_dma.c ****   }
 443:Drivers/STM32G0xx_HAL_Driver/Src/stm32g0xx_hal_dma.c ****   else
 444:Drivers/STM32G0xx_HAL_Driver/Src/stm32g0xx_hal_dma.c ****   {
 445:Drivers/STM32G0xx_HAL_Driver/Src/stm32g0xx_hal_dma.c ****     /* Process Unlocked */
 446:Drivers/STM32G0xx_HAL_Driver/Src/stm32g0xx_hal_dma.c ****     __HAL_UNLOCK(hdma);
 447:Drivers/STM32G0xx_HAL_Driver/Src/stm32g0xx_hal_dma.c **** 
 448:Drivers/STM32G0xx_HAL_Driver/Src/stm32g0xx_hal_dma.c ****     /* Remain BUSY */
 449:Drivers/STM32G0xx_HAL_Driver/Src/stm32g0xx_hal_dma.c ****     status = HAL_BUSY;
 450:Drivers/STM32G0xx_HAL_Driver/Src/stm32g0xx_hal_dma.c ****   }
 451:Drivers/STM32G0xx_HAL_Driver/Src/stm32g0xx_hal_dma.c **** 
 452:Drivers/STM32G0xx_HAL_Driver/Src/stm32g0xx_hal_dma.c ****   /* Process unlocked */
 453:Drivers/STM32G0xx_HAL_Driver/Src/stm32g0xx_hal_dma.c ****   __HAL_UNLOCK(hdma);
 454:Drivers/STM32G0xx_HAL_Driver/Src/stm32g0xx_hal_dma.c **** 
 455:Drivers/STM32G0xx_HAL_Driver/Src/stm32g0xx_hal_dma.c ****   return status;
 456:Drivers/STM32G0xx_HAL_Driver/Src/stm32g0xx_hal_dma.c **** }
 457:Drivers/STM32G0xx_HAL_Driver/Src/stm32g0xx_hal_dma.c **** 
 458:Drivers/STM32G0xx_HAL_Driver/Src/stm32g0xx_hal_dma.c **** /**
 459:Drivers/STM32G0xx_HAL_Driver/Src/stm32g0xx_hal_dma.c ****   * @brief  Abort the DMA Transfer.
 460:Drivers/STM32G0xx_HAL_Driver/Src/stm32g0xx_hal_dma.c ****   * @param hdma Pointer to a DMA_HandleTypeDef structure that contains
 461:Drivers/STM32G0xx_HAL_Driver/Src/stm32g0xx_hal_dma.c ****   *               the configuration information for the specified DMA Channel.
 462:Drivers/STM32G0xx_HAL_Driver/Src/stm32g0xx_hal_dma.c ****     * @retval HAL status
 463:Drivers/STM32G0xx_HAL_Driver/Src/stm32g0xx_hal_dma.c ****   */
 464:Drivers/STM32G0xx_HAL_Driver/Src/stm32g0xx_hal_dma.c **** HAL_StatusTypeDef HAL_DMA_Abort(DMA_HandleTypeDef *hdma)
 465:Drivers/STM32G0xx_HAL_Driver/Src/stm32g0xx_hal_dma.c **** {
 466:Drivers/STM32G0xx_HAL_Driver/Src/stm32g0xx_hal_dma.c ****   /* Check the DMA peripheral handle */
 467:Drivers/STM32G0xx_HAL_Driver/Src/stm32g0xx_hal_dma.c ****   if (NULL == hdma)
 468:Drivers/STM32G0xx_HAL_Driver/Src/stm32g0xx_hal_dma.c ****   {
 469:Drivers/STM32G0xx_HAL_Driver/Src/stm32g0xx_hal_dma.c ****     return HAL_ERROR;
 470:Drivers/STM32G0xx_HAL_Driver/Src/stm32g0xx_hal_dma.c ****   }
 471:Drivers/STM32G0xx_HAL_Driver/Src/stm32g0xx_hal_dma.c **** 
 472:Drivers/STM32G0xx_HAL_Driver/Src/stm32g0xx_hal_dma.c ****   /* Check the DMA peripheral state */
 473:Drivers/STM32G0xx_HAL_Driver/Src/stm32g0xx_hal_dma.c ****   if(hdma->State != HAL_DMA_STATE_BUSY)
 474:Drivers/STM32G0xx_HAL_Driver/Src/stm32g0xx_hal_dma.c ****   {
 475:Drivers/STM32G0xx_HAL_Driver/Src/stm32g0xx_hal_dma.c ****     hdma->ErrorCode = HAL_DMA_ERROR_NO_XFER;
 476:Drivers/STM32G0xx_HAL_Driver/Src/stm32g0xx_hal_dma.c **** 
 477:Drivers/STM32G0xx_HAL_Driver/Src/stm32g0xx_hal_dma.c ****     /* Process Unlocked */
 478:Drivers/STM32G0xx_HAL_Driver/Src/stm32g0xx_hal_dma.c ****     __HAL_UNLOCK(hdma);
 479:Drivers/STM32G0xx_HAL_Driver/Src/stm32g0xx_hal_dma.c **** 
 480:Drivers/STM32G0xx_HAL_Driver/Src/stm32g0xx_hal_dma.c ****     return HAL_ERROR;
 481:Drivers/STM32G0xx_HAL_Driver/Src/stm32g0xx_hal_dma.c ****   }
 482:Drivers/STM32G0xx_HAL_Driver/Src/stm32g0xx_hal_dma.c ****   else
 483:Drivers/STM32G0xx_HAL_Driver/Src/stm32g0xx_hal_dma.c ****   {
 484:Drivers/STM32G0xx_HAL_Driver/Src/stm32g0xx_hal_dma.c ****     /* Disable DMA IT */
 485:Drivers/STM32G0xx_HAL_Driver/Src/stm32g0xx_hal_dma.c ****     __HAL_DMA_DISABLE_IT(hdma, (DMA_IT_TC | DMA_IT_HT | DMA_IT_TE));
 486:Drivers/STM32G0xx_HAL_Driver/Src/stm32g0xx_hal_dma.c **** 
 487:Drivers/STM32G0xx_HAL_Driver/Src/stm32g0xx_hal_dma.c ****     /* disable the DMAMUX sync overrun IT*/
 488:Drivers/STM32G0xx_HAL_Driver/Src/stm32g0xx_hal_dma.c ****     hdma->DMAmuxChannel->CCR &= ~DMAMUX_CxCR_SOIE;
ARM GAS  /tmp/ccWiXf77.s 			page 10


 489:Drivers/STM32G0xx_HAL_Driver/Src/stm32g0xx_hal_dma.c **** 
 490:Drivers/STM32G0xx_HAL_Driver/Src/stm32g0xx_hal_dma.c ****     /* Disable the channel */
 491:Drivers/STM32G0xx_HAL_Driver/Src/stm32g0xx_hal_dma.c ****     __HAL_DMA_DISABLE(hdma);
 492:Drivers/STM32G0xx_HAL_Driver/Src/stm32g0xx_hal_dma.c **** 
 493:Drivers/STM32G0xx_HAL_Driver/Src/stm32g0xx_hal_dma.c ****     /* Clear all flags */
 494:Drivers/STM32G0xx_HAL_Driver/Src/stm32g0xx_hal_dma.c ****     __HAL_DMA_CLEAR_FLAG(hdma, ((DMA_FLAG_GI1) << (hdma->ChannelIndex  & 0x1cU)));
 495:Drivers/STM32G0xx_HAL_Driver/Src/stm32g0xx_hal_dma.c **** 
 496:Drivers/STM32G0xx_HAL_Driver/Src/stm32g0xx_hal_dma.c ****     /* Clear the DMAMUX synchro overrun flag */
 497:Drivers/STM32G0xx_HAL_Driver/Src/stm32g0xx_hal_dma.c ****     hdma->DMAmuxChannelStatus->CFR = hdma->DMAmuxChannelStatusMask;
 498:Drivers/STM32G0xx_HAL_Driver/Src/stm32g0xx_hal_dma.c **** 
 499:Drivers/STM32G0xx_HAL_Driver/Src/stm32g0xx_hal_dma.c ****     if (hdma->DMAmuxRequestGen != 0U)
 500:Drivers/STM32G0xx_HAL_Driver/Src/stm32g0xx_hal_dma.c ****     {
 501:Drivers/STM32G0xx_HAL_Driver/Src/stm32g0xx_hal_dma.c ****       /* if using DMAMUX request generator, disable the DMAMUX request generator overrun IT*/
 502:Drivers/STM32G0xx_HAL_Driver/Src/stm32g0xx_hal_dma.c ****       /* disable the request gen overrun IT*/
 503:Drivers/STM32G0xx_HAL_Driver/Src/stm32g0xx_hal_dma.c ****       hdma->DMAmuxRequestGen->RGCR &= ~DMAMUX_RGxCR_OIE;
 504:Drivers/STM32G0xx_HAL_Driver/Src/stm32g0xx_hal_dma.c **** 
 505:Drivers/STM32G0xx_HAL_Driver/Src/stm32g0xx_hal_dma.c ****       /* Clear the DMAMUX request generator overrun flag */
 506:Drivers/STM32G0xx_HAL_Driver/Src/stm32g0xx_hal_dma.c ****       hdma->DMAmuxRequestGenStatus->RGCFR = hdma->DMAmuxRequestGenStatusMask;
 507:Drivers/STM32G0xx_HAL_Driver/Src/stm32g0xx_hal_dma.c ****     }
 508:Drivers/STM32G0xx_HAL_Driver/Src/stm32g0xx_hal_dma.c **** 
 509:Drivers/STM32G0xx_HAL_Driver/Src/stm32g0xx_hal_dma.c ****     /* Change the DMA state */
 510:Drivers/STM32G0xx_HAL_Driver/Src/stm32g0xx_hal_dma.c ****     hdma->State = HAL_DMA_STATE_READY;
 511:Drivers/STM32G0xx_HAL_Driver/Src/stm32g0xx_hal_dma.c **** 
 512:Drivers/STM32G0xx_HAL_Driver/Src/stm32g0xx_hal_dma.c ****     /* Process Unlocked */
 513:Drivers/STM32G0xx_HAL_Driver/Src/stm32g0xx_hal_dma.c ****     __HAL_UNLOCK(hdma);
 514:Drivers/STM32G0xx_HAL_Driver/Src/stm32g0xx_hal_dma.c ****   }
 515:Drivers/STM32G0xx_HAL_Driver/Src/stm32g0xx_hal_dma.c **** 
 516:Drivers/STM32G0xx_HAL_Driver/Src/stm32g0xx_hal_dma.c ****   return HAL_OK;
 517:Drivers/STM32G0xx_HAL_Driver/Src/stm32g0xx_hal_dma.c **** }
 518:Drivers/STM32G0xx_HAL_Driver/Src/stm32g0xx_hal_dma.c **** 
 519:Drivers/STM32G0xx_HAL_Driver/Src/stm32g0xx_hal_dma.c **** /**
 520:Drivers/STM32G0xx_HAL_Driver/Src/stm32g0xx_hal_dma.c ****   * @brief  Aborts the DMA Transfer in Interrupt mode.
 521:Drivers/STM32G0xx_HAL_Driver/Src/stm32g0xx_hal_dma.c ****   * @param  hdma    pointer to a DMA_HandleTypeDef structure that contains
 522:Drivers/STM32G0xx_HAL_Driver/Src/stm32g0xx_hal_dma.c ****   *                 the configuration information for the specified DMA Stream.
 523:Drivers/STM32G0xx_HAL_Driver/Src/stm32g0xx_hal_dma.c ****   * @retval HAL status
 524:Drivers/STM32G0xx_HAL_Driver/Src/stm32g0xx_hal_dma.c ****   */
 525:Drivers/STM32G0xx_HAL_Driver/Src/stm32g0xx_hal_dma.c **** HAL_StatusTypeDef HAL_DMA_Abort_IT(DMA_HandleTypeDef *hdma)
 526:Drivers/STM32G0xx_HAL_Driver/Src/stm32g0xx_hal_dma.c **** {
 527:Drivers/STM32G0xx_HAL_Driver/Src/stm32g0xx_hal_dma.c ****   HAL_StatusTypeDef status = HAL_OK;
 528:Drivers/STM32G0xx_HAL_Driver/Src/stm32g0xx_hal_dma.c **** 
 529:Drivers/STM32G0xx_HAL_Driver/Src/stm32g0xx_hal_dma.c ****   /* Process Unlocked/locked */
 530:Drivers/STM32G0xx_HAL_Driver/Src/stm32g0xx_hal_dma.c ****   __HAL_UNLOCK(hdma);
 531:Drivers/STM32G0xx_HAL_Driver/Src/stm32g0xx_hal_dma.c ****   __HAL_LOCK(hdma);
 532:Drivers/STM32G0xx_HAL_Driver/Src/stm32g0xx_hal_dma.c **** 
 533:Drivers/STM32G0xx_HAL_Driver/Src/stm32g0xx_hal_dma.c ****   if (HAL_DMA_STATE_BUSY != hdma->State)
 534:Drivers/STM32G0xx_HAL_Driver/Src/stm32g0xx_hal_dma.c ****   {
 535:Drivers/STM32G0xx_HAL_Driver/Src/stm32g0xx_hal_dma.c ****     /* no transfer ongoing */
 536:Drivers/STM32G0xx_HAL_Driver/Src/stm32g0xx_hal_dma.c ****     hdma->ErrorCode = HAL_DMA_ERROR_NO_XFER;
 537:Drivers/STM32G0xx_HAL_Driver/Src/stm32g0xx_hal_dma.c **** 
 538:Drivers/STM32G0xx_HAL_Driver/Src/stm32g0xx_hal_dma.c ****     status = HAL_ERROR;
 539:Drivers/STM32G0xx_HAL_Driver/Src/stm32g0xx_hal_dma.c ****   }
 540:Drivers/STM32G0xx_HAL_Driver/Src/stm32g0xx_hal_dma.c ****   else
 541:Drivers/STM32G0xx_HAL_Driver/Src/stm32g0xx_hal_dma.c ****   {
 542:Drivers/STM32G0xx_HAL_Driver/Src/stm32g0xx_hal_dma.c ****     /* Disable DMA IT */
 543:Drivers/STM32G0xx_HAL_Driver/Src/stm32g0xx_hal_dma.c ****     __HAL_DMA_DISABLE_IT(hdma, (DMA_IT_TC | DMA_IT_HT | DMA_IT_TE));
 544:Drivers/STM32G0xx_HAL_Driver/Src/stm32g0xx_hal_dma.c **** 
 545:Drivers/STM32G0xx_HAL_Driver/Src/stm32g0xx_hal_dma.c ****     /* Disable the channel */
ARM GAS  /tmp/ccWiXf77.s 			page 11


 546:Drivers/STM32G0xx_HAL_Driver/Src/stm32g0xx_hal_dma.c ****     __HAL_DMA_DISABLE(hdma);
 547:Drivers/STM32G0xx_HAL_Driver/Src/stm32g0xx_hal_dma.c **** 
 548:Drivers/STM32G0xx_HAL_Driver/Src/stm32g0xx_hal_dma.c ****     /* disable the DMAMUX sync overrun IT*/
 549:Drivers/STM32G0xx_HAL_Driver/Src/stm32g0xx_hal_dma.c ****     hdma->DMAmuxChannel->CCR &= ~DMAMUX_CxCR_SOIE;
 550:Drivers/STM32G0xx_HAL_Driver/Src/stm32g0xx_hal_dma.c **** 
 551:Drivers/STM32G0xx_HAL_Driver/Src/stm32g0xx_hal_dma.c ****     /* Clear all flags */
 552:Drivers/STM32G0xx_HAL_Driver/Src/stm32g0xx_hal_dma.c ****     __HAL_DMA_CLEAR_FLAG(hdma, ((DMA_FLAG_GI1) << (hdma->ChannelIndex & 0x1cU)));
 553:Drivers/STM32G0xx_HAL_Driver/Src/stm32g0xx_hal_dma.c **** 
 554:Drivers/STM32G0xx_HAL_Driver/Src/stm32g0xx_hal_dma.c ****     /* Clear the DMAMUX synchro overrun flag */
 555:Drivers/STM32G0xx_HAL_Driver/Src/stm32g0xx_hal_dma.c ****     hdma->DMAmuxChannelStatus->CFR = hdma->DMAmuxChannelStatusMask;
 556:Drivers/STM32G0xx_HAL_Driver/Src/stm32g0xx_hal_dma.c **** 
 557:Drivers/STM32G0xx_HAL_Driver/Src/stm32g0xx_hal_dma.c ****     if (hdma->DMAmuxRequestGen != 0U)
 558:Drivers/STM32G0xx_HAL_Driver/Src/stm32g0xx_hal_dma.c ****     {
 559:Drivers/STM32G0xx_HAL_Driver/Src/stm32g0xx_hal_dma.c ****       /* if using DMAMUX request generator, disable the DMAMUX request generator overrun IT*/
 560:Drivers/STM32G0xx_HAL_Driver/Src/stm32g0xx_hal_dma.c ****       /* disable the request gen overrun IT*/
 561:Drivers/STM32G0xx_HAL_Driver/Src/stm32g0xx_hal_dma.c ****       hdma->DMAmuxRequestGen->RGCR &= ~DMAMUX_RGxCR_OIE;
 562:Drivers/STM32G0xx_HAL_Driver/Src/stm32g0xx_hal_dma.c **** 
 563:Drivers/STM32G0xx_HAL_Driver/Src/stm32g0xx_hal_dma.c ****       /* Clear the DMAMUX request generator overrun flag */
 564:Drivers/STM32G0xx_HAL_Driver/Src/stm32g0xx_hal_dma.c ****       hdma->DMAmuxRequestGenStatus->RGCFR = hdma->DMAmuxRequestGenStatusMask;
 565:Drivers/STM32G0xx_HAL_Driver/Src/stm32g0xx_hal_dma.c ****     }
 566:Drivers/STM32G0xx_HAL_Driver/Src/stm32g0xx_hal_dma.c **** 
 567:Drivers/STM32G0xx_HAL_Driver/Src/stm32g0xx_hal_dma.c ****     /* Change the DMA state */
 568:Drivers/STM32G0xx_HAL_Driver/Src/stm32g0xx_hal_dma.c ****     hdma->State = HAL_DMA_STATE_READY;
 569:Drivers/STM32G0xx_HAL_Driver/Src/stm32g0xx_hal_dma.c **** 
 570:Drivers/STM32G0xx_HAL_Driver/Src/stm32g0xx_hal_dma.c ****     /* Process Unlocked */
 571:Drivers/STM32G0xx_HAL_Driver/Src/stm32g0xx_hal_dma.c ****     __HAL_UNLOCK(hdma);
 572:Drivers/STM32G0xx_HAL_Driver/Src/stm32g0xx_hal_dma.c **** 
 573:Drivers/STM32G0xx_HAL_Driver/Src/stm32g0xx_hal_dma.c ****     /* Call User Abort callback */
 574:Drivers/STM32G0xx_HAL_Driver/Src/stm32g0xx_hal_dma.c ****     if (hdma->XferAbortCallback != NULL)
 575:Drivers/STM32G0xx_HAL_Driver/Src/stm32g0xx_hal_dma.c ****     {
 576:Drivers/STM32G0xx_HAL_Driver/Src/stm32g0xx_hal_dma.c ****       hdma->XferAbortCallback(hdma);
 577:Drivers/STM32G0xx_HAL_Driver/Src/stm32g0xx_hal_dma.c ****     }
 578:Drivers/STM32G0xx_HAL_Driver/Src/stm32g0xx_hal_dma.c ****   }
 579:Drivers/STM32G0xx_HAL_Driver/Src/stm32g0xx_hal_dma.c ****   return status;
 580:Drivers/STM32G0xx_HAL_Driver/Src/stm32g0xx_hal_dma.c **** }
 581:Drivers/STM32G0xx_HAL_Driver/Src/stm32g0xx_hal_dma.c **** 
 582:Drivers/STM32G0xx_HAL_Driver/Src/stm32g0xx_hal_dma.c **** /**
 583:Drivers/STM32G0xx_HAL_Driver/Src/stm32g0xx_hal_dma.c ****   * @brief  Polling for transfer complete.
 584:Drivers/STM32G0xx_HAL_Driver/Src/stm32g0xx_hal_dma.c ****   * @param hdma Pointer to a DMA_HandleTypeDef structure that contains
 585:Drivers/STM32G0xx_HAL_Driver/Src/stm32g0xx_hal_dma.c ****   *                  the configuration information for the specified DMA Channel.
 586:Drivers/STM32G0xx_HAL_Driver/Src/stm32g0xx_hal_dma.c ****   * @param CompleteLevel Specifies the DMA level complete.
 587:Drivers/STM32G0xx_HAL_Driver/Src/stm32g0xx_hal_dma.c ****   * @param Timeout Timeout duration.
 588:Drivers/STM32G0xx_HAL_Driver/Src/stm32g0xx_hal_dma.c ****   * @retval HAL status
 589:Drivers/STM32G0xx_HAL_Driver/Src/stm32g0xx_hal_dma.c ****   */
 590:Drivers/STM32G0xx_HAL_Driver/Src/stm32g0xx_hal_dma.c **** HAL_StatusTypeDef HAL_DMA_PollForTransfer(DMA_HandleTypeDef *hdma, HAL_DMA_LevelCompleteTypeDef Com
 591:Drivers/STM32G0xx_HAL_Driver/Src/stm32g0xx_hal_dma.c **** {
 592:Drivers/STM32G0xx_HAL_Driver/Src/stm32g0xx_hal_dma.c ****   uint32_t temp;
 593:Drivers/STM32G0xx_HAL_Driver/Src/stm32g0xx_hal_dma.c ****   uint32_t tickstart;
 594:Drivers/STM32G0xx_HAL_Driver/Src/stm32g0xx_hal_dma.c **** 
 595:Drivers/STM32G0xx_HAL_Driver/Src/stm32g0xx_hal_dma.c ****   /* Process unlocked */
 596:Drivers/STM32G0xx_HAL_Driver/Src/stm32g0xx_hal_dma.c ****   __HAL_UNLOCK(hdma);
 597:Drivers/STM32G0xx_HAL_Driver/Src/stm32g0xx_hal_dma.c **** 
 598:Drivers/STM32G0xx_HAL_Driver/Src/stm32g0xx_hal_dma.c ****   if (HAL_DMA_STATE_BUSY != hdma->State)
 599:Drivers/STM32G0xx_HAL_Driver/Src/stm32g0xx_hal_dma.c ****   {
 600:Drivers/STM32G0xx_HAL_Driver/Src/stm32g0xx_hal_dma.c ****     /* no transfer ongoing */
 601:Drivers/STM32G0xx_HAL_Driver/Src/stm32g0xx_hal_dma.c ****     hdma->ErrorCode = HAL_DMA_ERROR_NO_XFER;
 602:Drivers/STM32G0xx_HAL_Driver/Src/stm32g0xx_hal_dma.c ****     __HAL_UNLOCK(hdma);
ARM GAS  /tmp/ccWiXf77.s 			page 12


 603:Drivers/STM32G0xx_HAL_Driver/Src/stm32g0xx_hal_dma.c ****     return HAL_ERROR;
 604:Drivers/STM32G0xx_HAL_Driver/Src/stm32g0xx_hal_dma.c ****   }
 605:Drivers/STM32G0xx_HAL_Driver/Src/stm32g0xx_hal_dma.c **** 
 606:Drivers/STM32G0xx_HAL_Driver/Src/stm32g0xx_hal_dma.c ****   /* Polling mode not supported in circular mode */
 607:Drivers/STM32G0xx_HAL_Driver/Src/stm32g0xx_hal_dma.c ****   if ((hdma->Instance->CCR & DMA_CCR_CIRC) != 0U)
 608:Drivers/STM32G0xx_HAL_Driver/Src/stm32g0xx_hal_dma.c ****   {
 609:Drivers/STM32G0xx_HAL_Driver/Src/stm32g0xx_hal_dma.c ****     hdma->ErrorCode = HAL_DMA_ERROR_NOT_SUPPORTED;
 610:Drivers/STM32G0xx_HAL_Driver/Src/stm32g0xx_hal_dma.c ****     return HAL_ERROR;
 611:Drivers/STM32G0xx_HAL_Driver/Src/stm32g0xx_hal_dma.c ****   }
 612:Drivers/STM32G0xx_HAL_Driver/Src/stm32g0xx_hal_dma.c **** 
 613:Drivers/STM32G0xx_HAL_Driver/Src/stm32g0xx_hal_dma.c ****   /* Get the level transfer complete flag */
 614:Drivers/STM32G0xx_HAL_Driver/Src/stm32g0xx_hal_dma.c ****   if (HAL_DMA_FULL_TRANSFER == CompleteLevel)
 615:Drivers/STM32G0xx_HAL_Driver/Src/stm32g0xx_hal_dma.c ****   {
 616:Drivers/STM32G0xx_HAL_Driver/Src/stm32g0xx_hal_dma.c ****     /* Transfer Complete flag */
 617:Drivers/STM32G0xx_HAL_Driver/Src/stm32g0xx_hal_dma.c ****     temp = DMA_FLAG_TC1 << (hdma->ChannelIndex & 0x1cU);
 618:Drivers/STM32G0xx_HAL_Driver/Src/stm32g0xx_hal_dma.c ****   }
 619:Drivers/STM32G0xx_HAL_Driver/Src/stm32g0xx_hal_dma.c ****   else
 620:Drivers/STM32G0xx_HAL_Driver/Src/stm32g0xx_hal_dma.c ****   {
 621:Drivers/STM32G0xx_HAL_Driver/Src/stm32g0xx_hal_dma.c ****     /* Half Transfer Complete flag */
 622:Drivers/STM32G0xx_HAL_Driver/Src/stm32g0xx_hal_dma.c ****     temp = DMA_FLAG_HT1 << (hdma->ChannelIndex  & 0x1cU);
 623:Drivers/STM32G0xx_HAL_Driver/Src/stm32g0xx_hal_dma.c ****   }
 624:Drivers/STM32G0xx_HAL_Driver/Src/stm32g0xx_hal_dma.c **** 
 625:Drivers/STM32G0xx_HAL_Driver/Src/stm32g0xx_hal_dma.c ****   /* Get tick */
 626:Drivers/STM32G0xx_HAL_Driver/Src/stm32g0xx_hal_dma.c ****   tickstart = HAL_GetTick();
 627:Drivers/STM32G0xx_HAL_Driver/Src/stm32g0xx_hal_dma.c **** 
 628:Drivers/STM32G0xx_HAL_Driver/Src/stm32g0xx_hal_dma.c ****   while (0U == __HAL_DMA_GET_FLAG(hdma, temp))
 629:Drivers/STM32G0xx_HAL_Driver/Src/stm32g0xx_hal_dma.c ****   {
 630:Drivers/STM32G0xx_HAL_Driver/Src/stm32g0xx_hal_dma.c ****     if (0U != __HAL_DMA_GET_FLAG(hdma, (DMA_FLAG_TE1 << (hdma->ChannelIndex & 0x1cU))))
 631:Drivers/STM32G0xx_HAL_Driver/Src/stm32g0xx_hal_dma.c ****     {
 632:Drivers/STM32G0xx_HAL_Driver/Src/stm32g0xx_hal_dma.c ****       /* When a DMA transfer error occurs */
 633:Drivers/STM32G0xx_HAL_Driver/Src/stm32g0xx_hal_dma.c ****       /* A hardware clear of its EN bits is performed */
 634:Drivers/STM32G0xx_HAL_Driver/Src/stm32g0xx_hal_dma.c ****       /* Clear all flags */
 635:Drivers/STM32G0xx_HAL_Driver/Src/stm32g0xx_hal_dma.c ****       __HAL_DMA_CLEAR_FLAG(hdma, ((DMA_FLAG_GI1) << (hdma->ChannelIndex & 0x1cU)));
 636:Drivers/STM32G0xx_HAL_Driver/Src/stm32g0xx_hal_dma.c **** 
 637:Drivers/STM32G0xx_HAL_Driver/Src/stm32g0xx_hal_dma.c ****       /* Update error code */
 638:Drivers/STM32G0xx_HAL_Driver/Src/stm32g0xx_hal_dma.c ****       hdma->ErrorCode = HAL_DMA_ERROR_TE;
 639:Drivers/STM32G0xx_HAL_Driver/Src/stm32g0xx_hal_dma.c **** 
 640:Drivers/STM32G0xx_HAL_Driver/Src/stm32g0xx_hal_dma.c ****       /* Change the DMA state */
 641:Drivers/STM32G0xx_HAL_Driver/Src/stm32g0xx_hal_dma.c ****       hdma->State = HAL_DMA_STATE_READY;
 642:Drivers/STM32G0xx_HAL_Driver/Src/stm32g0xx_hal_dma.c **** 
 643:Drivers/STM32G0xx_HAL_Driver/Src/stm32g0xx_hal_dma.c ****       /* Process Unlocked */
 644:Drivers/STM32G0xx_HAL_Driver/Src/stm32g0xx_hal_dma.c ****       __HAL_UNLOCK(hdma);
 645:Drivers/STM32G0xx_HAL_Driver/Src/stm32g0xx_hal_dma.c **** 
 646:Drivers/STM32G0xx_HAL_Driver/Src/stm32g0xx_hal_dma.c ****       return HAL_ERROR;
 647:Drivers/STM32G0xx_HAL_Driver/Src/stm32g0xx_hal_dma.c ****     }
 648:Drivers/STM32G0xx_HAL_Driver/Src/stm32g0xx_hal_dma.c ****     /* Check for the Timeout */
 649:Drivers/STM32G0xx_HAL_Driver/Src/stm32g0xx_hal_dma.c ****     if (Timeout != HAL_MAX_DELAY)
 650:Drivers/STM32G0xx_HAL_Driver/Src/stm32g0xx_hal_dma.c ****     {
 651:Drivers/STM32G0xx_HAL_Driver/Src/stm32g0xx_hal_dma.c ****       if(((HAL_GetTick() - tickstart ) > Timeout)||(Timeout == 0U))
 652:Drivers/STM32G0xx_HAL_Driver/Src/stm32g0xx_hal_dma.c ****       {
 653:Drivers/STM32G0xx_HAL_Driver/Src/stm32g0xx_hal_dma.c ****         /* Update error code */
 654:Drivers/STM32G0xx_HAL_Driver/Src/stm32g0xx_hal_dma.c ****         hdma->ErrorCode = HAL_DMA_ERROR_TIMEOUT;
 655:Drivers/STM32G0xx_HAL_Driver/Src/stm32g0xx_hal_dma.c **** 
 656:Drivers/STM32G0xx_HAL_Driver/Src/stm32g0xx_hal_dma.c ****         /* Change the DMA state */
 657:Drivers/STM32G0xx_HAL_Driver/Src/stm32g0xx_hal_dma.c ****         hdma->State = HAL_DMA_STATE_READY;
 658:Drivers/STM32G0xx_HAL_Driver/Src/stm32g0xx_hal_dma.c **** 
 659:Drivers/STM32G0xx_HAL_Driver/Src/stm32g0xx_hal_dma.c ****         /* Process Unlocked */
ARM GAS  /tmp/ccWiXf77.s 			page 13


 660:Drivers/STM32G0xx_HAL_Driver/Src/stm32g0xx_hal_dma.c ****         __HAL_UNLOCK(hdma);
 661:Drivers/STM32G0xx_HAL_Driver/Src/stm32g0xx_hal_dma.c **** 
 662:Drivers/STM32G0xx_HAL_Driver/Src/stm32g0xx_hal_dma.c ****         return HAL_ERROR;
 663:Drivers/STM32G0xx_HAL_Driver/Src/stm32g0xx_hal_dma.c ****       }
 664:Drivers/STM32G0xx_HAL_Driver/Src/stm32g0xx_hal_dma.c ****     }
 665:Drivers/STM32G0xx_HAL_Driver/Src/stm32g0xx_hal_dma.c ****   }
 666:Drivers/STM32G0xx_HAL_Driver/Src/stm32g0xx_hal_dma.c **** 
 667:Drivers/STM32G0xx_HAL_Driver/Src/stm32g0xx_hal_dma.c ****   /*Check for DMAMUX Request generator (if used) overrun status */
 668:Drivers/STM32G0xx_HAL_Driver/Src/stm32g0xx_hal_dma.c ****   if (hdma->DMAmuxRequestGen != 0U)
 669:Drivers/STM32G0xx_HAL_Driver/Src/stm32g0xx_hal_dma.c ****   {
 670:Drivers/STM32G0xx_HAL_Driver/Src/stm32g0xx_hal_dma.c ****     /* if using DMAMUX request generator Check for DMAMUX request generator overrun */
 671:Drivers/STM32G0xx_HAL_Driver/Src/stm32g0xx_hal_dma.c ****     if ((hdma->DMAmuxRequestGenStatus->RGSR & hdma->DMAmuxRequestGenStatusMask) != 0U)
 672:Drivers/STM32G0xx_HAL_Driver/Src/stm32g0xx_hal_dma.c ****     {
 673:Drivers/STM32G0xx_HAL_Driver/Src/stm32g0xx_hal_dma.c ****       /* Disable the request gen overrun interrupt */
 674:Drivers/STM32G0xx_HAL_Driver/Src/stm32g0xx_hal_dma.c ****       hdma->DMAmuxRequestGen->RGCR |= DMAMUX_RGxCR_OIE;
 675:Drivers/STM32G0xx_HAL_Driver/Src/stm32g0xx_hal_dma.c **** 
 676:Drivers/STM32G0xx_HAL_Driver/Src/stm32g0xx_hal_dma.c ****       /* Clear the DMAMUX request generator overrun flag */
 677:Drivers/STM32G0xx_HAL_Driver/Src/stm32g0xx_hal_dma.c ****       hdma->DMAmuxRequestGenStatus->RGCFR = hdma->DMAmuxRequestGenStatusMask;
 678:Drivers/STM32G0xx_HAL_Driver/Src/stm32g0xx_hal_dma.c **** 
 679:Drivers/STM32G0xx_HAL_Driver/Src/stm32g0xx_hal_dma.c ****       /* Update error code */
 680:Drivers/STM32G0xx_HAL_Driver/Src/stm32g0xx_hal_dma.c ****       hdma->ErrorCode |= HAL_DMA_ERROR_REQGEN;
 681:Drivers/STM32G0xx_HAL_Driver/Src/stm32g0xx_hal_dma.c ****     }
 682:Drivers/STM32G0xx_HAL_Driver/Src/stm32g0xx_hal_dma.c ****   }
 683:Drivers/STM32G0xx_HAL_Driver/Src/stm32g0xx_hal_dma.c **** 
 684:Drivers/STM32G0xx_HAL_Driver/Src/stm32g0xx_hal_dma.c ****   /* Check for DMAMUX Synchronization overrun */
 685:Drivers/STM32G0xx_HAL_Driver/Src/stm32g0xx_hal_dma.c ****   if ((hdma->DMAmuxChannelStatus->CSR & hdma->DMAmuxChannelStatusMask) != 0U)
 686:Drivers/STM32G0xx_HAL_Driver/Src/stm32g0xx_hal_dma.c ****   {
 687:Drivers/STM32G0xx_HAL_Driver/Src/stm32g0xx_hal_dma.c ****     /* Clear the DMAMUX synchro overrun flag */
 688:Drivers/STM32G0xx_HAL_Driver/Src/stm32g0xx_hal_dma.c ****     hdma->DMAmuxChannelStatus->CFR = hdma->DMAmuxChannelStatusMask;
 689:Drivers/STM32G0xx_HAL_Driver/Src/stm32g0xx_hal_dma.c **** 
 690:Drivers/STM32G0xx_HAL_Driver/Src/stm32g0xx_hal_dma.c ****     /* Update error code */
 691:Drivers/STM32G0xx_HAL_Driver/Src/stm32g0xx_hal_dma.c ****     hdma->ErrorCode |= HAL_DMA_ERROR_SYNC;
 692:Drivers/STM32G0xx_HAL_Driver/Src/stm32g0xx_hal_dma.c ****   }
 693:Drivers/STM32G0xx_HAL_Driver/Src/stm32g0xx_hal_dma.c **** 
 694:Drivers/STM32G0xx_HAL_Driver/Src/stm32g0xx_hal_dma.c ****   if (HAL_DMA_FULL_TRANSFER == CompleteLevel)
 695:Drivers/STM32G0xx_HAL_Driver/Src/stm32g0xx_hal_dma.c ****   {
 696:Drivers/STM32G0xx_HAL_Driver/Src/stm32g0xx_hal_dma.c ****     /* Clear the transfer complete flag */
 697:Drivers/STM32G0xx_HAL_Driver/Src/stm32g0xx_hal_dma.c ****     __HAL_DMA_CLEAR_FLAG(hdma, (DMA_FLAG_TC1 << (hdma->ChannelIndex & 0x1cU)));
 698:Drivers/STM32G0xx_HAL_Driver/Src/stm32g0xx_hal_dma.c **** 
 699:Drivers/STM32G0xx_HAL_Driver/Src/stm32g0xx_hal_dma.c ****     /* The selected Channelx EN bit is cleared (DMA is disabled and
 700:Drivers/STM32G0xx_HAL_Driver/Src/stm32g0xx_hal_dma.c ****     all transfers are complete) */
 701:Drivers/STM32G0xx_HAL_Driver/Src/stm32g0xx_hal_dma.c ****     hdma->State = HAL_DMA_STATE_READY;
 702:Drivers/STM32G0xx_HAL_Driver/Src/stm32g0xx_hal_dma.c ****   }
 703:Drivers/STM32G0xx_HAL_Driver/Src/stm32g0xx_hal_dma.c ****   else
 704:Drivers/STM32G0xx_HAL_Driver/Src/stm32g0xx_hal_dma.c ****   {
 705:Drivers/STM32G0xx_HAL_Driver/Src/stm32g0xx_hal_dma.c ****     /* Clear the half transfer complete flag */
 706:Drivers/STM32G0xx_HAL_Driver/Src/stm32g0xx_hal_dma.c ****     __HAL_DMA_CLEAR_FLAG(hdma, (DMA_FLAG_HT1 << (hdma->ChannelIndex & 0x1cU)));
 707:Drivers/STM32G0xx_HAL_Driver/Src/stm32g0xx_hal_dma.c ****   }
 708:Drivers/STM32G0xx_HAL_Driver/Src/stm32g0xx_hal_dma.c **** 
 709:Drivers/STM32G0xx_HAL_Driver/Src/stm32g0xx_hal_dma.c ****   /* Process unlocked */
 710:Drivers/STM32G0xx_HAL_Driver/Src/stm32g0xx_hal_dma.c ****   __HAL_UNLOCK(hdma);
 711:Drivers/STM32G0xx_HAL_Driver/Src/stm32g0xx_hal_dma.c **** 
 712:Drivers/STM32G0xx_HAL_Driver/Src/stm32g0xx_hal_dma.c ****   return HAL_OK;
 713:Drivers/STM32G0xx_HAL_Driver/Src/stm32g0xx_hal_dma.c **** }
 714:Drivers/STM32G0xx_HAL_Driver/Src/stm32g0xx_hal_dma.c **** 
 715:Drivers/STM32G0xx_HAL_Driver/Src/stm32g0xx_hal_dma.c **** /**
 716:Drivers/STM32G0xx_HAL_Driver/Src/stm32g0xx_hal_dma.c ****   * @brief  Handle DMA interrupt request.
ARM GAS  /tmp/ccWiXf77.s 			page 14


 717:Drivers/STM32G0xx_HAL_Driver/Src/stm32g0xx_hal_dma.c ****   * @param  hdma: pointer to a DMA_HandleTypeDef structure that contains
 718:Drivers/STM32G0xx_HAL_Driver/Src/stm32g0xx_hal_dma.c ****   *               the configuration information for the specified DMA Channel.
 719:Drivers/STM32G0xx_HAL_Driver/Src/stm32g0xx_hal_dma.c ****   * @retval None
 720:Drivers/STM32G0xx_HAL_Driver/Src/stm32g0xx_hal_dma.c ****   */
 721:Drivers/STM32G0xx_HAL_Driver/Src/stm32g0xx_hal_dma.c **** void HAL_DMA_IRQHandler(DMA_HandleTypeDef *hdma)
 722:Drivers/STM32G0xx_HAL_Driver/Src/stm32g0xx_hal_dma.c **** {
 723:Drivers/STM32G0xx_HAL_Driver/Src/stm32g0xx_hal_dma.c ****   uint32_t flag_it = DMA1->ISR;
 724:Drivers/STM32G0xx_HAL_Driver/Src/stm32g0xx_hal_dma.c ****   uint32_t source_it = hdma->Instance->CCR;
 725:Drivers/STM32G0xx_HAL_Driver/Src/stm32g0xx_hal_dma.c **** 
 726:Drivers/STM32G0xx_HAL_Driver/Src/stm32g0xx_hal_dma.c ****   /* Half Transfer Complete Interrupt management ******************************/
 727:Drivers/STM32G0xx_HAL_Driver/Src/stm32g0xx_hal_dma.c ****   if (((flag_it & (DMA_FLAG_HT1 << (hdma->ChannelIndex & 0x1cU))) != 0U) && ((source_it & DMA_IT_HT
 728:Drivers/STM32G0xx_HAL_Driver/Src/stm32g0xx_hal_dma.c ****   {
 729:Drivers/STM32G0xx_HAL_Driver/Src/stm32g0xx_hal_dma.c ****     /* Disable the half transfer interrupt if the DMA mode is not CIRCULAR */
 730:Drivers/STM32G0xx_HAL_Driver/Src/stm32g0xx_hal_dma.c ****     if ((hdma->Instance->CCR & DMA_CCR_CIRC) == 0U)
 731:Drivers/STM32G0xx_HAL_Driver/Src/stm32g0xx_hal_dma.c ****     {
 732:Drivers/STM32G0xx_HAL_Driver/Src/stm32g0xx_hal_dma.c ****       /* Disable the half transfer interrupt */
 733:Drivers/STM32G0xx_HAL_Driver/Src/stm32g0xx_hal_dma.c ****       __HAL_DMA_DISABLE_IT(hdma, DMA_IT_HT);
 734:Drivers/STM32G0xx_HAL_Driver/Src/stm32g0xx_hal_dma.c ****     }
 735:Drivers/STM32G0xx_HAL_Driver/Src/stm32g0xx_hal_dma.c ****     /* Clear the half transfer complete flag */
 736:Drivers/STM32G0xx_HAL_Driver/Src/stm32g0xx_hal_dma.c ****     __HAL_DMA_CLEAR_FLAG(hdma, (DMA_FLAG_HT1 << (hdma->ChannelIndex & 0x1cU)));
 737:Drivers/STM32G0xx_HAL_Driver/Src/stm32g0xx_hal_dma.c **** 
 738:Drivers/STM32G0xx_HAL_Driver/Src/stm32g0xx_hal_dma.c ****     /* DMA peripheral state is not updated in Half Transfer */
 739:Drivers/STM32G0xx_HAL_Driver/Src/stm32g0xx_hal_dma.c ****     /* but in Transfer Complete case */
 740:Drivers/STM32G0xx_HAL_Driver/Src/stm32g0xx_hal_dma.c **** 
 741:Drivers/STM32G0xx_HAL_Driver/Src/stm32g0xx_hal_dma.c ****     if (hdma->XferHalfCpltCallback != NULL)
 742:Drivers/STM32G0xx_HAL_Driver/Src/stm32g0xx_hal_dma.c ****     {
 743:Drivers/STM32G0xx_HAL_Driver/Src/stm32g0xx_hal_dma.c ****       /* Half transfer callback */
 744:Drivers/STM32G0xx_HAL_Driver/Src/stm32g0xx_hal_dma.c ****       hdma->XferHalfCpltCallback(hdma);
 745:Drivers/STM32G0xx_HAL_Driver/Src/stm32g0xx_hal_dma.c ****     }
 746:Drivers/STM32G0xx_HAL_Driver/Src/stm32g0xx_hal_dma.c ****   }
 747:Drivers/STM32G0xx_HAL_Driver/Src/stm32g0xx_hal_dma.c **** 
 748:Drivers/STM32G0xx_HAL_Driver/Src/stm32g0xx_hal_dma.c ****   /* Transfer Complete Interrupt management ***********************************/
 749:Drivers/STM32G0xx_HAL_Driver/Src/stm32g0xx_hal_dma.c ****   else if ((0U != (flag_it & (DMA_FLAG_TC1 << (hdma->ChannelIndex & 0x1cU)))) && (0U != (source_it 
 750:Drivers/STM32G0xx_HAL_Driver/Src/stm32g0xx_hal_dma.c ****   {
 751:Drivers/STM32G0xx_HAL_Driver/Src/stm32g0xx_hal_dma.c ****     if ((hdma->Instance->CCR & DMA_CCR_CIRC) == 0U)
 752:Drivers/STM32G0xx_HAL_Driver/Src/stm32g0xx_hal_dma.c ****     {
 753:Drivers/STM32G0xx_HAL_Driver/Src/stm32g0xx_hal_dma.c ****       /* Disable the transfer complete and error interrupt */
 754:Drivers/STM32G0xx_HAL_Driver/Src/stm32g0xx_hal_dma.c ****       __HAL_DMA_DISABLE_IT(hdma, DMA_IT_TE | DMA_IT_TC);
 755:Drivers/STM32G0xx_HAL_Driver/Src/stm32g0xx_hal_dma.c **** 
 756:Drivers/STM32G0xx_HAL_Driver/Src/stm32g0xx_hal_dma.c ****       /* Change the DMA state */
 757:Drivers/STM32G0xx_HAL_Driver/Src/stm32g0xx_hal_dma.c ****       hdma->State = HAL_DMA_STATE_READY;
 758:Drivers/STM32G0xx_HAL_Driver/Src/stm32g0xx_hal_dma.c ****     }
 759:Drivers/STM32G0xx_HAL_Driver/Src/stm32g0xx_hal_dma.c ****     /* Clear the transfer complete flag */
 760:Drivers/STM32G0xx_HAL_Driver/Src/stm32g0xx_hal_dma.c ****     __HAL_DMA_CLEAR_FLAG(hdma, (DMA_FLAG_TC1 << (hdma->ChannelIndex & 0x1cU)));
 761:Drivers/STM32G0xx_HAL_Driver/Src/stm32g0xx_hal_dma.c **** 
 762:Drivers/STM32G0xx_HAL_Driver/Src/stm32g0xx_hal_dma.c ****     /* Process Unlocked */
 763:Drivers/STM32G0xx_HAL_Driver/Src/stm32g0xx_hal_dma.c ****     __HAL_UNLOCK(hdma);
 764:Drivers/STM32G0xx_HAL_Driver/Src/stm32g0xx_hal_dma.c **** 
 765:Drivers/STM32G0xx_HAL_Driver/Src/stm32g0xx_hal_dma.c ****     if (hdma->XferCpltCallback != NULL)
 766:Drivers/STM32G0xx_HAL_Driver/Src/stm32g0xx_hal_dma.c ****     {
 767:Drivers/STM32G0xx_HAL_Driver/Src/stm32g0xx_hal_dma.c ****       /* Transfer complete callback */
 768:Drivers/STM32G0xx_HAL_Driver/Src/stm32g0xx_hal_dma.c ****       hdma->XferCpltCallback(hdma);
 769:Drivers/STM32G0xx_HAL_Driver/Src/stm32g0xx_hal_dma.c ****     }
 770:Drivers/STM32G0xx_HAL_Driver/Src/stm32g0xx_hal_dma.c ****   }
 771:Drivers/STM32G0xx_HAL_Driver/Src/stm32g0xx_hal_dma.c **** 
 772:Drivers/STM32G0xx_HAL_Driver/Src/stm32g0xx_hal_dma.c ****   /* Transfer Error Interrupt management **************************************/
 773:Drivers/STM32G0xx_HAL_Driver/Src/stm32g0xx_hal_dma.c ****   else if (((flag_it & (DMA_FLAG_TE1 << (hdma->ChannelIndex & 0x1cU)))!= 0U) && ((source_it & DMA_I
ARM GAS  /tmp/ccWiXf77.s 			page 15


 774:Drivers/STM32G0xx_HAL_Driver/Src/stm32g0xx_hal_dma.c ****   {
 775:Drivers/STM32G0xx_HAL_Driver/Src/stm32g0xx_hal_dma.c ****     /* When a DMA transfer error occurs */
 776:Drivers/STM32G0xx_HAL_Driver/Src/stm32g0xx_hal_dma.c ****     /* A hardware clear of its EN bits is performed */
 777:Drivers/STM32G0xx_HAL_Driver/Src/stm32g0xx_hal_dma.c ****     /* Disable ALL DMA IT */
 778:Drivers/STM32G0xx_HAL_Driver/Src/stm32g0xx_hal_dma.c ****     __HAL_DMA_DISABLE_IT(hdma, (DMA_IT_TC | DMA_IT_HT | DMA_IT_TE));
 779:Drivers/STM32G0xx_HAL_Driver/Src/stm32g0xx_hal_dma.c **** 
 780:Drivers/STM32G0xx_HAL_Driver/Src/stm32g0xx_hal_dma.c ****     /* Clear all flags */
 781:Drivers/STM32G0xx_HAL_Driver/Src/stm32g0xx_hal_dma.c ****     __HAL_DMA_CLEAR_FLAG(hdma, (DMA_FLAG_GI1 << (hdma->ChannelIndex& 0x1cU)));
 782:Drivers/STM32G0xx_HAL_Driver/Src/stm32g0xx_hal_dma.c **** 
 783:Drivers/STM32G0xx_HAL_Driver/Src/stm32g0xx_hal_dma.c ****     /* Update error code */
 784:Drivers/STM32G0xx_HAL_Driver/Src/stm32g0xx_hal_dma.c ****     hdma->ErrorCode = HAL_DMA_ERROR_TE;
 785:Drivers/STM32G0xx_HAL_Driver/Src/stm32g0xx_hal_dma.c **** 
 786:Drivers/STM32G0xx_HAL_Driver/Src/stm32g0xx_hal_dma.c ****     /* Change the DMA state */
 787:Drivers/STM32G0xx_HAL_Driver/Src/stm32g0xx_hal_dma.c ****     hdma->State = HAL_DMA_STATE_READY;
 788:Drivers/STM32G0xx_HAL_Driver/Src/stm32g0xx_hal_dma.c **** 
 789:Drivers/STM32G0xx_HAL_Driver/Src/stm32g0xx_hal_dma.c ****     /* Process Unlocked */
 790:Drivers/STM32G0xx_HAL_Driver/Src/stm32g0xx_hal_dma.c ****     __HAL_UNLOCK(hdma);
 791:Drivers/STM32G0xx_HAL_Driver/Src/stm32g0xx_hal_dma.c **** 
 792:Drivers/STM32G0xx_HAL_Driver/Src/stm32g0xx_hal_dma.c ****     if (hdma->XferErrorCallback != NULL)
 793:Drivers/STM32G0xx_HAL_Driver/Src/stm32g0xx_hal_dma.c ****     {
 794:Drivers/STM32G0xx_HAL_Driver/Src/stm32g0xx_hal_dma.c ****       /* Transfer error callback */
 795:Drivers/STM32G0xx_HAL_Driver/Src/stm32g0xx_hal_dma.c ****       hdma->XferErrorCallback(hdma);
 796:Drivers/STM32G0xx_HAL_Driver/Src/stm32g0xx_hal_dma.c ****     }
 797:Drivers/STM32G0xx_HAL_Driver/Src/stm32g0xx_hal_dma.c ****   }
 798:Drivers/STM32G0xx_HAL_Driver/Src/stm32g0xx_hal_dma.c ****   else
 799:Drivers/STM32G0xx_HAL_Driver/Src/stm32g0xx_hal_dma.c ****   {
 800:Drivers/STM32G0xx_HAL_Driver/Src/stm32g0xx_hal_dma.c ****     /* Nothing To Do */
 801:Drivers/STM32G0xx_HAL_Driver/Src/stm32g0xx_hal_dma.c ****   }
 802:Drivers/STM32G0xx_HAL_Driver/Src/stm32g0xx_hal_dma.c ****   return;
 803:Drivers/STM32G0xx_HAL_Driver/Src/stm32g0xx_hal_dma.c **** }
 804:Drivers/STM32G0xx_HAL_Driver/Src/stm32g0xx_hal_dma.c **** 
 805:Drivers/STM32G0xx_HAL_Driver/Src/stm32g0xx_hal_dma.c **** /**
 806:Drivers/STM32G0xx_HAL_Driver/Src/stm32g0xx_hal_dma.c ****   * @brief  Register callbacks
 807:Drivers/STM32G0xx_HAL_Driver/Src/stm32g0xx_hal_dma.c ****   * @param  hdma                  pointer to a DMA_HandleTypeDef structure that contains
 808:Drivers/STM32G0xx_HAL_Driver/Src/stm32g0xx_hal_dma.c ****   *                               the configuration information for the specified DMA Stream.
 809:Drivers/STM32G0xx_HAL_Driver/Src/stm32g0xx_hal_dma.c ****   * @param  CallbackID            User Callback identifer
 810:Drivers/STM32G0xx_HAL_Driver/Src/stm32g0xx_hal_dma.c ****   *                               a HAL_DMA_CallbackIDTypeDef ENUM as parameter.
 811:Drivers/STM32G0xx_HAL_Driver/Src/stm32g0xx_hal_dma.c ****   * @param  pCallback             pointer to private callbacsk function which has pointer to
 812:Drivers/STM32G0xx_HAL_Driver/Src/stm32g0xx_hal_dma.c ****   *                               a DMA_HandleTypeDef structure as parameter.
 813:Drivers/STM32G0xx_HAL_Driver/Src/stm32g0xx_hal_dma.c ****   * @retval HAL status
 814:Drivers/STM32G0xx_HAL_Driver/Src/stm32g0xx_hal_dma.c ****   */
 815:Drivers/STM32G0xx_HAL_Driver/Src/stm32g0xx_hal_dma.c **** HAL_StatusTypeDef HAL_DMA_RegisterCallback(DMA_HandleTypeDef *hdma, HAL_DMA_CallbackIDTypeDef Callb
 816:Drivers/STM32G0xx_HAL_Driver/Src/stm32g0xx_hal_dma.c **** {
 817:Drivers/STM32G0xx_HAL_Driver/Src/stm32g0xx_hal_dma.c ****   HAL_StatusTypeDef status = HAL_OK;
 818:Drivers/STM32G0xx_HAL_Driver/Src/stm32g0xx_hal_dma.c **** 
 819:Drivers/STM32G0xx_HAL_Driver/Src/stm32g0xx_hal_dma.c ****   /* Process locked */
 820:Drivers/STM32G0xx_HAL_Driver/Src/stm32g0xx_hal_dma.c ****   __HAL_LOCK(hdma);
 821:Drivers/STM32G0xx_HAL_Driver/Src/stm32g0xx_hal_dma.c **** 
 822:Drivers/STM32G0xx_HAL_Driver/Src/stm32g0xx_hal_dma.c ****   if (HAL_DMA_STATE_READY == hdma->State)
 823:Drivers/STM32G0xx_HAL_Driver/Src/stm32g0xx_hal_dma.c ****   {
 824:Drivers/STM32G0xx_HAL_Driver/Src/stm32g0xx_hal_dma.c ****     switch (CallbackID)
 825:Drivers/STM32G0xx_HAL_Driver/Src/stm32g0xx_hal_dma.c ****     {
 826:Drivers/STM32G0xx_HAL_Driver/Src/stm32g0xx_hal_dma.c ****       case  HAL_DMA_XFER_CPLT_CB_ID:
 827:Drivers/STM32G0xx_HAL_Driver/Src/stm32g0xx_hal_dma.c ****         hdma->XferCpltCallback = pCallback;
 828:Drivers/STM32G0xx_HAL_Driver/Src/stm32g0xx_hal_dma.c ****         break;
 829:Drivers/STM32G0xx_HAL_Driver/Src/stm32g0xx_hal_dma.c **** 
 830:Drivers/STM32G0xx_HAL_Driver/Src/stm32g0xx_hal_dma.c ****       case  HAL_DMA_XFER_HALFCPLT_CB_ID:
ARM GAS  /tmp/ccWiXf77.s 			page 16


 831:Drivers/STM32G0xx_HAL_Driver/Src/stm32g0xx_hal_dma.c ****         hdma->XferHalfCpltCallback = pCallback;
 832:Drivers/STM32G0xx_HAL_Driver/Src/stm32g0xx_hal_dma.c ****         break;
 833:Drivers/STM32G0xx_HAL_Driver/Src/stm32g0xx_hal_dma.c **** 
 834:Drivers/STM32G0xx_HAL_Driver/Src/stm32g0xx_hal_dma.c ****       case  HAL_DMA_XFER_ERROR_CB_ID:
 835:Drivers/STM32G0xx_HAL_Driver/Src/stm32g0xx_hal_dma.c ****         hdma->XferErrorCallback = pCallback;
 836:Drivers/STM32G0xx_HAL_Driver/Src/stm32g0xx_hal_dma.c ****         break;
 837:Drivers/STM32G0xx_HAL_Driver/Src/stm32g0xx_hal_dma.c **** 
 838:Drivers/STM32G0xx_HAL_Driver/Src/stm32g0xx_hal_dma.c ****       case  HAL_DMA_XFER_ABORT_CB_ID:
 839:Drivers/STM32G0xx_HAL_Driver/Src/stm32g0xx_hal_dma.c ****         hdma->XferAbortCallback = pCallback;
 840:Drivers/STM32G0xx_HAL_Driver/Src/stm32g0xx_hal_dma.c ****         break;
 841:Drivers/STM32G0xx_HAL_Driver/Src/stm32g0xx_hal_dma.c **** 
 842:Drivers/STM32G0xx_HAL_Driver/Src/stm32g0xx_hal_dma.c ****       default:
 843:Drivers/STM32G0xx_HAL_Driver/Src/stm32g0xx_hal_dma.c ****         status = HAL_ERROR;
 844:Drivers/STM32G0xx_HAL_Driver/Src/stm32g0xx_hal_dma.c ****         break;
 845:Drivers/STM32G0xx_HAL_Driver/Src/stm32g0xx_hal_dma.c ****     }
 846:Drivers/STM32G0xx_HAL_Driver/Src/stm32g0xx_hal_dma.c ****   }
 847:Drivers/STM32G0xx_HAL_Driver/Src/stm32g0xx_hal_dma.c ****   else
 848:Drivers/STM32G0xx_HAL_Driver/Src/stm32g0xx_hal_dma.c ****   {
 849:Drivers/STM32G0xx_HAL_Driver/Src/stm32g0xx_hal_dma.c ****     status = HAL_ERROR;
 850:Drivers/STM32G0xx_HAL_Driver/Src/stm32g0xx_hal_dma.c ****   }
 851:Drivers/STM32G0xx_HAL_Driver/Src/stm32g0xx_hal_dma.c **** 
 852:Drivers/STM32G0xx_HAL_Driver/Src/stm32g0xx_hal_dma.c ****   /* Release Lock */
 853:Drivers/STM32G0xx_HAL_Driver/Src/stm32g0xx_hal_dma.c ****   __HAL_UNLOCK(hdma);
 854:Drivers/STM32G0xx_HAL_Driver/Src/stm32g0xx_hal_dma.c **** 
 855:Drivers/STM32G0xx_HAL_Driver/Src/stm32g0xx_hal_dma.c ****   return status;
 856:Drivers/STM32G0xx_HAL_Driver/Src/stm32g0xx_hal_dma.c **** }
 857:Drivers/STM32G0xx_HAL_Driver/Src/stm32g0xx_hal_dma.c **** 
 858:Drivers/STM32G0xx_HAL_Driver/Src/stm32g0xx_hal_dma.c **** /**
 859:Drivers/STM32G0xx_HAL_Driver/Src/stm32g0xx_hal_dma.c ****   * @brief  UnRegister callbacks
 860:Drivers/STM32G0xx_HAL_Driver/Src/stm32g0xx_hal_dma.c ****   * @param  hdma                  pointer to a DMA_HandleTypeDef structure that contains
 861:Drivers/STM32G0xx_HAL_Driver/Src/stm32g0xx_hal_dma.c ****   *                               the configuration information for the specified DMA Stream.
 862:Drivers/STM32G0xx_HAL_Driver/Src/stm32g0xx_hal_dma.c ****   * @param  CallbackID            User Callback identifer
 863:Drivers/STM32G0xx_HAL_Driver/Src/stm32g0xx_hal_dma.c ****   *                               a HAL_DMA_CallbackIDTypeDef ENUM as parameter.
 864:Drivers/STM32G0xx_HAL_Driver/Src/stm32g0xx_hal_dma.c ****   * @retval HAL status
 865:Drivers/STM32G0xx_HAL_Driver/Src/stm32g0xx_hal_dma.c ****   */
 866:Drivers/STM32G0xx_HAL_Driver/Src/stm32g0xx_hal_dma.c **** HAL_StatusTypeDef HAL_DMA_UnRegisterCallback(DMA_HandleTypeDef *hdma, HAL_DMA_CallbackIDTypeDef Cal
 867:Drivers/STM32G0xx_HAL_Driver/Src/stm32g0xx_hal_dma.c **** {
 868:Drivers/STM32G0xx_HAL_Driver/Src/stm32g0xx_hal_dma.c ****   HAL_StatusTypeDef status = HAL_OK;
 869:Drivers/STM32G0xx_HAL_Driver/Src/stm32g0xx_hal_dma.c **** 
 870:Drivers/STM32G0xx_HAL_Driver/Src/stm32g0xx_hal_dma.c ****   /* Process locked */
 871:Drivers/STM32G0xx_HAL_Driver/Src/stm32g0xx_hal_dma.c ****   __HAL_LOCK(hdma);
 872:Drivers/STM32G0xx_HAL_Driver/Src/stm32g0xx_hal_dma.c **** 
 873:Drivers/STM32G0xx_HAL_Driver/Src/stm32g0xx_hal_dma.c ****   if (HAL_DMA_STATE_READY == hdma->State)
 874:Drivers/STM32G0xx_HAL_Driver/Src/stm32g0xx_hal_dma.c ****   {
 875:Drivers/STM32G0xx_HAL_Driver/Src/stm32g0xx_hal_dma.c ****     switch (CallbackID)
 876:Drivers/STM32G0xx_HAL_Driver/Src/stm32g0xx_hal_dma.c ****     {
 877:Drivers/STM32G0xx_HAL_Driver/Src/stm32g0xx_hal_dma.c ****       case  HAL_DMA_XFER_CPLT_CB_ID:
 878:Drivers/STM32G0xx_HAL_Driver/Src/stm32g0xx_hal_dma.c ****         hdma->XferCpltCallback = NULL;
 879:Drivers/STM32G0xx_HAL_Driver/Src/stm32g0xx_hal_dma.c ****         break;
 880:Drivers/STM32G0xx_HAL_Driver/Src/stm32g0xx_hal_dma.c **** 
 881:Drivers/STM32G0xx_HAL_Driver/Src/stm32g0xx_hal_dma.c ****       case  HAL_DMA_XFER_HALFCPLT_CB_ID:
 882:Drivers/STM32G0xx_HAL_Driver/Src/stm32g0xx_hal_dma.c ****         hdma->XferHalfCpltCallback = NULL;
 883:Drivers/STM32G0xx_HAL_Driver/Src/stm32g0xx_hal_dma.c ****         break;
 884:Drivers/STM32G0xx_HAL_Driver/Src/stm32g0xx_hal_dma.c **** 
 885:Drivers/STM32G0xx_HAL_Driver/Src/stm32g0xx_hal_dma.c ****       case  HAL_DMA_XFER_ERROR_CB_ID:
 886:Drivers/STM32G0xx_HAL_Driver/Src/stm32g0xx_hal_dma.c ****         hdma->XferErrorCallback = NULL;
 887:Drivers/STM32G0xx_HAL_Driver/Src/stm32g0xx_hal_dma.c ****         break;
ARM GAS  /tmp/ccWiXf77.s 			page 17


 888:Drivers/STM32G0xx_HAL_Driver/Src/stm32g0xx_hal_dma.c **** 
 889:Drivers/STM32G0xx_HAL_Driver/Src/stm32g0xx_hal_dma.c ****       case  HAL_DMA_XFER_ABORT_CB_ID:
 890:Drivers/STM32G0xx_HAL_Driver/Src/stm32g0xx_hal_dma.c ****         hdma->XferAbortCallback = NULL;
 891:Drivers/STM32G0xx_HAL_Driver/Src/stm32g0xx_hal_dma.c ****         break;
 892:Drivers/STM32G0xx_HAL_Driver/Src/stm32g0xx_hal_dma.c **** 
 893:Drivers/STM32G0xx_HAL_Driver/Src/stm32g0xx_hal_dma.c ****       case   HAL_DMA_XFER_ALL_CB_ID:
 894:Drivers/STM32G0xx_HAL_Driver/Src/stm32g0xx_hal_dma.c ****         hdma->XferCpltCallback = NULL;
 895:Drivers/STM32G0xx_HAL_Driver/Src/stm32g0xx_hal_dma.c ****         hdma->XferHalfCpltCallback = NULL;
 896:Drivers/STM32G0xx_HAL_Driver/Src/stm32g0xx_hal_dma.c ****         hdma->XferErrorCallback = NULL;
 897:Drivers/STM32G0xx_HAL_Driver/Src/stm32g0xx_hal_dma.c ****         hdma->XferAbortCallback = NULL;
 898:Drivers/STM32G0xx_HAL_Driver/Src/stm32g0xx_hal_dma.c ****         break;
 899:Drivers/STM32G0xx_HAL_Driver/Src/stm32g0xx_hal_dma.c **** 
 900:Drivers/STM32G0xx_HAL_Driver/Src/stm32g0xx_hal_dma.c ****       default:
 901:Drivers/STM32G0xx_HAL_Driver/Src/stm32g0xx_hal_dma.c ****         status = HAL_ERROR;
 902:Drivers/STM32G0xx_HAL_Driver/Src/stm32g0xx_hal_dma.c ****         break;
 903:Drivers/STM32G0xx_HAL_Driver/Src/stm32g0xx_hal_dma.c ****     }
 904:Drivers/STM32G0xx_HAL_Driver/Src/stm32g0xx_hal_dma.c ****   }
 905:Drivers/STM32G0xx_HAL_Driver/Src/stm32g0xx_hal_dma.c ****   else
 906:Drivers/STM32G0xx_HAL_Driver/Src/stm32g0xx_hal_dma.c ****   {
 907:Drivers/STM32G0xx_HAL_Driver/Src/stm32g0xx_hal_dma.c ****     status = HAL_ERROR;
 908:Drivers/STM32G0xx_HAL_Driver/Src/stm32g0xx_hal_dma.c ****   }
 909:Drivers/STM32G0xx_HAL_Driver/Src/stm32g0xx_hal_dma.c **** 
 910:Drivers/STM32G0xx_HAL_Driver/Src/stm32g0xx_hal_dma.c ****   /* Release Lock */
 911:Drivers/STM32G0xx_HAL_Driver/Src/stm32g0xx_hal_dma.c ****   __HAL_UNLOCK(hdma);
 912:Drivers/STM32G0xx_HAL_Driver/Src/stm32g0xx_hal_dma.c **** 
 913:Drivers/STM32G0xx_HAL_Driver/Src/stm32g0xx_hal_dma.c ****   return status;
 914:Drivers/STM32G0xx_HAL_Driver/Src/stm32g0xx_hal_dma.c **** }
 915:Drivers/STM32G0xx_HAL_Driver/Src/stm32g0xx_hal_dma.c **** 
 916:Drivers/STM32G0xx_HAL_Driver/Src/stm32g0xx_hal_dma.c **** /**
 917:Drivers/STM32G0xx_HAL_Driver/Src/stm32g0xx_hal_dma.c ****   * @}
 918:Drivers/STM32G0xx_HAL_Driver/Src/stm32g0xx_hal_dma.c ****   */
 919:Drivers/STM32G0xx_HAL_Driver/Src/stm32g0xx_hal_dma.c **** 
 920:Drivers/STM32G0xx_HAL_Driver/Src/stm32g0xx_hal_dma.c **** 
 921:Drivers/STM32G0xx_HAL_Driver/Src/stm32g0xx_hal_dma.c **** 
 922:Drivers/STM32G0xx_HAL_Driver/Src/stm32g0xx_hal_dma.c **** /** @defgroup DMA_Exported_Functions_Group3 Peripheral State and Errors functions
 923:Drivers/STM32G0xx_HAL_Driver/Src/stm32g0xx_hal_dma.c ****  *  @brief    Peripheral State and Errors functions
 924:Drivers/STM32G0xx_HAL_Driver/Src/stm32g0xx_hal_dma.c ****  *
 925:Drivers/STM32G0xx_HAL_Driver/Src/stm32g0xx_hal_dma.c **** @verbatim
 926:Drivers/STM32G0xx_HAL_Driver/Src/stm32g0xx_hal_dma.c ****  ===============================================================================
 927:Drivers/STM32G0xx_HAL_Driver/Src/stm32g0xx_hal_dma.c ****             ##### Peripheral State and Errors functions #####
 928:Drivers/STM32G0xx_HAL_Driver/Src/stm32g0xx_hal_dma.c ****  ===============================================================================
 929:Drivers/STM32G0xx_HAL_Driver/Src/stm32g0xx_hal_dma.c ****     [..]
 930:Drivers/STM32G0xx_HAL_Driver/Src/stm32g0xx_hal_dma.c ****     This subsection provides functions allowing to
 931:Drivers/STM32G0xx_HAL_Driver/Src/stm32g0xx_hal_dma.c ****       (+) Check the DMA state
 932:Drivers/STM32G0xx_HAL_Driver/Src/stm32g0xx_hal_dma.c ****       (+) Get error code
 933:Drivers/STM32G0xx_HAL_Driver/Src/stm32g0xx_hal_dma.c **** 
 934:Drivers/STM32G0xx_HAL_Driver/Src/stm32g0xx_hal_dma.c **** @endverbatim
 935:Drivers/STM32G0xx_HAL_Driver/Src/stm32g0xx_hal_dma.c ****   * @{
 936:Drivers/STM32G0xx_HAL_Driver/Src/stm32g0xx_hal_dma.c ****   */
 937:Drivers/STM32G0xx_HAL_Driver/Src/stm32g0xx_hal_dma.c **** 
 938:Drivers/STM32G0xx_HAL_Driver/Src/stm32g0xx_hal_dma.c **** /**
 939:Drivers/STM32G0xx_HAL_Driver/Src/stm32g0xx_hal_dma.c ****   * @brief  Return the DMA hande state.
 940:Drivers/STM32G0xx_HAL_Driver/Src/stm32g0xx_hal_dma.c ****   * @param hdma Pointer to a DMA_HandleTypeDef structure that contains
 941:Drivers/STM32G0xx_HAL_Driver/Src/stm32g0xx_hal_dma.c ****   *               the configuration information for the specified DMA Channel.
 942:Drivers/STM32G0xx_HAL_Driver/Src/stm32g0xx_hal_dma.c ****   * @retval HAL state
 943:Drivers/STM32G0xx_HAL_Driver/Src/stm32g0xx_hal_dma.c ****   */
 944:Drivers/STM32G0xx_HAL_Driver/Src/stm32g0xx_hal_dma.c **** HAL_DMA_StateTypeDef HAL_DMA_GetState(DMA_HandleTypeDef *hdma)
ARM GAS  /tmp/ccWiXf77.s 			page 18


 945:Drivers/STM32G0xx_HAL_Driver/Src/stm32g0xx_hal_dma.c **** {
 946:Drivers/STM32G0xx_HAL_Driver/Src/stm32g0xx_hal_dma.c ****   /* Return DMA handle state */
 947:Drivers/STM32G0xx_HAL_Driver/Src/stm32g0xx_hal_dma.c ****   return hdma->State;
 948:Drivers/STM32G0xx_HAL_Driver/Src/stm32g0xx_hal_dma.c **** }
 949:Drivers/STM32G0xx_HAL_Driver/Src/stm32g0xx_hal_dma.c **** 
 950:Drivers/STM32G0xx_HAL_Driver/Src/stm32g0xx_hal_dma.c **** /**
 951:Drivers/STM32G0xx_HAL_Driver/Src/stm32g0xx_hal_dma.c ****   * @brief  Return the DMA error code.
 952:Drivers/STM32G0xx_HAL_Driver/Src/stm32g0xx_hal_dma.c ****   * @param  hdma Pointer to a DMA_HandleTypeDef structure that contains
 953:Drivers/STM32G0xx_HAL_Driver/Src/stm32g0xx_hal_dma.c ****   *              the configuration information for the specified DMA Channel.
 954:Drivers/STM32G0xx_HAL_Driver/Src/stm32g0xx_hal_dma.c ****   * @retval DMA Error Code
 955:Drivers/STM32G0xx_HAL_Driver/Src/stm32g0xx_hal_dma.c ****   */
 956:Drivers/STM32G0xx_HAL_Driver/Src/stm32g0xx_hal_dma.c **** uint32_t HAL_DMA_GetError(DMA_HandleTypeDef *hdma)
 957:Drivers/STM32G0xx_HAL_Driver/Src/stm32g0xx_hal_dma.c **** {
 958:Drivers/STM32G0xx_HAL_Driver/Src/stm32g0xx_hal_dma.c ****   return hdma->ErrorCode;
 959:Drivers/STM32G0xx_HAL_Driver/Src/stm32g0xx_hal_dma.c **** }
 960:Drivers/STM32G0xx_HAL_Driver/Src/stm32g0xx_hal_dma.c **** 
 961:Drivers/STM32G0xx_HAL_Driver/Src/stm32g0xx_hal_dma.c **** /**
 962:Drivers/STM32G0xx_HAL_Driver/Src/stm32g0xx_hal_dma.c ****   * @}
 963:Drivers/STM32G0xx_HAL_Driver/Src/stm32g0xx_hal_dma.c ****   */
 964:Drivers/STM32G0xx_HAL_Driver/Src/stm32g0xx_hal_dma.c **** 
 965:Drivers/STM32G0xx_HAL_Driver/Src/stm32g0xx_hal_dma.c **** /**
 966:Drivers/STM32G0xx_HAL_Driver/Src/stm32g0xx_hal_dma.c ****   * @}
 967:Drivers/STM32G0xx_HAL_Driver/Src/stm32g0xx_hal_dma.c ****   */
 968:Drivers/STM32G0xx_HAL_Driver/Src/stm32g0xx_hal_dma.c **** 
 969:Drivers/STM32G0xx_HAL_Driver/Src/stm32g0xx_hal_dma.c **** /** @addtogroup DMA_Private_Functions
 970:Drivers/STM32G0xx_HAL_Driver/Src/stm32g0xx_hal_dma.c ****   * @{
 971:Drivers/STM32G0xx_HAL_Driver/Src/stm32g0xx_hal_dma.c ****   */
 972:Drivers/STM32G0xx_HAL_Driver/Src/stm32g0xx_hal_dma.c **** 
 973:Drivers/STM32G0xx_HAL_Driver/Src/stm32g0xx_hal_dma.c **** /**
 974:Drivers/STM32G0xx_HAL_Driver/Src/stm32g0xx_hal_dma.c ****   * @brief  Sets the DMA Transfer parameter.
 975:Drivers/STM32G0xx_HAL_Driver/Src/stm32g0xx_hal_dma.c ****   * @param hdma Pointer to a DMA_HandleTypeDef structure that contains
 976:Drivers/STM32G0xx_HAL_Driver/Src/stm32g0xx_hal_dma.c ****   *                     the configuration information for the specified DMA Channel.
 977:Drivers/STM32G0xx_HAL_Driver/Src/stm32g0xx_hal_dma.c ****   * @param SrcAddress The source memory Buffer address
 978:Drivers/STM32G0xx_HAL_Driver/Src/stm32g0xx_hal_dma.c ****   * @param DstAddress The destination memory Buffer address
 979:Drivers/STM32G0xx_HAL_Driver/Src/stm32g0xx_hal_dma.c ****   * @param DataLength The length of data to be transferred from source to destination
 980:Drivers/STM32G0xx_HAL_Driver/Src/stm32g0xx_hal_dma.c ****   * @retval HAL status
 981:Drivers/STM32G0xx_HAL_Driver/Src/stm32g0xx_hal_dma.c ****   */
 982:Drivers/STM32G0xx_HAL_Driver/Src/stm32g0xx_hal_dma.c **** static void DMA_SetConfig(DMA_HandleTypeDef *hdma, uint32_t SrcAddress, uint32_t DstAddress, uint32
 983:Drivers/STM32G0xx_HAL_Driver/Src/stm32g0xx_hal_dma.c **** {
  27              		.loc 1 983 1 view -0
  28              		.cfi_startproc
  29              		@ args = 0, pretend = 0, frame = 0
  30              		@ frame_needed = 0, uses_anonymous_args = 0
  31              		.loc 1 983 1 is_stmt 0 view .LVU1
  32 0000 F0B5     		push	{r4, r5, r6, r7, lr}
  33              	.LCFI0:
  34              		.cfi_def_cfa_offset 20
  35              		.cfi_offset 4, -20
  36              		.cfi_offset 5, -16
  37              		.cfi_offset 6, -12
  38              		.cfi_offset 7, -8
  39              		.cfi_offset 14, -4
 984:Drivers/STM32G0xx_HAL_Driver/Src/stm32g0xx_hal_dma.c ****   /* Clear the DMAMUX synchro overrun flag */
 985:Drivers/STM32G0xx_HAL_Driver/Src/stm32g0xx_hal_dma.c ****   hdma->DMAmuxChannelStatus->CFR = hdma->DMAmuxChannelStatusMask;
  40              		.loc 1 985 3 is_stmt 1 view .LVU2
  41              		.loc 1 985 7 is_stmt 0 view .LVU3
  42 0002 846C     		ldr	r4, [r0, #72]
ARM GAS  /tmp/ccWiXf77.s 			page 19


  43              		.loc 1 985 34 view .LVU4
  44 0004 C56C     		ldr	r5, [r0, #76]
  45 0006 6560     		str	r5, [r4, #4]
 986:Drivers/STM32G0xx_HAL_Driver/Src/stm32g0xx_hal_dma.c **** 
 987:Drivers/STM32G0xx_HAL_Driver/Src/stm32g0xx_hal_dma.c ****   if (hdma->DMAmuxRequestGen != 0U)
  46              		.loc 1 987 3 is_stmt 1 view .LVU5
  47              		.loc 1 987 6 is_stmt 0 view .LVU6
  48 0008 046D     		ldr	r4, [r0, #80]
  49 000a 002C     		cmp	r4, #0
  50 000c 02D0     		beq	.L2
 988:Drivers/STM32G0xx_HAL_Driver/Src/stm32g0xx_hal_dma.c ****   {
 989:Drivers/STM32G0xx_HAL_Driver/Src/stm32g0xx_hal_dma.c ****     /* Clear the DMAMUX request generator overrun flag */
 990:Drivers/STM32G0xx_HAL_Driver/Src/stm32g0xx_hal_dma.c ****     hdma->DMAmuxRequestGenStatus->RGCFR = hdma->DMAmuxRequestGenStatusMask;
  51              		.loc 1 990 5 is_stmt 1 view .LVU7
  52              		.loc 1 990 9 is_stmt 0 view .LVU8
  53 000e 446D     		ldr	r4, [r0, #84]
  54              		.loc 1 990 41 view .LVU9
  55 0010 856D     		ldr	r5, [r0, #88]
  56 0012 6560     		str	r5, [r4, #4]
  57              	.L2:
 991:Drivers/STM32G0xx_HAL_Driver/Src/stm32g0xx_hal_dma.c ****   }
 992:Drivers/STM32G0xx_HAL_Driver/Src/stm32g0xx_hal_dma.c **** 
 993:Drivers/STM32G0xx_HAL_Driver/Src/stm32g0xx_hal_dma.c ****   /* Clear all flags */
 994:Drivers/STM32G0xx_HAL_Driver/Src/stm32g0xx_hal_dma.c ****   __HAL_DMA_CLEAR_FLAG(hdma, (DMA_FLAG_GI1 << (hdma->ChannelIndex & 0x1cU)));
  58              		.loc 1 994 3 is_stmt 1 view .LVU10
  59 0014 0B4F     		ldr	r7, .L6
  60 0016 7C68     		ldr	r4, [r7, #4]
  61 0018 1C26     		movs	r6, #28
  62 001a 056C     		ldr	r5, [r0, #64]
  63 001c 2E40     		ands	r6, r5
  64 001e 0125     		movs	r5, #1
  65 0020 B540     		lsls	r5, r5, r6
  66 0022 2C43     		orrs	r4, r5
  67 0024 7C60     		str	r4, [r7, #4]
 995:Drivers/STM32G0xx_HAL_Driver/Src/stm32g0xx_hal_dma.c **** 
 996:Drivers/STM32G0xx_HAL_Driver/Src/stm32g0xx_hal_dma.c ****   /* Configure DMA Channel data length */
 997:Drivers/STM32G0xx_HAL_Driver/Src/stm32g0xx_hal_dma.c ****   hdma->Instance->CNDTR = DataLength;
  68              		.loc 1 997 3 view .LVU11
  69              		.loc 1 997 7 is_stmt 0 view .LVU12
  70 0026 0468     		ldr	r4, [r0]
  71              		.loc 1 997 25 view .LVU13
  72 0028 6360     		str	r3, [r4, #4]
 998:Drivers/STM32G0xx_HAL_Driver/Src/stm32g0xx_hal_dma.c **** 
 999:Drivers/STM32G0xx_HAL_Driver/Src/stm32g0xx_hal_dma.c ****   /* Peripheral to Memory */
1000:Drivers/STM32G0xx_HAL_Driver/Src/stm32g0xx_hal_dma.c ****   if ((hdma->Init.Direction) == DMA_MEMORY_TO_PERIPH)
  73              		.loc 1 1000 3 is_stmt 1 view .LVU14
  74              		.loc 1 1000 6 is_stmt 0 view .LVU15
  75 002a 8368     		ldr	r3, [r0, #8]
  76              	.LVL1:
  77              		.loc 1 1000 6 view .LVU16
  78 002c 102B     		cmp	r3, #16
  79 002e 04D0     		beq	.L5
1001:Drivers/STM32G0xx_HAL_Driver/Src/stm32g0xx_hal_dma.c ****   {
1002:Drivers/STM32G0xx_HAL_Driver/Src/stm32g0xx_hal_dma.c ****     /* Configure DMA Channel destination address */
1003:Drivers/STM32G0xx_HAL_Driver/Src/stm32g0xx_hal_dma.c ****     hdma->Instance->CPAR = DstAddress;
1004:Drivers/STM32G0xx_HAL_Driver/Src/stm32g0xx_hal_dma.c **** 
1005:Drivers/STM32G0xx_HAL_Driver/Src/stm32g0xx_hal_dma.c ****     /* Configure DMA Channel source address */
ARM GAS  /tmp/ccWiXf77.s 			page 20


1006:Drivers/STM32G0xx_HAL_Driver/Src/stm32g0xx_hal_dma.c ****     hdma->Instance->CMAR = SrcAddress;
1007:Drivers/STM32G0xx_HAL_Driver/Src/stm32g0xx_hal_dma.c ****   }
1008:Drivers/STM32G0xx_HAL_Driver/Src/stm32g0xx_hal_dma.c ****   /* Memory to Peripheral */
1009:Drivers/STM32G0xx_HAL_Driver/Src/stm32g0xx_hal_dma.c ****   else
1010:Drivers/STM32G0xx_HAL_Driver/Src/stm32g0xx_hal_dma.c ****   {
1011:Drivers/STM32G0xx_HAL_Driver/Src/stm32g0xx_hal_dma.c ****     /* Configure DMA Channel source address */
1012:Drivers/STM32G0xx_HAL_Driver/Src/stm32g0xx_hal_dma.c ****     hdma->Instance->CPAR = SrcAddress;
  80              		.loc 1 1012 5 is_stmt 1 view .LVU17
  81              		.loc 1 1012 9 is_stmt 0 view .LVU18
  82 0030 0368     		ldr	r3, [r0]
  83              		.loc 1 1012 26 view .LVU19
  84 0032 9960     		str	r1, [r3, #8]
  85              	.LVL2:
1013:Drivers/STM32G0xx_HAL_Driver/Src/stm32g0xx_hal_dma.c **** 
1014:Drivers/STM32G0xx_HAL_Driver/Src/stm32g0xx_hal_dma.c ****     /* Configure DMA Channel destination address */
1015:Drivers/STM32G0xx_HAL_Driver/Src/stm32g0xx_hal_dma.c ****     hdma->Instance->CMAR = DstAddress;
  86              		.loc 1 1015 5 is_stmt 1 view .LVU20
  87              		.loc 1 1015 9 is_stmt 0 view .LVU21
  88 0034 0368     		ldr	r3, [r0]
  89              		.loc 1 1015 26 view .LVU22
  90 0036 DA60     		str	r2, [r3, #12]
  91              	.L1:
1016:Drivers/STM32G0xx_HAL_Driver/Src/stm32g0xx_hal_dma.c ****   }
1017:Drivers/STM32G0xx_HAL_Driver/Src/stm32g0xx_hal_dma.c **** }
  92              		.loc 1 1017 1 view .LVU23
  93              		@ sp needed
  94 0038 F0BD     		pop	{r4, r5, r6, r7, pc}
  95              	.LVL3:
  96              	.L5:
1003:Drivers/STM32G0xx_HAL_Driver/Src/stm32g0xx_hal_dma.c **** 
  97              		.loc 1 1003 5 is_stmt 1 view .LVU24
1003:Drivers/STM32G0xx_HAL_Driver/Src/stm32g0xx_hal_dma.c **** 
  98              		.loc 1 1003 9 is_stmt 0 view .LVU25
  99 003a 0368     		ldr	r3, [r0]
1003:Drivers/STM32G0xx_HAL_Driver/Src/stm32g0xx_hal_dma.c **** 
 100              		.loc 1 1003 26 view .LVU26
 101 003c 9A60     		str	r2, [r3, #8]
 102              	.LVL4:
1006:Drivers/STM32G0xx_HAL_Driver/Src/stm32g0xx_hal_dma.c ****   }
 103              		.loc 1 1006 5 is_stmt 1 view .LVU27
1006:Drivers/STM32G0xx_HAL_Driver/Src/stm32g0xx_hal_dma.c ****   }
 104              		.loc 1 1006 9 is_stmt 0 view .LVU28
 105 003e 0368     		ldr	r3, [r0]
1006:Drivers/STM32G0xx_HAL_Driver/Src/stm32g0xx_hal_dma.c ****   }
 106              		.loc 1 1006 26 view .LVU29
 107 0040 D960     		str	r1, [r3, #12]
 108 0042 F9E7     		b	.L1
 109              	.L7:
 110              		.align	2
 111              	.L6:
 112 0044 00000240 		.word	1073872896
 113              		.cfi_endproc
 114              	.LFE170:
 116              		.global	__aeabi_uidiv
 117              		.section	.text.DMA_CalcDMAMUXChannelBaseAndMask,"ax",%progbits
 118              		.align	1
 119              		.syntax unified
ARM GAS  /tmp/ccWiXf77.s 			page 21


 120              		.code	16
 121              		.thumb_func
 122              		.fpu softvfp
 124              	DMA_CalcDMAMUXChannelBaseAndMask:
 125              	.LVL5:
 126              	.LFB171:
1018:Drivers/STM32G0xx_HAL_Driver/Src/stm32g0xx_hal_dma.c **** 
1019:Drivers/STM32G0xx_HAL_Driver/Src/stm32g0xx_hal_dma.c **** /**
1020:Drivers/STM32G0xx_HAL_Driver/Src/stm32g0xx_hal_dma.c ****   * @brief  Updates the DMA handle with the DMAMUX  channel and status mask depending on stream num
1021:Drivers/STM32G0xx_HAL_Driver/Src/stm32g0xx_hal_dma.c ****   * @param  hdma Pointer to a DMA_HandleTypeDef structure that contains
1022:Drivers/STM32G0xx_HAL_Driver/Src/stm32g0xx_hal_dma.c ****   *                     the configuration information for the specified DMA Stream.
1023:Drivers/STM32G0xx_HAL_Driver/Src/stm32g0xx_hal_dma.c ****   * @retval None
1024:Drivers/STM32G0xx_HAL_Driver/Src/stm32g0xx_hal_dma.c ****   */
1025:Drivers/STM32G0xx_HAL_Driver/Src/stm32g0xx_hal_dma.c **** static void DMA_CalcDMAMUXChannelBaseAndMask(DMA_HandleTypeDef *hdma)
1026:Drivers/STM32G0xx_HAL_Driver/Src/stm32g0xx_hal_dma.c **** {
 127              		.loc 1 1026 1 is_stmt 1 view -0
 128              		.cfi_startproc
 129              		@ args = 0, pretend = 0, frame = 0
 130              		@ frame_needed = 0, uses_anonymous_args = 0
 131              		.loc 1 1026 1 is_stmt 0 view .LVU31
 132 0000 10B5     		push	{r4, lr}
 133              	.LCFI1:
 134              		.cfi_def_cfa_offset 8
 135              		.cfi_offset 4, -8
 136              		.cfi_offset 14, -4
 137 0002 0400     		movs	r4, r0
1027:Drivers/STM32G0xx_HAL_Driver/Src/stm32g0xx_hal_dma.c ****   uint32_t channel_number;
 138              		.loc 1 1027 3 is_stmt 1 view .LVU32
1028:Drivers/STM32G0xx_HAL_Driver/Src/stm32g0xx_hal_dma.c **** 
1029:Drivers/STM32G0xx_HAL_Driver/Src/stm32g0xx_hal_dma.c ****   channel_number = (((uint32_t)hdma->Instance & 0xFFU) - 8U) / 20U;
 139              		.loc 1 1029 3 view .LVU33
 140              		.loc 1 1029 47 is_stmt 0 view .LVU34
 141 0004 FF20     		movs	r0, #255
 142              	.LVL6:
 143              		.loc 1 1029 47 view .LVU35
 144 0006 2368     		ldr	r3, [r4]
 145 0008 1840     		ands	r0, r3
 146              		.loc 1 1029 56 view .LVU36
 147 000a 0838     		subs	r0, r0, #8
 148              		.loc 1 1029 18 view .LVU37
 149 000c 1421     		movs	r1, #20
 150 000e FFF7FEFF 		bl	__aeabi_uidiv
 151              	.LVL7:
1030:Drivers/STM32G0xx_HAL_Driver/Src/stm32g0xx_hal_dma.c ****   hdma->DMAmuxChannel = (DMAMUX_Channel_TypeDef *)(uint32_t)((uint32_t)DMAMUX1_Channel0 + ((hdma->C
 152              		.loc 1 1030 3 is_stmt 1 view .LVU38
 153              		.loc 1 1030 112 is_stmt 0 view .LVU39
 154 0012 236C     		ldr	r3, [r4, #64]
 155 0014 9B08     		lsrs	r3, r3, #2
 156              		.loc 1 1030 51 view .LVU40
 157 0016 064A     		ldr	r2, .L9
 158 0018 9446     		mov	ip, r2
 159 001a 6344     		add	r3, r3, ip
 160 001c 9B00     		lsls	r3, r3, #2
 161              		.loc 1 1030 23 view .LVU41
 162 001e 6364     		str	r3, [r4, #68]
1031:Drivers/STM32G0xx_HAL_Driver/Src/stm32g0xx_hal_dma.c ****   hdma->DMAmuxChannelStatus = DMAMUX1_ChannelStatus;
 163              		.loc 1 1031 3 is_stmt 1 view .LVU42
ARM GAS  /tmp/ccWiXf77.s 			page 22


 164              		.loc 1 1031 29 is_stmt 0 view .LVU43
 165 0020 044B     		ldr	r3, .L9+4
 166 0022 A364     		str	r3, [r4, #72]
1032:Drivers/STM32G0xx_HAL_Driver/Src/stm32g0xx_hal_dma.c ****   hdma->DMAmuxChannelStatusMask = 1UL << (channel_number & 0x1cU);
 167              		.loc 1 1032 3 is_stmt 1 view .LVU44
 168              		.loc 1 1032 58 is_stmt 0 view .LVU45
 169 0024 1C23     		movs	r3, #28
 170 0026 1840     		ands	r0, r3
 171              	.LVL8:
 172              		.loc 1 1032 39 view .LVU46
 173 0028 1B3B     		subs	r3, r3, #27
 174 002a 8340     		lsls	r3, r3, r0
 175              		.loc 1 1032 33 view .LVU47
 176 002c E364     		str	r3, [r4, #76]
1033:Drivers/STM32G0xx_HAL_Driver/Src/stm32g0xx_hal_dma.c **** }
 177              		.loc 1 1033 1 view .LVU48
 178              		@ sp needed
 179              	.LVL9:
 180              		.loc 1 1033 1 view .LVU49
 181 002e 10BD     		pop	{r4, pc}
 182              	.L10:
 183              		.align	2
 184              	.L9:
 185 0030 00820010 		.word	268468736
 186 0034 80080240 		.word	1073875072
 187              		.cfi_endproc
 188              	.LFE171:
 190              		.section	.text.DMA_CalcDMAMUXRequestGenBaseAndMask,"ax",%progbits
 191              		.align	1
 192              		.syntax unified
 193              		.code	16
 194              		.thumb_func
 195              		.fpu softvfp
 197              	DMA_CalcDMAMUXRequestGenBaseAndMask:
 198              	.LVL10:
 199              	.LFB172:
1034:Drivers/STM32G0xx_HAL_Driver/Src/stm32g0xx_hal_dma.c **** 
1035:Drivers/STM32G0xx_HAL_Driver/Src/stm32g0xx_hal_dma.c **** /**
1036:Drivers/STM32G0xx_HAL_Driver/Src/stm32g0xx_hal_dma.c ****   * @brief  Updates the DMA handle with the DMAMUX  request generator params
1037:Drivers/STM32G0xx_HAL_Driver/Src/stm32g0xx_hal_dma.c ****   * @param  hdma Pointer to a DMA_HandleTypeDef structure that contains
1038:Drivers/STM32G0xx_HAL_Driver/Src/stm32g0xx_hal_dma.c ****   *                     the configuration information for the specified DMA Stream.
1039:Drivers/STM32G0xx_HAL_Driver/Src/stm32g0xx_hal_dma.c ****   * @retval None
1040:Drivers/STM32G0xx_HAL_Driver/Src/stm32g0xx_hal_dma.c ****   */
1041:Drivers/STM32G0xx_HAL_Driver/Src/stm32g0xx_hal_dma.c **** 
1042:Drivers/STM32G0xx_HAL_Driver/Src/stm32g0xx_hal_dma.c **** static void DMA_CalcDMAMUXRequestGenBaseAndMask(DMA_HandleTypeDef *hdma)
1043:Drivers/STM32G0xx_HAL_Driver/Src/stm32g0xx_hal_dma.c **** {
 200              		.loc 1 1043 1 is_stmt 1 view -0
 201              		.cfi_startproc
 202              		@ args = 0, pretend = 0, frame = 0
 203              		@ frame_needed = 0, uses_anonymous_args = 0
 204              		@ link register save eliminated.
1044:Drivers/STM32G0xx_HAL_Driver/Src/stm32g0xx_hal_dma.c ****   uint32_t request =  hdma->Init.Request & DMAMUX_CxCR_DMAREQ_ID;
 205              		.loc 1 1044 3 view .LVU51
 206              		.loc 1 1044 12 is_stmt 0 view .LVU52
 207 0000 FF23     		movs	r3, #255
 208 0002 4268     		ldr	r2, [r0, #4]
 209 0004 1340     		ands	r3, r2
ARM GAS  /tmp/ccWiXf77.s 			page 23


 210              	.LVL11:
1045:Drivers/STM32G0xx_HAL_Driver/Src/stm32g0xx_hal_dma.c **** 
1046:Drivers/STM32G0xx_HAL_Driver/Src/stm32g0xx_hal_dma.c ****   /* DMA Channels are connected to DMAMUX1 request generator blocks*/
1047:Drivers/STM32G0xx_HAL_Driver/Src/stm32g0xx_hal_dma.c ****   hdma->DMAmuxRequestGen = (DMAMUX_RequestGen_TypeDef *)((uint32_t)(((uint32_t)DMAMUX1_RequestGener
 211              		.loc 1 1047 3 is_stmt 1 view .LVU53
 212              		.loc 1 1047 58 is_stmt 0 view .LVU54
 213 0006 064A     		ldr	r2, .L12
 214 0008 9A18     		adds	r2, r3, r2
 215 000a 9200     		lsls	r2, r2, #2
 216              		.loc 1 1047 26 view .LVU55
 217 000c 0265     		str	r2, [r0, #80]
1048:Drivers/STM32G0xx_HAL_Driver/Src/stm32g0xx_hal_dma.c **** 
1049:Drivers/STM32G0xx_HAL_Driver/Src/stm32g0xx_hal_dma.c ****   hdma->DMAmuxRequestGenStatus = DMAMUX1_RequestGenStatus;
 218              		.loc 1 1049 3 is_stmt 1 view .LVU56
 219              		.loc 1 1049 32 is_stmt 0 view .LVU57
 220 000e 054A     		ldr	r2, .L12+4
 221 0010 4265     		str	r2, [r0, #84]
1050:Drivers/STM32G0xx_HAL_Driver/Src/stm32g0xx_hal_dma.c **** 
1051:Drivers/STM32G0xx_HAL_Driver/Src/stm32g0xx_hal_dma.c ****   /* here "Request" is either DMA_REQUEST_GENERATOR0 to 4, i.e. <= 4*/
1052:Drivers/STM32G0xx_HAL_Driver/Src/stm32g0xx_hal_dma.c ****   hdma->DMAmuxRequestGenStatusMask = 1UL << ((request - 1U) & 0x3U);
 222              		.loc 1 1052 3 is_stmt 1 view .LVU58
 223              		.loc 1 1052 55 is_stmt 0 view .LVU59
 224 0012 013B     		subs	r3, r3, #1
 225              	.LVL12:
 226              		.loc 1 1052 61 view .LVU60
 227 0014 0322     		movs	r2, #3
 228 0016 1A40     		ands	r2, r3
 229              		.loc 1 1052 42 view .LVU61
 230 0018 0123     		movs	r3, #1
 231              	.LVL13:
 232              		.loc 1 1052 42 view .LVU62
 233 001a 9340     		lsls	r3, r3, r2
 234              		.loc 1 1052 36 view .LVU63
 235 001c 8365     		str	r3, [r0, #88]
1053:Drivers/STM32G0xx_HAL_Driver/Src/stm32g0xx_hal_dma.c **** }
 236              		.loc 1 1053 1 view .LVU64
 237              		@ sp needed
 238 001e 7047     		bx	lr
 239              	.L13:
 240              		.align	2
 241              	.L12:
 242 0020 3F820010 		.word	268468799
 243 0024 40090240 		.word	1073875264
 244              		.cfi_endproc
 245              	.LFE172:
 247              		.section	.text.HAL_DMA_Init,"ax",%progbits
 248              		.align	1
 249              		.global	HAL_DMA_Init
 250              		.syntax unified
 251              		.code	16
 252              		.thumb_func
 253              		.fpu softvfp
 255              	HAL_DMA_Init:
 256              	.LVL14:
 257              	.LFB158:
 152:Drivers/STM32G0xx_HAL_Driver/Src/stm32g0xx_hal_dma.c ****   /* Check the DMA handle allocation */
 258              		.loc 1 152 1 is_stmt 1 view -0
ARM GAS  /tmp/ccWiXf77.s 			page 24


 259              		.cfi_startproc
 260              		@ args = 0, pretend = 0, frame = 0
 261              		@ frame_needed = 0, uses_anonymous_args = 0
 152:Drivers/STM32G0xx_HAL_Driver/Src/stm32g0xx_hal_dma.c ****   /* Check the DMA handle allocation */
 262              		.loc 1 152 1 is_stmt 0 view .LVU66
 263 0000 70B5     		push	{r4, r5, r6, lr}
 264              	.LCFI2:
 265              		.cfi_def_cfa_offset 16
 266              		.cfi_offset 4, -16
 267              		.cfi_offset 5, -12
 268              		.cfi_offset 6, -8
 269              		.cfi_offset 14, -4
 270 0002 041E     		subs	r4, r0, #0
 154:Drivers/STM32G0xx_HAL_Driver/Src/stm32g0xx_hal_dma.c ****   {
 271              		.loc 1 154 3 is_stmt 1 view .LVU67
 154:Drivers/STM32G0xx_HAL_Driver/Src/stm32g0xx_hal_dma.c ****   {
 272              		.loc 1 154 6 is_stmt 0 view .LVU68
 273 0004 4DD0     		beq	.L19
 160:Drivers/STM32G0xx_HAL_Driver/Src/stm32g0xx_hal_dma.c ****   assert_param(IS_DMA_DIRECTION(hdma->Init.Direction));
 274              		.loc 1 160 3 is_stmt 1 view .LVU69
 161:Drivers/STM32G0xx_HAL_Driver/Src/stm32g0xx_hal_dma.c ****   assert_param(IS_DMA_PERIPHERAL_INC_STATE(hdma->Init.PeriphInc));
 275              		.loc 1 161 3 view .LVU70
 162:Drivers/STM32G0xx_HAL_Driver/Src/stm32g0xx_hal_dma.c ****   assert_param(IS_DMA_MEMORY_INC_STATE(hdma->Init.MemInc));
 276              		.loc 1 162 3 view .LVU71
 163:Drivers/STM32G0xx_HAL_Driver/Src/stm32g0xx_hal_dma.c ****   assert_param(IS_DMA_PERIPHERAL_DATA_SIZE(hdma->Init.PeriphDataAlignment));
 277              		.loc 1 163 3 view .LVU72
 164:Drivers/STM32G0xx_HAL_Driver/Src/stm32g0xx_hal_dma.c ****   assert_param(IS_DMA_MEMORY_DATA_SIZE(hdma->Init.MemDataAlignment));
 278              		.loc 1 164 3 view .LVU73
 165:Drivers/STM32G0xx_HAL_Driver/Src/stm32g0xx_hal_dma.c ****   assert_param(IS_DMA_MODE(hdma->Init.Mode));
 279              		.loc 1 165 3 view .LVU74
 166:Drivers/STM32G0xx_HAL_Driver/Src/stm32g0xx_hal_dma.c ****   assert_param(IS_DMA_PRIORITY(hdma->Init.Priority));
 280              		.loc 1 166 3 view .LVU75
 167:Drivers/STM32G0xx_HAL_Driver/Src/stm32g0xx_hal_dma.c **** 
 281              		.loc 1 167 3 view .LVU76
 170:Drivers/STM32G0xx_HAL_Driver/Src/stm32g0xx_hal_dma.c **** 
 282              		.loc 1 170 3 view .LVU77
 170:Drivers/STM32G0xx_HAL_Driver/Src/stm32g0xx_hal_dma.c **** 
 283              		.loc 1 170 40 is_stmt 0 view .LVU78
 284 0006 0568     		ldr	r5, [r0]
 170:Drivers/STM32G0xx_HAL_Driver/Src/stm32g0xx_hal_dma.c **** 
 285              		.loc 1 170 51 view .LVU79
 286 0008 274B     		ldr	r3, .L22
 287 000a E818     		adds	r0, r5, r3
 288              	.LVL15:
 170:Drivers/STM32G0xx_HAL_Driver/Src/stm32g0xx_hal_dma.c **** 
 289              		.loc 1 170 78 view .LVU80
 290 000c 1421     		movs	r1, #20
 291 000e FFF7FEFF 		bl	__aeabi_uidiv
 292              	.LVL16:
 170:Drivers/STM32G0xx_HAL_Driver/Src/stm32g0xx_hal_dma.c **** 
 293              		.loc 1 170 133 view .LVU81
 294 0012 8000     		lsls	r0, r0, #2
 170:Drivers/STM32G0xx_HAL_Driver/Src/stm32g0xx_hal_dma.c **** 
 295              		.loc 1 170 22 view .LVU82
 296 0014 2064     		str	r0, [r4, #64]
 173:Drivers/STM32G0xx_HAL_Driver/Src/stm32g0xx_hal_dma.c **** 
 297              		.loc 1 173 3 is_stmt 1 view .LVU83
ARM GAS  /tmp/ccWiXf77.s 			page 25


 173:Drivers/STM32G0xx_HAL_Driver/Src/stm32g0xx_hal_dma.c **** 
 298              		.loc 1 173 15 is_stmt 0 view .LVU84
 299 0016 2523     		movs	r3, #37
 300 0018 0222     		movs	r2, #2
 301 001a E254     		strb	r2, [r4, r3]
 176:Drivers/STM32G0xx_HAL_Driver/Src/stm32g0xx_hal_dma.c ****                                   DMA_CCR_MINC  | DMA_CCR_PINC   | DMA_CCR_CIRC   | \
 302              		.loc 1 176 3 is_stmt 1 view .LVU85
 303 001c 2B68     		ldr	r3, [r5]
 304 001e 234A     		ldr	r2, .L22+4
 305 0020 1340     		ands	r3, r2
 306 0022 2B60     		str	r3, [r5]
 181:Drivers/STM32G0xx_HAL_Driver/Src/stm32g0xx_hal_dma.c ****                                 hdma->Init.PeriphInc           | hdma->Init.MemInc           | \
 307              		.loc 1 181 3 view .LVU86
 308 0024 2168     		ldr	r1, [r4]
 309 0026 0A68     		ldr	r2, [r1]
 310 0028 A368     		ldr	r3, [r4, #8]
 311 002a E068     		ldr	r0, [r4, #12]
 312 002c 0343     		orrs	r3, r0
 313 002e 2069     		ldr	r0, [r4, #16]
 314 0030 0343     		orrs	r3, r0
 315 0032 6069     		ldr	r0, [r4, #20]
 316 0034 0343     		orrs	r3, r0
 317 0036 A069     		ldr	r0, [r4, #24]
 318 0038 0343     		orrs	r3, r0
 319 003a E069     		ldr	r0, [r4, #28]
 320 003c 0343     		orrs	r3, r0
 321 003e 206A     		ldr	r0, [r4, #32]
 322 0040 0343     		orrs	r3, r0
 323 0042 1343     		orrs	r3, r2
 324 0044 0B60     		str	r3, [r1]
 189:Drivers/STM32G0xx_HAL_Driver/Src/stm32g0xx_hal_dma.c **** 
 325              		.loc 1 189 3 view .LVU87
 326 0046 2000     		movs	r0, r4
 327 0048 FFF7FEFF 		bl	DMA_CalcDMAMUXChannelBaseAndMask
 328              	.LVL17:
 191:Drivers/STM32G0xx_HAL_Driver/Src/stm32g0xx_hal_dma.c ****   {
 329              		.loc 1 191 3 view .LVU88
 191:Drivers/STM32G0xx_HAL_Driver/Src/stm32g0xx_hal_dma.c ****   {
 330              		.loc 1 191 6 is_stmt 0 view .LVU89
 331 004c 8023     		movs	r3, #128
 332 004e DB01     		lsls	r3, r3, #7
 333 0050 A268     		ldr	r2, [r4, #8]
 334 0052 9A42     		cmp	r2, r3
 335 0054 18D0     		beq	.L20
 336              	.L16:
 198:Drivers/STM32G0xx_HAL_Driver/Src/stm32g0xx_hal_dma.c **** 
 337              		.loc 1 198 3 is_stmt 1 view .LVU90
 198:Drivers/STM32G0xx_HAL_Driver/Src/stm32g0xx_hal_dma.c **** 
 338              		.loc 1 198 7 is_stmt 0 view .LVU91
 339 0056 626C     		ldr	r2, [r4, #68]
 198:Drivers/STM32G0xx_HAL_Driver/Src/stm32g0xx_hal_dma.c **** 
 340              		.loc 1 198 50 view .LVU92
 341 0058 FF23     		movs	r3, #255
 342 005a 6168     		ldr	r1, [r4, #4]
 343 005c 0B40     		ands	r3, r1
 198:Drivers/STM32G0xx_HAL_Driver/Src/stm32g0xx_hal_dma.c **** 
 344              		.loc 1 198 28 view .LVU93
ARM GAS  /tmp/ccWiXf77.s 			page 26


 345 005e 1360     		str	r3, [r2]
 201:Drivers/STM32G0xx_HAL_Driver/Src/stm32g0xx_hal_dma.c **** 
 346              		.loc 1 201 3 is_stmt 1 view .LVU94
 201:Drivers/STM32G0xx_HAL_Driver/Src/stm32g0xx_hal_dma.c **** 
 347              		.loc 1 201 7 is_stmt 0 view .LVU95
 348 0060 A36C     		ldr	r3, [r4, #72]
 201:Drivers/STM32G0xx_HAL_Driver/Src/stm32g0xx_hal_dma.c **** 
 349              		.loc 1 201 34 view .LVU96
 350 0062 E26C     		ldr	r2, [r4, #76]
 351 0064 5A60     		str	r2, [r3, #4]
 203:Drivers/STM32G0xx_HAL_Driver/Src/stm32g0xx_hal_dma.c ****   {
 352              		.loc 1 203 3 is_stmt 1 view .LVU97
 203:Drivers/STM32G0xx_HAL_Driver/Src/stm32g0xx_hal_dma.c ****   {
 353              		.loc 1 203 36 is_stmt 0 view .LVU98
 354 0066 6368     		ldr	r3, [r4, #4]
 355 0068 013B     		subs	r3, r3, #1
 203:Drivers/STM32G0xx_HAL_Driver/Src/stm32g0xx_hal_dma.c ****   {
 356              		.loc 1 203 6 view .LVU99
 357 006a 032B     		cmp	r3, #3
 358 006c 0FD9     		bls	.L21
 218:Drivers/STM32G0xx_HAL_Driver/Src/stm32g0xx_hal_dma.c ****     hdma->DMAmuxRequestGenStatus = 0U;
 359              		.loc 1 218 5 is_stmt 1 view .LVU100
 218:Drivers/STM32G0xx_HAL_Driver/Src/stm32g0xx_hal_dma.c ****     hdma->DMAmuxRequestGenStatus = 0U;
 360              		.loc 1 218 28 is_stmt 0 view .LVU101
 361 006e 0023     		movs	r3, #0
 362 0070 2365     		str	r3, [r4, #80]
 219:Drivers/STM32G0xx_HAL_Driver/Src/stm32g0xx_hal_dma.c ****     hdma->DMAmuxRequestGenStatusMask = 0U;
 363              		.loc 1 219 5 is_stmt 1 view .LVU102
 219:Drivers/STM32G0xx_HAL_Driver/Src/stm32g0xx_hal_dma.c ****     hdma->DMAmuxRequestGenStatusMask = 0U;
 364              		.loc 1 219 34 is_stmt 0 view .LVU103
 365 0072 6365     		str	r3, [r4, #84]
 220:Drivers/STM32G0xx_HAL_Driver/Src/stm32g0xx_hal_dma.c ****   }
 366              		.loc 1 220 5 is_stmt 1 view .LVU104
 220:Drivers/STM32G0xx_HAL_Driver/Src/stm32g0xx_hal_dma.c ****   }
 367              		.loc 1 220 38 is_stmt 0 view .LVU105
 368 0074 A365     		str	r3, [r4, #88]
 369              	.L18:
 224:Drivers/STM32G0xx_HAL_Driver/Src/stm32g0xx_hal_dma.c **** 
 370              		.loc 1 224 3 is_stmt 1 view .LVU106
 224:Drivers/STM32G0xx_HAL_Driver/Src/stm32g0xx_hal_dma.c **** 
 371              		.loc 1 224 19 is_stmt 0 view .LVU107
 372 0076 0023     		movs	r3, #0
 373 0078 E363     		str	r3, [r4, #60]
 227:Drivers/STM32G0xx_HAL_Driver/Src/stm32g0xx_hal_dma.c **** 
 374              		.loc 1 227 3 is_stmt 1 view .LVU108
 227:Drivers/STM32G0xx_HAL_Driver/Src/stm32g0xx_hal_dma.c **** 
 375              		.loc 1 227 16 is_stmt 0 view .LVU109
 376 007a 2522     		movs	r2, #37
 377 007c 0121     		movs	r1, #1
 378 007e A154     		strb	r1, [r4, r2]
 230:Drivers/STM32G0xx_HAL_Driver/Src/stm32g0xx_hal_dma.c **** 
 379              		.loc 1 230 3 is_stmt 1 view .LVU110
 230:Drivers/STM32G0xx_HAL_Driver/Src/stm32g0xx_hal_dma.c **** 
 380              		.loc 1 230 3 view .LVU111
 381 0080 013A     		subs	r2, r2, #1
 382 0082 A354     		strb	r3, [r4, r2]
 230:Drivers/STM32G0xx_HAL_Driver/Src/stm32g0xx_hal_dma.c **** 
ARM GAS  /tmp/ccWiXf77.s 			page 27


 383              		.loc 1 230 3 view .LVU112
 232:Drivers/STM32G0xx_HAL_Driver/Src/stm32g0xx_hal_dma.c **** }
 384              		.loc 1 232 3 view .LVU113
 232:Drivers/STM32G0xx_HAL_Driver/Src/stm32g0xx_hal_dma.c **** }
 385              		.loc 1 232 10 is_stmt 0 view .LVU114
 386 0084 0020     		movs	r0, #0
 387              	.L15:
 233:Drivers/STM32G0xx_HAL_Driver/Src/stm32g0xx_hal_dma.c **** 
 388              		.loc 1 233 1 view .LVU115
 389              		@ sp needed
 390              	.LVL18:
 233:Drivers/STM32G0xx_HAL_Driver/Src/stm32g0xx_hal_dma.c **** 
 391              		.loc 1 233 1 view .LVU116
 392 0086 70BD     		pop	{r4, r5, r6, pc}
 393              	.LVL19:
 394              	.L20:
 194:Drivers/STM32G0xx_HAL_Driver/Src/stm32g0xx_hal_dma.c ****   }
 395              		.loc 1 194 5 is_stmt 1 view .LVU117
 194:Drivers/STM32G0xx_HAL_Driver/Src/stm32g0xx_hal_dma.c ****   }
 396              		.loc 1 194 24 is_stmt 0 view .LVU118
 397 0088 0023     		movs	r3, #0
 398 008a 6360     		str	r3, [r4, #4]
 399 008c E3E7     		b	.L16
 400              	.L21:
 208:Drivers/STM32G0xx_HAL_Driver/Src/stm32g0xx_hal_dma.c **** 
 401              		.loc 1 208 5 is_stmt 1 view .LVU119
 402 008e 2000     		movs	r0, r4
 403 0090 FFF7FEFF 		bl	DMA_CalcDMAMUXRequestGenBaseAndMask
 404              	.LVL20:
 211:Drivers/STM32G0xx_HAL_Driver/Src/stm32g0xx_hal_dma.c **** 
 405              		.loc 1 211 5 view .LVU120
 211:Drivers/STM32G0xx_HAL_Driver/Src/stm32g0xx_hal_dma.c **** 
 406              		.loc 1 211 9 is_stmt 0 view .LVU121
 407 0094 236D     		ldr	r3, [r4, #80]
 211:Drivers/STM32G0xx_HAL_Driver/Src/stm32g0xx_hal_dma.c **** 
 408              		.loc 1 211 34 view .LVU122
 409 0096 0022     		movs	r2, #0
 410 0098 1A60     		str	r2, [r3]
 214:Drivers/STM32G0xx_HAL_Driver/Src/stm32g0xx_hal_dma.c ****   }
 411              		.loc 1 214 5 is_stmt 1 view .LVU123
 214:Drivers/STM32G0xx_HAL_Driver/Src/stm32g0xx_hal_dma.c ****   }
 412              		.loc 1 214 9 is_stmt 0 view .LVU124
 413 009a 636D     		ldr	r3, [r4, #84]
 214:Drivers/STM32G0xx_HAL_Driver/Src/stm32g0xx_hal_dma.c ****   }
 414              		.loc 1 214 41 view .LVU125
 415 009c A26D     		ldr	r2, [r4, #88]
 416 009e 5A60     		str	r2, [r3, #4]
 417 00a0 E9E7     		b	.L18
 418              	.LVL21:
 419              	.L19:
 156:Drivers/STM32G0xx_HAL_Driver/Src/stm32g0xx_hal_dma.c ****   }
 420              		.loc 1 156 12 view .LVU126
 421 00a2 0120     		movs	r0, #1
 422              	.LVL22:
 156:Drivers/STM32G0xx_HAL_Driver/Src/stm32g0xx_hal_dma.c ****   }
 423              		.loc 1 156 12 view .LVU127
 424 00a4 EFE7     		b	.L15
ARM GAS  /tmp/ccWiXf77.s 			page 28


 425              	.L23:
 426 00a6 C046     		.align	2
 427              	.L22:
 428 00a8 F8FFFDBF 		.word	-1073872904
 429 00ac 0F80FFFF 		.word	-32753
 430              		.cfi_endproc
 431              	.LFE158:
 433              		.section	.text.HAL_DMA_DeInit,"ax",%progbits
 434              		.align	1
 435              		.global	HAL_DMA_DeInit
 436              		.syntax unified
 437              		.code	16
 438              		.thumb_func
 439              		.fpu softvfp
 441              	HAL_DMA_DeInit:
 442              	.LVL23:
 443              	.LFB159:
 242:Drivers/STM32G0xx_HAL_Driver/Src/stm32g0xx_hal_dma.c ****   /* Check the DMA handle allocation */
 444              		.loc 1 242 1 is_stmt 1 view -0
 445              		.cfi_startproc
 446              		@ args = 0, pretend = 0, frame = 0
 447              		@ frame_needed = 0, uses_anonymous_args = 0
 242:Drivers/STM32G0xx_HAL_Driver/Src/stm32g0xx_hal_dma.c ****   /* Check the DMA handle allocation */
 448              		.loc 1 242 1 is_stmt 0 view .LVU129
 449 0000 F8B5     		push	{r3, r4, r5, r6, r7, lr}
 450              	.LCFI3:
 451              		.cfi_def_cfa_offset 24
 452              		.cfi_offset 3, -24
 453              		.cfi_offset 4, -20
 454              		.cfi_offset 5, -16
 455              		.cfi_offset 6, -12
 456              		.cfi_offset 7, -8
 457              		.cfi_offset 14, -4
 458 0002 041E     		subs	r4, r0, #0
 244:Drivers/STM32G0xx_HAL_Driver/Src/stm32g0xx_hal_dma.c ****   {
 459              		.loc 1 244 3 is_stmt 1 view .LVU130
 244:Drivers/STM32G0xx_HAL_Driver/Src/stm32g0xx_hal_dma.c ****   {
 460              		.loc 1 244 6 is_stmt 0 view .LVU131
 461 0004 3BD0     		beq	.L27
 250:Drivers/STM32G0xx_HAL_Driver/Src/stm32g0xx_hal_dma.c **** 
 462              		.loc 1 250 3 is_stmt 1 view .LVU132
 253:Drivers/STM32G0xx_HAL_Driver/Src/stm32g0xx_hal_dma.c **** 
 463              		.loc 1 253 3 view .LVU133
 464 0006 0268     		ldr	r2, [r0]
 465 0008 1368     		ldr	r3, [r2]
 466 000a 0125     		movs	r5, #1
 467 000c AB43     		bics	r3, r5
 468 000e 1360     		str	r3, [r2]
 256:Drivers/STM32G0xx_HAL_Driver/Src/stm32g0xx_hal_dma.c **** 
 469              		.loc 1 256 3 view .LVU134
 256:Drivers/STM32G0xx_HAL_Driver/Src/stm32g0xx_hal_dma.c **** 
 470              		.loc 1 256 40 is_stmt 0 view .LVU135
 471 0010 0768     		ldr	r7, [r0]
 256:Drivers/STM32G0xx_HAL_Driver/Src/stm32g0xx_hal_dma.c **** 
 472              		.loc 1 256 51 view .LVU136
 473 0012 1C4B     		ldr	r3, .L29
 474 0014 F818     		adds	r0, r7, r3
ARM GAS  /tmp/ccWiXf77.s 			page 29


 475              	.LVL24:
 256:Drivers/STM32G0xx_HAL_Driver/Src/stm32g0xx_hal_dma.c **** 
 476              		.loc 1 256 78 view .LVU137
 477 0016 1421     		movs	r1, #20
 478 0018 FFF7FEFF 		bl	__aeabi_uidiv
 479              	.LVL25:
 256:Drivers/STM32G0xx_HAL_Driver/Src/stm32g0xx_hal_dma.c **** 
 480              		.loc 1 256 133 view .LVU138
 481 001c 8000     		lsls	r0, r0, #2
 256:Drivers/STM32G0xx_HAL_Driver/Src/stm32g0xx_hal_dma.c **** 
 482              		.loc 1 256 22 view .LVU139
 483 001e 2064     		str	r0, [r4, #64]
 259:Drivers/STM32G0xx_HAL_Driver/Src/stm32g0xx_hal_dma.c **** 
 484              		.loc 1 259 3 is_stmt 1 view .LVU140
 259:Drivers/STM32G0xx_HAL_Driver/Src/stm32g0xx_hal_dma.c **** 
 485              		.loc 1 259 24 is_stmt 0 view .LVU141
 486 0020 0026     		movs	r6, #0
 487 0022 3E60     		str	r6, [r7]
 262:Drivers/STM32G0xx_HAL_Driver/Src/stm32g0xx_hal_dma.c **** 
 488              		.loc 1 262 3 is_stmt 1 view .LVU142
 489 0024 1849     		ldr	r1, .L29+4
 490 0026 4B68     		ldr	r3, [r1, #4]
 491 0028 1C22     		movs	r2, #28
 492 002a 206C     		ldr	r0, [r4, #64]
 493 002c 0240     		ands	r2, r0
 494 002e 9540     		lsls	r5, r5, r2
 495 0030 1D43     		orrs	r5, r3
 496 0032 4D60     		str	r5, [r1, #4]
 267:Drivers/STM32G0xx_HAL_Driver/Src/stm32g0xx_hal_dma.c **** 
 497              		.loc 1 267 3 view .LVU143
 498 0034 2000     		movs	r0, r4
 499 0036 FFF7FEFF 		bl	DMA_CalcDMAMUXChannelBaseAndMask
 500              	.LVL26:
 270:Drivers/STM32G0xx_HAL_Driver/Src/stm32g0xx_hal_dma.c **** 
 501              		.loc 1 270 3 view .LVU144
 270:Drivers/STM32G0xx_HAL_Driver/Src/stm32g0xx_hal_dma.c **** 
 502              		.loc 1 270 7 is_stmt 0 view .LVU145
 503 003a 636C     		ldr	r3, [r4, #68]
 270:Drivers/STM32G0xx_HAL_Driver/Src/stm32g0xx_hal_dma.c **** 
 504              		.loc 1 270 28 view .LVU146
 505 003c 1E60     		str	r6, [r3]
 273:Drivers/STM32G0xx_HAL_Driver/Src/stm32g0xx_hal_dma.c **** 
 506              		.loc 1 273 3 is_stmt 1 view .LVU147
 273:Drivers/STM32G0xx_HAL_Driver/Src/stm32g0xx_hal_dma.c **** 
 507              		.loc 1 273 7 is_stmt 0 view .LVU148
 508 003e A36C     		ldr	r3, [r4, #72]
 273:Drivers/STM32G0xx_HAL_Driver/Src/stm32g0xx_hal_dma.c **** 
 509              		.loc 1 273 34 view .LVU149
 510 0040 E26C     		ldr	r2, [r4, #76]
 511 0042 5A60     		str	r2, [r3, #4]
 276:Drivers/STM32G0xx_HAL_Driver/Src/stm32g0xx_hal_dma.c ****   {
 512              		.loc 1 276 3 is_stmt 1 view .LVU150
 276:Drivers/STM32G0xx_HAL_Driver/Src/stm32g0xx_hal_dma.c ****   {
 513              		.loc 1 276 36 is_stmt 0 view .LVU151
 514 0044 6368     		ldr	r3, [r4, #4]
 515 0046 013B     		subs	r3, r3, #1
 276:Drivers/STM32G0xx_HAL_Driver/Src/stm32g0xx_hal_dma.c ****   {
ARM GAS  /tmp/ccWiXf77.s 			page 30


 516              		.loc 1 276 6 view .LVU152
 517 0048 032B     		cmp	r3, #3
 518 004a 0ED9     		bls	.L28
 519              	.L26:
 291:Drivers/STM32G0xx_HAL_Driver/Src/stm32g0xx_hal_dma.c ****   hdma->XferHalfCpltCallback = NULL;
 520              		.loc 1 291 3 is_stmt 1 view .LVU153
 291:Drivers/STM32G0xx_HAL_Driver/Src/stm32g0xx_hal_dma.c ****   hdma->XferHalfCpltCallback = NULL;
 521              		.loc 1 291 26 is_stmt 0 view .LVU154
 522 004c 0023     		movs	r3, #0
 523 004e E362     		str	r3, [r4, #44]
 292:Drivers/STM32G0xx_HAL_Driver/Src/stm32g0xx_hal_dma.c ****   hdma->XferErrorCallback = NULL;
 524              		.loc 1 292 3 is_stmt 1 view .LVU155
 292:Drivers/STM32G0xx_HAL_Driver/Src/stm32g0xx_hal_dma.c ****   hdma->XferErrorCallback = NULL;
 525              		.loc 1 292 30 is_stmt 0 view .LVU156
 526 0050 2363     		str	r3, [r4, #48]
 293:Drivers/STM32G0xx_HAL_Driver/Src/stm32g0xx_hal_dma.c ****   hdma->XferAbortCallback = NULL;
 527              		.loc 1 293 3 is_stmt 1 view .LVU157
 293:Drivers/STM32G0xx_HAL_Driver/Src/stm32g0xx_hal_dma.c ****   hdma->XferAbortCallback = NULL;
 528              		.loc 1 293 27 is_stmt 0 view .LVU158
 529 0052 6363     		str	r3, [r4, #52]
 294:Drivers/STM32G0xx_HAL_Driver/Src/stm32g0xx_hal_dma.c **** 
 530              		.loc 1 294 3 is_stmt 1 view .LVU159
 294:Drivers/STM32G0xx_HAL_Driver/Src/stm32g0xx_hal_dma.c **** 
 531              		.loc 1 294 27 is_stmt 0 view .LVU160
 532 0054 A363     		str	r3, [r4, #56]
 296:Drivers/STM32G0xx_HAL_Driver/Src/stm32g0xx_hal_dma.c ****   hdma->DMAmuxRequestGenStatus = 0U;
 533              		.loc 1 296 3 is_stmt 1 view .LVU161
 296:Drivers/STM32G0xx_HAL_Driver/Src/stm32g0xx_hal_dma.c ****   hdma->DMAmuxRequestGenStatus = 0U;
 534              		.loc 1 296 26 is_stmt 0 view .LVU162
 535 0056 2365     		str	r3, [r4, #80]
 297:Drivers/STM32G0xx_HAL_Driver/Src/stm32g0xx_hal_dma.c ****   hdma->DMAmuxRequestGenStatusMask = 0U;
 536              		.loc 1 297 3 is_stmt 1 view .LVU163
 297:Drivers/STM32G0xx_HAL_Driver/Src/stm32g0xx_hal_dma.c ****   hdma->DMAmuxRequestGenStatusMask = 0U;
 537              		.loc 1 297 32 is_stmt 0 view .LVU164
 538 0058 6365     		str	r3, [r4, #84]
 298:Drivers/STM32G0xx_HAL_Driver/Src/stm32g0xx_hal_dma.c **** 
 539              		.loc 1 298 3 is_stmt 1 view .LVU165
 298:Drivers/STM32G0xx_HAL_Driver/Src/stm32g0xx_hal_dma.c **** 
 540              		.loc 1 298 36 is_stmt 0 view .LVU166
 541 005a A365     		str	r3, [r4, #88]
 301:Drivers/STM32G0xx_HAL_Driver/Src/stm32g0xx_hal_dma.c **** 
 542              		.loc 1 301 3 is_stmt 1 view .LVU167
 301:Drivers/STM32G0xx_HAL_Driver/Src/stm32g0xx_hal_dma.c **** 
 543              		.loc 1 301 19 is_stmt 0 view .LVU168
 544 005c E363     		str	r3, [r4, #60]
 304:Drivers/STM32G0xx_HAL_Driver/Src/stm32g0xx_hal_dma.c **** 
 545              		.loc 1 304 3 is_stmt 1 view .LVU169
 304:Drivers/STM32G0xx_HAL_Driver/Src/stm32g0xx_hal_dma.c **** 
 546              		.loc 1 304 15 is_stmt 0 view .LVU170
 547 005e 2522     		movs	r2, #37
 548 0060 A354     		strb	r3, [r4, r2]
 307:Drivers/STM32G0xx_HAL_Driver/Src/stm32g0xx_hal_dma.c **** 
 549              		.loc 1 307 3 is_stmt 1 view .LVU171
 307:Drivers/STM32G0xx_HAL_Driver/Src/stm32g0xx_hal_dma.c **** 
 550              		.loc 1 307 3 view .LVU172
 551 0062 013A     		subs	r2, r2, #1
 552 0064 A354     		strb	r3, [r4, r2]
ARM GAS  /tmp/ccWiXf77.s 			page 31


 307:Drivers/STM32G0xx_HAL_Driver/Src/stm32g0xx_hal_dma.c **** 
 553              		.loc 1 307 3 view .LVU173
 309:Drivers/STM32G0xx_HAL_Driver/Src/stm32g0xx_hal_dma.c **** }
 554              		.loc 1 309 3 view .LVU174
 309:Drivers/STM32G0xx_HAL_Driver/Src/stm32g0xx_hal_dma.c **** }
 555              		.loc 1 309 10 is_stmt 0 view .LVU175
 556 0066 0020     		movs	r0, #0
 557              	.L25:
 310:Drivers/STM32G0xx_HAL_Driver/Src/stm32g0xx_hal_dma.c **** 
 558              		.loc 1 310 1 view .LVU176
 559              		@ sp needed
 560              	.LVL27:
 310:Drivers/STM32G0xx_HAL_Driver/Src/stm32g0xx_hal_dma.c **** 
 561              		.loc 1 310 1 view .LVU177
 562 0068 F8BD     		pop	{r3, r4, r5, r6, r7, pc}
 563              	.LVL28:
 564              	.L28:
 281:Drivers/STM32G0xx_HAL_Driver/Src/stm32g0xx_hal_dma.c **** 
 565              		.loc 1 281 5 is_stmt 1 view .LVU178
 566 006a 2000     		movs	r0, r4
 567 006c FFF7FEFF 		bl	DMA_CalcDMAMUXRequestGenBaseAndMask
 568              	.LVL29:
 284:Drivers/STM32G0xx_HAL_Driver/Src/stm32g0xx_hal_dma.c **** 
 569              		.loc 1 284 5 view .LVU179
 284:Drivers/STM32G0xx_HAL_Driver/Src/stm32g0xx_hal_dma.c **** 
 570              		.loc 1 284 9 is_stmt 0 view .LVU180
 571 0070 236D     		ldr	r3, [r4, #80]
 284:Drivers/STM32G0xx_HAL_Driver/Src/stm32g0xx_hal_dma.c **** 
 572              		.loc 1 284 34 view .LVU181
 573 0072 0022     		movs	r2, #0
 574 0074 1A60     		str	r2, [r3]
 287:Drivers/STM32G0xx_HAL_Driver/Src/stm32g0xx_hal_dma.c ****   }
 575              		.loc 1 287 5 is_stmt 1 view .LVU182
 287:Drivers/STM32G0xx_HAL_Driver/Src/stm32g0xx_hal_dma.c ****   }
 576              		.loc 1 287 9 is_stmt 0 view .LVU183
 577 0076 636D     		ldr	r3, [r4, #84]
 287:Drivers/STM32G0xx_HAL_Driver/Src/stm32g0xx_hal_dma.c ****   }
 578              		.loc 1 287 41 view .LVU184
 579 0078 A26D     		ldr	r2, [r4, #88]
 580 007a 5A60     		str	r2, [r3, #4]
 581 007c E6E7     		b	.L26
 582              	.LVL30:
 583              	.L27:
 246:Drivers/STM32G0xx_HAL_Driver/Src/stm32g0xx_hal_dma.c ****   }
 584              		.loc 1 246 12 view .LVU185
 585 007e 0120     		movs	r0, #1
 586              	.LVL31:
 246:Drivers/STM32G0xx_HAL_Driver/Src/stm32g0xx_hal_dma.c ****   }
 587              		.loc 1 246 12 view .LVU186
 588 0080 F2E7     		b	.L25
 589              	.L30:
 590 0082 C046     		.align	2
 591              	.L29:
 592 0084 F8FFFDBF 		.word	-1073872904
 593 0088 00000240 		.word	1073872896
 594              		.cfi_endproc
 595              	.LFE159:
ARM GAS  /tmp/ccWiXf77.s 			page 32


 597              		.section	.text.HAL_DMA_Start,"ax",%progbits
 598              		.align	1
 599              		.global	HAL_DMA_Start
 600              		.syntax unified
 601              		.code	16
 602              		.thumb_func
 603              		.fpu softvfp
 605              	HAL_DMA_Start:
 606              	.LVL32:
 607              	.LFB160:
 345:Drivers/STM32G0xx_HAL_Driver/Src/stm32g0xx_hal_dma.c ****   HAL_StatusTypeDef status = HAL_OK;
 608              		.loc 1 345 1 is_stmt 1 view -0
 609              		.cfi_startproc
 610              		@ args = 0, pretend = 0, frame = 0
 611              		@ frame_needed = 0, uses_anonymous_args = 0
 345:Drivers/STM32G0xx_HAL_Driver/Src/stm32g0xx_hal_dma.c ****   HAL_StatusTypeDef status = HAL_OK;
 612              		.loc 1 345 1 is_stmt 0 view .LVU188
 613 0000 70B5     		push	{r4, r5, r6, lr}
 614              	.LCFI4:
 615              		.cfi_def_cfa_offset 16
 616              		.cfi_offset 4, -16
 617              		.cfi_offset 5, -12
 618              		.cfi_offset 6, -8
 619              		.cfi_offset 14, -4
 620 0002 0400     		movs	r4, r0
 346:Drivers/STM32G0xx_HAL_Driver/Src/stm32g0xx_hal_dma.c **** 
 621              		.loc 1 346 3 is_stmt 1 view .LVU189
 622              	.LVL33:
 349:Drivers/STM32G0xx_HAL_Driver/Src/stm32g0xx_hal_dma.c **** 
 623              		.loc 1 349 3 view .LVU190
 352:Drivers/STM32G0xx_HAL_Driver/Src/stm32g0xx_hal_dma.c **** 
 624              		.loc 1 352 3 view .LVU191
 352:Drivers/STM32G0xx_HAL_Driver/Src/stm32g0xx_hal_dma.c **** 
 625              		.loc 1 352 3 view .LVU192
 626 0004 2420     		movs	r0, #36
 627              	.LVL34:
 352:Drivers/STM32G0xx_HAL_Driver/Src/stm32g0xx_hal_dma.c **** 
 628              		.loc 1 352 3 is_stmt 0 view .LVU193
 629 0006 205C     		ldrb	r0, [r4, r0]
 630 0008 0128     		cmp	r0, #1
 631 000a 1ED0     		beq	.L34
 352:Drivers/STM32G0xx_HAL_Driver/Src/stm32g0xx_hal_dma.c **** 
 632              		.loc 1 352 3 is_stmt 1 discriminator 2 view .LVU194
 633 000c 2420     		movs	r0, #36
 634 000e 0125     		movs	r5, #1
 635 0010 2554     		strb	r5, [r4, r0]
 352:Drivers/STM32G0xx_HAL_Driver/Src/stm32g0xx_hal_dma.c **** 
 636              		.loc 1 352 3 discriminator 2 view .LVU195
 354:Drivers/STM32G0xx_HAL_Driver/Src/stm32g0xx_hal_dma.c ****   {
 637              		.loc 1 354 3 discriminator 2 view .LVU196
 354:Drivers/STM32G0xx_HAL_Driver/Src/stm32g0xx_hal_dma.c ****   {
 638              		.loc 1 354 34 is_stmt 0 discriminator 2 view .LVU197
 639 0012 0130     		adds	r0, r0, #1
 640 0014 205C     		ldrb	r0, [r4, r0]
 354:Drivers/STM32G0xx_HAL_Driver/Src/stm32g0xx_hal_dma.c ****   {
 641              		.loc 1 354 6 discriminator 2 view .LVU198
 642 0016 0128     		cmp	r0, #1
ARM GAS  /tmp/ccWiXf77.s 			page 33


 643 0018 04D0     		beq	.L36
 373:Drivers/STM32G0xx_HAL_Driver/Src/stm32g0xx_hal_dma.c ****   }
 644              		.loc 1 373 12 view .LVU199
 645 001a 0220     		movs	r0, #2
 646              	.LVL35:
 647              	.L33:
 377:Drivers/STM32G0xx_HAL_Driver/Src/stm32g0xx_hal_dma.c **** 
 648              		.loc 1 377 3 is_stmt 1 view .LVU200
 377:Drivers/STM32G0xx_HAL_Driver/Src/stm32g0xx_hal_dma.c **** 
 649              		.loc 1 377 3 view .LVU201
 650 001c 2423     		movs	r3, #36
 651 001e 0022     		movs	r2, #0
 652 0020 E254     		strb	r2, [r4, r3]
 377:Drivers/STM32G0xx_HAL_Driver/Src/stm32g0xx_hal_dma.c **** 
 653              		.loc 1 377 3 view .LVU202
 379:Drivers/STM32G0xx_HAL_Driver/Src/stm32g0xx_hal_dma.c **** }
 654              		.loc 1 379 3 view .LVU203
 655              	.LVL36:
 656              	.L32:
 380:Drivers/STM32G0xx_HAL_Driver/Src/stm32g0xx_hal_dma.c **** 
 657              		.loc 1 380 1 is_stmt 0 view .LVU204
 658              		@ sp needed
 659              	.LVL37:
 380:Drivers/STM32G0xx_HAL_Driver/Src/stm32g0xx_hal_dma.c **** 
 660              		.loc 1 380 1 view .LVU205
 661 0022 70BD     		pop	{r4, r5, r6, pc}
 662              	.LVL38:
 663              	.L36:
 357:Drivers/STM32G0xx_HAL_Driver/Src/stm32g0xx_hal_dma.c ****     hdma->ErrorCode = HAL_DMA_ERROR_NONE;
 664              		.loc 1 357 5 is_stmt 1 view .LVU206
 357:Drivers/STM32G0xx_HAL_Driver/Src/stm32g0xx_hal_dma.c ****     hdma->ErrorCode = HAL_DMA_ERROR_NONE;
 665              		.loc 1 357 17 is_stmt 0 view .LVU207
 666 0024 2430     		adds	r0, r0, #36
 667 0026 0135     		adds	r5, r5, #1
 668 0028 2554     		strb	r5, [r4, r0]
 358:Drivers/STM32G0xx_HAL_Driver/Src/stm32g0xx_hal_dma.c **** 
 669              		.loc 1 358 5 is_stmt 1 view .LVU208
 358:Drivers/STM32G0xx_HAL_Driver/Src/stm32g0xx_hal_dma.c **** 
 670              		.loc 1 358 21 is_stmt 0 view .LVU209
 671 002a 0020     		movs	r0, #0
 672 002c E063     		str	r0, [r4, #60]
 361:Drivers/STM32G0xx_HAL_Driver/Src/stm32g0xx_hal_dma.c **** 
 673              		.loc 1 361 5 is_stmt 1 view .LVU210
 674 002e 2668     		ldr	r6, [r4]
 675 0030 3068     		ldr	r0, [r6]
 676 0032 013D     		subs	r5, r5, #1
 677 0034 A843     		bics	r0, r5
 678 0036 3060     		str	r0, [r6]
 364:Drivers/STM32G0xx_HAL_Driver/Src/stm32g0xx_hal_dma.c **** 
 679              		.loc 1 364 5 view .LVU211
 680 0038 2000     		movs	r0, r4
 681 003a FFF7FEFF 		bl	DMA_SetConfig
 682              	.LVL39:
 367:Drivers/STM32G0xx_HAL_Driver/Src/stm32g0xx_hal_dma.c ****   }
 683              		.loc 1 367 5 view .LVU212
 684 003e 2268     		ldr	r2, [r4]
 685 0040 1368     		ldr	r3, [r2]
ARM GAS  /tmp/ccWiXf77.s 			page 34


 686 0042 2B43     		orrs	r3, r5
 687 0044 1360     		str	r3, [r2]
 346:Drivers/STM32G0xx_HAL_Driver/Src/stm32g0xx_hal_dma.c **** 
 688              		.loc 1 346 21 is_stmt 0 view .LVU213
 689 0046 0020     		movs	r0, #0
 690 0048 E8E7     		b	.L33
 691              	.LVL40:
 692              	.L34:
 352:Drivers/STM32G0xx_HAL_Driver/Src/stm32g0xx_hal_dma.c **** 
 693              		.loc 1 352 3 view .LVU214
 694 004a 0220     		movs	r0, #2
 695 004c E9E7     		b	.L32
 696              		.cfi_endproc
 697              	.LFE160:
 699              		.section	.text.HAL_DMA_Start_IT,"ax",%progbits
 700              		.align	1
 701              		.global	HAL_DMA_Start_IT
 702              		.syntax unified
 703              		.code	16
 704              		.thumb_func
 705              		.fpu softvfp
 707              	HAL_DMA_Start_IT:
 708              	.LVL41:
 709              	.LFB161:
 392:Drivers/STM32G0xx_HAL_Driver/Src/stm32g0xx_hal_dma.c ****   HAL_StatusTypeDef status = HAL_OK;
 710              		.loc 1 392 1 is_stmt 1 view -0
 711              		.cfi_startproc
 712              		@ args = 0, pretend = 0, frame = 0
 713              		@ frame_needed = 0, uses_anonymous_args = 0
 392:Drivers/STM32G0xx_HAL_Driver/Src/stm32g0xx_hal_dma.c ****   HAL_StatusTypeDef status = HAL_OK;
 714              		.loc 1 392 1 is_stmt 0 view .LVU216
 715 0000 70B5     		push	{r4, r5, r6, lr}
 716              	.LCFI5:
 717              		.cfi_def_cfa_offset 16
 718              		.cfi_offset 4, -16
 719              		.cfi_offset 5, -12
 720              		.cfi_offset 6, -8
 721              		.cfi_offset 14, -4
 722 0002 0400     		movs	r4, r0
 393:Drivers/STM32G0xx_HAL_Driver/Src/stm32g0xx_hal_dma.c **** 
 723              		.loc 1 393 3 is_stmt 1 view .LVU217
 724              	.LVL42:
 396:Drivers/STM32G0xx_HAL_Driver/Src/stm32g0xx_hal_dma.c **** 
 725              		.loc 1 396 3 view .LVU218
 399:Drivers/STM32G0xx_HAL_Driver/Src/stm32g0xx_hal_dma.c **** 
 726              		.loc 1 399 3 view .LVU219
 399:Drivers/STM32G0xx_HAL_Driver/Src/stm32g0xx_hal_dma.c **** 
 727              		.loc 1 399 3 view .LVU220
 728 0004 2420     		movs	r0, #36
 729              	.LVL43:
 399:Drivers/STM32G0xx_HAL_Driver/Src/stm32g0xx_hal_dma.c **** 
 730              		.loc 1 399 3 is_stmt 0 view .LVU221
 731 0006 205C     		ldrb	r0, [r4, r0]
 732 0008 0128     		cmp	r0, #1
 733 000a 43D0     		beq	.L44
 399:Drivers/STM32G0xx_HAL_Driver/Src/stm32g0xx_hal_dma.c **** 
 734              		.loc 1 399 3 is_stmt 1 discriminator 2 view .LVU222
ARM GAS  /tmp/ccWiXf77.s 			page 35


 735 000c 2420     		movs	r0, #36
 736 000e 0125     		movs	r5, #1
 737 0010 2554     		strb	r5, [r4, r0]
 399:Drivers/STM32G0xx_HAL_Driver/Src/stm32g0xx_hal_dma.c **** 
 738              		.loc 1 399 3 discriminator 2 view .LVU223
 401:Drivers/STM32G0xx_HAL_Driver/Src/stm32g0xx_hal_dma.c ****   {
 739              		.loc 1 401 3 discriminator 2 view .LVU224
 401:Drivers/STM32G0xx_HAL_Driver/Src/stm32g0xx_hal_dma.c ****   {
 740              		.loc 1 401 34 is_stmt 0 discriminator 2 view .LVU225
 741 0012 0130     		adds	r0, r0, #1
 742 0014 205C     		ldrb	r0, [r4, r0]
 401:Drivers/STM32G0xx_HAL_Driver/Src/stm32g0xx_hal_dma.c ****   {
 743              		.loc 1 401 6 discriminator 2 view .LVU226
 744 0016 0128     		cmp	r0, #1
 745 0018 04D0     		beq	.L46
 449:Drivers/STM32G0xx_HAL_Driver/Src/stm32g0xx_hal_dma.c ****   }
 746              		.loc 1 449 12 view .LVU227
 747 001a 0220     		movs	r0, #2
 748              	.LVL44:
 749              	.L39:
 453:Drivers/STM32G0xx_HAL_Driver/Src/stm32g0xx_hal_dma.c **** 
 750              		.loc 1 453 3 is_stmt 1 view .LVU228
 453:Drivers/STM32G0xx_HAL_Driver/Src/stm32g0xx_hal_dma.c **** 
 751              		.loc 1 453 3 view .LVU229
 752 001c 2423     		movs	r3, #36
 753 001e 0022     		movs	r2, #0
 754 0020 E254     		strb	r2, [r4, r3]
 453:Drivers/STM32G0xx_HAL_Driver/Src/stm32g0xx_hal_dma.c **** 
 755              		.loc 1 453 3 view .LVU230
 455:Drivers/STM32G0xx_HAL_Driver/Src/stm32g0xx_hal_dma.c **** }
 756              		.loc 1 455 3 view .LVU231
 757              	.LVL45:
 758              	.L38:
 456:Drivers/STM32G0xx_HAL_Driver/Src/stm32g0xx_hal_dma.c **** 
 759              		.loc 1 456 1 is_stmt 0 view .LVU232
 760              		@ sp needed
 761              	.LVL46:
 456:Drivers/STM32G0xx_HAL_Driver/Src/stm32g0xx_hal_dma.c **** 
 762              		.loc 1 456 1 view .LVU233
 763 0022 70BD     		pop	{r4, r5, r6, pc}
 764              	.LVL47:
 765              	.L46:
 404:Drivers/STM32G0xx_HAL_Driver/Src/stm32g0xx_hal_dma.c ****     hdma->ErrorCode = HAL_DMA_ERROR_NONE;
 766              		.loc 1 404 5 is_stmt 1 view .LVU234
 404:Drivers/STM32G0xx_HAL_Driver/Src/stm32g0xx_hal_dma.c ****     hdma->ErrorCode = HAL_DMA_ERROR_NONE;
 767              		.loc 1 404 17 is_stmt 0 view .LVU235
 768 0024 2430     		adds	r0, r0, #36
 769 0026 0135     		adds	r5, r5, #1
 770 0028 2554     		strb	r5, [r4, r0]
 405:Drivers/STM32G0xx_HAL_Driver/Src/stm32g0xx_hal_dma.c **** 
 771              		.loc 1 405 5 is_stmt 1 view .LVU236
 405:Drivers/STM32G0xx_HAL_Driver/Src/stm32g0xx_hal_dma.c **** 
 772              		.loc 1 405 21 is_stmt 0 view .LVU237
 773 002a 0020     		movs	r0, #0
 774 002c E063     		str	r0, [r4, #60]
 408:Drivers/STM32G0xx_HAL_Driver/Src/stm32g0xx_hal_dma.c **** 
 775              		.loc 1 408 5 is_stmt 1 view .LVU238
ARM GAS  /tmp/ccWiXf77.s 			page 36


 776 002e 2568     		ldr	r5, [r4]
 777 0030 2868     		ldr	r0, [r5]
 778 0032 0126     		movs	r6, #1
 779 0034 B043     		bics	r0, r6
 780 0036 2860     		str	r0, [r5]
 411:Drivers/STM32G0xx_HAL_Driver/Src/stm32g0xx_hal_dma.c **** 
 781              		.loc 1 411 5 view .LVU239
 782 0038 2000     		movs	r0, r4
 783 003a FFF7FEFF 		bl	DMA_SetConfig
 784              	.LVL48:
 415:Drivers/STM32G0xx_HAL_Driver/Src/stm32g0xx_hal_dma.c ****     {
 785              		.loc 1 415 5 view .LVU240
 415:Drivers/STM32G0xx_HAL_Driver/Src/stm32g0xx_hal_dma.c ****     {
 786              		.loc 1 415 8 is_stmt 0 view .LVU241
 787 003e 236B     		ldr	r3, [r4, #48]
 788 0040 002B     		cmp	r3, #0
 789 0042 1CD0     		beq	.L40
 418:Drivers/STM32G0xx_HAL_Driver/Src/stm32g0xx_hal_dma.c ****     }
 790              		.loc 1 418 7 is_stmt 1 view .LVU242
 791 0044 2268     		ldr	r2, [r4]
 792 0046 1368     		ldr	r3, [r2]
 793 0048 0E21     		movs	r1, #14
 794 004a 0B43     		orrs	r3, r1
 795 004c 1360     		str	r3, [r2]
 796              	.L41:
 427:Drivers/STM32G0xx_HAL_Driver/Src/stm32g0xx_hal_dma.c ****     {
 797              		.loc 1 427 5 view .LVU243
 427:Drivers/STM32G0xx_HAL_Driver/Src/stm32g0xx_hal_dma.c ****     {
 798              		.loc 1 427 14 is_stmt 0 view .LVU244
 799 004e 636C     		ldr	r3, [r4, #68]
 427:Drivers/STM32G0xx_HAL_Driver/Src/stm32g0xx_hal_dma.c ****     {
 800              		.loc 1 427 29 view .LVU245
 801 0050 1A68     		ldr	r2, [r3]
 427:Drivers/STM32G0xx_HAL_Driver/Src/stm32g0xx_hal_dma.c ****     {
 802              		.loc 1 427 8 view .LVU246
 803 0052 D203     		lsls	r2, r2, #15
 804 0054 04D5     		bpl	.L42
 430:Drivers/STM32G0xx_HAL_Driver/Src/stm32g0xx_hal_dma.c ****     }
 805              		.loc 1 430 7 is_stmt 1 view .LVU247
 430:Drivers/STM32G0xx_HAL_Driver/Src/stm32g0xx_hal_dma.c ****     }
 806              		.loc 1 430 32 is_stmt 0 view .LVU248
 807 0056 1968     		ldr	r1, [r3]
 808 0058 8022     		movs	r2, #128
 809 005a 5200     		lsls	r2, r2, #1
 810 005c 0A43     		orrs	r2, r1
 811 005e 1A60     		str	r2, [r3]
 812              	.L42:
 433:Drivers/STM32G0xx_HAL_Driver/Src/stm32g0xx_hal_dma.c ****     {
 813              		.loc 1 433 5 is_stmt 1 view .LVU249
 433:Drivers/STM32G0xx_HAL_Driver/Src/stm32g0xx_hal_dma.c ****     {
 814              		.loc 1 433 13 is_stmt 0 view .LVU250
 815 0060 236D     		ldr	r3, [r4, #80]
 433:Drivers/STM32G0xx_HAL_Driver/Src/stm32g0xx_hal_dma.c ****     {
 816              		.loc 1 433 8 view .LVU251
 817 0062 002B     		cmp	r3, #0
 818 0064 04D0     		beq	.L43
 437:Drivers/STM32G0xx_HAL_Driver/Src/stm32g0xx_hal_dma.c ****     }
ARM GAS  /tmp/ccWiXf77.s 			page 37


 819              		.loc 1 437 7 is_stmt 1 view .LVU252
 437:Drivers/STM32G0xx_HAL_Driver/Src/stm32g0xx_hal_dma.c ****     }
 820              		.loc 1 437 36 is_stmt 0 view .LVU253
 821 0066 1968     		ldr	r1, [r3]
 822 0068 8022     		movs	r2, #128
 823 006a 5200     		lsls	r2, r2, #1
 824 006c 0A43     		orrs	r2, r1
 825 006e 1A60     		str	r2, [r3]
 826              	.L43:
 441:Drivers/STM32G0xx_HAL_Driver/Src/stm32g0xx_hal_dma.c ****   }
 827              		.loc 1 441 5 is_stmt 1 view .LVU254
 828 0070 2268     		ldr	r2, [r4]
 829 0072 1368     		ldr	r3, [r2]
 830 0074 0121     		movs	r1, #1
 831 0076 0B43     		orrs	r3, r1
 832 0078 1360     		str	r3, [r2]
 393:Drivers/STM32G0xx_HAL_Driver/Src/stm32g0xx_hal_dma.c **** 
 833              		.loc 1 393 21 is_stmt 0 view .LVU255
 834 007a 0020     		movs	r0, #0
 835 007c CEE7     		b	.L39
 836              	.L40:
 422:Drivers/STM32G0xx_HAL_Driver/Src/stm32g0xx_hal_dma.c ****       __HAL_DMA_ENABLE_IT(hdma, (DMA_IT_TC | DMA_IT_TE));
 837              		.loc 1 422 7 is_stmt 1 view .LVU256
 838 007e 2268     		ldr	r2, [r4]
 839 0080 1368     		ldr	r3, [r2]
 840 0082 0421     		movs	r1, #4
 841 0084 8B43     		bics	r3, r1
 842 0086 1360     		str	r3, [r2]
 423:Drivers/STM32G0xx_HAL_Driver/Src/stm32g0xx_hal_dma.c ****     }
 843              		.loc 1 423 7 view .LVU257
 844 0088 2268     		ldr	r2, [r4]
 845 008a 1368     		ldr	r3, [r2]
 846 008c 0631     		adds	r1, r1, #6
 847 008e 0B43     		orrs	r3, r1
 848 0090 1360     		str	r3, [r2]
 849 0092 DCE7     		b	.L41
 850              	.LVL49:
 851              	.L44:
 399:Drivers/STM32G0xx_HAL_Driver/Src/stm32g0xx_hal_dma.c **** 
 852              		.loc 1 399 3 is_stmt 0 view .LVU258
 853 0094 0220     		movs	r0, #2
 854 0096 C4E7     		b	.L38
 855              		.cfi_endproc
 856              	.LFE161:
 858              		.section	.text.HAL_DMA_Abort,"ax",%progbits
 859              		.align	1
 860              		.global	HAL_DMA_Abort
 861              		.syntax unified
 862              		.code	16
 863              		.thumb_func
 864              		.fpu softvfp
 866              	HAL_DMA_Abort:
 867              	.LVL50:
 868              	.LFB162:
 465:Drivers/STM32G0xx_HAL_Driver/Src/stm32g0xx_hal_dma.c ****   /* Check the DMA peripheral handle */
 869              		.loc 1 465 1 is_stmt 1 view -0
 870              		.cfi_startproc
ARM GAS  /tmp/ccWiXf77.s 			page 38


 871              		@ args = 0, pretend = 0, frame = 0
 872              		@ frame_needed = 0, uses_anonymous_args = 0
 465:Drivers/STM32G0xx_HAL_Driver/Src/stm32g0xx_hal_dma.c ****   /* Check the DMA peripheral handle */
 873              		.loc 1 465 1 is_stmt 0 view .LVU260
 874 0000 30B5     		push	{r4, r5, lr}
 875              	.LCFI6:
 876              		.cfi_def_cfa_offset 12
 877              		.cfi_offset 4, -12
 878              		.cfi_offset 5, -8
 879              		.cfi_offset 14, -4
 467:Drivers/STM32G0xx_HAL_Driver/Src/stm32g0xx_hal_dma.c ****   {
 880              		.loc 1 467 3 is_stmt 1 view .LVU261
 467:Drivers/STM32G0xx_HAL_Driver/Src/stm32g0xx_hal_dma.c ****   {
 881              		.loc 1 467 6 is_stmt 0 view .LVU262
 882 0002 0028     		cmp	r0, #0
 883 0004 36D0     		beq	.L51
 473:Drivers/STM32G0xx_HAL_Driver/Src/stm32g0xx_hal_dma.c ****   {
 884              		.loc 1 473 3 is_stmt 1 view .LVU263
 473:Drivers/STM32G0xx_HAL_Driver/Src/stm32g0xx_hal_dma.c ****   {
 885              		.loc 1 473 10 is_stmt 0 view .LVU264
 886 0006 2523     		movs	r3, #37
 887 0008 C35C     		ldrb	r3, [r0, r3]
 473:Drivers/STM32G0xx_HAL_Driver/Src/stm32g0xx_hal_dma.c ****   {
 888              		.loc 1 473 5 view .LVU265
 889 000a 022B     		cmp	r3, #2
 890 000c 06D0     		beq	.L49
 475:Drivers/STM32G0xx_HAL_Driver/Src/stm32g0xx_hal_dma.c **** 
 891              		.loc 1 475 5 is_stmt 1 view .LVU266
 475:Drivers/STM32G0xx_HAL_Driver/Src/stm32g0xx_hal_dma.c **** 
 892              		.loc 1 475 21 is_stmt 0 view .LVU267
 893 000e 0423     		movs	r3, #4
 894 0010 C363     		str	r3, [r0, #60]
 478:Drivers/STM32G0xx_HAL_Driver/Src/stm32g0xx_hal_dma.c **** 
 895              		.loc 1 478 5 is_stmt 1 view .LVU268
 478:Drivers/STM32G0xx_HAL_Driver/Src/stm32g0xx_hal_dma.c **** 
 896              		.loc 1 478 5 view .LVU269
 897 0012 2033     		adds	r3, r3, #32
 898 0014 0022     		movs	r2, #0
 899 0016 C254     		strb	r2, [r0, r3]
 478:Drivers/STM32G0xx_HAL_Driver/Src/stm32g0xx_hal_dma.c **** 
 900              		.loc 1 478 5 view .LVU270
 480:Drivers/STM32G0xx_HAL_Driver/Src/stm32g0xx_hal_dma.c ****   }
 901              		.loc 1 480 5 view .LVU271
 480:Drivers/STM32G0xx_HAL_Driver/Src/stm32g0xx_hal_dma.c ****   }
 902              		.loc 1 480 12 is_stmt 0 view .LVU272
 903 0018 0120     		movs	r0, #1
 904              	.LVL51:
 905              	.L48:
 517:Drivers/STM32G0xx_HAL_Driver/Src/stm32g0xx_hal_dma.c **** 
 906              		.loc 1 517 1 view .LVU273
 907              		@ sp needed
 908 001a 30BD     		pop	{r4, r5, pc}
 909              	.LVL52:
 910              	.L49:
 485:Drivers/STM32G0xx_HAL_Driver/Src/stm32g0xx_hal_dma.c **** 
 911              		.loc 1 485 5 is_stmt 1 view .LVU274
 912 001c 0268     		ldr	r2, [r0]
ARM GAS  /tmp/ccWiXf77.s 			page 39


 913 001e 1368     		ldr	r3, [r2]
 914 0020 0E21     		movs	r1, #14
 915 0022 8B43     		bics	r3, r1
 916 0024 1360     		str	r3, [r2]
 488:Drivers/STM32G0xx_HAL_Driver/Src/stm32g0xx_hal_dma.c **** 
 917              		.loc 1 488 5 view .LVU275
 488:Drivers/STM32G0xx_HAL_Driver/Src/stm32g0xx_hal_dma.c **** 
 918              		.loc 1 488 9 is_stmt 0 view .LVU276
 919 0026 426C     		ldr	r2, [r0, #68]
 488:Drivers/STM32G0xx_HAL_Driver/Src/stm32g0xx_hal_dma.c **** 
 920              		.loc 1 488 30 view .LVU277
 921 0028 1368     		ldr	r3, [r2]
 922 002a 1349     		ldr	r1, .L52
 923 002c 0B40     		ands	r3, r1
 924 002e 1360     		str	r3, [r2]
 491:Drivers/STM32G0xx_HAL_Driver/Src/stm32g0xx_hal_dma.c **** 
 925              		.loc 1 491 5 is_stmt 1 view .LVU278
 926 0030 0168     		ldr	r1, [r0]
 927 0032 0A68     		ldr	r2, [r1]
 928 0034 0123     		movs	r3, #1
 929 0036 9A43     		bics	r2, r3
 930 0038 0A60     		str	r2, [r1]
 494:Drivers/STM32G0xx_HAL_Driver/Src/stm32g0xx_hal_dma.c **** 
 931              		.loc 1 494 5 view .LVU279
 932 003a 104C     		ldr	r4, .L52+4
 933 003c 6268     		ldr	r2, [r4, #4]
 934 003e 1C21     		movs	r1, #28
 935 0040 056C     		ldr	r5, [r0, #64]
 936 0042 2940     		ands	r1, r5
 937 0044 8B40     		lsls	r3, r3, r1
 938 0046 1343     		orrs	r3, r2
 939 0048 6360     		str	r3, [r4, #4]
 497:Drivers/STM32G0xx_HAL_Driver/Src/stm32g0xx_hal_dma.c **** 
 940              		.loc 1 497 5 view .LVU280
 497:Drivers/STM32G0xx_HAL_Driver/Src/stm32g0xx_hal_dma.c **** 
 941              		.loc 1 497 9 is_stmt 0 view .LVU281
 942 004a 836C     		ldr	r3, [r0, #72]
 497:Drivers/STM32G0xx_HAL_Driver/Src/stm32g0xx_hal_dma.c **** 
 943              		.loc 1 497 36 view .LVU282
 944 004c C26C     		ldr	r2, [r0, #76]
 945 004e 5A60     		str	r2, [r3, #4]
 499:Drivers/STM32G0xx_HAL_Driver/Src/stm32g0xx_hal_dma.c ****     {
 946              		.loc 1 499 5 is_stmt 1 view .LVU283
 499:Drivers/STM32G0xx_HAL_Driver/Src/stm32g0xx_hal_dma.c ****     {
 947              		.loc 1 499 13 is_stmt 0 view .LVU284
 948 0050 036D     		ldr	r3, [r0, #80]
 499:Drivers/STM32G0xx_HAL_Driver/Src/stm32g0xx_hal_dma.c ****     {
 949              		.loc 1 499 8 view .LVU285
 950 0052 002B     		cmp	r3, #0
 951 0054 06D0     		beq	.L50
 503:Drivers/STM32G0xx_HAL_Driver/Src/stm32g0xx_hal_dma.c **** 
 952              		.loc 1 503 7 is_stmt 1 view .LVU286
 503:Drivers/STM32G0xx_HAL_Driver/Src/stm32g0xx_hal_dma.c **** 
 953              		.loc 1 503 36 is_stmt 0 view .LVU287
 954 0056 1A68     		ldr	r2, [r3]
 955 0058 0749     		ldr	r1, .L52
 956 005a 0A40     		ands	r2, r1
ARM GAS  /tmp/ccWiXf77.s 			page 40


 957 005c 1A60     		str	r2, [r3]
 506:Drivers/STM32G0xx_HAL_Driver/Src/stm32g0xx_hal_dma.c ****     }
 958              		.loc 1 506 7 is_stmt 1 view .LVU288
 506:Drivers/STM32G0xx_HAL_Driver/Src/stm32g0xx_hal_dma.c ****     }
 959              		.loc 1 506 11 is_stmt 0 view .LVU289
 960 005e 436D     		ldr	r3, [r0, #84]
 506:Drivers/STM32G0xx_HAL_Driver/Src/stm32g0xx_hal_dma.c ****     }
 961              		.loc 1 506 43 view .LVU290
 962 0060 826D     		ldr	r2, [r0, #88]
 963 0062 5A60     		str	r2, [r3, #4]
 964              	.L50:
 510:Drivers/STM32G0xx_HAL_Driver/Src/stm32g0xx_hal_dma.c **** 
 965              		.loc 1 510 5 is_stmt 1 view .LVU291
 510:Drivers/STM32G0xx_HAL_Driver/Src/stm32g0xx_hal_dma.c **** 
 966              		.loc 1 510 17 is_stmt 0 view .LVU292
 967 0064 2523     		movs	r3, #37
 968 0066 0122     		movs	r2, #1
 969 0068 C254     		strb	r2, [r0, r3]
 513:Drivers/STM32G0xx_HAL_Driver/Src/stm32g0xx_hal_dma.c ****   }
 970              		.loc 1 513 5 is_stmt 1 view .LVU293
 513:Drivers/STM32G0xx_HAL_Driver/Src/stm32g0xx_hal_dma.c ****   }
 971              		.loc 1 513 5 view .LVU294
 972 006a 013B     		subs	r3, r3, #1
 973 006c 0022     		movs	r2, #0
 974 006e C254     		strb	r2, [r0, r3]
 513:Drivers/STM32G0xx_HAL_Driver/Src/stm32g0xx_hal_dma.c ****   }
 975              		.loc 1 513 5 view .LVU295
 516:Drivers/STM32G0xx_HAL_Driver/Src/stm32g0xx_hal_dma.c **** }
 976              		.loc 1 516 3 view .LVU296
 516:Drivers/STM32G0xx_HAL_Driver/Src/stm32g0xx_hal_dma.c **** }
 977              		.loc 1 516 10 is_stmt 0 view .LVU297
 978 0070 0020     		movs	r0, #0
 979              	.LVL53:
 516:Drivers/STM32G0xx_HAL_Driver/Src/stm32g0xx_hal_dma.c **** }
 980              		.loc 1 516 10 view .LVU298
 981 0072 D2E7     		b	.L48
 982              	.LVL54:
 983              	.L51:
 469:Drivers/STM32G0xx_HAL_Driver/Src/stm32g0xx_hal_dma.c ****   }
 984              		.loc 1 469 12 view .LVU299
 985 0074 0120     		movs	r0, #1
 986              	.LVL55:
 469:Drivers/STM32G0xx_HAL_Driver/Src/stm32g0xx_hal_dma.c ****   }
 987              		.loc 1 469 12 view .LVU300
 988 0076 D0E7     		b	.L48
 989              	.L53:
 990              		.align	2
 991              	.L52:
 992 0078 FFFEFFFF 		.word	-257
 993 007c 00000240 		.word	1073872896
 994              		.cfi_endproc
 995              	.LFE162:
 997              		.section	.text.HAL_DMA_Abort_IT,"ax",%progbits
 998              		.align	1
 999              		.global	HAL_DMA_Abort_IT
 1000              		.syntax unified
 1001              		.code	16
ARM GAS  /tmp/ccWiXf77.s 			page 41


 1002              		.thumb_func
 1003              		.fpu softvfp
 1005              	HAL_DMA_Abort_IT:
 1006              	.LVL56:
 1007              	.LFB163:
 526:Drivers/STM32G0xx_HAL_Driver/Src/stm32g0xx_hal_dma.c ****   HAL_StatusTypeDef status = HAL_OK;
 1008              		.loc 1 526 1 is_stmt 1 view -0
 1009              		.cfi_startproc
 1010              		@ args = 0, pretend = 0, frame = 0
 1011              		@ frame_needed = 0, uses_anonymous_args = 0
 526:Drivers/STM32G0xx_HAL_Driver/Src/stm32g0xx_hal_dma.c ****   HAL_StatusTypeDef status = HAL_OK;
 1012              		.loc 1 526 1 is_stmt 0 view .LVU302
 1013 0000 70B5     		push	{r4, r5, r6, lr}
 1014              	.LCFI7:
 1015              		.cfi_def_cfa_offset 16
 1016              		.cfi_offset 4, -16
 1017              		.cfi_offset 5, -12
 1018              		.cfi_offset 6, -8
 1019              		.cfi_offset 14, -4
 527:Drivers/STM32G0xx_HAL_Driver/Src/stm32g0xx_hal_dma.c **** 
 1020              		.loc 1 527 3 is_stmt 1 view .LVU303
 1021              	.LVL57:
 530:Drivers/STM32G0xx_HAL_Driver/Src/stm32g0xx_hal_dma.c ****   __HAL_LOCK(hdma);
 1022              		.loc 1 530 3 view .LVU304
 530:Drivers/STM32G0xx_HAL_Driver/Src/stm32g0xx_hal_dma.c ****   __HAL_LOCK(hdma);
 1023              		.loc 1 530 3 view .LVU305
 530:Drivers/STM32G0xx_HAL_Driver/Src/stm32g0xx_hal_dma.c ****   __HAL_LOCK(hdma);
 1024              		.loc 1 530 3 view .LVU306
 531:Drivers/STM32G0xx_HAL_Driver/Src/stm32g0xx_hal_dma.c **** 
 1025              		.loc 1 531 3 view .LVU307
 531:Drivers/STM32G0xx_HAL_Driver/Src/stm32g0xx_hal_dma.c **** 
 1026              		.loc 1 531 3 view .LVU308
 531:Drivers/STM32G0xx_HAL_Driver/Src/stm32g0xx_hal_dma.c **** 
 1027              		.loc 1 531 3 view .LVU309
 1028 0002 2423     		movs	r3, #36
 1029 0004 0122     		movs	r2, #1
 1030 0006 C254     		strb	r2, [r0, r3]
 531:Drivers/STM32G0xx_HAL_Driver/Src/stm32g0xx_hal_dma.c **** 
 1031              		.loc 1 531 3 view .LVU310
 533:Drivers/STM32G0xx_HAL_Driver/Src/stm32g0xx_hal_dma.c ****   {
 1032              		.loc 1 533 3 view .LVU311
 533:Drivers/STM32G0xx_HAL_Driver/Src/stm32g0xx_hal_dma.c ****   {
 1033              		.loc 1 533 33 is_stmt 0 view .LVU312
 1034 0008 0133     		adds	r3, r3, #1
 1035 000a C35C     		ldrb	r3, [r0, r3]
 533:Drivers/STM32G0xx_HAL_Driver/Src/stm32g0xx_hal_dma.c ****   {
 1036              		.loc 1 533 6 view .LVU313
 1037 000c 022B     		cmp	r3, #2
 1038 000e 03D0     		beq	.L55
 536:Drivers/STM32G0xx_HAL_Driver/Src/stm32g0xx_hal_dma.c **** 
 1039              		.loc 1 536 5 is_stmt 1 view .LVU314
 536:Drivers/STM32G0xx_HAL_Driver/Src/stm32g0xx_hal_dma.c **** 
 1040              		.loc 1 536 21 is_stmt 0 view .LVU315
 1041 0010 0423     		movs	r3, #4
 1042 0012 C363     		str	r3, [r0, #60]
 538:Drivers/STM32G0xx_HAL_Driver/Src/stm32g0xx_hal_dma.c ****   }
 1043              		.loc 1 538 5 is_stmt 1 view .LVU316
ARM GAS  /tmp/ccWiXf77.s 			page 42


 1044              	.LVL58:
 538:Drivers/STM32G0xx_HAL_Driver/Src/stm32g0xx_hal_dma.c ****   }
 1045              		.loc 1 538 12 is_stmt 0 view .LVU317
 1046 0014 0120     		movs	r0, #1
 1047              	.LVL59:
 1048              	.L56:
 579:Drivers/STM32G0xx_HAL_Driver/Src/stm32g0xx_hal_dma.c **** }
 1049              		.loc 1 579 3 is_stmt 1 view .LVU318
 580:Drivers/STM32G0xx_HAL_Driver/Src/stm32g0xx_hal_dma.c **** 
 1050              		.loc 1 580 1 is_stmt 0 view .LVU319
 1051              		@ sp needed
 1052 0016 70BD     		pop	{r4, r5, r6, pc}
 1053              	.LVL60:
 1054              	.L55:
 543:Drivers/STM32G0xx_HAL_Driver/Src/stm32g0xx_hal_dma.c **** 
 1055              		.loc 1 543 5 is_stmt 1 view .LVU320
 1056 0018 0268     		ldr	r2, [r0]
 1057 001a 1368     		ldr	r3, [r2]
 1058 001c 0E21     		movs	r1, #14
 1059 001e 8B43     		bics	r3, r1
 1060 0020 1360     		str	r3, [r2]
 546:Drivers/STM32G0xx_HAL_Driver/Src/stm32g0xx_hal_dma.c **** 
 1061              		.loc 1 546 5 view .LVU321
 1062 0022 0168     		ldr	r1, [r0]
 1063 0024 0A68     		ldr	r2, [r1]
 1064 0026 0123     		movs	r3, #1
 1065 0028 9A43     		bics	r2, r3
 1066 002a 0A60     		str	r2, [r1]
 549:Drivers/STM32G0xx_HAL_Driver/Src/stm32g0xx_hal_dma.c **** 
 1067              		.loc 1 549 5 view .LVU322
 549:Drivers/STM32G0xx_HAL_Driver/Src/stm32g0xx_hal_dma.c **** 
 1068              		.loc 1 549 9 is_stmt 0 view .LVU323
 1069 002c 416C     		ldr	r1, [r0, #68]
 549:Drivers/STM32G0xx_HAL_Driver/Src/stm32g0xx_hal_dma.c **** 
 1070              		.loc 1 549 30 view .LVU324
 1071 002e 0A68     		ldr	r2, [r1]
 1072 0030 124C     		ldr	r4, .L59
 1073 0032 2240     		ands	r2, r4
 1074 0034 0A60     		str	r2, [r1]
 552:Drivers/STM32G0xx_HAL_Driver/Src/stm32g0xx_hal_dma.c **** 
 1075              		.loc 1 552 5 is_stmt 1 view .LVU325
 1076 0036 124C     		ldr	r4, .L59+4
 1077 0038 6268     		ldr	r2, [r4, #4]
 1078 003a 1C21     		movs	r1, #28
 1079 003c 056C     		ldr	r5, [r0, #64]
 1080 003e 2940     		ands	r1, r5
 1081 0040 8B40     		lsls	r3, r3, r1
 1082 0042 1343     		orrs	r3, r2
 1083 0044 6360     		str	r3, [r4, #4]
 555:Drivers/STM32G0xx_HAL_Driver/Src/stm32g0xx_hal_dma.c **** 
 1084              		.loc 1 555 5 view .LVU326
 555:Drivers/STM32G0xx_HAL_Driver/Src/stm32g0xx_hal_dma.c **** 
 1085              		.loc 1 555 9 is_stmt 0 view .LVU327
 1086 0046 836C     		ldr	r3, [r0, #72]
 555:Drivers/STM32G0xx_HAL_Driver/Src/stm32g0xx_hal_dma.c **** 
 1087              		.loc 1 555 36 view .LVU328
 1088 0048 C26C     		ldr	r2, [r0, #76]
ARM GAS  /tmp/ccWiXf77.s 			page 43


 1089 004a 5A60     		str	r2, [r3, #4]
 557:Drivers/STM32G0xx_HAL_Driver/Src/stm32g0xx_hal_dma.c ****     {
 1090              		.loc 1 557 5 is_stmt 1 view .LVU329
 557:Drivers/STM32G0xx_HAL_Driver/Src/stm32g0xx_hal_dma.c ****     {
 1091              		.loc 1 557 13 is_stmt 0 view .LVU330
 1092 004c 036D     		ldr	r3, [r0, #80]
 557:Drivers/STM32G0xx_HAL_Driver/Src/stm32g0xx_hal_dma.c ****     {
 1093              		.loc 1 557 8 view .LVU331
 1094 004e 002B     		cmp	r3, #0
 1095 0050 06D0     		beq	.L57
 561:Drivers/STM32G0xx_HAL_Driver/Src/stm32g0xx_hal_dma.c **** 
 1096              		.loc 1 561 7 is_stmt 1 view .LVU332
 561:Drivers/STM32G0xx_HAL_Driver/Src/stm32g0xx_hal_dma.c **** 
 1097              		.loc 1 561 36 is_stmt 0 view .LVU333
 1098 0052 1A68     		ldr	r2, [r3]
 1099 0054 0949     		ldr	r1, .L59
 1100 0056 0A40     		ands	r2, r1
 1101 0058 1A60     		str	r2, [r3]
 564:Drivers/STM32G0xx_HAL_Driver/Src/stm32g0xx_hal_dma.c ****     }
 1102              		.loc 1 564 7 is_stmt 1 view .LVU334
 564:Drivers/STM32G0xx_HAL_Driver/Src/stm32g0xx_hal_dma.c ****     }
 1103              		.loc 1 564 11 is_stmt 0 view .LVU335
 1104 005a 436D     		ldr	r3, [r0, #84]
 564:Drivers/STM32G0xx_HAL_Driver/Src/stm32g0xx_hal_dma.c ****     }
 1105              		.loc 1 564 43 view .LVU336
 1106 005c 826D     		ldr	r2, [r0, #88]
 1107 005e 5A60     		str	r2, [r3, #4]
 1108              	.L57:
 568:Drivers/STM32G0xx_HAL_Driver/Src/stm32g0xx_hal_dma.c **** 
 1109              		.loc 1 568 5 is_stmt 1 view .LVU337
 568:Drivers/STM32G0xx_HAL_Driver/Src/stm32g0xx_hal_dma.c **** 
 1110              		.loc 1 568 17 is_stmt 0 view .LVU338
 1111 0060 2523     		movs	r3, #37
 1112 0062 0122     		movs	r2, #1
 1113 0064 C254     		strb	r2, [r0, r3]
 571:Drivers/STM32G0xx_HAL_Driver/Src/stm32g0xx_hal_dma.c **** 
 1114              		.loc 1 571 5 is_stmt 1 view .LVU339
 571:Drivers/STM32G0xx_HAL_Driver/Src/stm32g0xx_hal_dma.c **** 
 1115              		.loc 1 571 5 view .LVU340
 1116 0066 013B     		subs	r3, r3, #1
 1117 0068 0022     		movs	r2, #0
 1118 006a C254     		strb	r2, [r0, r3]
 571:Drivers/STM32G0xx_HAL_Driver/Src/stm32g0xx_hal_dma.c **** 
 1119              		.loc 1 571 5 view .LVU341
 574:Drivers/STM32G0xx_HAL_Driver/Src/stm32g0xx_hal_dma.c ****     {
 1120              		.loc 1 574 5 view .LVU342
 574:Drivers/STM32G0xx_HAL_Driver/Src/stm32g0xx_hal_dma.c ****     {
 1121              		.loc 1 574 13 is_stmt 0 view .LVU343
 1122 006c 836B     		ldr	r3, [r0, #56]
 574:Drivers/STM32G0xx_HAL_Driver/Src/stm32g0xx_hal_dma.c ****     {
 1123              		.loc 1 574 8 view .LVU344
 1124 006e 002B     		cmp	r3, #0
 1125 0070 02D0     		beq	.L58
 576:Drivers/STM32G0xx_HAL_Driver/Src/stm32g0xx_hal_dma.c ****     }
 1126              		.loc 1 576 7 is_stmt 1 view .LVU345
 1127 0072 9847     		blx	r3
 1128              	.LVL61:
ARM GAS  /tmp/ccWiXf77.s 			page 44


 527:Drivers/STM32G0xx_HAL_Driver/Src/stm32g0xx_hal_dma.c **** 
 1129              		.loc 1 527 21 is_stmt 0 view .LVU346
 1130 0074 0020     		movs	r0, #0
 1131 0076 CEE7     		b	.L56
 1132              	.LVL62:
 1133              	.L58:
 527:Drivers/STM32G0xx_HAL_Driver/Src/stm32g0xx_hal_dma.c **** 
 1134              		.loc 1 527 21 view .LVU347
 1135 0078 0020     		movs	r0, #0
 1136              	.LVL63:
 527:Drivers/STM32G0xx_HAL_Driver/Src/stm32g0xx_hal_dma.c **** 
 1137              		.loc 1 527 21 view .LVU348
 1138 007a CCE7     		b	.L56
 1139              	.L60:
 1140              		.align	2
 1141              	.L59:
 1142 007c FFFEFFFF 		.word	-257
 1143 0080 00000240 		.word	1073872896
 1144              		.cfi_endproc
 1145              	.LFE163:
 1147              		.section	.text.HAL_DMA_PollForTransfer,"ax",%progbits
 1148              		.align	1
 1149              		.global	HAL_DMA_PollForTransfer
 1150              		.syntax unified
 1151              		.code	16
 1152              		.thumb_func
 1153              		.fpu softvfp
 1155              	HAL_DMA_PollForTransfer:
 1156              	.LVL64:
 1157              	.LFB164:
 591:Drivers/STM32G0xx_HAL_Driver/Src/stm32g0xx_hal_dma.c ****   uint32_t temp;
 1158              		.loc 1 591 1 is_stmt 1 view -0
 1159              		.cfi_startproc
 1160              		@ args = 0, pretend = 0, frame = 8
 1161              		@ frame_needed = 0, uses_anonymous_args = 0
 591:Drivers/STM32G0xx_HAL_Driver/Src/stm32g0xx_hal_dma.c ****   uint32_t temp;
 1162              		.loc 1 591 1 is_stmt 0 view .LVU350
 1163 0000 F0B5     		push	{r4, r5, r6, r7, lr}
 1164              	.LCFI8:
 1165              		.cfi_def_cfa_offset 20
 1166              		.cfi_offset 4, -20
 1167              		.cfi_offset 5, -16
 1168              		.cfi_offset 6, -12
 1169              		.cfi_offset 7, -8
 1170              		.cfi_offset 14, -4
 1171 0002 83B0     		sub	sp, sp, #12
 1172              	.LCFI9:
 1173              		.cfi_def_cfa_offset 32
 1174 0004 0600     		movs	r6, r0
 1175 0006 0C00     		movs	r4, r1
 1176 0008 1700     		movs	r7, r2
 592:Drivers/STM32G0xx_HAL_Driver/Src/stm32g0xx_hal_dma.c ****   uint32_t tickstart;
 1177              		.loc 1 592 3 is_stmt 1 view .LVU351
 593:Drivers/STM32G0xx_HAL_Driver/Src/stm32g0xx_hal_dma.c **** 
 1178              		.loc 1 593 3 view .LVU352
 596:Drivers/STM32G0xx_HAL_Driver/Src/stm32g0xx_hal_dma.c **** 
 1179              		.loc 1 596 3 view .LVU353
ARM GAS  /tmp/ccWiXf77.s 			page 45


 596:Drivers/STM32G0xx_HAL_Driver/Src/stm32g0xx_hal_dma.c **** 
 1180              		.loc 1 596 3 view .LVU354
 1181 000a 2423     		movs	r3, #36
 1182 000c 0022     		movs	r2, #0
 1183              	.LVL65:
 596:Drivers/STM32G0xx_HAL_Driver/Src/stm32g0xx_hal_dma.c **** 
 1184              		.loc 1 596 3 is_stmt 0 view .LVU355
 1185 000e C254     		strb	r2, [r0, r3]
 596:Drivers/STM32G0xx_HAL_Driver/Src/stm32g0xx_hal_dma.c **** 
 1186              		.loc 1 596 3 is_stmt 1 view .LVU356
 598:Drivers/STM32G0xx_HAL_Driver/Src/stm32g0xx_hal_dma.c ****   {
 1187              		.loc 1 598 3 view .LVU357
 598:Drivers/STM32G0xx_HAL_Driver/Src/stm32g0xx_hal_dma.c ****   {
 1188              		.loc 1 598 33 is_stmt 0 view .LVU358
 1189 0010 0133     		adds	r3, r3, #1
 1190 0012 C35C     		ldrb	r3, [r0, r3]
 598:Drivers/STM32G0xx_HAL_Driver/Src/stm32g0xx_hal_dma.c ****   {
 1191              		.loc 1 598 6 view .LVU359
 1192 0014 022B     		cmp	r3, #2
 1193 0016 04D0     		beq	.L62
 601:Drivers/STM32G0xx_HAL_Driver/Src/stm32g0xx_hal_dma.c ****     __HAL_UNLOCK(hdma);
 1194              		.loc 1 601 5 is_stmt 1 view .LVU360
 601:Drivers/STM32G0xx_HAL_Driver/Src/stm32g0xx_hal_dma.c ****     __HAL_UNLOCK(hdma);
 1195              		.loc 1 601 21 is_stmt 0 view .LVU361
 1196 0018 0423     		movs	r3, #4
 1197 001a C363     		str	r3, [r0, #60]
 602:Drivers/STM32G0xx_HAL_Driver/Src/stm32g0xx_hal_dma.c ****     return HAL_ERROR;
 1198              		.loc 1 602 5 is_stmt 1 view .LVU362
 602:Drivers/STM32G0xx_HAL_Driver/Src/stm32g0xx_hal_dma.c ****     return HAL_ERROR;
 1199              		.loc 1 602 5 view .LVU363
 602:Drivers/STM32G0xx_HAL_Driver/Src/stm32g0xx_hal_dma.c ****     return HAL_ERROR;
 1200              		.loc 1 602 5 view .LVU364
 603:Drivers/STM32G0xx_HAL_Driver/Src/stm32g0xx_hal_dma.c ****   }
 1201              		.loc 1 603 5 view .LVU365
 603:Drivers/STM32G0xx_HAL_Driver/Src/stm32g0xx_hal_dma.c ****   }
 1202              		.loc 1 603 12 is_stmt 0 view .LVU366
 1203 001c 0120     		movs	r0, #1
 1204              	.LVL66:
 1205              	.L63:
 713:Drivers/STM32G0xx_HAL_Driver/Src/stm32g0xx_hal_dma.c **** 
 1206              		.loc 1 713 1 view .LVU367
 1207 001e 03B0     		add	sp, sp, #12
 1208              		@ sp needed
 1209              	.LVL67:
 1210              	.LVL68:
 713:Drivers/STM32G0xx_HAL_Driver/Src/stm32g0xx_hal_dma.c **** 
 1211              		.loc 1 713 1 view .LVU368
 1212 0020 F0BD     		pop	{r4, r5, r6, r7, pc}
 1213              	.LVL69:
 1214              	.L62:
 607:Drivers/STM32G0xx_HAL_Driver/Src/stm32g0xx_hal_dma.c ****   {
 1215              		.loc 1 607 3 is_stmt 1 view .LVU369
 607:Drivers/STM32G0xx_HAL_Driver/Src/stm32g0xx_hal_dma.c ****   {
 1216              		.loc 1 607 12 is_stmt 0 view .LVU370
 1217 0022 0368     		ldr	r3, [r0]
 607:Drivers/STM32G0xx_HAL_Driver/Src/stm32g0xx_hal_dma.c ****   {
 1218              		.loc 1 607 22 view .LVU371
ARM GAS  /tmp/ccWiXf77.s 			page 46


 1219 0024 1B68     		ldr	r3, [r3]
 607:Drivers/STM32G0xx_HAL_Driver/Src/stm32g0xx_hal_dma.c ****   {
 1220              		.loc 1 607 6 view .LVU372
 1221 0026 9B06     		lsls	r3, r3, #26
 1222 0028 2AD4     		bmi	.L76
 614:Drivers/STM32G0xx_HAL_Driver/Src/stm32g0xx_hal_dma.c ****   {
 1223              		.loc 1 614 3 is_stmt 1 view .LVU373
 614:Drivers/STM32G0xx_HAL_Driver/Src/stm32g0xx_hal_dma.c ****   {
 1224              		.loc 1 614 6 is_stmt 0 view .LVU374
 1225 002a 0029     		cmp	r1, #0
 1226 002c 2DD1     		bne	.L65
 617:Drivers/STM32G0xx_HAL_Driver/Src/stm32g0xx_hal_dma.c ****   }
 1227              		.loc 1 617 5 is_stmt 1 view .LVU375
 617:Drivers/STM32G0xx_HAL_Driver/Src/stm32g0xx_hal_dma.c ****   }
 1228              		.loc 1 617 48 is_stmt 0 view .LVU376
 1229 002e 1C23     		movs	r3, #28
 1230 0030 026C     		ldr	r2, [r0, #64]
 1231 0032 1340     		ands	r3, r2
 617:Drivers/STM32G0xx_HAL_Driver/Src/stm32g0xx_hal_dma.c ****   }
 1232              		.loc 1 617 10 view .LVU377
 1233 0034 0225     		movs	r5, #2
 1234 0036 9D40     		lsls	r5, r5, r3
 1235              	.LVL70:
 1236              	.L66:
 626:Drivers/STM32G0xx_HAL_Driver/Src/stm32g0xx_hal_dma.c **** 
 1237              		.loc 1 626 3 is_stmt 1 view .LVU378
 626:Drivers/STM32G0xx_HAL_Driver/Src/stm32g0xx_hal_dma.c **** 
 1238              		.loc 1 626 15 is_stmt 0 view .LVU379
 1239 0038 FFF7FEFF 		bl	HAL_GetTick
 1240              	.LVL71:
 626:Drivers/STM32G0xx_HAL_Driver/Src/stm32g0xx_hal_dma.c **** 
 1241              		.loc 1 626 15 view .LVU380
 1242 003c 0190     		str	r0, [sp, #4]
 1243              	.LVL72:
 628:Drivers/STM32G0xx_HAL_Driver/Src/stm32g0xx_hal_dma.c ****   {
 1244              		.loc 1 628 3 is_stmt 1 view .LVU381
 1245              	.L69:
 628:Drivers/STM32G0xx_HAL_Driver/Src/stm32g0xx_hal_dma.c ****   {
 1246              		.loc 1 628 9 view .LVU382
 628:Drivers/STM32G0xx_HAL_Driver/Src/stm32g0xx_hal_dma.c ****   {
 1247              		.loc 1 628 16 is_stmt 0 view .LVU383
 1248 003e 3C4B     		ldr	r3, .L79
 1249 0040 1B68     		ldr	r3, [r3]
 628:Drivers/STM32G0xx_HAL_Driver/Src/stm32g0xx_hal_dma.c ****   {
 1250              		.loc 1 628 9 view .LVU384
 1251 0042 1D42     		tst	r5, r3
 1252 0044 37D1     		bne	.L77
 630:Drivers/STM32G0xx_HAL_Driver/Src/stm32g0xx_hal_dma.c ****     {
 1253              		.loc 1 630 5 is_stmt 1 view .LVU385
 630:Drivers/STM32G0xx_HAL_Driver/Src/stm32g0xx_hal_dma.c ****     {
 1254              		.loc 1 630 15 is_stmt 0 view .LVU386
 1255 0046 3A4B     		ldr	r3, .L79
 1256 0048 1A68     		ldr	r2, [r3]
 1257 004a 1C23     		movs	r3, #28
 1258 004c 316C     		ldr	r1, [r6, #64]
 1259 004e 0B40     		ands	r3, r1
 1260 0050 0821     		movs	r1, #8
ARM GAS  /tmp/ccWiXf77.s 			page 47


 1261 0052 9940     		lsls	r1, r1, r3
 630:Drivers/STM32G0xx_HAL_Driver/Src/stm32g0xx_hal_dma.c ****     {
 1262              		.loc 1 630 8 view .LVU387
 1263 0054 1142     		tst	r1, r2
 1264 0056 1ED1     		bne	.L78
 649:Drivers/STM32G0xx_HAL_Driver/Src/stm32g0xx_hal_dma.c ****     {
 1265              		.loc 1 649 5 is_stmt 1 view .LVU388
 649:Drivers/STM32G0xx_HAL_Driver/Src/stm32g0xx_hal_dma.c ****     {
 1266              		.loc 1 649 8 is_stmt 0 view .LVU389
 1267 0058 7B1C     		adds	r3, r7, #1
 1268 005a F0D0     		beq	.L69
 651:Drivers/STM32G0xx_HAL_Driver/Src/stm32g0xx_hal_dma.c ****       {
 1269              		.loc 1 651 7 is_stmt 1 view .LVU390
 651:Drivers/STM32G0xx_HAL_Driver/Src/stm32g0xx_hal_dma.c ****       {
 1270              		.loc 1 651 12 is_stmt 0 view .LVU391
 1271 005c FFF7FEFF 		bl	HAL_GetTick
 1272              	.LVL73:
 651:Drivers/STM32G0xx_HAL_Driver/Src/stm32g0xx_hal_dma.c ****       {
 1273              		.loc 1 651 26 view .LVU392
 1274 0060 019B     		ldr	r3, [sp, #4]
 1275 0062 C01A     		subs	r0, r0, r3
 651:Drivers/STM32G0xx_HAL_Driver/Src/stm32g0xx_hal_dma.c ****       {
 1276              		.loc 1 651 9 view .LVU393
 1277 0064 B842     		cmp	r0, r7
 1278 0066 01D8     		bhi	.L70
 651:Drivers/STM32G0xx_HAL_Driver/Src/stm32g0xx_hal_dma.c ****       {
 1279              		.loc 1 651 50 discriminator 1 view .LVU394
 1280 0068 002F     		cmp	r7, #0
 1281 006a E8D1     		bne	.L69
 1282              	.L70:
 654:Drivers/STM32G0xx_HAL_Driver/Src/stm32g0xx_hal_dma.c **** 
 1283              		.loc 1 654 9 is_stmt 1 view .LVU395
 654:Drivers/STM32G0xx_HAL_Driver/Src/stm32g0xx_hal_dma.c **** 
 1284              		.loc 1 654 25 is_stmt 0 view .LVU396
 1285 006c 2023     		movs	r3, #32
 1286 006e F363     		str	r3, [r6, #60]
 657:Drivers/STM32G0xx_HAL_Driver/Src/stm32g0xx_hal_dma.c **** 
 1287              		.loc 1 657 9 is_stmt 1 view .LVU397
 657:Drivers/STM32G0xx_HAL_Driver/Src/stm32g0xx_hal_dma.c **** 
 1288              		.loc 1 657 21 is_stmt 0 view .LVU398
 1289 0070 0533     		adds	r3, r3, #5
 1290 0072 0122     		movs	r2, #1
 1291 0074 F254     		strb	r2, [r6, r3]
 660:Drivers/STM32G0xx_HAL_Driver/Src/stm32g0xx_hal_dma.c **** 
 1292              		.loc 1 660 9 is_stmt 1 view .LVU399
 660:Drivers/STM32G0xx_HAL_Driver/Src/stm32g0xx_hal_dma.c **** 
 1293              		.loc 1 660 9 view .LVU400
 1294 0076 013B     		subs	r3, r3, #1
 1295 0078 0022     		movs	r2, #0
 1296 007a F254     		strb	r2, [r6, r3]
 660:Drivers/STM32G0xx_HAL_Driver/Src/stm32g0xx_hal_dma.c **** 
 1297              		.loc 1 660 9 view .LVU401
 662:Drivers/STM32G0xx_HAL_Driver/Src/stm32g0xx_hal_dma.c ****       }
 1298              		.loc 1 662 9 view .LVU402
 662:Drivers/STM32G0xx_HAL_Driver/Src/stm32g0xx_hal_dma.c ****       }
 1299              		.loc 1 662 16 is_stmt 0 view .LVU403
 1300 007c 0120     		movs	r0, #1
ARM GAS  /tmp/ccWiXf77.s 			page 48


 1301 007e CEE7     		b	.L63
 1302              	.LVL74:
 1303              	.L76:
 609:Drivers/STM32G0xx_HAL_Driver/Src/stm32g0xx_hal_dma.c ****     return HAL_ERROR;
 1304              		.loc 1 609 5 is_stmt 1 view .LVU404
 609:Drivers/STM32G0xx_HAL_Driver/Src/stm32g0xx_hal_dma.c ****     return HAL_ERROR;
 1305              		.loc 1 609 21 is_stmt 0 view .LVU405
 1306 0080 8023     		movs	r3, #128
 1307 0082 5B00     		lsls	r3, r3, #1
 1308 0084 C363     		str	r3, [r0, #60]
 610:Drivers/STM32G0xx_HAL_Driver/Src/stm32g0xx_hal_dma.c ****   }
 1309              		.loc 1 610 5 is_stmt 1 view .LVU406
 610:Drivers/STM32G0xx_HAL_Driver/Src/stm32g0xx_hal_dma.c ****   }
 1310              		.loc 1 610 12 is_stmt 0 view .LVU407
 1311 0086 0120     		movs	r0, #1
 1312              	.LVL75:
 610:Drivers/STM32G0xx_HAL_Driver/Src/stm32g0xx_hal_dma.c ****   }
 1313              		.loc 1 610 12 view .LVU408
 1314 0088 C9E7     		b	.L63
 1315              	.LVL76:
 1316              	.L65:
 622:Drivers/STM32G0xx_HAL_Driver/Src/stm32g0xx_hal_dma.c ****   }
 1317              		.loc 1 622 5 is_stmt 1 view .LVU409
 622:Drivers/STM32G0xx_HAL_Driver/Src/stm32g0xx_hal_dma.c ****   }
 1318              		.loc 1 622 49 is_stmt 0 view .LVU410
 1319 008a 1C23     		movs	r3, #28
 1320 008c 026C     		ldr	r2, [r0, #64]
 1321 008e 1340     		ands	r3, r2
 622:Drivers/STM32G0xx_HAL_Driver/Src/stm32g0xx_hal_dma.c ****   }
 1322              		.loc 1 622 10 view .LVU411
 1323 0090 0425     		movs	r5, #4
 1324 0092 9D40     		lsls	r5, r5, r3
 1325              	.LVL77:
 622:Drivers/STM32G0xx_HAL_Driver/Src/stm32g0xx_hal_dma.c ****   }
 1326              		.loc 1 622 10 view .LVU412
 1327 0094 D0E7     		b	.L66
 1328              	.LVL78:
 1329              	.L78:
 635:Drivers/STM32G0xx_HAL_Driver/Src/stm32g0xx_hal_dma.c **** 
 1330              		.loc 1 635 7 is_stmt 1 view .LVU413
 1331 0096 2648     		ldr	r0, .L79
 1332 0098 4168     		ldr	r1, [r0, #4]
 1333 009a 0122     		movs	r2, #1
 1334 009c 1400     		movs	r4, r2
 1335 009e 9C40     		lsls	r4, r4, r3
 1336 00a0 2300     		movs	r3, r4
 1337 00a2 0B43     		orrs	r3, r1
 1338 00a4 4360     		str	r3, [r0, #4]
 1339              	.LVL79:
 638:Drivers/STM32G0xx_HAL_Driver/Src/stm32g0xx_hal_dma.c **** 
 1340              		.loc 1 638 7 view .LVU414
 638:Drivers/STM32G0xx_HAL_Driver/Src/stm32g0xx_hal_dma.c **** 
 1341              		.loc 1 638 23 is_stmt 0 view .LVU415
 1342 00a6 F263     		str	r2, [r6, #60]
 641:Drivers/STM32G0xx_HAL_Driver/Src/stm32g0xx_hal_dma.c **** 
 1343              		.loc 1 641 7 is_stmt 1 view .LVU416
 641:Drivers/STM32G0xx_HAL_Driver/Src/stm32g0xx_hal_dma.c **** 
ARM GAS  /tmp/ccWiXf77.s 			page 49


 1344              		.loc 1 641 19 is_stmt 0 view .LVU417
 1345 00a8 2523     		movs	r3, #37
 1346 00aa F254     		strb	r2, [r6, r3]
 644:Drivers/STM32G0xx_HAL_Driver/Src/stm32g0xx_hal_dma.c **** 
 1347              		.loc 1 644 7 is_stmt 1 view .LVU418
 644:Drivers/STM32G0xx_HAL_Driver/Src/stm32g0xx_hal_dma.c **** 
 1348              		.loc 1 644 7 view .LVU419
 1349 00ac 013B     		subs	r3, r3, #1
 1350 00ae 0022     		movs	r2, #0
 1351 00b0 F254     		strb	r2, [r6, r3]
 644:Drivers/STM32G0xx_HAL_Driver/Src/stm32g0xx_hal_dma.c **** 
 1352              		.loc 1 644 7 view .LVU420
 646:Drivers/STM32G0xx_HAL_Driver/Src/stm32g0xx_hal_dma.c ****     }
 1353              		.loc 1 646 7 view .LVU421
 646:Drivers/STM32G0xx_HAL_Driver/Src/stm32g0xx_hal_dma.c ****     }
 1354              		.loc 1 646 14 is_stmt 0 view .LVU422
 1355 00b2 0120     		movs	r0, #1
 1356 00b4 B3E7     		b	.L63
 1357              	.LVL80:
 1358              	.L77:
 668:Drivers/STM32G0xx_HAL_Driver/Src/stm32g0xx_hal_dma.c ****   {
 1359              		.loc 1 668 3 is_stmt 1 view .LVU423
 668:Drivers/STM32G0xx_HAL_Driver/Src/stm32g0xx_hal_dma.c ****   {
 1360              		.loc 1 668 11 is_stmt 0 view .LVU424
 1361 00b6 336D     		ldr	r3, [r6, #80]
 668:Drivers/STM32G0xx_HAL_Driver/Src/stm32g0xx_hal_dma.c ****   {
 1362              		.loc 1 668 6 view .LVU425
 1363 00b8 002B     		cmp	r3, #0
 1364 00ba 11D0     		beq	.L72
 671:Drivers/STM32G0xx_HAL_Driver/Src/stm32g0xx_hal_dma.c ****     {
 1365              		.loc 1 671 5 is_stmt 1 view .LVU426
 671:Drivers/STM32G0xx_HAL_Driver/Src/stm32g0xx_hal_dma.c ****     {
 1366              		.loc 1 671 14 is_stmt 0 view .LVU427
 1367 00bc 726D     		ldr	r2, [r6, #84]
 671:Drivers/STM32G0xx_HAL_Driver/Src/stm32g0xx_hal_dma.c ****     {
 1368              		.loc 1 671 38 view .LVU428
 1369 00be 1268     		ldr	r2, [r2]
 671:Drivers/STM32G0xx_HAL_Driver/Src/stm32g0xx_hal_dma.c ****     {
 1370              		.loc 1 671 8 view .LVU429
 1371 00c0 B16D     		ldr	r1, [r6, #88]
 1372 00c2 1142     		tst	r1, r2
 1373 00c4 0CD0     		beq	.L72
 674:Drivers/STM32G0xx_HAL_Driver/Src/stm32g0xx_hal_dma.c **** 
 1374              		.loc 1 674 7 is_stmt 1 view .LVU430
 674:Drivers/STM32G0xx_HAL_Driver/Src/stm32g0xx_hal_dma.c **** 
 1375              		.loc 1 674 36 is_stmt 0 view .LVU431
 1376 00c6 1968     		ldr	r1, [r3]
 1377 00c8 8022     		movs	r2, #128
 1378 00ca 5200     		lsls	r2, r2, #1
 1379 00cc 0A43     		orrs	r2, r1
 1380 00ce 1A60     		str	r2, [r3]
 677:Drivers/STM32G0xx_HAL_Driver/Src/stm32g0xx_hal_dma.c **** 
 1381              		.loc 1 677 7 is_stmt 1 view .LVU432
 677:Drivers/STM32G0xx_HAL_Driver/Src/stm32g0xx_hal_dma.c **** 
 1382              		.loc 1 677 11 is_stmt 0 view .LVU433
 1383 00d0 736D     		ldr	r3, [r6, #84]
 677:Drivers/STM32G0xx_HAL_Driver/Src/stm32g0xx_hal_dma.c **** 
ARM GAS  /tmp/ccWiXf77.s 			page 50


 1384              		.loc 1 677 43 view .LVU434
 1385 00d2 B26D     		ldr	r2, [r6, #88]
 1386 00d4 5A60     		str	r2, [r3, #4]
 680:Drivers/STM32G0xx_HAL_Driver/Src/stm32g0xx_hal_dma.c ****     }
 1387              		.loc 1 680 7 is_stmt 1 view .LVU435
 680:Drivers/STM32G0xx_HAL_Driver/Src/stm32g0xx_hal_dma.c ****     }
 1388              		.loc 1 680 23 is_stmt 0 view .LVU436
 1389 00d6 F26B     		ldr	r2, [r6, #60]
 1390 00d8 8023     		movs	r3, #128
 1391 00da DB00     		lsls	r3, r3, #3
 1392 00dc 1343     		orrs	r3, r2
 1393 00de F363     		str	r3, [r6, #60]
 1394              	.L72:
 685:Drivers/STM32G0xx_HAL_Driver/Src/stm32g0xx_hal_dma.c ****   {
 1395              		.loc 1 685 3 is_stmt 1 view .LVU437
 685:Drivers/STM32G0xx_HAL_Driver/Src/stm32g0xx_hal_dma.c ****   {
 1396              		.loc 1 685 12 is_stmt 0 view .LVU438
 1397 00e0 B36C     		ldr	r3, [r6, #72]
 685:Drivers/STM32G0xx_HAL_Driver/Src/stm32g0xx_hal_dma.c ****   {
 1398              		.loc 1 685 33 view .LVU439
 1399 00e2 1968     		ldr	r1, [r3]
 685:Drivers/STM32G0xx_HAL_Driver/Src/stm32g0xx_hal_dma.c ****   {
 1400              		.loc 1 685 45 view .LVU440
 1401 00e4 F26C     		ldr	r2, [r6, #76]
 685:Drivers/STM32G0xx_HAL_Driver/Src/stm32g0xx_hal_dma.c ****   {
 1402              		.loc 1 685 6 view .LVU441
 1403 00e6 0A42     		tst	r2, r1
 1404 00e8 05D0     		beq	.L73
 688:Drivers/STM32G0xx_HAL_Driver/Src/stm32g0xx_hal_dma.c **** 
 1405              		.loc 1 688 5 is_stmt 1 view .LVU442
 688:Drivers/STM32G0xx_HAL_Driver/Src/stm32g0xx_hal_dma.c **** 
 1406              		.loc 1 688 36 is_stmt 0 view .LVU443
 1407 00ea 5A60     		str	r2, [r3, #4]
 691:Drivers/STM32G0xx_HAL_Driver/Src/stm32g0xx_hal_dma.c ****   }
 1408              		.loc 1 691 5 is_stmt 1 view .LVU444
 691:Drivers/STM32G0xx_HAL_Driver/Src/stm32g0xx_hal_dma.c ****   }
 1409              		.loc 1 691 21 is_stmt 0 view .LVU445
 1410 00ec F26B     		ldr	r2, [r6, #60]
 1411 00ee 8023     		movs	r3, #128
 1412 00f0 9B00     		lsls	r3, r3, #2
 1413 00f2 1343     		orrs	r3, r2
 1414 00f4 F363     		str	r3, [r6, #60]
 1415              	.L73:
 694:Drivers/STM32G0xx_HAL_Driver/Src/stm32g0xx_hal_dma.c ****   {
 1416              		.loc 1 694 3 is_stmt 1 view .LVU446
 694:Drivers/STM32G0xx_HAL_Driver/Src/stm32g0xx_hal_dma.c ****   {
 1417              		.loc 1 694 6 is_stmt 0 view .LVU447
 1418 00f6 002C     		cmp	r4, #0
 1419 00f8 10D1     		bne	.L74
 697:Drivers/STM32G0xx_HAL_Driver/Src/stm32g0xx_hal_dma.c **** 
 1420              		.loc 1 697 5 is_stmt 1 view .LVU448
 1421 00fa 0D48     		ldr	r0, .L79
 1422 00fc 4368     		ldr	r3, [r0, #4]
 1423 00fe 1C21     		movs	r1, #28
 1424 0100 326C     		ldr	r2, [r6, #64]
 1425 0102 1140     		ands	r1, r2
 1426 0104 0222     		movs	r2, #2
ARM GAS  /tmp/ccWiXf77.s 			page 51


 1427 0106 8A40     		lsls	r2, r2, r1
 1428 0108 1343     		orrs	r3, r2
 1429 010a 4360     		str	r3, [r0, #4]
 1430              	.LVL81:
 701:Drivers/STM32G0xx_HAL_Driver/Src/stm32g0xx_hal_dma.c ****   }
 1431              		.loc 1 701 5 view .LVU449
 701:Drivers/STM32G0xx_HAL_Driver/Src/stm32g0xx_hal_dma.c ****   }
 1432              		.loc 1 701 17 is_stmt 0 view .LVU450
 1433 010c 2523     		movs	r3, #37
 1434 010e 0122     		movs	r2, #1
 1435 0110 F254     		strb	r2, [r6, r3]
 1436              	.L75:
 710:Drivers/STM32G0xx_HAL_Driver/Src/stm32g0xx_hal_dma.c **** 
 1437              		.loc 1 710 3 is_stmt 1 view .LVU451
 710:Drivers/STM32G0xx_HAL_Driver/Src/stm32g0xx_hal_dma.c **** 
 1438              		.loc 1 710 3 view .LVU452
 1439 0112 2423     		movs	r3, #36
 1440 0114 0022     		movs	r2, #0
 1441 0116 F254     		strb	r2, [r6, r3]
 710:Drivers/STM32G0xx_HAL_Driver/Src/stm32g0xx_hal_dma.c **** 
 1442              		.loc 1 710 3 view .LVU453
 712:Drivers/STM32G0xx_HAL_Driver/Src/stm32g0xx_hal_dma.c **** }
 1443              		.loc 1 712 3 view .LVU454
 712:Drivers/STM32G0xx_HAL_Driver/Src/stm32g0xx_hal_dma.c **** }
 1444              		.loc 1 712 10 is_stmt 0 view .LVU455
 1445 0118 0020     		movs	r0, #0
 1446 011a 80E7     		b	.L63
 1447              	.LVL82:
 1448              	.L74:
 706:Drivers/STM32G0xx_HAL_Driver/Src/stm32g0xx_hal_dma.c ****   }
 1449              		.loc 1 706 5 is_stmt 1 view .LVU456
 1450 011c 0448     		ldr	r0, .L79
 1451 011e 4368     		ldr	r3, [r0, #4]
 1452 0120 1C21     		movs	r1, #28
 1453 0122 326C     		ldr	r2, [r6, #64]
 1454 0124 1140     		ands	r1, r2
 1455 0126 0422     		movs	r2, #4
 1456 0128 8A40     		lsls	r2, r2, r1
 1457 012a 1343     		orrs	r3, r2
 1458 012c 4360     		str	r3, [r0, #4]
 1459              	.LVL83:
 706:Drivers/STM32G0xx_HAL_Driver/Src/stm32g0xx_hal_dma.c ****   }
 1460              		.loc 1 706 5 is_stmt 0 view .LVU457
 1461 012e F0E7     		b	.L75
 1462              	.L80:
 1463              		.align	2
 1464              	.L79:
 1465 0130 00000240 		.word	1073872896
 1466              		.cfi_endproc
 1467              	.LFE164:
 1469              		.section	.text.HAL_DMA_IRQHandler,"ax",%progbits
 1470              		.align	1
 1471              		.global	HAL_DMA_IRQHandler
 1472              		.syntax unified
 1473              		.code	16
 1474              		.thumb_func
 1475              		.fpu softvfp
ARM GAS  /tmp/ccWiXf77.s 			page 52


 1477              	HAL_DMA_IRQHandler:
 1478              	.LVL84:
 1479              	.LFB165:
 722:Drivers/STM32G0xx_HAL_Driver/Src/stm32g0xx_hal_dma.c ****   uint32_t flag_it = DMA1->ISR;
 1480              		.loc 1 722 1 is_stmt 1 view -0
 1481              		.cfi_startproc
 1482              		@ args = 0, pretend = 0, frame = 0
 1483              		@ frame_needed = 0, uses_anonymous_args = 0
 722:Drivers/STM32G0xx_HAL_Driver/Src/stm32g0xx_hal_dma.c ****   uint32_t flag_it = DMA1->ISR;
 1484              		.loc 1 722 1 is_stmt 0 view .LVU459
 1485 0000 70B5     		push	{r4, r5, r6, lr}
 1486              	.LCFI10:
 1487              		.cfi_def_cfa_offset 16
 1488              		.cfi_offset 4, -16
 1489              		.cfi_offset 5, -12
 1490              		.cfi_offset 6, -8
 1491              		.cfi_offset 14, -4
 723:Drivers/STM32G0xx_HAL_Driver/Src/stm32g0xx_hal_dma.c ****   uint32_t source_it = hdma->Instance->CCR;
 1492              		.loc 1 723 3 is_stmt 1 view .LVU460
 723:Drivers/STM32G0xx_HAL_Driver/Src/stm32g0xx_hal_dma.c ****   uint32_t source_it = hdma->Instance->CCR;
 1493              		.loc 1 723 12 is_stmt 0 view .LVU461
 1494 0002 314B     		ldr	r3, .L87
 1495 0004 1968     		ldr	r1, [r3]
 1496              	.LVL85:
 724:Drivers/STM32G0xx_HAL_Driver/Src/stm32g0xx_hal_dma.c **** 
 1497              		.loc 1 724 3 is_stmt 1 view .LVU462
 724:Drivers/STM32G0xx_HAL_Driver/Src/stm32g0xx_hal_dma.c **** 
 1498              		.loc 1 724 28 is_stmt 0 view .LVU463
 1499 0006 0468     		ldr	r4, [r0]
 724:Drivers/STM32G0xx_HAL_Driver/Src/stm32g0xx_hal_dma.c **** 
 1500              		.loc 1 724 12 view .LVU464
 1501 0008 2568     		ldr	r5, [r4]
 1502              	.LVL86:
 727:Drivers/STM32G0xx_HAL_Driver/Src/stm32g0xx_hal_dma.c ****   {
 1503              		.loc 1 727 3 is_stmt 1 view .LVU465
 727:Drivers/STM32G0xx_HAL_Driver/Src/stm32g0xx_hal_dma.c ****   {
 1504              		.loc 1 727 56 is_stmt 0 view .LVU466
 1505 000a 1C23     		movs	r3, #28
 1506 000c 026C     		ldr	r2, [r0, #64]
 1507 000e 1340     		ands	r3, r2
 727:Drivers/STM32G0xx_HAL_Driver/Src/stm32g0xx_hal_dma.c ****   {
 1508              		.loc 1 727 33 view .LVU467
 1509 0010 0422     		movs	r2, #4
 1510 0012 9A40     		lsls	r2, r2, r3
 727:Drivers/STM32G0xx_HAL_Driver/Src/stm32g0xx_hal_dma.c ****   {
 1511              		.loc 1 727 6 view .LVU468
 1512 0014 1142     		tst	r1, r2
 1513 0016 16D0     		beq	.L82
 727:Drivers/STM32G0xx_HAL_Driver/Src/stm32g0xx_hal_dma.c ****   {
 1514              		.loc 1 727 74 discriminator 1 view .LVU469
 1515 0018 6A07     		lsls	r2, r5, #29
 1516 001a 14D5     		bpl	.L82
 730:Drivers/STM32G0xx_HAL_Driver/Src/stm32g0xx_hal_dma.c ****     {
 1517              		.loc 1 730 5 is_stmt 1 view .LVU470
 730:Drivers/STM32G0xx_HAL_Driver/Src/stm32g0xx_hal_dma.c ****     {
 1518              		.loc 1 730 24 is_stmt 0 view .LVU471
 1519 001c 2368     		ldr	r3, [r4]
ARM GAS  /tmp/ccWiXf77.s 			page 53


 730:Drivers/STM32G0xx_HAL_Driver/Src/stm32g0xx_hal_dma.c ****     {
 1520              		.loc 1 730 8 view .LVU472
 1521 001e 9B06     		lsls	r3, r3, #26
 1522 0020 03D4     		bmi	.L83
 733:Drivers/STM32G0xx_HAL_Driver/Src/stm32g0xx_hal_dma.c ****     }
 1523              		.loc 1 733 7 is_stmt 1 view .LVU473
 1524 0022 2368     		ldr	r3, [r4]
 1525 0024 0422     		movs	r2, #4
 1526 0026 9343     		bics	r3, r2
 1527 0028 2360     		str	r3, [r4]
 1528              	.L83:
 736:Drivers/STM32G0xx_HAL_Driver/Src/stm32g0xx_hal_dma.c **** 
 1529              		.loc 1 736 5 view .LVU474
 1530 002a 274C     		ldr	r4, .L87
 1531 002c 6368     		ldr	r3, [r4, #4]
 1532 002e 1C21     		movs	r1, #28
 1533              	.LVL87:
 736:Drivers/STM32G0xx_HAL_Driver/Src/stm32g0xx_hal_dma.c **** 
 1534              		.loc 1 736 5 is_stmt 0 view .LVU475
 1535 0030 026C     		ldr	r2, [r0, #64]
 1536 0032 1140     		ands	r1, r2
 1537 0034 0422     		movs	r2, #4
 1538 0036 8A40     		lsls	r2, r2, r1
 1539 0038 1343     		orrs	r3, r2
 1540 003a 6360     		str	r3, [r4, #4]
 741:Drivers/STM32G0xx_HAL_Driver/Src/stm32g0xx_hal_dma.c ****     {
 1541              		.loc 1 741 5 is_stmt 1 view .LVU476
 741:Drivers/STM32G0xx_HAL_Driver/Src/stm32g0xx_hal_dma.c ****     {
 1542              		.loc 1 741 13 is_stmt 0 view .LVU477
 1543 003c 036B     		ldr	r3, [r0, #48]
 741:Drivers/STM32G0xx_HAL_Driver/Src/stm32g0xx_hal_dma.c ****     {
 1544              		.loc 1 741 8 view .LVU478
 1545 003e 002B     		cmp	r3, #0
 1546 0040 00D0     		beq	.L81
 744:Drivers/STM32G0xx_HAL_Driver/Src/stm32g0xx_hal_dma.c ****     }
 1547              		.loc 1 744 7 is_stmt 1 view .LVU479
 1548 0042 9847     		blx	r3
 1549              	.LVL88:
 1550              	.L81:
 803:Drivers/STM32G0xx_HAL_Driver/Src/stm32g0xx_hal_dma.c **** 
 1551              		.loc 1 803 1 is_stmt 0 view .LVU480
 1552              		@ sp needed
 1553 0044 70BD     		pop	{r4, r5, r6, pc}
 1554              	.LVL89:
 1555              	.L82:
 749:Drivers/STM32G0xx_HAL_Driver/Src/stm32g0xx_hal_dma.c ****   {
 1556              		.loc 1 749 8 is_stmt 1 view .LVU481
 749:Drivers/STM32G0xx_HAL_Driver/Src/stm32g0xx_hal_dma.c ****   {
 1557              		.loc 1 749 44 is_stmt 0 view .LVU482
 1558 0046 0222     		movs	r2, #2
 1559 0048 9A40     		lsls	r2, r2, r3
 749:Drivers/STM32G0xx_HAL_Driver/Src/stm32g0xx_hal_dma.c ****   {
 1560              		.loc 1 749 11 view .LVU483
 1561 004a 1142     		tst	r1, r2
 1562 004c 1CD0     		beq	.L85
 749:Drivers/STM32G0xx_HAL_Driver/Src/stm32g0xx_hal_dma.c ****   {
 1563              		.loc 1 749 79 discriminator 1 view .LVU484
ARM GAS  /tmp/ccWiXf77.s 			page 54


 1564 004e AA07     		lsls	r2, r5, #30
 1565 0050 1AD5     		bpl	.L85
 751:Drivers/STM32G0xx_HAL_Driver/Src/stm32g0xx_hal_dma.c ****     {
 1566              		.loc 1 751 5 is_stmt 1 view .LVU485
 751:Drivers/STM32G0xx_HAL_Driver/Src/stm32g0xx_hal_dma.c ****     {
 1567              		.loc 1 751 24 is_stmt 0 view .LVU486
 1568 0052 2368     		ldr	r3, [r4]
 751:Drivers/STM32G0xx_HAL_Driver/Src/stm32g0xx_hal_dma.c ****     {
 1569              		.loc 1 751 8 view .LVU487
 1570 0054 9B06     		lsls	r3, r3, #26
 1571 0056 06D4     		bmi	.L86
 754:Drivers/STM32G0xx_HAL_Driver/Src/stm32g0xx_hal_dma.c **** 
 1572              		.loc 1 754 7 is_stmt 1 view .LVU488
 1573 0058 2368     		ldr	r3, [r4]
 1574 005a 0A22     		movs	r2, #10
 1575 005c 9343     		bics	r3, r2
 1576 005e 2360     		str	r3, [r4]
 757:Drivers/STM32G0xx_HAL_Driver/Src/stm32g0xx_hal_dma.c ****     }
 1577              		.loc 1 757 7 view .LVU489
 757:Drivers/STM32G0xx_HAL_Driver/Src/stm32g0xx_hal_dma.c ****     }
 1578              		.loc 1 757 19 is_stmt 0 view .LVU490
 1579 0060 2523     		movs	r3, #37
 1580 0062 093A     		subs	r2, r2, #9
 1581 0064 C254     		strb	r2, [r0, r3]
 1582              	.L86:
 760:Drivers/STM32G0xx_HAL_Driver/Src/stm32g0xx_hal_dma.c **** 
 1583              		.loc 1 760 5 is_stmt 1 view .LVU491
 1584 0066 184C     		ldr	r4, .L87
 1585 0068 6368     		ldr	r3, [r4, #4]
 1586 006a 1C21     		movs	r1, #28
 1587              	.LVL90:
 760:Drivers/STM32G0xx_HAL_Driver/Src/stm32g0xx_hal_dma.c **** 
 1588              		.loc 1 760 5 is_stmt 0 view .LVU492
 1589 006c 026C     		ldr	r2, [r0, #64]
 1590 006e 1140     		ands	r1, r2
 1591 0070 0222     		movs	r2, #2
 1592 0072 8A40     		lsls	r2, r2, r1
 1593 0074 1343     		orrs	r3, r2
 1594 0076 6360     		str	r3, [r4, #4]
 763:Drivers/STM32G0xx_HAL_Driver/Src/stm32g0xx_hal_dma.c **** 
 1595              		.loc 1 763 5 is_stmt 1 view .LVU493
 763:Drivers/STM32G0xx_HAL_Driver/Src/stm32g0xx_hal_dma.c **** 
 1596              		.loc 1 763 5 view .LVU494
 1597 0078 2423     		movs	r3, #36
 1598 007a 0022     		movs	r2, #0
 1599 007c C254     		strb	r2, [r0, r3]
 763:Drivers/STM32G0xx_HAL_Driver/Src/stm32g0xx_hal_dma.c **** 
 1600              		.loc 1 763 5 view .LVU495
 765:Drivers/STM32G0xx_HAL_Driver/Src/stm32g0xx_hal_dma.c ****     {
 1601              		.loc 1 765 5 view .LVU496
 765:Drivers/STM32G0xx_HAL_Driver/Src/stm32g0xx_hal_dma.c ****     {
 1602              		.loc 1 765 13 is_stmt 0 view .LVU497
 1603 007e C36A     		ldr	r3, [r0, #44]
 765:Drivers/STM32G0xx_HAL_Driver/Src/stm32g0xx_hal_dma.c ****     {
 1604              		.loc 1 765 8 view .LVU498
 1605 0080 002B     		cmp	r3, #0
 1606 0082 DFD0     		beq	.L81
ARM GAS  /tmp/ccWiXf77.s 			page 55


 768:Drivers/STM32G0xx_HAL_Driver/Src/stm32g0xx_hal_dma.c ****     }
 1607              		.loc 1 768 7 is_stmt 1 view .LVU499
 1608 0084 9847     		blx	r3
 1609              	.LVL91:
 768:Drivers/STM32G0xx_HAL_Driver/Src/stm32g0xx_hal_dma.c ****     }
 1610              		.loc 1 768 7 is_stmt 0 view .LVU500
 1611 0086 DDE7     		b	.L81
 1612              	.LVL92:
 1613              	.L85:
 773:Drivers/STM32G0xx_HAL_Driver/Src/stm32g0xx_hal_dma.c ****   {
 1614              		.loc 1 773 8 is_stmt 1 view .LVU501
 773:Drivers/STM32G0xx_HAL_Driver/Src/stm32g0xx_hal_dma.c ****   {
 1615              		.loc 1 773 38 is_stmt 0 view .LVU502
 1616 0088 0822     		movs	r2, #8
 1617 008a 9A40     		lsls	r2, r2, r3
 773:Drivers/STM32G0xx_HAL_Driver/Src/stm32g0xx_hal_dma.c ****   {
 1618              		.loc 1 773 11 view .LVU503
 1619 008c 1142     		tst	r1, r2
 1620 008e D9D0     		beq	.L81
 773:Drivers/STM32G0xx_HAL_Driver/Src/stm32g0xx_hal_dma.c ****   {
 1621              		.loc 1 773 78 discriminator 1 view .LVU504
 1622 0090 2B07     		lsls	r3, r5, #28
 1623 0092 D7D5     		bpl	.L81
 778:Drivers/STM32G0xx_HAL_Driver/Src/stm32g0xx_hal_dma.c **** 
 1624              		.loc 1 778 5 is_stmt 1 view .LVU505
 1625 0094 2368     		ldr	r3, [r4]
 1626 0096 0E22     		movs	r2, #14
 1627 0098 9343     		bics	r3, r2
 1628 009a 2360     		str	r3, [r4]
 781:Drivers/STM32G0xx_HAL_Driver/Src/stm32g0xx_hal_dma.c **** 
 1629              		.loc 1 781 5 view .LVU506
 1630 009c 0A4C     		ldr	r4, .L87
 1631 009e 6268     		ldr	r2, [r4, #4]
 1632 00a0 1C21     		movs	r1, #28
 1633              	.LVL93:
 781:Drivers/STM32G0xx_HAL_Driver/Src/stm32g0xx_hal_dma.c **** 
 1634              		.loc 1 781 5 is_stmt 0 view .LVU507
 1635 00a2 036C     		ldr	r3, [r0, #64]
 1636 00a4 1940     		ands	r1, r3
 1637 00a6 0123     		movs	r3, #1
 1638 00a8 1D00     		movs	r5, r3
 1639              	.LVL94:
 781:Drivers/STM32G0xx_HAL_Driver/Src/stm32g0xx_hal_dma.c **** 
 1640              		.loc 1 781 5 view .LVU508
 1641 00aa 8D40     		lsls	r5, r5, r1
 1642 00ac 2A43     		orrs	r2, r5
 1643 00ae 6260     		str	r2, [r4, #4]
 784:Drivers/STM32G0xx_HAL_Driver/Src/stm32g0xx_hal_dma.c **** 
 1644              		.loc 1 784 5 is_stmt 1 view .LVU509
 784:Drivers/STM32G0xx_HAL_Driver/Src/stm32g0xx_hal_dma.c **** 
 1645              		.loc 1 784 21 is_stmt 0 view .LVU510
 1646 00b0 C363     		str	r3, [r0, #60]
 787:Drivers/STM32G0xx_HAL_Driver/Src/stm32g0xx_hal_dma.c **** 
 1647              		.loc 1 787 5 is_stmt 1 view .LVU511
 787:Drivers/STM32G0xx_HAL_Driver/Src/stm32g0xx_hal_dma.c **** 
 1648              		.loc 1 787 17 is_stmt 0 view .LVU512
 1649 00b2 2522     		movs	r2, #37
ARM GAS  /tmp/ccWiXf77.s 			page 56


 1650 00b4 8354     		strb	r3, [r0, r2]
 790:Drivers/STM32G0xx_HAL_Driver/Src/stm32g0xx_hal_dma.c **** 
 1651              		.loc 1 790 5 is_stmt 1 view .LVU513
 790:Drivers/STM32G0xx_HAL_Driver/Src/stm32g0xx_hal_dma.c **** 
 1652              		.loc 1 790 5 view .LVU514
 1653 00b6 2333     		adds	r3, r3, #35
 1654 00b8 0022     		movs	r2, #0
 1655 00ba C254     		strb	r2, [r0, r3]
 790:Drivers/STM32G0xx_HAL_Driver/Src/stm32g0xx_hal_dma.c **** 
 1656              		.loc 1 790 5 view .LVU515
 792:Drivers/STM32G0xx_HAL_Driver/Src/stm32g0xx_hal_dma.c ****     {
 1657              		.loc 1 792 5 view .LVU516
 792:Drivers/STM32G0xx_HAL_Driver/Src/stm32g0xx_hal_dma.c ****     {
 1658              		.loc 1 792 13 is_stmt 0 view .LVU517
 1659 00bc 436B     		ldr	r3, [r0, #52]
 792:Drivers/STM32G0xx_HAL_Driver/Src/stm32g0xx_hal_dma.c ****     {
 1660              		.loc 1 792 8 view .LVU518
 1661 00be 002B     		cmp	r3, #0
 1662 00c0 C0D0     		beq	.L81
 795:Drivers/STM32G0xx_HAL_Driver/Src/stm32g0xx_hal_dma.c ****     }
 1663              		.loc 1 795 7 is_stmt 1 view .LVU519
 1664 00c2 9847     		blx	r3
 1665              	.LVL95:
 801:Drivers/STM32G0xx_HAL_Driver/Src/stm32g0xx_hal_dma.c ****   return;
 1666              		.loc 1 801 3 view .LVU520
 802:Drivers/STM32G0xx_HAL_Driver/Src/stm32g0xx_hal_dma.c **** }
 1667              		.loc 1 802 3 view .LVU521
 1668 00c4 BEE7     		b	.L81
 1669              	.L88:
 1670 00c6 C046     		.align	2
 1671              	.L87:
 1672 00c8 00000240 		.word	1073872896
 1673              		.cfi_endproc
 1674              	.LFE165:
 1676              		.section	.text.HAL_DMA_RegisterCallback,"ax",%progbits
 1677              		.align	1
 1678              		.global	HAL_DMA_RegisterCallback
 1679              		.syntax unified
 1680              		.code	16
 1681              		.thumb_func
 1682              		.fpu softvfp
 1684              	HAL_DMA_RegisterCallback:
 1685              	.LVL96:
 1686              	.LFB166:
 816:Drivers/STM32G0xx_HAL_Driver/Src/stm32g0xx_hal_dma.c ****   HAL_StatusTypeDef status = HAL_OK;
 1687              		.loc 1 816 1 view -0
 1688              		.cfi_startproc
 1689              		@ args = 0, pretend = 0, frame = 0
 1690              		@ frame_needed = 0, uses_anonymous_args = 0
 816:Drivers/STM32G0xx_HAL_Driver/Src/stm32g0xx_hal_dma.c ****   HAL_StatusTypeDef status = HAL_OK;
 1691              		.loc 1 816 1 is_stmt 0 view .LVU523
 1692 0000 10B5     		push	{r4, lr}
 1693              	.LCFI11:
 1694              		.cfi_def_cfa_offset 8
 1695              		.cfi_offset 4, -8
 1696              		.cfi_offset 14, -4
 1697 0002 0300     		movs	r3, r0
ARM GAS  /tmp/ccWiXf77.s 			page 57


 817:Drivers/STM32G0xx_HAL_Driver/Src/stm32g0xx_hal_dma.c **** 
 1698              		.loc 1 817 3 is_stmt 1 view .LVU524
 1699              	.LVL97:
 820:Drivers/STM32G0xx_HAL_Driver/Src/stm32g0xx_hal_dma.c **** 
 1700              		.loc 1 820 3 view .LVU525
 820:Drivers/STM32G0xx_HAL_Driver/Src/stm32g0xx_hal_dma.c **** 
 1701              		.loc 1 820 3 view .LVU526
 1702 0004 2420     		movs	r0, #36
 1703              	.LVL98:
 820:Drivers/STM32G0xx_HAL_Driver/Src/stm32g0xx_hal_dma.c **** 
 1704              		.loc 1 820 3 is_stmt 0 view .LVU527
 1705 0006 185C     		ldrb	r0, [r3, r0]
 1706 0008 0128     		cmp	r0, #1
 1707 000a 1ED0     		beq	.L97
 820:Drivers/STM32G0xx_HAL_Driver/Src/stm32g0xx_hal_dma.c **** 
 1708              		.loc 1 820 3 is_stmt 1 discriminator 2 view .LVU528
 820:Drivers/STM32G0xx_HAL_Driver/Src/stm32g0xx_hal_dma.c **** 
 1709              		.loc 1 820 3 discriminator 2 view .LVU529
 822:Drivers/STM32G0xx_HAL_Driver/Src/stm32g0xx_hal_dma.c ****   {
 1710              		.loc 1 822 3 discriminator 2 view .LVU530
 822:Drivers/STM32G0xx_HAL_Driver/Src/stm32g0xx_hal_dma.c ****   {
 1711              		.loc 1 822 34 is_stmt 0 discriminator 2 view .LVU531
 1712 000c 2520     		movs	r0, #37
 1713 000e 1C5C     		ldrb	r4, [r3, r0]
 1714 0010 E0B2     		uxtb	r0, r4
 822:Drivers/STM32G0xx_HAL_Driver/Src/stm32g0xx_hal_dma.c ****   {
 1715              		.loc 1 822 6 discriminator 2 view .LVU532
 1716 0012 012C     		cmp	r4, #1
 1717 0014 04D0     		beq	.L99
 849:Drivers/STM32G0xx_HAL_Driver/Src/stm32g0xx_hal_dma.c ****   }
 1718              		.loc 1 849 12 view .LVU533
 1719 0016 0120     		movs	r0, #1
 1720              	.L91:
 1721              	.LVL99:
 853:Drivers/STM32G0xx_HAL_Driver/Src/stm32g0xx_hal_dma.c **** 
 1722              		.loc 1 853 3 is_stmt 1 view .LVU534
 853:Drivers/STM32G0xx_HAL_Driver/Src/stm32g0xx_hal_dma.c **** 
 1723              		.loc 1 853 3 view .LVU535
 1724 0018 2422     		movs	r2, #36
 1725              	.LVL100:
 853:Drivers/STM32G0xx_HAL_Driver/Src/stm32g0xx_hal_dma.c **** 
 1726              		.loc 1 853 3 is_stmt 0 view .LVU536
 1727 001a 0021     		movs	r1, #0
 1728              	.LVL101:
 853:Drivers/STM32G0xx_HAL_Driver/Src/stm32g0xx_hal_dma.c **** 
 1729              		.loc 1 853 3 view .LVU537
 1730 001c 9954     		strb	r1, [r3, r2]
 853:Drivers/STM32G0xx_HAL_Driver/Src/stm32g0xx_hal_dma.c **** 
 1731              		.loc 1 853 3 is_stmt 1 view .LVU538
 855:Drivers/STM32G0xx_HAL_Driver/Src/stm32g0xx_hal_dma.c **** }
 1732              		.loc 1 855 3 view .LVU539
 1733              	.LVL102:
 1734              	.L90:
 856:Drivers/STM32G0xx_HAL_Driver/Src/stm32g0xx_hal_dma.c **** 
 1735              		.loc 1 856 1 is_stmt 0 view .LVU540
 1736              		@ sp needed
 1737 001e 10BD     		pop	{r4, pc}
ARM GAS  /tmp/ccWiXf77.s 			page 58


 1738              	.LVL103:
 1739              	.L99:
 824:Drivers/STM32G0xx_HAL_Driver/Src/stm32g0xx_hal_dma.c ****     {
 1740              		.loc 1 824 5 is_stmt 1 view .LVU541
 1741 0020 0229     		cmp	r1, #2
 1742 0022 0FD0     		beq	.L92
 1743 0024 06D8     		bhi	.L93
 1744 0026 0029     		cmp	r1, #0
 1745 0028 09D0     		beq	.L94
 1746 002a 0129     		cmp	r1, #1
 1747 002c F4D1     		bne	.L91
 831:Drivers/STM32G0xx_HAL_Driver/Src/stm32g0xx_hal_dma.c ****         break;
 1748              		.loc 1 831 9 view .LVU542
 831:Drivers/STM32G0xx_HAL_Driver/Src/stm32g0xx_hal_dma.c ****         break;
 1749              		.loc 1 831 36 is_stmt 0 view .LVU543
 1750 002e 1A63     		str	r2, [r3, #48]
 832:Drivers/STM32G0xx_HAL_Driver/Src/stm32g0xx_hal_dma.c **** 
 1751              		.loc 1 832 9 is_stmt 1 view .LVU544
 817:Drivers/STM32G0xx_HAL_Driver/Src/stm32g0xx_hal_dma.c **** 
 1752              		.loc 1 817 21 is_stmt 0 view .LVU545
 1753 0030 0020     		movs	r0, #0
 832:Drivers/STM32G0xx_HAL_Driver/Src/stm32g0xx_hal_dma.c **** 
 1754              		.loc 1 832 9 view .LVU546
 1755 0032 F1E7     		b	.L91
 1756              	.L93:
 824:Drivers/STM32G0xx_HAL_Driver/Src/stm32g0xx_hal_dma.c ****     {
 1757              		.loc 1 824 5 view .LVU547
 1758 0034 0329     		cmp	r1, #3
 1759 0036 EFD1     		bne	.L91
 839:Drivers/STM32G0xx_HAL_Driver/Src/stm32g0xx_hal_dma.c ****         break;
 1760              		.loc 1 839 9 is_stmt 1 view .LVU548
 839:Drivers/STM32G0xx_HAL_Driver/Src/stm32g0xx_hal_dma.c ****         break;
 1761              		.loc 1 839 33 is_stmt 0 view .LVU549
 1762 0038 9A63     		str	r2, [r3, #56]
 840:Drivers/STM32G0xx_HAL_Driver/Src/stm32g0xx_hal_dma.c **** 
 1763              		.loc 1 840 9 is_stmt 1 view .LVU550
 817:Drivers/STM32G0xx_HAL_Driver/Src/stm32g0xx_hal_dma.c **** 
 1764              		.loc 1 817 21 is_stmt 0 view .LVU551
 1765 003a 0020     		movs	r0, #0
 840:Drivers/STM32G0xx_HAL_Driver/Src/stm32g0xx_hal_dma.c **** 
 1766              		.loc 1 840 9 view .LVU552
 1767 003c ECE7     		b	.L91
 1768              	.L94:
 827:Drivers/STM32G0xx_HAL_Driver/Src/stm32g0xx_hal_dma.c ****         break;
 1769              		.loc 1 827 9 is_stmt 1 view .LVU553
 827:Drivers/STM32G0xx_HAL_Driver/Src/stm32g0xx_hal_dma.c ****         break;
 1770              		.loc 1 827 32 is_stmt 0 view .LVU554
 1771 003e DA62     		str	r2, [r3, #44]
 828:Drivers/STM32G0xx_HAL_Driver/Src/stm32g0xx_hal_dma.c **** 
 1772              		.loc 1 828 9 is_stmt 1 view .LVU555
 817:Drivers/STM32G0xx_HAL_Driver/Src/stm32g0xx_hal_dma.c **** 
 1773              		.loc 1 817 21 is_stmt 0 view .LVU556
 1774 0040 0800     		movs	r0, r1
 828:Drivers/STM32G0xx_HAL_Driver/Src/stm32g0xx_hal_dma.c **** 
 1775              		.loc 1 828 9 view .LVU557
 1776 0042 E9E7     		b	.L91
 1777              	.L92:
ARM GAS  /tmp/ccWiXf77.s 			page 59


 835:Drivers/STM32G0xx_HAL_Driver/Src/stm32g0xx_hal_dma.c ****         break;
 1778              		.loc 1 835 9 is_stmt 1 view .LVU558
 835:Drivers/STM32G0xx_HAL_Driver/Src/stm32g0xx_hal_dma.c ****         break;
 1779              		.loc 1 835 33 is_stmt 0 view .LVU559
 1780 0044 5A63     		str	r2, [r3, #52]
 836:Drivers/STM32G0xx_HAL_Driver/Src/stm32g0xx_hal_dma.c **** 
 1781              		.loc 1 836 9 is_stmt 1 view .LVU560
 817:Drivers/STM32G0xx_HAL_Driver/Src/stm32g0xx_hal_dma.c **** 
 1782              		.loc 1 817 21 is_stmt 0 view .LVU561
 1783 0046 0020     		movs	r0, #0
 836:Drivers/STM32G0xx_HAL_Driver/Src/stm32g0xx_hal_dma.c **** 
 1784              		.loc 1 836 9 view .LVU562
 1785 0048 E6E7     		b	.L91
 1786              	.L97:
 820:Drivers/STM32G0xx_HAL_Driver/Src/stm32g0xx_hal_dma.c **** 
 1787              		.loc 1 820 3 view .LVU563
 1788 004a 0220     		movs	r0, #2
 1789 004c E7E7     		b	.L90
 1790              		.cfi_endproc
 1791              	.LFE166:
 1793              		.section	.text.HAL_DMA_UnRegisterCallback,"ax",%progbits
 1794              		.align	1
 1795              		.global	HAL_DMA_UnRegisterCallback
 1796              		.syntax unified
 1797              		.code	16
 1798              		.thumb_func
 1799              		.fpu softvfp
 1801              	HAL_DMA_UnRegisterCallback:
 1802              	.LVL104:
 1803              	.LFB167:
 867:Drivers/STM32G0xx_HAL_Driver/Src/stm32g0xx_hal_dma.c ****   HAL_StatusTypeDef status = HAL_OK;
 1804              		.loc 1 867 1 is_stmt 1 view -0
 1805              		.cfi_startproc
 1806              		@ args = 0, pretend = 0, frame = 0
 1807              		@ frame_needed = 0, uses_anonymous_args = 0
 1808              		@ link register save eliminated.
 867:Drivers/STM32G0xx_HAL_Driver/Src/stm32g0xx_hal_dma.c ****   HAL_StatusTypeDef status = HAL_OK;
 1809              		.loc 1 867 1 is_stmt 0 view .LVU565
 1810 0000 0300     		movs	r3, r0
 868:Drivers/STM32G0xx_HAL_Driver/Src/stm32g0xx_hal_dma.c **** 
 1811              		.loc 1 868 3 is_stmt 1 view .LVU566
 1812              	.LVL105:
 871:Drivers/STM32G0xx_HAL_Driver/Src/stm32g0xx_hal_dma.c **** 
 1813              		.loc 1 871 3 view .LVU567
 871:Drivers/STM32G0xx_HAL_Driver/Src/stm32g0xx_hal_dma.c **** 
 1814              		.loc 1 871 3 view .LVU568
 1815 0002 2422     		movs	r2, #36
 1816 0004 825C     		ldrb	r2, [r0, r2]
 1817 0006 012A     		cmp	r2, #1
 1818 0008 29D0     		beq	.L109
 871:Drivers/STM32G0xx_HAL_Driver/Src/stm32g0xx_hal_dma.c **** 
 1819              		.loc 1 871 3 discriminator 2 view .LVU569
 1820 000a 2422     		movs	r2, #36
 1821 000c 0120     		movs	r0, #1
 1822              	.LVL106:
 871:Drivers/STM32G0xx_HAL_Driver/Src/stm32g0xx_hal_dma.c **** 
 1823              		.loc 1 871 3 is_stmt 0 discriminator 2 view .LVU570
ARM GAS  /tmp/ccWiXf77.s 			page 60


 1824 000e 9854     		strb	r0, [r3, r2]
 871:Drivers/STM32G0xx_HAL_Driver/Src/stm32g0xx_hal_dma.c **** 
 1825              		.loc 1 871 3 is_stmt 1 discriminator 2 view .LVU571
 873:Drivers/STM32G0xx_HAL_Driver/Src/stm32g0xx_hal_dma.c ****   {
 1826              		.loc 1 873 3 discriminator 2 view .LVU572
 873:Drivers/STM32G0xx_HAL_Driver/Src/stm32g0xx_hal_dma.c ****   {
 1827              		.loc 1 873 34 is_stmt 0 discriminator 2 view .LVU573
 1828 0010 0132     		adds	r2, r2, #1
 1829 0012 9A5C     		ldrb	r2, [r3, r2]
 1830 0014 D0B2     		uxtb	r0, r2
 873:Drivers/STM32G0xx_HAL_Driver/Src/stm32g0xx_hal_dma.c ****   {
 1831              		.loc 1 873 6 discriminator 2 view .LVU574
 1832 0016 012A     		cmp	r2, #1
 1833 0018 04D0     		beq	.L111
 907:Drivers/STM32G0xx_HAL_Driver/Src/stm32g0xx_hal_dma.c ****   }
 1834              		.loc 1 907 12 view .LVU575
 1835 001a 0120     		movs	r0, #1
 1836              	.L102:
 1837              	.LVL107:
 911:Drivers/STM32G0xx_HAL_Driver/Src/stm32g0xx_hal_dma.c **** 
 1838              		.loc 1 911 3 is_stmt 1 view .LVU576
 911:Drivers/STM32G0xx_HAL_Driver/Src/stm32g0xx_hal_dma.c **** 
 1839              		.loc 1 911 3 view .LVU577
 1840 001c 2422     		movs	r2, #36
 1841 001e 0021     		movs	r1, #0
 1842              	.LVL108:
 911:Drivers/STM32G0xx_HAL_Driver/Src/stm32g0xx_hal_dma.c **** 
 1843              		.loc 1 911 3 is_stmt 0 view .LVU578
 1844 0020 9954     		strb	r1, [r3, r2]
 911:Drivers/STM32G0xx_HAL_Driver/Src/stm32g0xx_hal_dma.c **** 
 1845              		.loc 1 911 3 is_stmt 1 view .LVU579
 913:Drivers/STM32G0xx_HAL_Driver/Src/stm32g0xx_hal_dma.c **** }
 1846              		.loc 1 913 3 view .LVU580
 1847              	.LVL109:
 1848              	.L101:
 914:Drivers/STM32G0xx_HAL_Driver/Src/stm32g0xx_hal_dma.c **** 
 1849              		.loc 1 914 1 is_stmt 0 view .LVU581
 1850              		@ sp needed
 1851 0022 7047     		bx	lr
 1852              	.LVL110:
 1853              	.L111:
 875:Drivers/STM32G0xx_HAL_Driver/Src/stm32g0xx_hal_dma.c ****     {
 1854              		.loc 1 875 5 is_stmt 1 view .LVU582
 1855 0024 0429     		cmp	r1, #4
 1856 0026 F9D8     		bhi	.L102
 1857 0028 8A00     		lsls	r2, r1, #2
 1858 002a 0E48     		ldr	r0, .L112
 1859 002c 8258     		ldr	r2, [r0, r2]
 1860 002e 9746     		mov	pc, r2
 1861              		.section	.rodata.HAL_DMA_UnRegisterCallback,"a",%progbits
 1862              		.align	2
 1863              	.L104:
 1864 0000 30000000 		.word	.L108
 1865 0004 38000000 		.word	.L107
 1866 0008 40000000 		.word	.L106
 1867 000c 48000000 		.word	.L105
 1868 0010 50000000 		.word	.L103
ARM GAS  /tmp/ccWiXf77.s 			page 61


 1869              		.section	.text.HAL_DMA_UnRegisterCallback
 1870              	.L108:
 878:Drivers/STM32G0xx_HAL_Driver/Src/stm32g0xx_hal_dma.c ****         break;
 1871              		.loc 1 878 9 view .LVU583
 878:Drivers/STM32G0xx_HAL_Driver/Src/stm32g0xx_hal_dma.c ****         break;
 1872              		.loc 1 878 32 is_stmt 0 view .LVU584
 1873 0030 0022     		movs	r2, #0
 1874 0032 DA62     		str	r2, [r3, #44]
 879:Drivers/STM32G0xx_HAL_Driver/Src/stm32g0xx_hal_dma.c **** 
 1875              		.loc 1 879 9 is_stmt 1 view .LVU585
 868:Drivers/STM32G0xx_HAL_Driver/Src/stm32g0xx_hal_dma.c **** 
 1876              		.loc 1 868 21 is_stmt 0 view .LVU586
 1877 0034 0800     		movs	r0, r1
 879:Drivers/STM32G0xx_HAL_Driver/Src/stm32g0xx_hal_dma.c **** 
 1878              		.loc 1 879 9 view .LVU587
 1879 0036 F1E7     		b	.L102
 1880              	.L107:
 882:Drivers/STM32G0xx_HAL_Driver/Src/stm32g0xx_hal_dma.c ****         break;
 1881              		.loc 1 882 9 is_stmt 1 view .LVU588
 882:Drivers/STM32G0xx_HAL_Driver/Src/stm32g0xx_hal_dma.c ****         break;
 1882              		.loc 1 882 36 is_stmt 0 view .LVU589
 1883 0038 0022     		movs	r2, #0
 1884 003a 1A63     		str	r2, [r3, #48]
 883:Drivers/STM32G0xx_HAL_Driver/Src/stm32g0xx_hal_dma.c **** 
 1885              		.loc 1 883 9 is_stmt 1 view .LVU590
 868:Drivers/STM32G0xx_HAL_Driver/Src/stm32g0xx_hal_dma.c **** 
 1886              		.loc 1 868 21 is_stmt 0 view .LVU591
 1887 003c 0020     		movs	r0, #0
 883:Drivers/STM32G0xx_HAL_Driver/Src/stm32g0xx_hal_dma.c **** 
 1888              		.loc 1 883 9 view .LVU592
 1889 003e EDE7     		b	.L102
 1890              	.L106:
 886:Drivers/STM32G0xx_HAL_Driver/Src/stm32g0xx_hal_dma.c ****         break;
 1891              		.loc 1 886 9 is_stmt 1 view .LVU593
 886:Drivers/STM32G0xx_HAL_Driver/Src/stm32g0xx_hal_dma.c ****         break;
 1892              		.loc 1 886 33 is_stmt 0 view .LVU594
 1893 0040 0022     		movs	r2, #0
 1894 0042 5A63     		str	r2, [r3, #52]
 887:Drivers/STM32G0xx_HAL_Driver/Src/stm32g0xx_hal_dma.c **** 
 1895              		.loc 1 887 9 is_stmt 1 view .LVU595
 868:Drivers/STM32G0xx_HAL_Driver/Src/stm32g0xx_hal_dma.c **** 
 1896              		.loc 1 868 21 is_stmt 0 view .LVU596
 1897 0044 0020     		movs	r0, #0
 887:Drivers/STM32G0xx_HAL_Driver/Src/stm32g0xx_hal_dma.c **** 
 1898              		.loc 1 887 9 view .LVU597
 1899 0046 E9E7     		b	.L102
 1900              	.L105:
 890:Drivers/STM32G0xx_HAL_Driver/Src/stm32g0xx_hal_dma.c ****         break;
 1901              		.loc 1 890 9 is_stmt 1 view .LVU598
 890:Drivers/STM32G0xx_HAL_Driver/Src/stm32g0xx_hal_dma.c ****         break;
 1902              		.loc 1 890 33 is_stmt 0 view .LVU599
 1903 0048 0022     		movs	r2, #0
 1904 004a 9A63     		str	r2, [r3, #56]
 891:Drivers/STM32G0xx_HAL_Driver/Src/stm32g0xx_hal_dma.c **** 
 1905              		.loc 1 891 9 is_stmt 1 view .LVU600
 868:Drivers/STM32G0xx_HAL_Driver/Src/stm32g0xx_hal_dma.c **** 
 1906              		.loc 1 868 21 is_stmt 0 view .LVU601
ARM GAS  /tmp/ccWiXf77.s 			page 62


 1907 004c 0020     		movs	r0, #0
 891:Drivers/STM32G0xx_HAL_Driver/Src/stm32g0xx_hal_dma.c **** 
 1908              		.loc 1 891 9 view .LVU602
 1909 004e E5E7     		b	.L102
 1910              	.L103:
 894:Drivers/STM32G0xx_HAL_Driver/Src/stm32g0xx_hal_dma.c ****         hdma->XferHalfCpltCallback = NULL;
 1911              		.loc 1 894 9 is_stmt 1 view .LVU603
 894:Drivers/STM32G0xx_HAL_Driver/Src/stm32g0xx_hal_dma.c ****         hdma->XferHalfCpltCallback = NULL;
 1912              		.loc 1 894 32 is_stmt 0 view .LVU604
 1913 0050 0022     		movs	r2, #0
 1914 0052 DA62     		str	r2, [r3, #44]
 895:Drivers/STM32G0xx_HAL_Driver/Src/stm32g0xx_hal_dma.c ****         hdma->XferErrorCallback = NULL;
 1915              		.loc 1 895 9 is_stmt 1 view .LVU605
 895:Drivers/STM32G0xx_HAL_Driver/Src/stm32g0xx_hal_dma.c ****         hdma->XferErrorCallback = NULL;
 1916              		.loc 1 895 36 is_stmt 0 view .LVU606
 1917 0054 1A63     		str	r2, [r3, #48]
 896:Drivers/STM32G0xx_HAL_Driver/Src/stm32g0xx_hal_dma.c ****         hdma->XferAbortCallback = NULL;
 1918              		.loc 1 896 9 is_stmt 1 view .LVU607
 896:Drivers/STM32G0xx_HAL_Driver/Src/stm32g0xx_hal_dma.c ****         hdma->XferAbortCallback = NULL;
 1919              		.loc 1 896 33 is_stmt 0 view .LVU608
 1920 0056 5A63     		str	r2, [r3, #52]
 897:Drivers/STM32G0xx_HAL_Driver/Src/stm32g0xx_hal_dma.c ****         break;
 1921              		.loc 1 897 9 is_stmt 1 view .LVU609
 897:Drivers/STM32G0xx_HAL_Driver/Src/stm32g0xx_hal_dma.c ****         break;
 1922              		.loc 1 897 33 is_stmt 0 view .LVU610
 1923 0058 9A63     		str	r2, [r3, #56]
 898:Drivers/STM32G0xx_HAL_Driver/Src/stm32g0xx_hal_dma.c **** 
 1924              		.loc 1 898 9 is_stmt 1 view .LVU611
 868:Drivers/STM32G0xx_HAL_Driver/Src/stm32g0xx_hal_dma.c **** 
 1925              		.loc 1 868 21 is_stmt 0 view .LVU612
 1926 005a 0020     		movs	r0, #0
 898:Drivers/STM32G0xx_HAL_Driver/Src/stm32g0xx_hal_dma.c **** 
 1927              		.loc 1 898 9 view .LVU613
 1928 005c DEE7     		b	.L102
 1929              	.LVL111:
 1930              	.L109:
 871:Drivers/STM32G0xx_HAL_Driver/Src/stm32g0xx_hal_dma.c **** 
 1931              		.loc 1 871 3 view .LVU614
 1932 005e 0220     		movs	r0, #2
 1933              	.LVL112:
 871:Drivers/STM32G0xx_HAL_Driver/Src/stm32g0xx_hal_dma.c **** 
 1934              		.loc 1 871 3 view .LVU615
 1935 0060 DFE7     		b	.L101
 1936              	.L113:
 1937 0062 C046     		.align	2
 1938              	.L112:
 1939 0064 00000000 		.word	.L104
 1940              		.cfi_endproc
 1941              	.LFE167:
 1943              		.section	.text.HAL_DMA_GetState,"ax",%progbits
 1944              		.align	1
 1945              		.global	HAL_DMA_GetState
 1946              		.syntax unified
 1947              		.code	16
 1948              		.thumb_func
 1949              		.fpu softvfp
 1951              	HAL_DMA_GetState:
ARM GAS  /tmp/ccWiXf77.s 			page 63


 1952              	.LVL113:
 1953              	.LFB168:
 945:Drivers/STM32G0xx_HAL_Driver/Src/stm32g0xx_hal_dma.c ****   /* Return DMA handle state */
 1954              		.loc 1 945 1 is_stmt 1 view -0
 1955              		.cfi_startproc
 1956              		@ args = 0, pretend = 0, frame = 0
 1957              		@ frame_needed = 0, uses_anonymous_args = 0
 1958              		@ link register save eliminated.
 947:Drivers/STM32G0xx_HAL_Driver/Src/stm32g0xx_hal_dma.c **** }
 1959              		.loc 1 947 3 view .LVU617
 947:Drivers/STM32G0xx_HAL_Driver/Src/stm32g0xx_hal_dma.c **** }
 1960              		.loc 1 947 14 is_stmt 0 view .LVU618
 1961 0000 2523     		movs	r3, #37
 1962 0002 C05C     		ldrb	r0, [r0, r3]
 1963              	.LVL114:
 947:Drivers/STM32G0xx_HAL_Driver/Src/stm32g0xx_hal_dma.c **** }
 1964              		.loc 1 947 14 view .LVU619
 1965 0004 C0B2     		uxtb	r0, r0
 948:Drivers/STM32G0xx_HAL_Driver/Src/stm32g0xx_hal_dma.c **** 
 1966              		.loc 1 948 1 view .LVU620
 1967              		@ sp needed
 1968 0006 7047     		bx	lr
 1969              		.cfi_endproc
 1970              	.LFE168:
 1972              		.section	.text.HAL_DMA_GetError,"ax",%progbits
 1973              		.align	1
 1974              		.global	HAL_DMA_GetError
 1975              		.syntax unified
 1976              		.code	16
 1977              		.thumb_func
 1978              		.fpu softvfp
 1980              	HAL_DMA_GetError:
 1981              	.LVL115:
 1982              	.LFB169:
 957:Drivers/STM32G0xx_HAL_Driver/Src/stm32g0xx_hal_dma.c ****   return hdma->ErrorCode;
 1983              		.loc 1 957 1 is_stmt 1 view -0
 1984              		.cfi_startproc
 1985              		@ args = 0, pretend = 0, frame = 0
 1986              		@ frame_needed = 0, uses_anonymous_args = 0
 1987              		@ link register save eliminated.
 958:Drivers/STM32G0xx_HAL_Driver/Src/stm32g0xx_hal_dma.c **** }
 1988              		.loc 1 958 3 view .LVU622
 958:Drivers/STM32G0xx_HAL_Driver/Src/stm32g0xx_hal_dma.c **** }
 1989              		.loc 1 958 14 is_stmt 0 view .LVU623
 1990 0000 C06B     		ldr	r0, [r0, #60]
 1991              	.LVL116:
 959:Drivers/STM32G0xx_HAL_Driver/Src/stm32g0xx_hal_dma.c **** 
 1992              		.loc 1 959 1 view .LVU624
 1993              		@ sp needed
 1994 0002 7047     		bx	lr
 1995              		.cfi_endproc
 1996              	.LFE169:
 1998              		.text
 1999              	.Letext0:
 2000              		.file 2 "/usr/arm-none-eabi/include/machine/_default_types.h"
 2001              		.file 3 "/usr/arm-none-eabi/include/sys/_stdint.h"
 2002              		.file 4 "Drivers/CMSIS/Device/ST/STM32G0xx/Include/system_stm32g0xx.h"
ARM GAS  /tmp/ccWiXf77.s 			page 64


 2003              		.file 5 "Drivers/CMSIS/Device/ST/STM32G0xx/Include/stm32g070xx.h"
 2004              		.file 6 "Drivers/STM32G0xx_HAL_Driver/Inc/stm32g0xx_hal_def.h"
 2005              		.file 7 "Drivers/STM32G0xx_HAL_Driver/Inc/stm32g0xx_hal_dma.h"
 2006              		.file 8 "Drivers/STM32G0xx_HAL_Driver/Inc/stm32g0xx_hal_flash.h"
 2007              		.file 9 "Drivers/STM32G0xx_HAL_Driver/Inc/stm32g0xx_hal.h"
ARM GAS  /tmp/ccWiXf77.s 			page 65

