(ioptparse
Values
p0
(dp1
S'selected_nodes'
p2
(lp3
S'path5776:4:9'
p4
asS'autoflatten'
p5
I00
sS'filetype'
p6
S'kicad_pcb'
p7
sS'ids'
p8
(lp9
S'path5776'
p10
asS'crop'
p11
I00
sS'debug'
p12
I00
sS'openkicad'
p13
I00
sS'openfactory'
p14
I00
sS'threshold'
p15
F5.0
sS'path'
p16
S'/home/william/Documents/Projects/RMABadge/Badges/FireJumperElite/Schematics'
p17
sS'dpi'
p18
F600.0
sb.