ARM GAS  /tmp/ccr4JylA.s 			page 1


   1              		.cpu cortex-m0
   2              		.eabi_attribute 20, 1
   3              		.eabi_attribute 21, 1
   4              		.eabi_attribute 23, 3
   5              		.eabi_attribute 24, 1
   6              		.eabi_attribute 25, 1
   7              		.eabi_attribute 26, 1
   8              		.eabi_attribute 30, 1
   9              		.eabi_attribute 34, 0
  10              		.eabi_attribute 18, 4
  11              		.file	"main.c"
  12              		.text
  13              	.Ltext0:
  14              		.cfi_sections	.debug_frame
  15              		.section	.text.MX_GPIO_Init,"ax",%progbits
  16              		.align	1
  17              		.arch armv6s-m
  18              		.syntax unified
  19              		.code	16
  20              		.thumb_func
  21              		.fpu softvfp
  23              	MX_GPIO_Init:
  24              	.LFB53:
  25              		.file 1 "Src/main.c"
   1:Src/main.c    **** /* USER CODE BEGIN Header */
   2:Src/main.c    **** /**
   3:Src/main.c    ****   ******************************************************************************
   4:Src/main.c    ****   * @file           : main.c
   5:Src/main.c    ****   * @brief          : Main program body
   6:Src/main.c    ****   ******************************************************************************
   7:Src/main.c    ****   * @attention
   8:Src/main.c    ****   *
   9:Src/main.c    ****   * <h2><center>&copy; Copyright (c) 2020 STMicroelectronics.
  10:Src/main.c    ****   * All rights reserved.</center></h2>
  11:Src/main.c    ****   *
  12:Src/main.c    ****   * This software component is licensed by ST under Ultimate Liberty license
  13:Src/main.c    ****   * SLA0044, the "License"; You may not use this file except in compliance with
  14:Src/main.c    ****   * the License. You may obtain a copy of the License at:
  15:Src/main.c    ****   *                             www.st.com/SLA0044
  16:Src/main.c    ****   *
  17:Src/main.c    ****   ******************************************************************************
  18:Src/main.c    ****   */
  19:Src/main.c    **** /* USER CODE END Header */
  20:Src/main.c    **** 
  21:Src/main.c    **** /* Includes ------------------------------------------------------------------*/
  22:Src/main.c    **** #include "main.h"
  23:Src/main.c    **** #include "usb_device.h"
  24:Src/main.c    **** 
  25:Src/main.c    **** /* Private includes ----------------------------------------------------------*/
  26:Src/main.c    **** /* USER CODE BEGIN Includes */
  27:Src/main.c    **** #include "charlie.c"
  28:Src/main.c    **** 
  29:Src/main.c    **** /* USER CODE END Includes */
  30:Src/main.c    **** 
  31:Src/main.c    **** /* Private typedef -----------------------------------------------------------*/
  32:Src/main.c    **** /* USER CODE BEGIN PTD */
  33:Src/main.c    **** 
ARM GAS  /tmp/ccr4JylA.s 			page 2


  34:Src/main.c    **** /* USER CODE END PTD */
  35:Src/main.c    **** 
  36:Src/main.c    **** /* Private define ------------------------------------------------------------*/
  37:Src/main.c    **** /* USER CODE BEGIN PD */
  38:Src/main.c    **** /* USER CODE END PD */
  39:Src/main.c    **** 
  40:Src/main.c    **** /* Private macro -------------------------------------------------------------*/
  41:Src/main.c    **** /* USER CODE BEGIN PM */
  42:Src/main.c    **** 
  43:Src/main.c    **** /* USER CODE END PM */
  44:Src/main.c    **** 
  45:Src/main.c    **** /* Private variables ---------------------------------------------------------*/
  46:Src/main.c    **** RTC_HandleTypeDef hrtc;
  47:Src/main.c    **** 
  48:Src/main.c    **** TIM_HandleTypeDef htim1;
  49:Src/main.c    **** 
  50:Src/main.c    **** /* USER CODE BEGIN PV */
  51:Src/main.c    **** 
  52:Src/main.c    **** void dance();
  53:Src/main.c    **** 
  54:Src/main.c    **** // Keep track of what dance we are on
  55:Src/main.c    **** int mamboNumber = 4;
  56:Src/main.c    **** // Stopper for the inturrupt funciton
  57:Src/main.c    **** int stop = 0;
  58:Src/main.c    **** 
  59:Src/main.c    **** /* USER CODE END PV */
  60:Src/main.c    **** 
  61:Src/main.c    **** /* Private function prototypes -----------------------------------------------*/
  62:Src/main.c    **** void SystemClock_Config(void);
  63:Src/main.c    **** static void MX_GPIO_Init(void);
  64:Src/main.c    **** static void MX_RTC_Init(void);
  65:Src/main.c    **** static void MX_TIM1_Init(void);
  66:Src/main.c    **** /* USER CODE BEGIN PFP */
  67:Src/main.c    **** 
  68:Src/main.c    **** /* USER CODE END PFP */
  69:Src/main.c    **** 
  70:Src/main.c    **** /* Private user code ---------------------------------------------------------*/
  71:Src/main.c    **** /* USER CODE BEGIN 0 */
  72:Src/main.c    **** 
  73:Src/main.c    **** /* USER CODE END 0 */
  74:Src/main.c    **** 
  75:Src/main.c    **** /**
  76:Src/main.c    ****   * @brief  The application entry point.
  77:Src/main.c    ****   * @retval int
  78:Src/main.c    ****   */
  79:Src/main.c    **** int main(void)
  80:Src/main.c    **** {
  81:Src/main.c    ****   /* USER CODE BEGIN 1 */
  82:Src/main.c    **** 
  83:Src/main.c    ****   /* USER CODE END 1 */
  84:Src/main.c    **** 
  85:Src/main.c    ****   /* MCU Configuration--------------------------------------------------------*/
  86:Src/main.c    **** 
  87:Src/main.c    ****   /* Reset of all peripherals, Initializes the Flash interface and the Systick. */
  88:Src/main.c    ****   HAL_Init();
  89:Src/main.c    **** 
  90:Src/main.c    ****   /* USER CODE BEGIN Init */
ARM GAS  /tmp/ccr4JylA.s 			page 3


  91:Src/main.c    **** 
  92:Src/main.c    ****   /* USER CODE END Init */
  93:Src/main.c    **** 
  94:Src/main.c    ****   /* Configure the system clock */
  95:Src/main.c    ****   SystemClock_Config();
  96:Src/main.c    **** 
  97:Src/main.c    ****   /* USER CODE BEGIN SysInit */
  98:Src/main.c    **** 
  99:Src/main.c    ****   /* USER CODE END SysInit */
 100:Src/main.c    **** 
 101:Src/main.c    ****   /* Initialize all configured peripherals */
 102:Src/main.c    ****   MX_GPIO_Init();
 103:Src/main.c    ****   MX_USB_DEVICE_Init();
 104:Src/main.c    ****   MX_RTC_Init();
 105:Src/main.c    ****   MX_TIM1_Init();
 106:Src/main.c    ****   /* USER CODE BEGIN 2 */
 107:Src/main.c    ****   GPIO_InitTypeDef PinA = initA();
 108:Src/main.c    ****   GPIO_InitTypeDef PinB = initB();
 109:Src/main.c    ****   GPIO_InitTypeDef PinC = initC();
 110:Src/main.c    ****   GPIO_InitTypeDef PinD = initD();
 111:Src/main.c    **** 
 112:Src/main.c    ****   stop = 0;
 113:Src/main.c    **** 
 114:Src/main.c    ****   /* USER CODE END 2 */
 115:Src/main.c    **** 
 116:Src/main.c    ****   /* Infinite loop */
 117:Src/main.c    ****   /* USER CODE BEGIN WHILE */
 118:Src/main.c    ****   while (1)
 119:Src/main.c    ****   {
 120:Src/main.c    ****     /* USER CODE END WHILE */
 121:Src/main.c    **** 
 122:Src/main.c    ****     /* USER CODE BEGIN 3 */
 123:Src/main.c    **** 
 124:Src/main.c    ****     dance(PinA, PinB, PinC, PinD, mamboNumber);
 125:Src/main.c    ****     if(stop == 1){
 126:Src/main.c    ****       HAL_Delay(100);
 127:Src/main.c    ****       stop =0;
 128:Src/main.c    ****       mamboNumber++;
 129:Src/main.c    ****       if(mamboNumber > 5)
 130:Src/main.c    ****          mamboNumber = 0;
 131:Src/main.c    ****     }
 132:Src/main.c    ****   }
 133:Src/main.c    ****   /* USER CODE END 3 */
 134:Src/main.c    **** }
 135:Src/main.c    **** 
 136:Src/main.c    **** /**
 137:Src/main.c    ****   * @brief System Clock Configuration
 138:Src/main.c    ****   * @retval None
 139:Src/main.c    ****   */
 140:Src/main.c    **** void SystemClock_Config(void)
 141:Src/main.c    **** {
 142:Src/main.c    ****   RCC_OscInitTypeDef RCC_OscInitStruct = {0};
 143:Src/main.c    ****   RCC_ClkInitTypeDef RCC_ClkInitStruct = {0};
 144:Src/main.c    ****   RCC_PeriphCLKInitTypeDef PeriphClkInit = {0};
 145:Src/main.c    **** 
 146:Src/main.c    ****   /** Initializes the CPU, AHB and APB busses clocks 
 147:Src/main.c    ****   */
ARM GAS  /tmp/ccr4JylA.s 			page 4


 148:Src/main.c    ****   RCC_OscInitStruct.OscillatorType = RCC_OSCILLATORTYPE_HSI48|RCC_OSCILLATORTYPE_LSI;
 149:Src/main.c    ****   RCC_OscInitStruct.HSI48State = RCC_HSI48_ON;
 150:Src/main.c    ****   RCC_OscInitStruct.LSIState = RCC_LSI_ON;
 151:Src/main.c    ****   RCC_OscInitStruct.PLL.PLLState = RCC_PLL_NONE;
 152:Src/main.c    ****   if (HAL_RCC_OscConfig(&RCC_OscInitStruct) != HAL_OK)
 153:Src/main.c    ****   {
 154:Src/main.c    ****     Error_Handler();
 155:Src/main.c    ****   }
 156:Src/main.c    ****   /** Initializes the CPU, AHB and APB busses clocks 
 157:Src/main.c    ****   */
 158:Src/main.c    ****   RCC_ClkInitStruct.ClockType = RCC_CLOCKTYPE_HCLK|RCC_CLOCKTYPE_SYSCLK
 159:Src/main.c    ****                               |RCC_CLOCKTYPE_PCLK1;
 160:Src/main.c    ****   RCC_ClkInitStruct.SYSCLKSource = RCC_SYSCLKSOURCE_HSI48;
 161:Src/main.c    ****   RCC_ClkInitStruct.AHBCLKDivider = RCC_SYSCLK_DIV1;
 162:Src/main.c    ****   RCC_ClkInitStruct.APB1CLKDivider = RCC_HCLK_DIV1;
 163:Src/main.c    **** 
 164:Src/main.c    ****   if (HAL_RCC_ClockConfig(&RCC_ClkInitStruct, FLASH_LATENCY_1) != HAL_OK)
 165:Src/main.c    ****   {
 166:Src/main.c    ****     Error_Handler();
 167:Src/main.c    ****   }
 168:Src/main.c    ****   PeriphClkInit.PeriphClockSelection = RCC_PERIPHCLK_USB|RCC_PERIPHCLK_RTC;
 169:Src/main.c    ****   PeriphClkInit.RTCClockSelection = RCC_RTCCLKSOURCE_LSI;
 170:Src/main.c    ****   PeriphClkInit.UsbClockSelection = RCC_USBCLKSOURCE_HSI48;
 171:Src/main.c    **** 
 172:Src/main.c    ****   if (HAL_RCCEx_PeriphCLKConfig(&PeriphClkInit) != HAL_OK)
 173:Src/main.c    ****   {
 174:Src/main.c    ****     Error_Handler();
 175:Src/main.c    ****   }
 176:Src/main.c    **** }
 177:Src/main.c    **** 
 178:Src/main.c    **** /**
 179:Src/main.c    ****   * @brief RTC Initialization Function
 180:Src/main.c    ****   * @param None
 181:Src/main.c    ****   * @retval None
 182:Src/main.c    ****   */
 183:Src/main.c    **** static void MX_RTC_Init(void)
 184:Src/main.c    **** {
 185:Src/main.c    **** 
 186:Src/main.c    ****   /* USER CODE BEGIN RTC_Init 0 */
 187:Src/main.c    **** 
 188:Src/main.c    ****   /* USER CODE END RTC_Init 0 */
 189:Src/main.c    **** 
 190:Src/main.c    ****   /* USER CODE BEGIN RTC_Init 1 */
 191:Src/main.c    **** 
 192:Src/main.c    ****   /* USER CODE END RTC_Init 1 */
 193:Src/main.c    ****   /** Initialize RTC Only 
 194:Src/main.c    ****   */
 195:Src/main.c    ****   hrtc.Instance = RTC;
 196:Src/main.c    ****   hrtc.Init.HourFormat = RTC_HOURFORMAT_12;
 197:Src/main.c    ****   hrtc.Init.AsynchPrediv = 127;
 198:Src/main.c    ****   hrtc.Init.SynchPrediv = 255;
 199:Src/main.c    ****   hrtc.Init.OutPut = RTC_OUTPUT_DISABLE;
 200:Src/main.c    ****   hrtc.Init.OutPutPolarity = RTC_OUTPUT_POLARITY_HIGH;
 201:Src/main.c    ****   hrtc.Init.OutPutType = RTC_OUTPUT_TYPE_OPENDRAIN;
 202:Src/main.c    ****   if (HAL_RTC_Init(&hrtc) != HAL_OK)
 203:Src/main.c    ****   {
 204:Src/main.c    ****     Error_Handler();
ARM GAS  /tmp/ccr4JylA.s 			page 5


 205:Src/main.c    ****   }
 206:Src/main.c    ****   /* USER CODE BEGIN RTC_Init 2 */
 207:Src/main.c    **** 
 208:Src/main.c    ****   /* USER CODE END RTC_Init 2 */
 209:Src/main.c    **** 
 210:Src/main.c    **** }
 211:Src/main.c    **** 
 212:Src/main.c    **** /**
 213:Src/main.c    ****   * @brief TIM1 Initialization Function
 214:Src/main.c    ****   * @param None
 215:Src/main.c    ****   * @retval None
 216:Src/main.c    ****   */
 217:Src/main.c    **** static void MX_TIM1_Init(void)
 218:Src/main.c    **** {
 219:Src/main.c    **** 
 220:Src/main.c    ****   /* USER CODE BEGIN TIM1_Init 0 */
 221:Src/main.c    **** 
 222:Src/main.c    ****   /* USER CODE END TIM1_Init 0 */
 223:Src/main.c    **** 
 224:Src/main.c    ****   TIM_ClockConfigTypeDef sClockSourceConfig = {0};
 225:Src/main.c    ****   TIM_MasterConfigTypeDef sMasterConfig = {0};
 226:Src/main.c    **** 
 227:Src/main.c    ****   /* USER CODE BEGIN TIM1_Init 1 */
 228:Src/main.c    **** 
 229:Src/main.c    ****   /* USER CODE END TIM1_Init 1 */
 230:Src/main.c    ****   htim1.Instance = TIM1;
 231:Src/main.c    ****   htim1.Init.Prescaler = 0;
 232:Src/main.c    ****   htim1.Init.CounterMode = TIM_COUNTERMODE_UP;
 233:Src/main.c    ****   htim1.Init.Period = 0;
 234:Src/main.c    ****   htim1.Init.ClockDivision = TIM_CLOCKDIVISION_DIV1;
 235:Src/main.c    ****   htim1.Init.RepetitionCounter = 0;
 236:Src/main.c    ****   htim1.Init.AutoReloadPreload = TIM_AUTORELOAD_PRELOAD_DISABLE;
 237:Src/main.c    ****   if (HAL_TIM_Base_Init(&htim1) != HAL_OK)
 238:Src/main.c    ****   {
 239:Src/main.c    ****     Error_Handler();
 240:Src/main.c    ****   }
 241:Src/main.c    ****   sClockSourceConfig.ClockSource = TIM_CLOCKSOURCE_INTERNAL;
 242:Src/main.c    ****   if (HAL_TIM_ConfigClockSource(&htim1, &sClockSourceConfig) != HAL_OK)
 243:Src/main.c    ****   {
 244:Src/main.c    ****     Error_Handler();
 245:Src/main.c    ****   }
 246:Src/main.c    ****   sMasterConfig.MasterOutputTrigger = TIM_TRGO_RESET;
 247:Src/main.c    ****   sMasterConfig.MasterSlaveMode = TIM_MASTERSLAVEMODE_DISABLE;
 248:Src/main.c    ****   if (HAL_TIMEx_MasterConfigSynchronization(&htim1, &sMasterConfig) != HAL_OK)
 249:Src/main.c    ****   {
 250:Src/main.c    ****     Error_Handler();
 251:Src/main.c    ****   }
 252:Src/main.c    ****   /* USER CODE BEGIN TIM1_Init 2 */
 253:Src/main.c    **** 
 254:Src/main.c    ****   /* USER CODE END TIM1_Init 2 */
 255:Src/main.c    **** 
 256:Src/main.c    **** }
 257:Src/main.c    **** 
 258:Src/main.c    **** /**
 259:Src/main.c    ****   * @brief GPIO Initialization Function
 260:Src/main.c    ****   * @param None
 261:Src/main.c    ****   * @retval None
ARM GAS  /tmp/ccr4JylA.s 			page 6


 262:Src/main.c    ****   */
 263:Src/main.c    **** static void MX_GPIO_Init(void)
 264:Src/main.c    **** {
  26              		.loc 1 264 1 view -0
  27              		.cfi_startproc
  28              		@ args = 0, pretend = 0, frame = 32
  29              		@ frame_needed = 0, uses_anonymous_args = 0
  30 0000 30B5     		push	{r4, r5, lr}
  31              	.LCFI0:
  32              		.cfi_def_cfa_offset 12
  33              		.cfi_offset 4, -12
  34              		.cfi_offset 5, -8
  35              		.cfi_offset 14, -4
  36 0002 89B0     		sub	sp, sp, #36
  37              	.LCFI1:
  38              		.cfi_def_cfa_offset 48
 265:Src/main.c    ****   GPIO_InitTypeDef GPIO_InitStruct = {0};
  39              		.loc 1 265 3 view .LVU1
  40              		.loc 1 265 20 is_stmt 0 view .LVU2
  41 0004 0822     		movs	r2, #8
  42 0006 0021     		movs	r1, #0
  43 0008 06A8     		add	r0, sp, #24
  44 000a FFF7FEFF 		bl	memset
  45              	.LVL0:
 266:Src/main.c    **** 
 267:Src/main.c    ****   /* GPIO Ports Clock Enable */
 268:Src/main.c    ****   __HAL_RCC_GPIOB_CLK_ENABLE();
  46              		.loc 1 268 3 is_stmt 1 view .LVU3
  47              	.LBB2:
  48              		.loc 1 268 3 view .LVU4
  49              		.loc 1 268 3 view .LVU5
  50 000e 184B     		ldr	r3, .L2
  51 0010 5969     		ldr	r1, [r3, #20]
  52 0012 8020     		movs	r0, #128
  53 0014 C002     		lsls	r0, r0, #11
  54 0016 0143     		orrs	r1, r0
  55 0018 5961     		str	r1, [r3, #20]
  56              		.loc 1 268 3 view .LVU6
  57 001a 5A69     		ldr	r2, [r3, #20]
  58 001c 0240     		ands	r2, r0
  59 001e 0192     		str	r2, [sp, #4]
  60              		.loc 1 268 3 view .LVU7
  61 0020 019A     		ldr	r2, [sp, #4]
  62              	.LBE2:
  63              		.loc 1 268 3 view .LVU8
 269:Src/main.c    ****   __HAL_RCC_GPIOA_CLK_ENABLE();
  64              		.loc 1 269 3 view .LVU9
  65              	.LBB3:
  66              		.loc 1 269 3 view .LVU10
  67              		.loc 1 269 3 view .LVU11
  68 0022 5A69     		ldr	r2, [r3, #20]
  69 0024 8021     		movs	r1, #128
  70 0026 8902     		lsls	r1, r1, #10
  71 0028 0A43     		orrs	r2, r1
  72 002a 5A61     		str	r2, [r3, #20]
  73              		.loc 1 269 3 view .LVU12
  74 002c 5B69     		ldr	r3, [r3, #20]
ARM GAS  /tmp/ccr4JylA.s 			page 7


  75 002e 0B40     		ands	r3, r1
  76 0030 0293     		str	r3, [sp, #8]
  77              		.loc 1 269 3 view .LVU13
  78 0032 029B     		ldr	r3, [sp, #8]
  79              	.LBE3:
  80              		.loc 1 269 3 view .LVU14
 270:Src/main.c    **** 
 271:Src/main.c    **** /*
 272:Src/main.c    ****   //Configure GPIO pin Output Level 
 273:Src/main.c    ****   HAL_GPIO_WritePin(GPIOA, A_Pin|B_Pin|C_Pin|D_Pin, GPIO_PIN_RESET);
 274:Src/main.c    **** 
 275:Src/main.c    ****   //Configure GPIO pins : A_Pin B_Pin C_Pin D_Pin 
 276:Src/main.c    ****   GPIO_InitStruct.Pin = A_Pin|B_Pin|C_Pin|D_Pin;
 277:Src/main.c    ****   GPIO_InitStruct.Mode = GPIO_MODE_OUTPUT_PP;
 278:Src/main.c    ****   GPIO_InitStruct.Pull = GPIO_NOPULL;
 279:Src/main.c    ****   GPIO_InitStruct.Speed = GPIO_SPEED_FREQ_LOW;
 280:Src/main.c    ****   HAL_GPIO_Init(GPIOA, &GPIO_InitStruct);
 281:Src/main.c    ****   */
 282:Src/main.c    **** 
 283:Src/main.c    ****   //Configure GPIO pin : Mode_Pin 
 284:Src/main.c    ****   GPIO_InitStruct.Pin = Mode_Pin;
  81              		.loc 1 284 3 view .LVU15
  82              		.loc 1 284 23 is_stmt 0 view .LVU16
  83 0034 8023     		movs	r3, #128
  84 0036 5B00     		lsls	r3, r3, #1
  85 0038 0393     		str	r3, [sp, #12]
 285:Src/main.c    ****   GPIO_InitStruct.Mode = GPIO_MODE_IT_FALLING;
  86              		.loc 1 285 3 is_stmt 1 view .LVU17
  87              		.loc 1 285 24 is_stmt 0 view .LVU18
  88 003a 0E4D     		ldr	r5, .L2+4
  89 003c 0495     		str	r5, [sp, #16]
 286:Src/main.c    ****   GPIO_InitStruct.Pull = GPIO_PULLUP;
  90              		.loc 1 286 3 is_stmt 1 view .LVU19
  91              		.loc 1 286 24 is_stmt 0 view .LVU20
  92 003e 0124     		movs	r4, #1
  93 0040 0594     		str	r4, [sp, #20]
 287:Src/main.c    ****   HAL_GPIO_Init(Mode_GPIO_Port, &GPIO_InitStruct);
  94              		.loc 1 287 3 is_stmt 1 view .LVU21
  95 0042 03A9     		add	r1, sp, #12
  96 0044 0C48     		ldr	r0, .L2+8
  97 0046 FFF7FEFF 		bl	HAL_GPIO_Init
  98              	.LVL1:
 288:Src/main.c    **** 
 289:Src/main.c    ****   //Configure GPIO pins : Hour_Pin Minute_Pin 
 290:Src/main.c    ****   GPIO_InitStruct.Pin = Hour_Pin|Minute_Pin;
  99              		.loc 1 290 3 view .LVU22
 100              		.loc 1 290 23 is_stmt 0 view .LVU23
 101 004a 6023     		movs	r3, #96
 102 004c 0393     		str	r3, [sp, #12]
 291:Src/main.c    ****   GPIO_InitStruct.Mode = GPIO_MODE_IT_FALLING;
 103              		.loc 1 291 3 is_stmt 1 view .LVU24
 104              		.loc 1 291 24 is_stmt 0 view .LVU25
 105 004e 0495     		str	r5, [sp, #16]
 292:Src/main.c    ****   GPIO_InitStruct.Pull = GPIO_PULLUP;
 106              		.loc 1 292 3 is_stmt 1 view .LVU26
 107              		.loc 1 292 24 is_stmt 0 view .LVU27
 108 0050 0594     		str	r4, [sp, #20]
ARM GAS  /tmp/ccr4JylA.s 			page 8


 293:Src/main.c    ****   HAL_GPIO_Init(GPIOA, &GPIO_InitStruct);
 109              		.loc 1 293 3 is_stmt 1 view .LVU28
 110 0052 9020     		movs	r0, #144
 111 0054 03A9     		add	r1, sp, #12
 112 0056 C005     		lsls	r0, r0, #23
 113 0058 FFF7FEFF 		bl	HAL_GPIO_Init
 114              	.LVL2:
 294:Src/main.c    **** 
 295:Src/main.c    ****   /* EXTI interrupt init*/
 296:Src/main.c    ****   HAL_NVIC_SetPriority(EXTI4_15_IRQn, 0, 0);
 115              		.loc 1 296 3 view .LVU29
 116 005c 0022     		movs	r2, #0
 117 005e 0021     		movs	r1, #0
 118 0060 0720     		movs	r0, #7
 119 0062 FFF7FEFF 		bl	HAL_NVIC_SetPriority
 120              	.LVL3:
 297:Src/main.c    ****   HAL_NVIC_EnableIRQ(EXTI4_15_IRQn);
 121              		.loc 1 297 3 view .LVU30
 122 0066 0720     		movs	r0, #7
 123 0068 FFF7FEFF 		bl	HAL_NVIC_EnableIRQ
 124              	.LVL4:
 298:Src/main.c    **** 
 299:Src/main.c    **** }
 125              		.loc 1 299 1 is_stmt 0 view .LVU31
 126 006c 09B0     		add	sp, sp, #36
 127              		@ sp needed
 128 006e 30BD     		pop	{r4, r5, pc}
 129              	.L3:
 130              		.align	2
 131              	.L2:
 132 0070 00100240 		.word	1073876992
 133 0074 00002110 		.word	270598144
 134 0078 00040048 		.word	1207960576
 135              		.cfi_endproc
 136              	.LFE53:
 138              		.section	.text.MX_RTC_Init,"ax",%progbits
 139              		.align	1
 140              		.syntax unified
 141              		.code	16
 142              		.thumb_func
 143              		.fpu softvfp
 145              	MX_RTC_Init:
 146              	.LFB51:
 184:Src/main.c    **** 
 147              		.loc 1 184 1 is_stmt 1 view -0
 148              		.cfi_startproc
 149              		@ args = 0, pretend = 0, frame = 0
 150              		@ frame_needed = 0, uses_anonymous_args = 0
 151 0000 10B5     		push	{r4, lr}
 152              	.LCFI2:
 153              		.cfi_def_cfa_offset 8
 154              		.cfi_offset 4, -8
 155              		.cfi_offset 14, -4
 195:Src/main.c    ****   hrtc.Init.HourFormat = RTC_HOURFORMAT_12;
 156              		.loc 1 195 3 view .LVU33
 195:Src/main.c    ****   hrtc.Init.HourFormat = RTC_HOURFORMAT_12;
 157              		.loc 1 195 17 is_stmt 0 view .LVU34
ARM GAS  /tmp/ccr4JylA.s 			page 9


 158 0002 0848     		ldr	r0, .L5
 159 0004 084B     		ldr	r3, .L5+4
 160 0006 0360     		str	r3, [r0]
 196:Src/main.c    ****   hrtc.Init.AsynchPrediv = 127;
 161              		.loc 1 196 3 is_stmt 1 view .LVU35
 196:Src/main.c    ****   hrtc.Init.AsynchPrediv = 127;
 162              		.loc 1 196 24 is_stmt 0 view .LVU36
 163 0008 4023     		movs	r3, #64
 164 000a 4360     		str	r3, [r0, #4]
 197:Src/main.c    ****   hrtc.Init.SynchPrediv = 255;
 165              		.loc 1 197 3 is_stmt 1 view .LVU37
 197:Src/main.c    ****   hrtc.Init.SynchPrediv = 255;
 166              		.loc 1 197 26 is_stmt 0 view .LVU38
 167 000c 3F33     		adds	r3, r3, #63
 168 000e 8360     		str	r3, [r0, #8]
 198:Src/main.c    ****   hrtc.Init.OutPut = RTC_OUTPUT_DISABLE;
 169              		.loc 1 198 3 is_stmt 1 view .LVU39
 198:Src/main.c    ****   hrtc.Init.OutPut = RTC_OUTPUT_DISABLE;
 170              		.loc 1 198 25 is_stmt 0 view .LVU40
 171 0010 8033     		adds	r3, r3, #128
 172 0012 C360     		str	r3, [r0, #12]
 199:Src/main.c    ****   hrtc.Init.OutPutPolarity = RTC_OUTPUT_POLARITY_HIGH;
 173              		.loc 1 199 3 is_stmt 1 view .LVU41
 199:Src/main.c    ****   hrtc.Init.OutPutPolarity = RTC_OUTPUT_POLARITY_HIGH;
 174              		.loc 1 199 20 is_stmt 0 view .LVU42
 175 0014 0023     		movs	r3, #0
 176 0016 0361     		str	r3, [r0, #16]
 200:Src/main.c    ****   hrtc.Init.OutPutType = RTC_OUTPUT_TYPE_OPENDRAIN;
 177              		.loc 1 200 3 is_stmt 1 view .LVU43
 200:Src/main.c    ****   hrtc.Init.OutPutType = RTC_OUTPUT_TYPE_OPENDRAIN;
 178              		.loc 1 200 28 is_stmt 0 view .LVU44
 179 0018 4361     		str	r3, [r0, #20]
 201:Src/main.c    ****   if (HAL_RTC_Init(&hrtc) != HAL_OK)
 180              		.loc 1 201 3 is_stmt 1 view .LVU45
 201:Src/main.c    ****   if (HAL_RTC_Init(&hrtc) != HAL_OK)
 181              		.loc 1 201 24 is_stmt 0 view .LVU46
 182 001a 8361     		str	r3, [r0, #24]
 202:Src/main.c    ****   {
 183              		.loc 1 202 3 is_stmt 1 view .LVU47
 202:Src/main.c    ****   {
 184              		.loc 1 202 7 is_stmt 0 view .LVU48
 185 001c FFF7FEFF 		bl	HAL_RTC_Init
 186              	.LVL5:
 210:Src/main.c    **** 
 187              		.loc 1 210 1 view .LVU49
 188              		@ sp needed
 189 0020 10BD     		pop	{r4, pc}
 190              	.L6:
 191 0022 C046     		.align	2
 192              	.L5:
 193 0024 00000000 		.word	hrtc
 194 0028 00280040 		.word	1073752064
 195              		.cfi_endproc
 196              	.LFE51:
 198              		.section	.text.MX_TIM1_Init,"ax",%progbits
 199              		.align	1
 200              		.syntax unified
ARM GAS  /tmp/ccr4JylA.s 			page 10


 201              		.code	16
 202              		.thumb_func
 203              		.fpu softvfp
 205              	MX_TIM1_Init:
 206              	.LFB52:
 218:Src/main.c    **** 
 207              		.loc 1 218 1 is_stmt 1 view -0
 208              		.cfi_startproc
 209              		@ args = 0, pretend = 0, frame = 24
 210              		@ frame_needed = 0, uses_anonymous_args = 0
 211 0000 30B5     		push	{r4, r5, lr}
 212              	.LCFI3:
 213              		.cfi_def_cfa_offset 12
 214              		.cfi_offset 4, -12
 215              		.cfi_offset 5, -8
 216              		.cfi_offset 14, -4
 217 0002 87B0     		sub	sp, sp, #28
 218              	.LCFI4:
 219              		.cfi_def_cfa_offset 40
 224:Src/main.c    ****   TIM_MasterConfigTypeDef sMasterConfig = {0};
 220              		.loc 1 224 3 view .LVU51
 224:Src/main.c    ****   TIM_MasterConfigTypeDef sMasterConfig = {0};
 221              		.loc 1 224 26 is_stmt 0 view .LVU52
 222 0004 1022     		movs	r2, #16
 223 0006 0021     		movs	r1, #0
 224 0008 02A8     		add	r0, sp, #8
 225 000a FFF7FEFF 		bl	memset
 226              	.LVL6:
 225:Src/main.c    **** 
 227              		.loc 1 225 3 is_stmt 1 view .LVU53
 225:Src/main.c    **** 
 228              		.loc 1 225 27 is_stmt 0 view .LVU54
 229 000e 0822     		movs	r2, #8
 230 0010 0021     		movs	r1, #0
 231 0012 6846     		mov	r0, sp
 232 0014 FFF7FEFF 		bl	memset
 233              	.LVL7:
 230:Src/main.c    ****   htim1.Init.Prescaler = 0;
 234              		.loc 1 230 3 is_stmt 1 view .LVU55
 230:Src/main.c    ****   htim1.Init.Prescaler = 0;
 235              		.loc 1 230 18 is_stmt 0 view .LVU56
 236 0018 0D4C     		ldr	r4, .L8
 237 001a 0E4B     		ldr	r3, .L8+4
 238 001c 2360     		str	r3, [r4]
 231:Src/main.c    ****   htim1.Init.CounterMode = TIM_COUNTERMODE_UP;
 239              		.loc 1 231 3 is_stmt 1 view .LVU57
 231:Src/main.c    ****   htim1.Init.CounterMode = TIM_COUNTERMODE_UP;
 240              		.loc 1 231 24 is_stmt 0 view .LVU58
 241 001e 0025     		movs	r5, #0
 242 0020 6560     		str	r5, [r4, #4]
 232:Src/main.c    ****   htim1.Init.Period = 0;
 243              		.loc 1 232 3 is_stmt 1 view .LVU59
 232:Src/main.c    ****   htim1.Init.Period = 0;
 244              		.loc 1 232 26 is_stmt 0 view .LVU60
 245 0022 A560     		str	r5, [r4, #8]
 233:Src/main.c    ****   htim1.Init.ClockDivision = TIM_CLOCKDIVISION_DIV1;
 246              		.loc 1 233 3 is_stmt 1 view .LVU61
ARM GAS  /tmp/ccr4JylA.s 			page 11


 233:Src/main.c    ****   htim1.Init.ClockDivision = TIM_CLOCKDIVISION_DIV1;
 247              		.loc 1 233 21 is_stmt 0 view .LVU62
 248 0024 E560     		str	r5, [r4, #12]
 234:Src/main.c    ****   htim1.Init.RepetitionCounter = 0;
 249              		.loc 1 234 3 is_stmt 1 view .LVU63
 234:Src/main.c    ****   htim1.Init.RepetitionCounter = 0;
 250              		.loc 1 234 28 is_stmt 0 view .LVU64
 251 0026 2561     		str	r5, [r4, #16]
 235:Src/main.c    ****   htim1.Init.AutoReloadPreload = TIM_AUTORELOAD_PRELOAD_DISABLE;
 252              		.loc 1 235 3 is_stmt 1 view .LVU65
 235:Src/main.c    ****   htim1.Init.AutoReloadPreload = TIM_AUTORELOAD_PRELOAD_DISABLE;
 253              		.loc 1 235 32 is_stmt 0 view .LVU66
 254 0028 6561     		str	r5, [r4, #20]
 236:Src/main.c    ****   if (HAL_TIM_Base_Init(&htim1) != HAL_OK)
 255              		.loc 1 236 3 is_stmt 1 view .LVU67
 236:Src/main.c    ****   if (HAL_TIM_Base_Init(&htim1) != HAL_OK)
 256              		.loc 1 236 32 is_stmt 0 view .LVU68
 257 002a A561     		str	r5, [r4, #24]
 237:Src/main.c    ****   {
 258              		.loc 1 237 3 is_stmt 1 view .LVU69
 237:Src/main.c    ****   {
 259              		.loc 1 237 7 is_stmt 0 view .LVU70
 260 002c 2000     		movs	r0, r4
 261 002e FFF7FEFF 		bl	HAL_TIM_Base_Init
 262              	.LVL8:
 241:Src/main.c    ****   if (HAL_TIM_ConfigClockSource(&htim1, &sClockSourceConfig) != HAL_OK)
 263              		.loc 1 241 3 is_stmt 1 view .LVU71
 241:Src/main.c    ****   if (HAL_TIM_ConfigClockSource(&htim1, &sClockSourceConfig) != HAL_OK)
 264              		.loc 1 241 34 is_stmt 0 view .LVU72
 265 0032 8023     		movs	r3, #128
 266 0034 5B01     		lsls	r3, r3, #5
 267 0036 0293     		str	r3, [sp, #8]
 242:Src/main.c    ****   {
 268              		.loc 1 242 3 is_stmt 1 view .LVU73
 242:Src/main.c    ****   {
 269              		.loc 1 242 7 is_stmt 0 view .LVU74
 270 0038 02A9     		add	r1, sp, #8
 271 003a 2000     		movs	r0, r4
 272 003c FFF7FEFF 		bl	HAL_TIM_ConfigClockSource
 273              	.LVL9:
 246:Src/main.c    ****   sMasterConfig.MasterSlaveMode = TIM_MASTERSLAVEMODE_DISABLE;
 274              		.loc 1 246 3 is_stmt 1 view .LVU75
 246:Src/main.c    ****   sMasterConfig.MasterSlaveMode = TIM_MASTERSLAVEMODE_DISABLE;
 275              		.loc 1 246 37 is_stmt 0 view .LVU76
 276 0040 0095     		str	r5, [sp]
 247:Src/main.c    ****   if (HAL_TIMEx_MasterConfigSynchronization(&htim1, &sMasterConfig) != HAL_OK)
 277              		.loc 1 247 3 is_stmt 1 view .LVU77
 247:Src/main.c    ****   if (HAL_TIMEx_MasterConfigSynchronization(&htim1, &sMasterConfig) != HAL_OK)
 278              		.loc 1 247 33 is_stmt 0 view .LVU78
 279 0042 0195     		str	r5, [sp, #4]
 248:Src/main.c    ****   {
 280              		.loc 1 248 3 is_stmt 1 view .LVU79
 248:Src/main.c    ****   {
 281              		.loc 1 248 7 is_stmt 0 view .LVU80
 282 0044 6946     		mov	r1, sp
 283 0046 2000     		movs	r0, r4
 284 0048 FFF7FEFF 		bl	HAL_TIMEx_MasterConfigSynchronization
ARM GAS  /tmp/ccr4JylA.s 			page 12


 285              	.LVL10:
 256:Src/main.c    **** 
 286              		.loc 1 256 1 view .LVU81
 287 004c 07B0     		add	sp, sp, #28
 288              		@ sp needed
 289 004e 30BD     		pop	{r4, r5, pc}
 290              	.L9:
 291              		.align	2
 292              	.L8:
 293 0050 00000000 		.word	htim1
 294 0054 002C0140 		.word	1073818624
 295              		.cfi_endproc
 296              	.LFE52:
 298              		.section	.text.charlie,"ax",%progbits
 299              		.align	1
 300              		.global	charlie
 301              		.syntax unified
 302              		.code	16
 303              		.thumb_func
 304              		.fpu softvfp
 306              	charlie:
 307              	.LVL11:
 308              	.LFB44:
 309              		.file 2 "Src/charlie.c"
   1:Src/charlie.c **** //Charlieplexing Library
   2:Src/charlie.c **** //William Rickert March2020
   3:Src/charlie.c **** 
   4:Src/charlie.c **** extern int stop;
   5:Src/charlie.c **** 
   6:Src/charlie.c **** void charlie(GPIO_InitTypeDef PinA, GPIO_InitTypeDef PinB, GPIO_InitTypeDef PinC, GPIO_InitTypeDef 
   7:Src/charlie.c **** 
   8:Src/charlie.c **** void dance(GPIO_InitTypeDef PinA, GPIO_InitTypeDef PinB, GPIO_InitTypeDef PinC, GPIO_InitTypeDef Pi
   9:Src/charlie.c ****    // Off
  10:Src/charlie.c ****    if(mambo == 0){
  11:Src/charlie.c ****        charlie(PinA, PinB, PinC, PinD, 0);
  12:Src/charlie.c ****    }
  13:Src/charlie.c **** 
  14:Src/charlie.c ****    // Slow Spin
  15:Src/charlie.c ****    if(mambo == 1){
  16:Src/charlie.c ****        charlie(PinA, PinB, PinC, PinD, 0);
  17:Src/charlie.c ****        if(stop == 1)
  18:Src/charlie.c ****          return;
  19:Src/charlie.c ****        HAL_Delay(1000);
  20:Src/charlie.c ****        charlie(PinA, PinB, PinC, PinD, 1);
  21:Src/charlie.c ****        if(stop == 1)
  22:Src/charlie.c ****          return;
  23:Src/charlie.c ****        HAL_Delay(1000);
  24:Src/charlie.c ****        charlie(PinA, PinB, PinC, PinD, 2);
  25:Src/charlie.c ****        if(stop == 1)
  26:Src/charlie.c ****          return;
  27:Src/charlie.c ****        HAL_Delay(1000);
  28:Src/charlie.c ****        charlie(PinA, PinB, PinC, PinD, 3);
  29:Src/charlie.c ****        if(stop == 1)
  30:Src/charlie.c ****          return;
  31:Src/charlie.c ****        HAL_Delay(1000);
  32:Src/charlie.c ****        charlie(PinA, PinB, PinC, PinD, 4);
  33:Src/charlie.c ****        if(stop == 1)
ARM GAS  /tmp/ccr4JylA.s 			page 13


  34:Src/charlie.c ****          return;
  35:Src/charlie.c ****        HAL_Delay(1000);
  36:Src/charlie.c ****        charlie(PinA, PinB, PinC, PinD, 5);
  37:Src/charlie.c ****        if(stop == 1)
  38:Src/charlie.c ****          return;
  39:Src/charlie.c ****        HAL_Delay(1000);
  40:Src/charlie.c ****        charlie(PinA, PinB, PinC, PinD, 6);
  41:Src/charlie.c ****        if(stop == 1)
  42:Src/charlie.c ****          return;
  43:Src/charlie.c ****        HAL_Delay(1000);
  44:Src/charlie.c ****        charlie(PinA, PinB, PinC, PinD, 7);
  45:Src/charlie.c ****        if(stop == 1)
  46:Src/charlie.c ****          return;
  47:Src/charlie.c ****        HAL_Delay(1000);
  48:Src/charlie.c ****        charlie(PinA, PinB, PinC, PinD, 8);
  49:Src/charlie.c ****        if(stop == 1)
  50:Src/charlie.c ****          return;
  51:Src/charlie.c ****        HAL_Delay(1000);
  52:Src/charlie.c ****        charlie(PinA, PinB, PinC, PinD, 9);
  53:Src/charlie.c ****        if(stop == 1)
  54:Src/charlie.c ****          return;
  55:Src/charlie.c ****        HAL_Delay(1000);
  56:Src/charlie.c ****        charlie(PinA, PinB, PinC, PinD, 10);
  57:Src/charlie.c ****        if(stop == 1)
  58:Src/charlie.c ****          return;
  59:Src/charlie.c ****        HAL_Delay(1000);
  60:Src/charlie.c ****        charlie(PinA, PinB, PinC, PinD, 11);
  61:Src/charlie.c ****        if(stop == 1)
  62:Src/charlie.c ****          return;
  63:Src/charlie.c ****        HAL_Delay(1000);
  64:Src/charlie.c ****        charlie(PinA, PinB, PinC, PinD, 12);
  65:Src/charlie.c ****        if(stop == 1)
  66:Src/charlie.c ****          return;
  67:Src/charlie.c ****        HAL_Delay(1000);
  68:Src/charlie.c ****    }
  69:Src/charlie.c **** 
  70:Src/charlie.c ****    // Fast Spin
  71:Src/charlie.c ****    if(mambo == 2){
  72:Src/charlie.c ****        charlie(PinA, PinB, PinC, PinD, 0);
  73:Src/charlie.c ****        if(stop == 1)
  74:Src/charlie.c ****          return;
  75:Src/charlie.c ****        HAL_Delay(500);
  76:Src/charlie.c ****        charlie(PinA, PinB, PinC, PinD, 1);
  77:Src/charlie.c ****        if(stop == 1)
  78:Src/charlie.c ****          return;
  79:Src/charlie.c ****        HAL_Delay(500);
  80:Src/charlie.c ****        charlie(PinA, PinB, PinC, PinD, 2);
  81:Src/charlie.c ****        if(stop == 1)
  82:Src/charlie.c ****          return;
  83:Src/charlie.c ****        HAL_Delay(500);
  84:Src/charlie.c ****        charlie(PinA, PinB, PinC, PinD, 3);
  85:Src/charlie.c ****        if(stop == 1)
  86:Src/charlie.c ****          return;
  87:Src/charlie.c ****        HAL_Delay(500);
  88:Src/charlie.c ****        charlie(PinA, PinB, PinC, PinD, 4);
  89:Src/charlie.c ****        if(stop == 1)
  90:Src/charlie.c ****          return;
ARM GAS  /tmp/ccr4JylA.s 			page 14


  91:Src/charlie.c ****        HAL_Delay(500);
  92:Src/charlie.c ****        charlie(PinA, PinB, PinC, PinD, 5);
  93:Src/charlie.c ****        if(stop == 1)
  94:Src/charlie.c ****          return;
  95:Src/charlie.c ****        HAL_Delay(500);
  96:Src/charlie.c ****        charlie(PinA, PinB, PinC, PinD, 6);
  97:Src/charlie.c ****        if(stop == 1)
  98:Src/charlie.c ****          return;
  99:Src/charlie.c ****        HAL_Delay(500);
 100:Src/charlie.c ****        charlie(PinA, PinB, PinC, PinD, 7);
 101:Src/charlie.c ****        if(stop == 1)
 102:Src/charlie.c ****          return;
 103:Src/charlie.c ****        HAL_Delay(500);
 104:Src/charlie.c ****        charlie(PinA, PinB, PinC, PinD, 8);
 105:Src/charlie.c ****        if(stop == 1)
 106:Src/charlie.c ****          return;
 107:Src/charlie.c ****        HAL_Delay(500);
 108:Src/charlie.c ****        charlie(PinA, PinB, PinC, PinD, 9);
 109:Src/charlie.c ****        if(stop == 1)
 110:Src/charlie.c ****          return;
 111:Src/charlie.c ****        HAL_Delay(500);
 112:Src/charlie.c ****        charlie(PinA, PinB, PinC, PinD, 10);
 113:Src/charlie.c ****        if(stop == 1)
 114:Src/charlie.c ****          return;
 115:Src/charlie.c ****        HAL_Delay(500);
 116:Src/charlie.c ****        charlie(PinA, PinB, PinC, PinD, 11);
 117:Src/charlie.c ****        if(stop == 1)
 118:Src/charlie.c ****          return;
 119:Src/charlie.c ****        HAL_Delay(500);
 120:Src/charlie.c ****        charlie(PinA, PinB, PinC, PinD, 12);
 121:Src/charlie.c ****        if(stop == 1)
 122:Src/charlie.c ****          return;
 123:Src/charlie.c ****        HAL_Delay(500);
 124:Src/charlie.c ****    }
 125:Src/charlie.c **** 
 126:Src/charlie.c ****    // POV light up all lights
 127:Src/charlie.c ****    if(mambo == 3){
 128:Src/charlie.c ****       charlie(PinA, PinB, PinC, PinD, 0);
 129:Src/charlie.c ****       for(int i=0; i<10000; i++){
 130:Src/charlie.c ****          for(int j=1; j<=12; j++){
 131:Src/charlie.c ****              charlie(PinA, PinB, PinC, PinD, j);
 132:Src/charlie.c ****        //      HAL_Delay(1);
 133:Src/charlie.c ****              if(stop == 1)
 134:Src/charlie.c ****                return;
 135:Src/charlie.c ****             
 136:Src/charlie.c ****          } 
 137:Src/charlie.c ****       }
 138:Src/charlie.c ****    } 
 139:Src/charlie.c **** 
 140:Src/charlie.c ****    // Doubles
 141:Src/charlie.c ****    if(mambo == 4){
 142:Src/charlie.c ****       for(int i =1; i<=7; i++){
 143:Src/charlie.c ****          if(i == 1){
 144:Src/charlie.c ****             charlie(PinA, PinB, PinC, PinD, 12);
 145:Src/charlie.c ****             HAL_Delay(500);
 146:Src/charlie.c ****             if(stop == 1)
 147:Src/charlie.c ****                return;
ARM GAS  /tmp/ccr4JylA.s 			page 15


 148:Src/charlie.c ****          }
 149:Src/charlie.c ****          if(i == 2){
 150:Src/charlie.c ****             for(int j =0; j<10000; j++){
 151:Src/charlie.c ****                charlie(PinA, PinB, PinC, PinD, 10);
 152:Src/charlie.c ****                charlie(PinA, PinB, PinC, PinD, 1);
 153:Src/charlie.c ****                if(stop == 1)
 154:Src/charlie.c ****                   return;
 155:Src/charlie.c ****             }
 156:Src/charlie.c ****          }
 157:Src/charlie.c ****          if(i == 3){
 158:Src/charlie.c ****             for(int j =0; j<10000; j++){
 159:Src/charlie.c ****                charlie(PinA, PinB, PinC, PinD, 2);
 160:Src/charlie.c ****                charlie(PinA, PinB, PinC, PinD, 10);
 161:Src/charlie.c ****                if(stop == 1)
 162:Src/charlie.c ****                   return;
 163:Src/charlie.c ****             }
 164:Src/charlie.c ****          }
 165:Src/charlie.c ****          if(i == 4){
 166:Src/charlie.c ****             for(int j =0; j<10000; j++){
 167:Src/charlie.c ****                charlie(PinA, PinB, PinC, PinD, 3);
 168:Src/charlie.c ****                charlie(PinA, PinB, PinC, PinD, 9);
 169:Src/charlie.c ****                if(stop == 1)
 170:Src/charlie.c ****                   return;
 171:Src/charlie.c ****             }
 172:Src/charlie.c ****          }
 173:Src/charlie.c ****          if(i == 5){
 174:Src/charlie.c ****             for(int j =0; j<10000; j++){
 175:Src/charlie.c ****                charlie(PinA, PinB, PinC, PinD, 4);
 176:Src/charlie.c ****                charlie(PinA, PinB, PinC, PinD, 8);
 177:Src/charlie.c ****                if(stop == 1)
 178:Src/charlie.c ****                   return;
 179:Src/charlie.c ****             }
 180:Src/charlie.c ****          }
 181:Src/charlie.c ****          if(i == 6){
 182:Src/charlie.c ****             for(int j =0; j<10000; j++){
 183:Src/charlie.c ****                charlie(PinA, PinB, PinC, PinD, 5);
 184:Src/charlie.c ****                charlie(PinA, PinB, PinC, PinD, 7);
 185:Src/charlie.c ****                if(stop == 1)
 186:Src/charlie.c ****                   return;
 187:Src/charlie.c ****             }
 188:Src/charlie.c ****          }
 189:Src/charlie.c ****          if(i == 7){
 190:Src/charlie.c ****             charlie(PinA, PinB, PinC, PinD, 6);
 191:Src/charlie.c ****             HAL_Delay(500);
 192:Src/charlie.c ****             if(stop == 1)
 193:Src/charlie.c ****                return;
 194:Src/charlie.c **** 
 195:Src/charlie.c ****          }
 196:Src/charlie.c **** 
 197:Src/charlie.c ****       }
 198:Src/charlie.c ****       
 199:Src/charlie.c ****    }  
 200:Src/charlie.c **** 
 201:Src/charlie.c **** 
 202:Src/charlie.c **** }
 203:Src/charlie.c **** 
 204:Src/charlie.c **** void charlie(GPIO_InitTypeDef PinA, GPIO_InitTypeDef PinB, GPIO_InitTypeDef PinC, GPIO_InitTypeDef 
ARM GAS  /tmp/ccr4JylA.s 			page 16


 310              		.loc 2 204 114 is_stmt 1 view -0
 311              		.cfi_startproc
 312              		@ args = 84, pretend = 16, frame = 0
 313              		@ frame_needed = 0, uses_anonymous_args = 0
 314              		.loc 2 204 114 is_stmt 0 view .LVU83
 315 0000 84B0     		sub	sp, sp, #16
 316              	.LCFI5:
 317              		.cfi_def_cfa_offset 16
 318 0002 70B5     		push	{r4, r5, r6, lr}
 319              	.LCFI6:
 320              		.cfi_def_cfa_offset 32
 321              		.cfi_offset 4, -32
 322              		.cfi_offset 5, -28
 323              		.cfi_offset 6, -24
 324              		.cfi_offset 14, -20
 325 0004 0490     		str	r0, [sp, #16]
 326 0006 0591     		str	r1, [sp, #20]
 327 0008 0692     		str	r2, [sp, #24]
 328 000a 0793     		str	r3, [sp, #28]
 329 000c 189C     		ldr	r4, [sp, #96]
 205:Src/charlie.c ****    if(pos == 0){
 330              		.loc 2 205 4 is_stmt 1 view .LVU84
 331              		.loc 2 205 6 is_stmt 0 view .LVU85
 332 000e 002C     		cmp	r4, #0
 333 0010 24D0     		beq	.L24
 334              	.L11:
 206:Src/charlie.c ****       HAL_GPIO_DeInit(GPIOA, GPIO_PIN_0);
 207:Src/charlie.c ****       HAL_GPIO_DeInit(GPIOA, GPIO_PIN_1);
 208:Src/charlie.c ****       HAL_GPIO_DeInit(GPIOA, GPIO_PIN_2);
 209:Src/charlie.c ****       HAL_GPIO_DeInit(GPIOA, GPIO_PIN_3);
 210:Src/charlie.c ****    }
 211:Src/charlie.c **** 
 212:Src/charlie.c **** 
 213:Src/charlie.c ****    // 12'oclock
 214:Src/charlie.c ****    // A = 1
 215:Src/charlie.c ****    // B = Z
 216:Src/charlie.c ****    // C = 0
 217:Src/charlie.c ****    // D = Z
 218:Src/charlie.c ****    if(pos == 12){
 335              		.loc 2 218 4 is_stmt 1 view .LVU86
 336              		.loc 2 218 6 is_stmt 0 view .LVU87
 337 0012 0C2C     		cmp	r4, #12
 338 0014 35D0     		beq	.L25
 339              	.L12:
 219:Src/charlie.c ****       HAL_GPIO_Init(GPIOA, &PinA);
 220:Src/charlie.c ****       HAL_GPIO_Init(GPIOA, &PinC);
 221:Src/charlie.c ****       HAL_GPIO_DeInit(GPIOA, GPIO_PIN_1);
 222:Src/charlie.c ****       HAL_GPIO_DeInit(GPIOA, GPIO_PIN_3);
 223:Src/charlie.c **** 
 224:Src/charlie.c ****       HAL_GPIO_WritePin(GPIOA, GPIO_PIN_0, GPIO_PIN_SET);
 225:Src/charlie.c ****       HAL_GPIO_WritePin(GPIOA, GPIO_PIN_2, GPIO_PIN_RESET);
 226:Src/charlie.c ****       }
 227:Src/charlie.c **** 
 228:Src/charlie.c ****    // 1'oclock
 229:Src/charlie.c ****    // A = 1
 230:Src/charlie.c ****    // B = Z
 231:Src/charlie.c ****    // C = 0
ARM GAS  /tmp/ccr4JylA.s 			page 17


 232:Src/charlie.c ****    // D = Z
 233:Src/charlie.c ****    if(pos == 1){
 340              		.loc 2 233 4 is_stmt 1 view .LVU88
 341              		.loc 2 233 6 is_stmt 0 view .LVU89
 342 0016 012C     		cmp	r4, #1
 343 0018 50D0     		beq	.L26
 344              	.L13:
 234:Src/charlie.c ****       HAL_GPIO_Init(GPIOA, &PinA);
 235:Src/charlie.c ****       HAL_GPIO_Init(GPIOA, &PinC);
 236:Src/charlie.c ****       HAL_GPIO_DeInit(GPIOA, GPIO_PIN_1);
 237:Src/charlie.c ****       HAL_GPIO_DeInit(GPIOA, GPIO_PIN_3);
 238:Src/charlie.c **** 
 239:Src/charlie.c ****       HAL_GPIO_WritePin(GPIOA, GPIO_PIN_0, GPIO_PIN_RESET);
 240:Src/charlie.c ****       HAL_GPIO_WritePin(GPIOA, GPIO_PIN_2, GPIO_PIN_SET);
 241:Src/charlie.c ****       }
 242:Src/charlie.c **** 
 243:Src/charlie.c **** 
 244:Src/charlie.c ****    // 2'oclock
 245:Src/charlie.c ****    // A = Z
 246:Src/charlie.c ****    // B = 1
 247:Src/charlie.c ****    // C = Z
 248:Src/charlie.c ****    // D = 0
 249:Src/charlie.c ****    if(pos == 2){
 345              		.loc 2 249 4 is_stmt 1 view .LVU90
 346              		.loc 2 249 6 is_stmt 0 view .LVU91
 347 001a 022C     		cmp	r4, #2
 348 001c 6BD0     		beq	.L27
 349              	.L14:
 250:Src/charlie.c ****       HAL_GPIO_Init(GPIOA, &PinB);
 251:Src/charlie.c ****       HAL_GPIO_Init(GPIOA, &PinD);
 252:Src/charlie.c ****       HAL_GPIO_DeInit(GPIOA, GPIO_PIN_0);
 253:Src/charlie.c ****       HAL_GPIO_DeInit(GPIOA, GPIO_PIN_2);
 254:Src/charlie.c **** 
 255:Src/charlie.c ****       HAL_GPIO_WritePin(GPIOA, GPIO_PIN_1, GPIO_PIN_SET);
 256:Src/charlie.c ****       HAL_GPIO_WritePin(GPIOA, GPIO_PIN_3, GPIO_PIN_RESET);
 257:Src/charlie.c ****       }
 258:Src/charlie.c **** 
 259:Src/charlie.c ****    // 3'oclock
 260:Src/charlie.c ****    // A = Z
 261:Src/charlie.c ****    // B = 1
 262:Src/charlie.c ****    // C = Z
 263:Src/charlie.c ****    // D = 0
 264:Src/charlie.c ****    if(pos == 3){
 350              		.loc 2 264 4 is_stmt 1 view .LVU92
 351              		.loc 2 264 6 is_stmt 0 view .LVU93
 352 001e 032C     		cmp	r4, #3
 353 0020 00D1     		bne	.LCB264
 354 0022 85E0     		b	.L28	@long jump
 355              	.LCB264:
 356              	.L15:
 265:Src/charlie.c ****       HAL_GPIO_Init(GPIOA, &PinB);
 266:Src/charlie.c ****       HAL_GPIO_Init(GPIOA, &PinD);
 267:Src/charlie.c ****       HAL_GPIO_DeInit(GPIOA, GPIO_PIN_0);
 268:Src/charlie.c ****       HAL_GPIO_DeInit(GPIOA, GPIO_PIN_2);
 269:Src/charlie.c **** 
 270:Src/charlie.c ****       HAL_GPIO_WritePin(GPIOA, GPIO_PIN_1, GPIO_PIN_RESET);
 271:Src/charlie.c ****       HAL_GPIO_WritePin(GPIOA, GPIO_PIN_3, GPIO_PIN_SET);
ARM GAS  /tmp/ccr4JylA.s 			page 18


 272:Src/charlie.c ****       }
 273:Src/charlie.c **** 
 274:Src/charlie.c **** 
 275:Src/charlie.c ****    // 4'oclock
 276:Src/charlie.c ****    // A = 1
 277:Src/charlie.c ****    // B = Z
 278:Src/charlie.c ****    // C = Z
 279:Src/charlie.c ****    // D = 0
 280:Src/charlie.c ****    if(pos == 4){
 357              		.loc 2 280 4 is_stmt 1 view .LVU94
 358              		.loc 2 280 6 is_stmt 0 view .LVU95
 359 0024 042C     		cmp	r4, #4
 360 0026 00D1     		bne	.LCB268
 361 0028 9FE0     		b	.L29	@long jump
 362              	.LCB268:
 363              	.L16:
 281:Src/charlie.c ****       HAL_GPIO_Init(GPIOA, &PinA);
 282:Src/charlie.c ****       HAL_GPIO_Init(GPIOA, &PinD);
 283:Src/charlie.c ****       HAL_GPIO_DeInit(GPIOA, GPIO_PIN_1);
 284:Src/charlie.c ****       HAL_GPIO_DeInit(GPIOA, GPIO_PIN_2);
 285:Src/charlie.c **** 
 286:Src/charlie.c ****       HAL_GPIO_WritePin(GPIOA, GPIO_PIN_0, GPIO_PIN_SET);
 287:Src/charlie.c ****       HAL_GPIO_WritePin(GPIOA, GPIO_PIN_3, GPIO_PIN_RESET);
 288:Src/charlie.c ****       }
 289:Src/charlie.c **** 
 290:Src/charlie.c ****    // 5'oclock
 291:Src/charlie.c ****    // A = 0
 292:Src/charlie.c ****    // B = Z
 293:Src/charlie.c ****    // C = Z
 294:Src/charlie.c ****    // D = 1
 295:Src/charlie.c ****    if(pos == 5){
 364              		.loc 2 295 4 is_stmt 1 view .LVU96
 365              		.loc 2 295 6 is_stmt 0 view .LVU97
 366 002a 052C     		cmp	r4, #5
 367 002c 00D1     		bne	.LCB272
 368 002e B9E0     		b	.L30	@long jump
 369              	.LCB272:
 370              	.L17:
 296:Src/charlie.c ****       HAL_GPIO_Init(GPIOA, &PinA);
 297:Src/charlie.c ****       HAL_GPIO_Init(GPIOA, &PinD);
 298:Src/charlie.c ****       HAL_GPIO_DeInit(GPIOA, GPIO_PIN_1);
 299:Src/charlie.c ****       HAL_GPIO_DeInit(GPIOA, GPIO_PIN_2);
 300:Src/charlie.c **** 
 301:Src/charlie.c ****       HAL_GPIO_WritePin(GPIOA, GPIO_PIN_0, GPIO_PIN_RESET);
 302:Src/charlie.c ****       HAL_GPIO_WritePin(GPIOA, GPIO_PIN_3, GPIO_PIN_SET);
 303:Src/charlie.c ****       }
 304:Src/charlie.c **** 
 305:Src/charlie.c ****    // 6'oclock
 306:Src/charlie.c ****    if(pos == 6){
 371              		.loc 2 306 4 is_stmt 1 view .LVU98
 372              		.loc 2 306 6 is_stmt 0 view .LVU99
 373 0030 062C     		cmp	r4, #6
 374 0032 00D1     		bne	.LCB276
 375 0034 D3E0     		b	.L31	@long jump
 376              	.LCB276:
 377              	.L18:
 307:Src/charlie.c ****       HAL_GPIO_Init(GPIOA, &PinA);
ARM GAS  /tmp/ccr4JylA.s 			page 19


 308:Src/charlie.c ****       HAL_GPIO_Init(GPIOA, &PinB);
 309:Src/charlie.c ****       HAL_GPIO_DeInit(GPIOA, GPIO_PIN_2);
 310:Src/charlie.c ****       HAL_GPIO_DeInit(GPIOA, GPIO_PIN_3);
 311:Src/charlie.c **** 
 312:Src/charlie.c ****       HAL_GPIO_WritePin(GPIOA, GPIO_PIN_0, GPIO_PIN_SET);
 313:Src/charlie.c ****       HAL_GPIO_WritePin(GPIOA, GPIO_PIN_1, GPIO_PIN_RESET);
 314:Src/charlie.c ****       }
 315:Src/charlie.c **** 
 316:Src/charlie.c ****    // 7'oclock
 317:Src/charlie.c ****    if(pos == 7){
 378              		.loc 2 317 4 is_stmt 1 view .LVU100
 379              		.loc 2 317 6 is_stmt 0 view .LVU101
 380 0036 072C     		cmp	r4, #7
 381 0038 00D1     		bne	.LCB280
 382 003a EDE0     		b	.L32	@long jump
 383              	.LCB280:
 384              	.L19:
 318:Src/charlie.c ****       HAL_GPIO_Init(GPIOA, &PinA);
 319:Src/charlie.c ****       HAL_GPIO_Init(GPIOA, &PinB);
 320:Src/charlie.c ****       HAL_GPIO_DeInit(GPIOA, GPIO_PIN_2);
 321:Src/charlie.c ****       HAL_GPIO_DeInit(GPIOA, GPIO_PIN_3);
 322:Src/charlie.c ****       
 323:Src/charlie.c ****       HAL_GPIO_WritePin(GPIOA, GPIO_PIN_0, GPIO_PIN_RESET);
 324:Src/charlie.c ****       HAL_GPIO_WritePin(GPIOA, GPIO_PIN_1, GPIO_PIN_SET);
 325:Src/charlie.c ****       }
 326:Src/charlie.c **** 
 327:Src/charlie.c ****    // 8'oclock
 328:Src/charlie.c ****    // A = Z
 329:Src/charlie.c ****    // B = 1
 330:Src/charlie.c ****    // C = 0
 331:Src/charlie.c ****    // D = Z
 332:Src/charlie.c ****    if(pos == 8){
 385              		.loc 2 332 4 is_stmt 1 view .LVU102
 386              		.loc 2 332 6 is_stmt 0 view .LVU103
 387 003c 082C     		cmp	r4, #8
 388 003e 00D1     		bne	.LCB284
 389 0040 07E1     		b	.L33	@long jump
 390              	.LCB284:
 391              	.L20:
 333:Src/charlie.c ****       HAL_GPIO_Init(GPIOA, &PinB);
 334:Src/charlie.c ****       HAL_GPIO_Init(GPIOA, &PinC);
 335:Src/charlie.c ****       HAL_GPIO_DeInit(GPIOA, GPIO_PIN_0);
 336:Src/charlie.c ****       HAL_GPIO_DeInit(GPIOA, GPIO_PIN_3);
 337:Src/charlie.c **** 
 338:Src/charlie.c ****       HAL_GPIO_WritePin(GPIOA, GPIO_PIN_1, GPIO_PIN_SET);
 339:Src/charlie.c ****       HAL_GPIO_WritePin(GPIOA, GPIO_PIN_2, GPIO_PIN_RESET);
 340:Src/charlie.c ****       }
 341:Src/charlie.c **** 
 342:Src/charlie.c ****    // 9'oclock
 343:Src/charlie.c ****    // A = Z
 344:Src/charlie.c ****    // B = 1
 345:Src/charlie.c ****    // C = 0
 346:Src/charlie.c ****    // D = Z
 347:Src/charlie.c ****    if(pos == 9){
 392              		.loc 2 347 4 is_stmt 1 view .LVU104
 393              		.loc 2 347 6 is_stmt 0 view .LVU105
 394 0042 092C     		cmp	r4, #9
ARM GAS  /tmp/ccr4JylA.s 			page 20


 395 0044 00D1     		bne	.LCB288
 396 0046 21E1     		b	.L34	@long jump
 397              	.LCB288:
 398              	.L21:
 348:Src/charlie.c ****       HAL_GPIO_Init(GPIOA, &PinB);
 349:Src/charlie.c ****       HAL_GPIO_Init(GPIOA, &PinC);
 350:Src/charlie.c ****       HAL_GPIO_DeInit(GPIOA, GPIO_PIN_0);
 351:Src/charlie.c ****       HAL_GPIO_DeInit(GPIOA, GPIO_PIN_3);
 352:Src/charlie.c **** 
 353:Src/charlie.c ****       HAL_GPIO_WritePin(GPIOA, GPIO_PIN_1, GPIO_PIN_RESET);
 354:Src/charlie.c ****       HAL_GPIO_WritePin(GPIOA, GPIO_PIN_2, GPIO_PIN_SET);
 355:Src/charlie.c ****       }
 356:Src/charlie.c **** 
 357:Src/charlie.c ****    // 10'oclock
 358:Src/charlie.c ****    // A = Z
 359:Src/charlie.c ****    // B = Z
 360:Src/charlie.c ****    // C = 0
 361:Src/charlie.c ****    // D = 1
 362:Src/charlie.c ****    if(pos == 10){
 399              		.loc 2 362 4 is_stmt 1 view .LVU106
 400              		.loc 2 362 6 is_stmt 0 view .LVU107
 401 0048 0A2C     		cmp	r4, #10
 402 004a 00D1     		bne	.LCB292
 403 004c 3BE1     		b	.L35	@long jump
 404              	.LCB292:
 405              	.L22:
 363:Src/charlie.c ****       HAL_GPIO_Init(GPIOA, &PinC);
 364:Src/charlie.c ****       HAL_GPIO_Init(GPIOA, &PinD);
 365:Src/charlie.c ****       HAL_GPIO_DeInit(GPIOA, GPIO_PIN_0);
 366:Src/charlie.c ****       HAL_GPIO_DeInit(GPIOA, GPIO_PIN_1);
 367:Src/charlie.c **** 
 368:Src/charlie.c ****       HAL_GPIO_WritePin(GPIOA, GPIO_PIN_2, GPIO_PIN_SET);
 369:Src/charlie.c ****       HAL_GPIO_WritePin(GPIOA, GPIO_PIN_3, GPIO_PIN_RESET);
 370:Src/charlie.c ****       }
 371:Src/charlie.c ****    
 372:Src/charlie.c ****    // 11'oclock
 373:Src/charlie.c ****    // A = Z
 374:Src/charlie.c ****    // B = Z
 375:Src/charlie.c ****    // C = 1
 376:Src/charlie.c ****    // D = 0
 377:Src/charlie.c ****    if(pos == 11){
 406              		.loc 2 377 4 is_stmt 1 view .LVU108
 407              		.loc 2 377 6 is_stmt 0 view .LVU109
 408 004e 0B2C     		cmp	r4, #11
 409 0050 00D1     		bne	.LCB296
 410 0052 55E1     		b	.L36	@long jump
 411              	.LCB296:
 412              	.L10:
 378:Src/charlie.c ****       HAL_GPIO_Init(GPIOA, &PinC);
 379:Src/charlie.c ****       HAL_GPIO_Init(GPIOA, &PinD);
 380:Src/charlie.c ****       HAL_GPIO_DeInit(GPIOA, GPIO_PIN_0);
 381:Src/charlie.c ****       HAL_GPIO_DeInit(GPIOA, GPIO_PIN_1);
 382:Src/charlie.c ****             
 383:Src/charlie.c ****       HAL_GPIO_WritePin(GPIOA, GPIO_PIN_2, GPIO_PIN_RESET);
 384:Src/charlie.c ****       HAL_GPIO_WritePin(GPIOA, GPIO_PIN_3, GPIO_PIN_SET);
 385:Src/charlie.c ****       }
 386:Src/charlie.c **** 
ARM GAS  /tmp/ccr4JylA.s 			page 21


 387:Src/charlie.c **** }
 413              		.loc 2 387 1 view .LVU110
 414              		@ sp needed
 415 0054 70BC     		pop	{r4, r5, r6}
 416 0056 08BC     		pop	{r3}
 417 0058 04B0     		add	sp, sp, #16
 418 005a 1847     		bx	r3
 419              	.L24:
 206:Src/charlie.c ****       HAL_GPIO_DeInit(GPIOA, GPIO_PIN_1);
 420              		.loc 2 206 7 is_stmt 1 view .LVU111
 421 005c 9025     		movs	r5, #144
 422 005e ED05     		lsls	r5, r5, #23
 423 0060 0121     		movs	r1, #1
 424 0062 2800     		movs	r0, r5
 425 0064 FFF7FEFF 		bl	HAL_GPIO_DeInit
 426              	.LVL12:
 207:Src/charlie.c ****       HAL_GPIO_DeInit(GPIOA, GPIO_PIN_2);
 427              		.loc 2 207 7 view .LVU112
 428 0068 0221     		movs	r1, #2
 429 006a 2800     		movs	r0, r5
 430 006c FFF7FEFF 		bl	HAL_GPIO_DeInit
 431              	.LVL13:
 208:Src/charlie.c ****       HAL_GPIO_DeInit(GPIOA, GPIO_PIN_3);
 432              		.loc 2 208 7 view .LVU113
 433 0070 0421     		movs	r1, #4
 434 0072 2800     		movs	r0, r5
 435 0074 FFF7FEFF 		bl	HAL_GPIO_DeInit
 436              	.LVL14:
 209:Src/charlie.c ****    }
 437              		.loc 2 209 7 view .LVU114
 438 0078 0821     		movs	r1, #8
 439 007a 2800     		movs	r0, r5
 440 007c FFF7FEFF 		bl	HAL_GPIO_DeInit
 441              	.LVL15:
 442 0080 C7E7     		b	.L11
 443              	.L25:
 219:Src/charlie.c ****       HAL_GPIO_Init(GPIOA, &PinC);
 444              		.loc 2 219 7 view .LVU115
 445 0082 9025     		movs	r5, #144
 446 0084 ED05     		lsls	r5, r5, #23
 447 0086 04A9     		add	r1, sp, #16
 448 0088 2800     		movs	r0, r5
 449 008a FFF7FEFF 		bl	HAL_GPIO_Init
 450              	.LVL16:
 220:Src/charlie.c ****       HAL_GPIO_DeInit(GPIOA, GPIO_PIN_1);
 451              		.loc 2 220 7 view .LVU116
 452 008e 0EA9     		add	r1, sp, #56
 453 0090 2800     		movs	r0, r5
 454 0092 FFF7FEFF 		bl	HAL_GPIO_Init
 455              	.LVL17:
 221:Src/charlie.c ****       HAL_GPIO_DeInit(GPIOA, GPIO_PIN_3);
 456              		.loc 2 221 7 view .LVU117
 457 0096 0221     		movs	r1, #2
 458 0098 2800     		movs	r0, r5
 459 009a FFF7FEFF 		bl	HAL_GPIO_DeInit
 460              	.LVL18:
 222:Src/charlie.c **** 
ARM GAS  /tmp/ccr4JylA.s 			page 22


 461              		.loc 2 222 7 view .LVU118
 462 009e 0821     		movs	r1, #8
 463 00a0 2800     		movs	r0, r5
 464 00a2 FFF7FEFF 		bl	HAL_GPIO_DeInit
 465              	.LVL19:
 224:Src/charlie.c ****       HAL_GPIO_WritePin(GPIOA, GPIO_PIN_2, GPIO_PIN_RESET);
 466              		.loc 2 224 7 view .LVU119
 467 00a6 0122     		movs	r2, #1
 468 00a8 0121     		movs	r1, #1
 469 00aa 2800     		movs	r0, r5
 470 00ac FFF7FEFF 		bl	HAL_GPIO_WritePin
 471              	.LVL20:
 225:Src/charlie.c ****       }
 472              		.loc 2 225 7 view .LVU120
 473 00b0 0022     		movs	r2, #0
 474 00b2 0421     		movs	r1, #4
 475 00b4 2800     		movs	r0, r5
 476 00b6 FFF7FEFF 		bl	HAL_GPIO_WritePin
 477              	.LVL21:
 478 00ba ACE7     		b	.L12
 479              	.L26:
 234:Src/charlie.c ****       HAL_GPIO_Init(GPIOA, &PinC);
 480              		.loc 2 234 7 view .LVU121
 481 00bc 9025     		movs	r5, #144
 482 00be ED05     		lsls	r5, r5, #23
 483 00c0 04A9     		add	r1, sp, #16
 484 00c2 2800     		movs	r0, r5
 485 00c4 FFF7FEFF 		bl	HAL_GPIO_Init
 486              	.LVL22:
 235:Src/charlie.c ****       HAL_GPIO_DeInit(GPIOA, GPIO_PIN_1);
 487              		.loc 2 235 7 view .LVU122
 488 00c8 0EA9     		add	r1, sp, #56
 489 00ca 2800     		movs	r0, r5
 490 00cc FFF7FEFF 		bl	HAL_GPIO_Init
 491              	.LVL23:
 236:Src/charlie.c ****       HAL_GPIO_DeInit(GPIOA, GPIO_PIN_3);
 492              		.loc 2 236 7 view .LVU123
 493 00d0 0221     		movs	r1, #2
 494 00d2 2800     		movs	r0, r5
 495 00d4 FFF7FEFF 		bl	HAL_GPIO_DeInit
 496              	.LVL24:
 237:Src/charlie.c **** 
 497              		.loc 2 237 7 view .LVU124
 498 00d8 0821     		movs	r1, #8
 499 00da 2800     		movs	r0, r5
 500 00dc FFF7FEFF 		bl	HAL_GPIO_DeInit
 501              	.LVL25:
 239:Src/charlie.c ****       HAL_GPIO_WritePin(GPIOA, GPIO_PIN_2, GPIO_PIN_SET);
 502              		.loc 2 239 7 view .LVU125
 503 00e0 0022     		movs	r2, #0
 504 00e2 0121     		movs	r1, #1
 505 00e4 2800     		movs	r0, r5
 506 00e6 FFF7FEFF 		bl	HAL_GPIO_WritePin
 507              	.LVL26:
 240:Src/charlie.c ****       }
 508              		.loc 2 240 7 view .LVU126
 509 00ea 0122     		movs	r2, #1
ARM GAS  /tmp/ccr4JylA.s 			page 23


 510 00ec 0421     		movs	r1, #4
 511 00ee 2800     		movs	r0, r5
 512 00f0 FFF7FEFF 		bl	HAL_GPIO_WritePin
 513              	.LVL27:
 514 00f4 91E7     		b	.L13
 515              	.L27:
 250:Src/charlie.c ****       HAL_GPIO_Init(GPIOA, &PinD);
 516              		.loc 2 250 7 view .LVU127
 517 00f6 9025     		movs	r5, #144
 518 00f8 ED05     		lsls	r5, r5, #23
 519 00fa 09A9     		add	r1, sp, #36
 520 00fc 2800     		movs	r0, r5
 521 00fe FFF7FEFF 		bl	HAL_GPIO_Init
 522              	.LVL28:
 251:Src/charlie.c ****       HAL_GPIO_DeInit(GPIOA, GPIO_PIN_0);
 523              		.loc 2 251 7 view .LVU128
 524 0102 13A9     		add	r1, sp, #76
 525 0104 2800     		movs	r0, r5
 526 0106 FFF7FEFF 		bl	HAL_GPIO_Init
 527              	.LVL29:
 252:Src/charlie.c ****       HAL_GPIO_DeInit(GPIOA, GPIO_PIN_2);
 528              		.loc 2 252 7 view .LVU129
 529 010a 0121     		movs	r1, #1
 530 010c 2800     		movs	r0, r5
 531 010e FFF7FEFF 		bl	HAL_GPIO_DeInit
 532              	.LVL30:
 253:Src/charlie.c **** 
 533              		.loc 2 253 7 view .LVU130
 534 0112 0421     		movs	r1, #4
 535 0114 2800     		movs	r0, r5
 536 0116 FFF7FEFF 		bl	HAL_GPIO_DeInit
 537              	.LVL31:
 255:Src/charlie.c ****       HAL_GPIO_WritePin(GPIOA, GPIO_PIN_3, GPIO_PIN_RESET);
 538              		.loc 2 255 7 view .LVU131
 539 011a 0122     		movs	r2, #1
 540 011c 0221     		movs	r1, #2
 541 011e 2800     		movs	r0, r5
 542 0120 FFF7FEFF 		bl	HAL_GPIO_WritePin
 543              	.LVL32:
 256:Src/charlie.c ****       }
 544              		.loc 2 256 7 view .LVU132
 545 0124 0022     		movs	r2, #0
 546 0126 0821     		movs	r1, #8
 547 0128 2800     		movs	r0, r5
 548 012a FFF7FEFF 		bl	HAL_GPIO_WritePin
 549              	.LVL33:
 550 012e 76E7     		b	.L14
 551              	.L28:
 265:Src/charlie.c ****       HAL_GPIO_Init(GPIOA, &PinD);
 552              		.loc 2 265 7 view .LVU133
 553 0130 9025     		movs	r5, #144
 554 0132 ED05     		lsls	r5, r5, #23
 555 0134 09A9     		add	r1, sp, #36
 556 0136 2800     		movs	r0, r5
 557 0138 FFF7FEFF 		bl	HAL_GPIO_Init
 558              	.LVL34:
 266:Src/charlie.c ****       HAL_GPIO_DeInit(GPIOA, GPIO_PIN_0);
ARM GAS  /tmp/ccr4JylA.s 			page 24


 559              		.loc 2 266 7 view .LVU134
 560 013c 13A9     		add	r1, sp, #76
 561 013e 2800     		movs	r0, r5
 562 0140 FFF7FEFF 		bl	HAL_GPIO_Init
 563              	.LVL35:
 267:Src/charlie.c ****       HAL_GPIO_DeInit(GPIOA, GPIO_PIN_2);
 564              		.loc 2 267 7 view .LVU135
 565 0144 0121     		movs	r1, #1
 566 0146 2800     		movs	r0, r5
 567 0148 FFF7FEFF 		bl	HAL_GPIO_DeInit
 568              	.LVL36:
 268:Src/charlie.c **** 
 569              		.loc 2 268 7 view .LVU136
 570 014c 0421     		movs	r1, #4
 571 014e 2800     		movs	r0, r5
 572 0150 FFF7FEFF 		bl	HAL_GPIO_DeInit
 573              	.LVL37:
 270:Src/charlie.c ****       HAL_GPIO_WritePin(GPIOA, GPIO_PIN_3, GPIO_PIN_SET);
 574              		.loc 2 270 7 view .LVU137
 575 0154 0022     		movs	r2, #0
 576 0156 0221     		movs	r1, #2
 577 0158 2800     		movs	r0, r5
 578 015a FFF7FEFF 		bl	HAL_GPIO_WritePin
 579              	.LVL38:
 271:Src/charlie.c ****       }
 580              		.loc 2 271 7 view .LVU138
 581 015e 0122     		movs	r2, #1
 582 0160 0821     		movs	r1, #8
 583 0162 2800     		movs	r0, r5
 584 0164 FFF7FEFF 		bl	HAL_GPIO_WritePin
 585              	.LVL39:
 586 0168 5CE7     		b	.L15
 587              	.L29:
 281:Src/charlie.c ****       HAL_GPIO_Init(GPIOA, &PinD);
 588              		.loc 2 281 7 view .LVU139
 589 016a 9025     		movs	r5, #144
 590 016c ED05     		lsls	r5, r5, #23
 591 016e 04A9     		add	r1, sp, #16
 592 0170 2800     		movs	r0, r5
 593 0172 FFF7FEFF 		bl	HAL_GPIO_Init
 594              	.LVL40:
 282:Src/charlie.c ****       HAL_GPIO_DeInit(GPIOA, GPIO_PIN_1);
 595              		.loc 2 282 7 view .LVU140
 596 0176 13A9     		add	r1, sp, #76
 597 0178 2800     		movs	r0, r5
 598 017a FFF7FEFF 		bl	HAL_GPIO_Init
 599              	.LVL41:
 283:Src/charlie.c ****       HAL_GPIO_DeInit(GPIOA, GPIO_PIN_2);
 600              		.loc 2 283 7 view .LVU141
 601 017e 0221     		movs	r1, #2
 602 0180 2800     		movs	r0, r5
 603 0182 FFF7FEFF 		bl	HAL_GPIO_DeInit
 604              	.LVL42:
 284:Src/charlie.c **** 
 605              		.loc 2 284 7 view .LVU142
 606 0186 0421     		movs	r1, #4
 607 0188 2800     		movs	r0, r5
ARM GAS  /tmp/ccr4JylA.s 			page 25


 608 018a FFF7FEFF 		bl	HAL_GPIO_DeInit
 609              	.LVL43:
 286:Src/charlie.c ****       HAL_GPIO_WritePin(GPIOA, GPIO_PIN_3, GPIO_PIN_RESET);
 610              		.loc 2 286 7 view .LVU143
 611 018e 0122     		movs	r2, #1
 612 0190 0121     		movs	r1, #1
 613 0192 2800     		movs	r0, r5
 614 0194 FFF7FEFF 		bl	HAL_GPIO_WritePin
 615              	.LVL44:
 287:Src/charlie.c ****       }
 616              		.loc 2 287 7 view .LVU144
 617 0198 0022     		movs	r2, #0
 618 019a 0821     		movs	r1, #8
 619 019c 2800     		movs	r0, r5
 620 019e FFF7FEFF 		bl	HAL_GPIO_WritePin
 621              	.LVL45:
 622 01a2 42E7     		b	.L16
 623              	.L30:
 296:Src/charlie.c ****       HAL_GPIO_Init(GPIOA, &PinD);
 624              		.loc 2 296 7 view .LVU145
 625 01a4 9025     		movs	r5, #144
 626 01a6 ED05     		lsls	r5, r5, #23
 627 01a8 04A9     		add	r1, sp, #16
 628 01aa 2800     		movs	r0, r5
 629 01ac FFF7FEFF 		bl	HAL_GPIO_Init
 630              	.LVL46:
 297:Src/charlie.c ****       HAL_GPIO_DeInit(GPIOA, GPIO_PIN_1);
 631              		.loc 2 297 7 view .LVU146
 632 01b0 13A9     		add	r1, sp, #76
 633 01b2 2800     		movs	r0, r5
 634 01b4 FFF7FEFF 		bl	HAL_GPIO_Init
 635              	.LVL47:
 298:Src/charlie.c ****       HAL_GPIO_DeInit(GPIOA, GPIO_PIN_2);
 636              		.loc 2 298 7 view .LVU147
 637 01b8 0221     		movs	r1, #2
 638 01ba 2800     		movs	r0, r5
 639 01bc FFF7FEFF 		bl	HAL_GPIO_DeInit
 640              	.LVL48:
 299:Src/charlie.c **** 
 641              		.loc 2 299 7 view .LVU148
 642 01c0 0421     		movs	r1, #4
 643 01c2 2800     		movs	r0, r5
 644 01c4 FFF7FEFF 		bl	HAL_GPIO_DeInit
 645              	.LVL49:
 301:Src/charlie.c ****       HAL_GPIO_WritePin(GPIOA, GPIO_PIN_3, GPIO_PIN_SET);
 646              		.loc 2 301 7 view .LVU149
 647 01c8 0022     		movs	r2, #0
 648 01ca 0121     		movs	r1, #1
 649 01cc 2800     		movs	r0, r5
 650 01ce FFF7FEFF 		bl	HAL_GPIO_WritePin
 651              	.LVL50:
 302:Src/charlie.c ****       }
 652              		.loc 2 302 7 view .LVU150
 653 01d2 0122     		movs	r2, #1
 654 01d4 0821     		movs	r1, #8
 655 01d6 2800     		movs	r0, r5
 656 01d8 FFF7FEFF 		bl	HAL_GPIO_WritePin
ARM GAS  /tmp/ccr4JylA.s 			page 26


 657              	.LVL51:
 658 01dc 28E7     		b	.L17
 659              	.L31:
 307:Src/charlie.c ****       HAL_GPIO_Init(GPIOA, &PinB);
 660              		.loc 2 307 7 view .LVU151
 661 01de 9025     		movs	r5, #144
 662 01e0 ED05     		lsls	r5, r5, #23
 663 01e2 04A9     		add	r1, sp, #16
 664 01e4 2800     		movs	r0, r5
 665 01e6 FFF7FEFF 		bl	HAL_GPIO_Init
 666              	.LVL52:
 308:Src/charlie.c ****       HAL_GPIO_DeInit(GPIOA, GPIO_PIN_2);
 667              		.loc 2 308 7 view .LVU152
 668 01ea 09A9     		add	r1, sp, #36
 669 01ec 2800     		movs	r0, r5
 670 01ee FFF7FEFF 		bl	HAL_GPIO_Init
 671              	.LVL53:
 309:Src/charlie.c ****       HAL_GPIO_DeInit(GPIOA, GPIO_PIN_3);
 672              		.loc 2 309 7 view .LVU153
 673 01f2 0421     		movs	r1, #4
 674 01f4 2800     		movs	r0, r5
 675 01f6 FFF7FEFF 		bl	HAL_GPIO_DeInit
 676              	.LVL54:
 310:Src/charlie.c **** 
 677              		.loc 2 310 7 view .LVU154
 678 01fa 0821     		movs	r1, #8
 679 01fc 2800     		movs	r0, r5
 680 01fe FFF7FEFF 		bl	HAL_GPIO_DeInit
 681              	.LVL55:
 312:Src/charlie.c ****       HAL_GPIO_WritePin(GPIOA, GPIO_PIN_1, GPIO_PIN_RESET);
 682              		.loc 2 312 7 view .LVU155
 683 0202 0122     		movs	r2, #1
 684 0204 0121     		movs	r1, #1
 685 0206 2800     		movs	r0, r5
 686 0208 FFF7FEFF 		bl	HAL_GPIO_WritePin
 687              	.LVL56:
 313:Src/charlie.c ****       }
 688              		.loc 2 313 7 view .LVU156
 689 020c 0022     		movs	r2, #0
 690 020e 0221     		movs	r1, #2
 691 0210 2800     		movs	r0, r5
 692 0212 FFF7FEFF 		bl	HAL_GPIO_WritePin
 693              	.LVL57:
 694 0216 0EE7     		b	.L18
 695              	.L32:
 318:Src/charlie.c ****       HAL_GPIO_Init(GPIOA, &PinB);
 696              		.loc 2 318 7 view .LVU157
 697 0218 9025     		movs	r5, #144
 698 021a ED05     		lsls	r5, r5, #23
 699 021c 04A9     		add	r1, sp, #16
 700 021e 2800     		movs	r0, r5
 701 0220 FFF7FEFF 		bl	HAL_GPIO_Init
 702              	.LVL58:
 319:Src/charlie.c ****       HAL_GPIO_DeInit(GPIOA, GPIO_PIN_2);
 703              		.loc 2 319 7 view .LVU158
 704 0224 09A9     		add	r1, sp, #36
 705 0226 2800     		movs	r0, r5
ARM GAS  /tmp/ccr4JylA.s 			page 27


 706 0228 FFF7FEFF 		bl	HAL_GPIO_Init
 707              	.LVL59:
 320:Src/charlie.c ****       HAL_GPIO_DeInit(GPIOA, GPIO_PIN_3);
 708              		.loc 2 320 7 view .LVU159
 709 022c 0421     		movs	r1, #4
 710 022e 2800     		movs	r0, r5
 711 0230 FFF7FEFF 		bl	HAL_GPIO_DeInit
 712              	.LVL60:
 321:Src/charlie.c ****       
 713              		.loc 2 321 7 view .LVU160
 714 0234 0821     		movs	r1, #8
 715 0236 2800     		movs	r0, r5
 716 0238 FFF7FEFF 		bl	HAL_GPIO_DeInit
 717              	.LVL61:
 323:Src/charlie.c ****       HAL_GPIO_WritePin(GPIOA, GPIO_PIN_1, GPIO_PIN_SET);
 718              		.loc 2 323 7 view .LVU161
 719 023c 0022     		movs	r2, #0
 720 023e 0121     		movs	r1, #1
 721 0240 2800     		movs	r0, r5
 722 0242 FFF7FEFF 		bl	HAL_GPIO_WritePin
 723              	.LVL62:
 324:Src/charlie.c ****       }
 724              		.loc 2 324 7 view .LVU162
 725 0246 0122     		movs	r2, #1
 726 0248 0221     		movs	r1, #2
 727 024a 2800     		movs	r0, r5
 728 024c FFF7FEFF 		bl	HAL_GPIO_WritePin
 729              	.LVL63:
 730 0250 F4E6     		b	.L19
 731              	.L33:
 333:Src/charlie.c ****       HAL_GPIO_Init(GPIOA, &PinC);
 732              		.loc 2 333 7 view .LVU163
 733 0252 9025     		movs	r5, #144
 734 0254 ED05     		lsls	r5, r5, #23
 735 0256 09A9     		add	r1, sp, #36
 736 0258 2800     		movs	r0, r5
 737 025a FFF7FEFF 		bl	HAL_GPIO_Init
 738              	.LVL64:
 334:Src/charlie.c ****       HAL_GPIO_DeInit(GPIOA, GPIO_PIN_0);
 739              		.loc 2 334 7 view .LVU164
 740 025e 0EA9     		add	r1, sp, #56
 741 0260 2800     		movs	r0, r5
 742 0262 FFF7FEFF 		bl	HAL_GPIO_Init
 743              	.LVL65:
 335:Src/charlie.c ****       HAL_GPIO_DeInit(GPIOA, GPIO_PIN_3);
 744              		.loc 2 335 7 view .LVU165
 745 0266 0121     		movs	r1, #1
 746 0268 2800     		movs	r0, r5
 747 026a FFF7FEFF 		bl	HAL_GPIO_DeInit
 748              	.LVL66:
 336:Src/charlie.c **** 
 749              		.loc 2 336 7 view .LVU166
 750 026e 0821     		movs	r1, #8
 751 0270 2800     		movs	r0, r5
 752 0272 FFF7FEFF 		bl	HAL_GPIO_DeInit
 753              	.LVL67:
 338:Src/charlie.c ****       HAL_GPIO_WritePin(GPIOA, GPIO_PIN_2, GPIO_PIN_RESET);
ARM GAS  /tmp/ccr4JylA.s 			page 28


 754              		.loc 2 338 7 view .LVU167
 755 0276 0122     		movs	r2, #1
 756 0278 0221     		movs	r1, #2
 757 027a 2800     		movs	r0, r5
 758 027c FFF7FEFF 		bl	HAL_GPIO_WritePin
 759              	.LVL68:
 339:Src/charlie.c ****       }
 760              		.loc 2 339 7 view .LVU168
 761 0280 0022     		movs	r2, #0
 762 0282 0421     		movs	r1, #4
 763 0284 2800     		movs	r0, r5
 764 0286 FFF7FEFF 		bl	HAL_GPIO_WritePin
 765              	.LVL69:
 766 028a DAE6     		b	.L20
 767              	.L34:
 348:Src/charlie.c ****       HAL_GPIO_Init(GPIOA, &PinC);
 768              		.loc 2 348 7 view .LVU169
 769 028c 9025     		movs	r5, #144
 770 028e ED05     		lsls	r5, r5, #23
 771 0290 09A9     		add	r1, sp, #36
 772 0292 2800     		movs	r0, r5
 773 0294 FFF7FEFF 		bl	HAL_GPIO_Init
 774              	.LVL70:
 349:Src/charlie.c ****       HAL_GPIO_DeInit(GPIOA, GPIO_PIN_0);
 775              		.loc 2 349 7 view .LVU170
 776 0298 0EA9     		add	r1, sp, #56
 777 029a 2800     		movs	r0, r5
 778 029c FFF7FEFF 		bl	HAL_GPIO_Init
 779              	.LVL71:
 350:Src/charlie.c ****       HAL_GPIO_DeInit(GPIOA, GPIO_PIN_3);
 780              		.loc 2 350 7 view .LVU171
 781 02a0 0121     		movs	r1, #1
 782 02a2 2800     		movs	r0, r5
 783 02a4 FFF7FEFF 		bl	HAL_GPIO_DeInit
 784              	.LVL72:
 351:Src/charlie.c **** 
 785              		.loc 2 351 7 view .LVU172
 786 02a8 0821     		movs	r1, #8
 787 02aa 2800     		movs	r0, r5
 788 02ac FFF7FEFF 		bl	HAL_GPIO_DeInit
 789              	.LVL73:
 353:Src/charlie.c ****       HAL_GPIO_WritePin(GPIOA, GPIO_PIN_2, GPIO_PIN_SET);
 790              		.loc 2 353 7 view .LVU173
 791 02b0 0022     		movs	r2, #0
 792 02b2 0221     		movs	r1, #2
 793 02b4 2800     		movs	r0, r5
 794 02b6 FFF7FEFF 		bl	HAL_GPIO_WritePin
 795              	.LVL74:
 354:Src/charlie.c ****       }
 796              		.loc 2 354 7 view .LVU174
 797 02ba 0122     		movs	r2, #1
 798 02bc 0421     		movs	r1, #4
 799 02be 2800     		movs	r0, r5
 800 02c0 FFF7FEFF 		bl	HAL_GPIO_WritePin
 801              	.LVL75:
 802 02c4 C0E6     		b	.L21
 803              	.L35:
ARM GAS  /tmp/ccr4JylA.s 			page 29


 363:Src/charlie.c ****       HAL_GPIO_Init(GPIOA, &PinD);
 804              		.loc 2 363 7 view .LVU175
 805 02c6 9025     		movs	r5, #144
 806 02c8 ED05     		lsls	r5, r5, #23
 807 02ca 0EA9     		add	r1, sp, #56
 808 02cc 2800     		movs	r0, r5
 809 02ce FFF7FEFF 		bl	HAL_GPIO_Init
 810              	.LVL76:
 364:Src/charlie.c ****       HAL_GPIO_DeInit(GPIOA, GPIO_PIN_0);
 811              		.loc 2 364 7 view .LVU176
 812 02d2 13A9     		add	r1, sp, #76
 813 02d4 2800     		movs	r0, r5
 814 02d6 FFF7FEFF 		bl	HAL_GPIO_Init
 815              	.LVL77:
 365:Src/charlie.c ****       HAL_GPIO_DeInit(GPIOA, GPIO_PIN_1);
 816              		.loc 2 365 7 view .LVU177
 817 02da 0121     		movs	r1, #1
 818 02dc 2800     		movs	r0, r5
 819 02de FFF7FEFF 		bl	HAL_GPIO_DeInit
 820              	.LVL78:
 366:Src/charlie.c **** 
 821              		.loc 2 366 7 view .LVU178
 822 02e2 0221     		movs	r1, #2
 823 02e4 2800     		movs	r0, r5
 824 02e6 FFF7FEFF 		bl	HAL_GPIO_DeInit
 825              	.LVL79:
 368:Src/charlie.c ****       HAL_GPIO_WritePin(GPIOA, GPIO_PIN_3, GPIO_PIN_RESET);
 826              		.loc 2 368 7 view .LVU179
 827 02ea 0122     		movs	r2, #1
 828 02ec 0421     		movs	r1, #4
 829 02ee 2800     		movs	r0, r5
 830 02f0 FFF7FEFF 		bl	HAL_GPIO_WritePin
 831              	.LVL80:
 369:Src/charlie.c ****       }
 832              		.loc 2 369 7 view .LVU180
 833 02f4 0022     		movs	r2, #0
 834 02f6 0821     		movs	r1, #8
 835 02f8 2800     		movs	r0, r5
 836 02fa FFF7FEFF 		bl	HAL_GPIO_WritePin
 837              	.LVL81:
 838 02fe A6E6     		b	.L22
 839              	.L36:
 378:Src/charlie.c ****       HAL_GPIO_Init(GPIOA, &PinD);
 840              		.loc 2 378 7 view .LVU181
 841 0300 9024     		movs	r4, #144
 842 0302 E405     		lsls	r4, r4, #23
 843 0304 0EA9     		add	r1, sp, #56
 844 0306 2000     		movs	r0, r4
 845 0308 FFF7FEFF 		bl	HAL_GPIO_Init
 846              	.LVL82:
 379:Src/charlie.c ****       HAL_GPIO_DeInit(GPIOA, GPIO_PIN_0);
 847              		.loc 2 379 7 view .LVU182
 848 030c 13A9     		add	r1, sp, #76
 849 030e 2000     		movs	r0, r4
 850 0310 FFF7FEFF 		bl	HAL_GPIO_Init
 851              	.LVL83:
 380:Src/charlie.c ****       HAL_GPIO_DeInit(GPIOA, GPIO_PIN_1);
ARM GAS  /tmp/ccr4JylA.s 			page 30


 852              		.loc 2 380 7 view .LVU183
 853 0314 0121     		movs	r1, #1
 854 0316 2000     		movs	r0, r4
 855 0318 FFF7FEFF 		bl	HAL_GPIO_DeInit
 856              	.LVL84:
 381:Src/charlie.c ****             
 857              		.loc 2 381 7 view .LVU184
 858 031c 0221     		movs	r1, #2
 859 031e 2000     		movs	r0, r4
 860 0320 FFF7FEFF 		bl	HAL_GPIO_DeInit
 861              	.LVL85:
 383:Src/charlie.c ****       HAL_GPIO_WritePin(GPIOA, GPIO_PIN_3, GPIO_PIN_SET);
 862              		.loc 2 383 7 view .LVU185
 863 0324 0022     		movs	r2, #0
 864 0326 0421     		movs	r1, #4
 865 0328 2000     		movs	r0, r4
 866 032a FFF7FEFF 		bl	HAL_GPIO_WritePin
 867              	.LVL86:
 384:Src/charlie.c ****       }
 868              		.loc 2 384 7 view .LVU186
 869 032e 0122     		movs	r2, #1
 870 0330 0821     		movs	r1, #8
 871 0332 2000     		movs	r0, r4
 872 0334 FFF7FEFF 		bl	HAL_GPIO_WritePin
 873              	.LVL87:
 874              		.loc 2 387 1 is_stmt 0 view .LVU187
 875 0338 8CE6     		b	.L10
 876              		.cfi_endproc
 877              	.LFE44:
 879              		.section	.text.dance,"ax",%progbits
 880              		.align	1
 881              		.global	dance
 882              		.syntax unified
 883              		.code	16
 884              		.thumb_func
 885              		.fpu softvfp
 887              	dance:
 888              	.LVL88:
 889              	.LFB43:
   8:Src/charlie.c ****    // Off
 890              		.loc 2 8 114 is_stmt 1 view -0
 891              		.cfi_startproc
 892              		@ args = 84, pretend = 16, frame = 8
 893              		@ frame_needed = 0, uses_anonymous_args = 0
   8:Src/charlie.c ****    // Off
 894              		.loc 2 8 114 is_stmt 0 view .LVU189
 895 0000 84B0     		sub	sp, sp, #16
 896              	.LCFI7:
 897              		.cfi_def_cfa_offset 16
 898 0002 F0B5     		push	{r4, r5, r6, r7, lr}
 899              	.LCFI8:
 900              		.cfi_def_cfa_offset 36
 901              		.cfi_offset 4, -36
 902              		.cfi_offset 5, -32
 903              		.cfi_offset 6, -28
 904              		.cfi_offset 7, -24
 905              		.cfi_offset 14, -20
ARM GAS  /tmp/ccr4JylA.s 			page 31


 906 0004 DE46     		mov	lr, fp
 907 0006 5746     		mov	r7, r10
 908 0008 4E46     		mov	r6, r9
 909 000a 4546     		mov	r5, r8
 910 000c E0B5     		push	{r5, r6, r7, lr}
 911              	.LCFI9:
 912              		.cfi_def_cfa_offset 52
 913              		.cfi_offset 8, -52
 914              		.cfi_offset 9, -48
 915              		.cfi_offset 10, -44
 916              		.cfi_offset 11, -40
 917 000e 95B0     		sub	sp, sp, #84
 918              	.LCFI10:
 919              		.cfi_def_cfa_offset 136
 920 0010 1E90     		str	r0, [sp, #120]
 921 0012 1F91     		str	r1, [sp, #124]
 922 0014 2092     		str	r2, [sp, #128]
 923 0016 2193     		str	r3, [sp, #132]
 924 0018 329C     		ldr	r4, [sp, #200]
  10:Src/charlie.c ****        charlie(PinA, PinB, PinC, PinD, 0);
 925              		.loc 2 10 4 is_stmt 1 view .LVU190
  10:Src/charlie.c ****        charlie(PinA, PinB, PinC, PinD, 0);
 926              		.loc 2 10 6 is_stmt 0 view .LVU191
 927 001a 002C     		cmp	r4, #0
 928 001c 16D0     		beq	.L72
 929              	.L38:
  15:Src/charlie.c ****        charlie(PinA, PinB, PinC, PinD, 0);
 930              		.loc 2 15 4 is_stmt 1 view .LVU192
  15:Src/charlie.c ****        charlie(PinA, PinB, PinC, PinD, 0);
 931              		.loc 2 15 6 is_stmt 0 view .LVU193
 932 001e 012C     		cmp	r4, #1
 933 0020 37D0     		beq	.L73
 934              	.L39:
  71:Src/charlie.c ****        charlie(PinA, PinB, PinC, PinD, 0);
 935              		.loc 2 71 4 is_stmt 1 view .LVU194
  71:Src/charlie.c ****        charlie(PinA, PinB, PinC, PinD, 0);
 936              		.loc 2 71 6 is_stmt 0 view .LVU195
 937 0022 022C     		cmp	r4, #2
 938 0024 00D1     		bne	.LCB758
 939 0026 69E2     		b	.L74	@long jump
 940              	.LCB758:
 941              	.L41:
 127:Src/charlie.c ****       charlie(PinA, PinB, PinC, PinD, 0);
 942              		.loc 2 127 4 is_stmt 1 view .LVU196
 127:Src/charlie.c ****       charlie(PinA, PinB, PinC, PinD, 0);
 943              		.loc 2 127 6 is_stmt 0 view .LVU197
 944 0028 032C     		cmp	r4, #3
 945 002a 01D1     		bne	.LCB762
 946 002c 00F09EFC 		bl	.L75	@far jump
 947              	.LCB762:
 948              	.L42:
 141:Src/charlie.c ****       for(int i =1; i<=7; i++){
 949              		.loc 2 141 4 is_stmt 1 view .LVU198
 141:Src/charlie.c ****       for(int i =1; i<=7; i++){
 950              		.loc 2 141 6 is_stmt 0 view .LVU199
 951 0030 042C     		cmp	r4, #4
 952 0032 01D1     		bne	.LCB766
ARM GAS  /tmp/ccr4JylA.s 			page 32


 953 0034 00F0FFFE 		bl	.L76	@far jump
 954              	.LCB766:
 955              	.LVL89:
 956              	.L37:
 202:Src/charlie.c **** 
 957              		.loc 2 202 1 view .LVU200
 958 0038 15B0     		add	sp, sp, #84
 959              		@ sp needed
 960 003a 3CBC     		pop	{r2, r3, r4, r5}
 961 003c 9046     		mov	r8, r2
 962 003e 9946     		mov	r9, r3
 963 0040 A246     		mov	r10, r4
 964 0042 AB46     		mov	fp, r5
 965 0044 F0BC     		pop	{r4, r5, r6, r7}
 966 0046 08BC     		pop	{r3}
 967 0048 04B0     		add	sp, sp, #16
 968 004a 1847     		bx	r3
 969              	.LVL90:
 970              	.L72:
  11:Src/charlie.c ****    }
 971              		.loc 2 11 8 is_stmt 1 view .LVU201
 972 004c 0023     		movs	r3, #0
 973 004e 1093     		str	r3, [sp, #64]
 974 0050 2DA8     		add	r0, sp, #180
 975 0052 0BA9     		add	r1, sp, #44
 976 0054 0B00     		movs	r3, r1
 977 0056 0200     		movs	r2, r0
 978 0058 23CA     		ldmia	r2!, {r0, r1, r5}
 979 005a 23C3     		stmia	r3!, {r0, r1, r5}
 980 005c 03CA     		ldmia	r2!, {r0, r1}
 981 005e 03C3     		stmia	r3!, {r0, r1}
 982 0060 28A8     		add	r0, sp, #160
 983 0062 06A9     		add	r1, sp, #24
 984 0064 0B00     		movs	r3, r1
 985 0066 0200     		movs	r2, r0
 986 0068 23CA     		ldmia	r2!, {r0, r1, r5}
 987 006a 23C3     		stmia	r3!, {r0, r1, r5}
 988 006c 03CA     		ldmia	r2!, {r0, r1}
 989 006e 03C3     		stmia	r3!, {r0, r1}
 990 0070 23A8     		add	r0, sp, #140
 991 0072 01A9     		add	r1, sp, #4
 992 0074 0B00     		movs	r3, r1
 993 0076 0200     		movs	r2, r0
 994 0078 23CA     		ldmia	r2!, {r0, r1, r5}
 995 007a 23C3     		stmia	r3!, {r0, r1, r5}
 996 007c 03CA     		ldmia	r2!, {r0, r1}
 997 007e 03C3     		stmia	r3!, {r0, r1}
 998 0080 229B     		ldr	r3, [sp, #136]
 999 0082 0093     		str	r3, [sp]
 1000 0084 1E98     		ldr	r0, [sp, #120]
 1001 0086 1F99     		ldr	r1, [sp, #124]
 1002 0088 209A     		ldr	r2, [sp, #128]
 1003 008a 219B     		ldr	r3, [sp, #132]
 1004 008c FFF7FEFF 		bl	charlie
 1005              	.LVL91:
 1006 0090 C5E7     		b	.L38
 1007              	.L73:
ARM GAS  /tmp/ccr4JylA.s 			page 33


  16:Src/charlie.c ****        if(stop == 1)
 1008              		.loc 2 16 8 view .LVU202
 1009 0092 0023     		movs	r3, #0
 1010 0094 1093     		str	r3, [sp, #64]
 1011 0096 2DA8     		add	r0, sp, #180
 1012 0098 0BA9     		add	r1, sp, #44
 1013 009a 0B00     		movs	r3, r1
 1014 009c 0200     		movs	r2, r0
 1015 009e 23CA     		ldmia	r2!, {r0, r1, r5}
 1016 00a0 23C3     		stmia	r3!, {r0, r1, r5}
 1017 00a2 03CA     		ldmia	r2!, {r0, r1}
 1018 00a4 03C3     		stmia	r3!, {r0, r1}
 1019 00a6 28A8     		add	r0, sp, #160
 1020 00a8 06A9     		add	r1, sp, #24
 1021 00aa 0B00     		movs	r3, r1
 1022 00ac 0200     		movs	r2, r0
 1023 00ae 23CA     		ldmia	r2!, {r0, r1, r5}
 1024 00b0 23C3     		stmia	r3!, {r0, r1, r5}
 1025 00b2 03CA     		ldmia	r2!, {r0, r1}
 1026 00b4 03C3     		stmia	r3!, {r0, r1}
 1027 00b6 23A8     		add	r0, sp, #140
 1028 00b8 01A9     		add	r1, sp, #4
 1029 00ba 0B00     		movs	r3, r1
 1030 00bc 0200     		movs	r2, r0
 1031 00be 23CA     		ldmia	r2!, {r0, r1, r5}
 1032 00c0 23C3     		stmia	r3!, {r0, r1, r5}
 1033 00c2 03CA     		ldmia	r2!, {r0, r1}
 1034 00c4 03C3     		stmia	r3!, {r0, r1}
 1035 00c6 229B     		ldr	r3, [sp, #136]
 1036 00c8 0093     		str	r3, [sp]
 1037 00ca 1E98     		ldr	r0, [sp, #120]
 1038 00cc 1F99     		ldr	r1, [sp, #124]
 1039 00ce 209A     		ldr	r2, [sp, #128]
 1040 00d0 219B     		ldr	r3, [sp, #132]
 1041 00d2 FFF7FEFF 		bl	charlie
 1042              	.LVL92:
  17:Src/charlie.c ****          return;
 1043              		.loc 2 17 8 view .LVU203
  17:Src/charlie.c ****          return;
 1044              		.loc 2 17 16 is_stmt 0 view .LVU204
 1045 00d6 EF4B     		ldr	r3, .L85
 1046 00d8 1B68     		ldr	r3, [r3]
  17:Src/charlie.c ****          return;
 1047              		.loc 2 17 10 view .LVU205
 1048 00da 012B     		cmp	r3, #1
 1049 00dc ACD0     		beq	.L37
  19:Src/charlie.c ****        charlie(PinA, PinB, PinC, PinD, 1);
 1050              		.loc 2 19 8 is_stmt 1 view .LVU206
 1051 00de FA20     		movs	r0, #250
 1052 00e0 8000     		lsls	r0, r0, #2
 1053 00e2 FFF7FEFF 		bl	HAL_Delay
 1054              	.LVL93:
  20:Src/charlie.c ****        if(stop == 1)
 1055              		.loc 2 20 8 view .LVU207
 1056 00e6 0123     		movs	r3, #1
 1057 00e8 1093     		str	r3, [sp, #64]
 1058 00ea 2DA8     		add	r0, sp, #180
ARM GAS  /tmp/ccr4JylA.s 			page 34


 1059 00ec 0BA9     		add	r1, sp, #44
 1060 00ee 0B00     		movs	r3, r1
 1061 00f0 0200     		movs	r2, r0
 1062 00f2 23CA     		ldmia	r2!, {r0, r1, r5}
 1063 00f4 23C3     		stmia	r3!, {r0, r1, r5}
 1064 00f6 03CA     		ldmia	r2!, {r0, r1}
 1065 00f8 03C3     		stmia	r3!, {r0, r1}
 1066 00fa 28A8     		add	r0, sp, #160
 1067 00fc 06A9     		add	r1, sp, #24
 1068 00fe 0B00     		movs	r3, r1
 1069 0100 0200     		movs	r2, r0
 1070 0102 23CA     		ldmia	r2!, {r0, r1, r5}
 1071 0104 23C3     		stmia	r3!, {r0, r1, r5}
 1072 0106 03CA     		ldmia	r2!, {r0, r1}
 1073 0108 03C3     		stmia	r3!, {r0, r1}
 1074 010a 23A8     		add	r0, sp, #140
 1075 010c 01A9     		add	r1, sp, #4
 1076 010e 0B00     		movs	r3, r1
 1077 0110 0200     		movs	r2, r0
 1078 0112 23CA     		ldmia	r2!, {r0, r1, r5}
 1079 0114 23C3     		stmia	r3!, {r0, r1, r5}
 1080 0116 03CA     		ldmia	r2!, {r0, r1}
 1081 0118 03C3     		stmia	r3!, {r0, r1}
 1082 011a 229B     		ldr	r3, [sp, #136]
 1083 011c 0093     		str	r3, [sp]
 1084 011e 1E98     		ldr	r0, [sp, #120]
 1085 0120 1F99     		ldr	r1, [sp, #124]
 1086 0122 209A     		ldr	r2, [sp, #128]
 1087 0124 219B     		ldr	r3, [sp, #132]
 1088 0126 FFF7FEFF 		bl	charlie
 1089              	.LVL94:
  21:Src/charlie.c ****          return;
 1090              		.loc 2 21 8 view .LVU208
  21:Src/charlie.c ****          return;
 1091              		.loc 2 21 16 is_stmt 0 view .LVU209
 1092 012a DA4B     		ldr	r3, .L85
 1093 012c 1B68     		ldr	r3, [r3]
  21:Src/charlie.c ****          return;
 1094              		.loc 2 21 10 view .LVU210
 1095 012e 012B     		cmp	r3, #1
 1096 0130 00D1     		bne	.LCB908
 1097 0132 81E7     		b	.L37	@long jump
 1098              	.LCB908:
  23:Src/charlie.c ****        charlie(PinA, PinB, PinC, PinD, 2);
 1099              		.loc 2 23 8 is_stmt 1 view .LVU211
 1100 0134 FA20     		movs	r0, #250
 1101 0136 8000     		lsls	r0, r0, #2
 1102 0138 FFF7FEFF 		bl	HAL_Delay
 1103              	.LVL95:
  24:Src/charlie.c ****        if(stop == 1)
 1104              		.loc 2 24 8 view .LVU212
 1105 013c 0223     		movs	r3, #2
 1106 013e 1093     		str	r3, [sp, #64]
 1107 0140 2DA8     		add	r0, sp, #180
 1108 0142 0BA9     		add	r1, sp, #44
 1109 0144 0B00     		movs	r3, r1
 1110 0146 0200     		movs	r2, r0
ARM GAS  /tmp/ccr4JylA.s 			page 35


 1111 0148 23CA     		ldmia	r2!, {r0, r1, r5}
 1112 014a 23C3     		stmia	r3!, {r0, r1, r5}
 1113 014c 03CA     		ldmia	r2!, {r0, r1}
 1114 014e 03C3     		stmia	r3!, {r0, r1}
 1115 0150 28A8     		add	r0, sp, #160
 1116 0152 06A9     		add	r1, sp, #24
 1117 0154 0B00     		movs	r3, r1
 1118 0156 0200     		movs	r2, r0
 1119 0158 23CA     		ldmia	r2!, {r0, r1, r5}
 1120 015a 23C3     		stmia	r3!, {r0, r1, r5}
 1121 015c 03CA     		ldmia	r2!, {r0, r1}
 1122 015e 03C3     		stmia	r3!, {r0, r1}
 1123 0160 23A8     		add	r0, sp, #140
 1124 0162 01A9     		add	r1, sp, #4
 1125 0164 0B00     		movs	r3, r1
 1126 0166 0200     		movs	r2, r0
 1127 0168 23CA     		ldmia	r2!, {r0, r1, r5}
 1128 016a 23C3     		stmia	r3!, {r0, r1, r5}
 1129 016c 03CA     		ldmia	r2!, {r0, r1}
 1130 016e 03C3     		stmia	r3!, {r0, r1}
 1131 0170 229B     		ldr	r3, [sp, #136]
 1132 0172 0093     		str	r3, [sp]
 1133 0174 1E98     		ldr	r0, [sp, #120]
 1134 0176 1F99     		ldr	r1, [sp, #124]
 1135 0178 209A     		ldr	r2, [sp, #128]
 1136 017a 219B     		ldr	r3, [sp, #132]
 1137 017c FFF7FEFF 		bl	charlie
 1138              	.LVL96:
  25:Src/charlie.c ****          return;
 1139              		.loc 2 25 8 view .LVU213
  25:Src/charlie.c ****          return;
 1140              		.loc 2 25 16 is_stmt 0 view .LVU214
 1141 0180 C44B     		ldr	r3, .L85
 1142 0182 1B68     		ldr	r3, [r3]
  25:Src/charlie.c ****          return;
 1143              		.loc 2 25 10 view .LVU215
 1144 0184 012B     		cmp	r3, #1
 1145 0186 00D1     		bne	.LCB952
 1146 0188 56E7     		b	.L37	@long jump
 1147              	.LCB952:
  27:Src/charlie.c ****        charlie(PinA, PinB, PinC, PinD, 3);
 1148              		.loc 2 27 8 is_stmt 1 view .LVU216
 1149 018a FA20     		movs	r0, #250
 1150 018c 8000     		lsls	r0, r0, #2
 1151 018e FFF7FEFF 		bl	HAL_Delay
 1152              	.LVL97:
  28:Src/charlie.c ****        if(stop == 1)
 1153              		.loc 2 28 8 view .LVU217
 1154 0192 0323     		movs	r3, #3
 1155 0194 1093     		str	r3, [sp, #64]
 1156 0196 2DA8     		add	r0, sp, #180
 1157 0198 0BA9     		add	r1, sp, #44
 1158 019a 0B00     		movs	r3, r1
 1159 019c 0200     		movs	r2, r0
 1160 019e 23CA     		ldmia	r2!, {r0, r1, r5}
 1161 01a0 23C3     		stmia	r3!, {r0, r1, r5}
 1162 01a2 03CA     		ldmia	r2!, {r0, r1}
ARM GAS  /tmp/ccr4JylA.s 			page 36


 1163 01a4 03C3     		stmia	r3!, {r0, r1}
 1164 01a6 28A8     		add	r0, sp, #160
 1165 01a8 06A9     		add	r1, sp, #24
 1166 01aa 0B00     		movs	r3, r1
 1167 01ac 0200     		movs	r2, r0
 1168 01ae 23CA     		ldmia	r2!, {r0, r1, r5}
 1169 01b0 23C3     		stmia	r3!, {r0, r1, r5}
 1170 01b2 03CA     		ldmia	r2!, {r0, r1}
 1171 01b4 03C3     		stmia	r3!, {r0, r1}
 1172 01b6 23A8     		add	r0, sp, #140
 1173 01b8 01A9     		add	r1, sp, #4
 1174 01ba 0B00     		movs	r3, r1
 1175 01bc 0200     		movs	r2, r0
 1176 01be 23CA     		ldmia	r2!, {r0, r1, r5}
 1177 01c0 23C3     		stmia	r3!, {r0, r1, r5}
 1178 01c2 03CA     		ldmia	r2!, {r0, r1}
 1179 01c4 03C3     		stmia	r3!, {r0, r1}
 1180 01c6 229B     		ldr	r3, [sp, #136]
 1181 01c8 0093     		str	r3, [sp]
 1182 01ca 1E98     		ldr	r0, [sp, #120]
 1183 01cc 1F99     		ldr	r1, [sp, #124]
 1184 01ce 209A     		ldr	r2, [sp, #128]
 1185 01d0 219B     		ldr	r3, [sp, #132]
 1186 01d2 FFF7FEFF 		bl	charlie
 1187              	.LVL98:
  29:Src/charlie.c ****          return;
 1188              		.loc 2 29 8 view .LVU218
  29:Src/charlie.c ****          return;
 1189              		.loc 2 29 16 is_stmt 0 view .LVU219
 1190 01d6 AF4B     		ldr	r3, .L85
 1191 01d8 1B68     		ldr	r3, [r3]
  29:Src/charlie.c ****          return;
 1192              		.loc 2 29 10 view .LVU220
 1193 01da 012B     		cmp	r3, #1
 1194 01dc 00D1     		bne	.LCB996
 1195 01de 2BE7     		b	.L37	@long jump
 1196              	.LCB996:
  31:Src/charlie.c ****        charlie(PinA, PinB, PinC, PinD, 4);
 1197              		.loc 2 31 8 is_stmt 1 view .LVU221
 1198 01e0 FA20     		movs	r0, #250
 1199 01e2 8000     		lsls	r0, r0, #2
 1200 01e4 FFF7FEFF 		bl	HAL_Delay
 1201              	.LVL99:
  32:Src/charlie.c ****        if(stop == 1)
 1202              		.loc 2 32 8 view .LVU222
 1203 01e8 0423     		movs	r3, #4
 1204 01ea 1093     		str	r3, [sp, #64]
 1205 01ec 2DA8     		add	r0, sp, #180
 1206 01ee 0BA9     		add	r1, sp, #44
 1207 01f0 0B00     		movs	r3, r1
 1208 01f2 0200     		movs	r2, r0
 1209 01f4 23CA     		ldmia	r2!, {r0, r1, r5}
 1210 01f6 23C3     		stmia	r3!, {r0, r1, r5}
 1211 01f8 03CA     		ldmia	r2!, {r0, r1}
 1212 01fa 03C3     		stmia	r3!, {r0, r1}
 1213 01fc 28A8     		add	r0, sp, #160
 1214 01fe 06A9     		add	r1, sp, #24
ARM GAS  /tmp/ccr4JylA.s 			page 37


 1215 0200 0B00     		movs	r3, r1
 1216 0202 0200     		movs	r2, r0
 1217 0204 23CA     		ldmia	r2!, {r0, r1, r5}
 1218 0206 23C3     		stmia	r3!, {r0, r1, r5}
 1219 0208 03CA     		ldmia	r2!, {r0, r1}
 1220 020a 03C3     		stmia	r3!, {r0, r1}
 1221 020c 23A8     		add	r0, sp, #140
 1222 020e 01A9     		add	r1, sp, #4
 1223 0210 0B00     		movs	r3, r1
 1224 0212 0200     		movs	r2, r0
 1225 0214 23CA     		ldmia	r2!, {r0, r1, r5}
 1226 0216 23C3     		stmia	r3!, {r0, r1, r5}
 1227 0218 03CA     		ldmia	r2!, {r0, r1}
 1228 021a 03C3     		stmia	r3!, {r0, r1}
 1229 021c 229B     		ldr	r3, [sp, #136]
 1230 021e 0093     		str	r3, [sp]
 1231 0220 1E98     		ldr	r0, [sp, #120]
 1232 0222 1F99     		ldr	r1, [sp, #124]
 1233 0224 209A     		ldr	r2, [sp, #128]
 1234 0226 219B     		ldr	r3, [sp, #132]
 1235 0228 FFF7FEFF 		bl	charlie
 1236              	.LVL100:
  33:Src/charlie.c ****          return;
 1237              		.loc 2 33 8 view .LVU223
  33:Src/charlie.c ****          return;
 1238              		.loc 2 33 16 is_stmt 0 view .LVU224
 1239 022c 994B     		ldr	r3, .L85
 1240 022e 1B68     		ldr	r3, [r3]
  33:Src/charlie.c ****          return;
 1241              		.loc 2 33 10 view .LVU225
 1242 0230 012B     		cmp	r3, #1
 1243 0232 00D1     		bne	.LCB1040
 1244 0234 00E7     		b	.L37	@long jump
 1245              	.LCB1040:
  35:Src/charlie.c ****        charlie(PinA, PinB, PinC, PinD, 5);
 1246              		.loc 2 35 8 is_stmt 1 view .LVU226
 1247 0236 FA20     		movs	r0, #250
 1248 0238 8000     		lsls	r0, r0, #2
 1249 023a FFF7FEFF 		bl	HAL_Delay
 1250              	.LVL101:
  36:Src/charlie.c ****        if(stop == 1)
 1251              		.loc 2 36 8 view .LVU227
 1252 023e 0523     		movs	r3, #5
 1253 0240 1093     		str	r3, [sp, #64]
 1254 0242 2DA8     		add	r0, sp, #180
 1255 0244 0BA9     		add	r1, sp, #44
 1256 0246 0B00     		movs	r3, r1
 1257 0248 0200     		movs	r2, r0
 1258 024a 23CA     		ldmia	r2!, {r0, r1, r5}
 1259 024c 23C3     		stmia	r3!, {r0, r1, r5}
 1260 024e 03CA     		ldmia	r2!, {r0, r1}
 1261 0250 03C3     		stmia	r3!, {r0, r1}
 1262 0252 28A8     		add	r0, sp, #160
 1263 0254 06A9     		add	r1, sp, #24
 1264 0256 0B00     		movs	r3, r1
 1265 0258 0200     		movs	r2, r0
 1266 025a 23CA     		ldmia	r2!, {r0, r1, r5}
ARM GAS  /tmp/ccr4JylA.s 			page 38


 1267 025c 23C3     		stmia	r3!, {r0, r1, r5}
 1268 025e 03CA     		ldmia	r2!, {r0, r1}
 1269 0260 03C3     		stmia	r3!, {r0, r1}
 1270 0262 23A8     		add	r0, sp, #140
 1271 0264 01A9     		add	r1, sp, #4
 1272 0266 0B00     		movs	r3, r1
 1273 0268 0200     		movs	r2, r0
 1274 026a 23CA     		ldmia	r2!, {r0, r1, r5}
 1275 026c 23C3     		stmia	r3!, {r0, r1, r5}
 1276 026e 03CA     		ldmia	r2!, {r0, r1}
 1277 0270 03C3     		stmia	r3!, {r0, r1}
 1278 0272 229B     		ldr	r3, [sp, #136]
 1279 0274 0093     		str	r3, [sp]
 1280 0276 1E98     		ldr	r0, [sp, #120]
 1281 0278 1F99     		ldr	r1, [sp, #124]
 1282 027a 209A     		ldr	r2, [sp, #128]
 1283 027c 219B     		ldr	r3, [sp, #132]
 1284 027e FFF7FEFF 		bl	charlie
 1285              	.LVL102:
  37:Src/charlie.c ****          return;
 1286              		.loc 2 37 8 view .LVU228
  37:Src/charlie.c ****          return;
 1287              		.loc 2 37 16 is_stmt 0 view .LVU229
 1288 0282 844B     		ldr	r3, .L85
 1289 0284 1B68     		ldr	r3, [r3]
  37:Src/charlie.c ****          return;
 1290              		.loc 2 37 10 view .LVU230
 1291 0286 012B     		cmp	r3, #1
 1292 0288 00D1     		bne	.LCB1084
 1293 028a D5E6     		b	.L37	@long jump
 1294              	.LCB1084:
  39:Src/charlie.c ****        charlie(PinA, PinB, PinC, PinD, 6);
 1295              		.loc 2 39 8 is_stmt 1 view .LVU231
 1296 028c FA20     		movs	r0, #250
 1297 028e 8000     		lsls	r0, r0, #2
 1298 0290 FFF7FEFF 		bl	HAL_Delay
 1299              	.LVL103:
  40:Src/charlie.c ****        if(stop == 1)
 1300              		.loc 2 40 8 view .LVU232
 1301 0294 0623     		movs	r3, #6
 1302 0296 1093     		str	r3, [sp, #64]
 1303 0298 2DA8     		add	r0, sp, #180
 1304 029a 0BA9     		add	r1, sp, #44
 1305 029c 0B00     		movs	r3, r1
 1306 029e 0200     		movs	r2, r0
 1307 02a0 23CA     		ldmia	r2!, {r0, r1, r5}
 1308 02a2 23C3     		stmia	r3!, {r0, r1, r5}
 1309 02a4 03CA     		ldmia	r2!, {r0, r1}
 1310 02a6 03C3     		stmia	r3!, {r0, r1}
 1311 02a8 28A8     		add	r0, sp, #160
 1312 02aa 06A9     		add	r1, sp, #24
 1313 02ac 0B00     		movs	r3, r1
 1314 02ae 0200     		movs	r2, r0
 1315 02b0 23CA     		ldmia	r2!, {r0, r1, r5}
 1316 02b2 23C3     		stmia	r3!, {r0, r1, r5}
 1317 02b4 03CA     		ldmia	r2!, {r0, r1}
 1318 02b6 03C3     		stmia	r3!, {r0, r1}
ARM GAS  /tmp/ccr4JylA.s 			page 39


 1319 02b8 23A8     		add	r0, sp, #140
 1320 02ba 01A9     		add	r1, sp, #4
 1321 02bc 0B00     		movs	r3, r1
 1322 02be 0200     		movs	r2, r0
 1323 02c0 23CA     		ldmia	r2!, {r0, r1, r5}
 1324 02c2 23C3     		stmia	r3!, {r0, r1, r5}
 1325 02c4 03CA     		ldmia	r2!, {r0, r1}
 1326 02c6 03C3     		stmia	r3!, {r0, r1}
 1327 02c8 229B     		ldr	r3, [sp, #136]
 1328 02ca 0093     		str	r3, [sp]
 1329 02cc 1E98     		ldr	r0, [sp, #120]
 1330 02ce 1F99     		ldr	r1, [sp, #124]
 1331 02d0 209A     		ldr	r2, [sp, #128]
 1332 02d2 219B     		ldr	r3, [sp, #132]
 1333 02d4 FFF7FEFF 		bl	charlie
 1334              	.LVL104:
  41:Src/charlie.c ****          return;
 1335              		.loc 2 41 8 view .LVU233
  41:Src/charlie.c ****          return;
 1336              		.loc 2 41 16 is_stmt 0 view .LVU234
 1337 02d8 6E4B     		ldr	r3, .L85
 1338 02da 1B68     		ldr	r3, [r3]
  41:Src/charlie.c ****          return;
 1339              		.loc 2 41 10 view .LVU235
 1340 02dc 012B     		cmp	r3, #1
 1341 02de 00D1     		bne	.LCB1128
 1342 02e0 AAE6     		b	.L37	@long jump
 1343              	.LCB1128:
  43:Src/charlie.c ****        charlie(PinA, PinB, PinC, PinD, 7);
 1344              		.loc 2 43 8 is_stmt 1 view .LVU236
 1345 02e2 FA20     		movs	r0, #250
 1346 02e4 8000     		lsls	r0, r0, #2
 1347 02e6 FFF7FEFF 		bl	HAL_Delay
 1348              	.LVL105:
  44:Src/charlie.c ****        if(stop == 1)
 1349              		.loc 2 44 8 view .LVU237
 1350 02ea 0723     		movs	r3, #7
 1351 02ec 1093     		str	r3, [sp, #64]
 1352 02ee 2DA8     		add	r0, sp, #180
 1353 02f0 0BA9     		add	r1, sp, #44
 1354 02f2 0B00     		movs	r3, r1
 1355 02f4 0200     		movs	r2, r0
 1356 02f6 23CA     		ldmia	r2!, {r0, r1, r5}
 1357 02f8 23C3     		stmia	r3!, {r0, r1, r5}
 1358 02fa 03CA     		ldmia	r2!, {r0, r1}
 1359 02fc 03C3     		stmia	r3!, {r0, r1}
 1360 02fe 28A8     		add	r0, sp, #160
 1361 0300 06A9     		add	r1, sp, #24
 1362 0302 0B00     		movs	r3, r1
 1363 0304 0200     		movs	r2, r0
 1364 0306 23CA     		ldmia	r2!, {r0, r1, r5}
 1365 0308 23C3     		stmia	r3!, {r0, r1, r5}
 1366 030a 03CA     		ldmia	r2!, {r0, r1}
 1367 030c 03C3     		stmia	r3!, {r0, r1}
 1368 030e 23A8     		add	r0, sp, #140
 1369 0310 01A9     		add	r1, sp, #4
 1370 0312 0B00     		movs	r3, r1
ARM GAS  /tmp/ccr4JylA.s 			page 40


 1371 0314 0200     		movs	r2, r0
 1372 0316 23CA     		ldmia	r2!, {r0, r1, r5}
 1373 0318 23C3     		stmia	r3!, {r0, r1, r5}
 1374 031a 03CA     		ldmia	r2!, {r0, r1}
 1375 031c 03C3     		stmia	r3!, {r0, r1}
 1376 031e 229B     		ldr	r3, [sp, #136]
 1377 0320 0093     		str	r3, [sp]
 1378 0322 1E98     		ldr	r0, [sp, #120]
 1379 0324 1F99     		ldr	r1, [sp, #124]
 1380 0326 209A     		ldr	r2, [sp, #128]
 1381 0328 219B     		ldr	r3, [sp, #132]
 1382 032a FFF7FEFF 		bl	charlie
 1383              	.LVL106:
  45:Src/charlie.c ****          return;
 1384              		.loc 2 45 8 view .LVU238
  45:Src/charlie.c ****          return;
 1385              		.loc 2 45 16 is_stmt 0 view .LVU239
 1386 032e 594B     		ldr	r3, .L85
 1387 0330 1B68     		ldr	r3, [r3]
  45:Src/charlie.c ****          return;
 1388              		.loc 2 45 10 view .LVU240
 1389 0332 012B     		cmp	r3, #1
 1390 0334 00D1     		bne	.LCB1172
 1391 0336 7FE6     		b	.L37	@long jump
 1392              	.LCB1172:
  47:Src/charlie.c ****        charlie(PinA, PinB, PinC, PinD, 8);
 1393              		.loc 2 47 8 is_stmt 1 view .LVU241
 1394 0338 FA20     		movs	r0, #250
 1395 033a 8000     		lsls	r0, r0, #2
 1396 033c FFF7FEFF 		bl	HAL_Delay
 1397              	.LVL107:
  48:Src/charlie.c ****        if(stop == 1)
 1398              		.loc 2 48 8 view .LVU242
 1399 0340 0823     		movs	r3, #8
 1400 0342 1093     		str	r3, [sp, #64]
 1401 0344 2DA8     		add	r0, sp, #180
 1402 0346 0BA9     		add	r1, sp, #44
 1403 0348 0B00     		movs	r3, r1
 1404 034a 0200     		movs	r2, r0
 1405 034c 23CA     		ldmia	r2!, {r0, r1, r5}
 1406 034e 23C3     		stmia	r3!, {r0, r1, r5}
 1407 0350 03CA     		ldmia	r2!, {r0, r1}
 1408 0352 03C3     		stmia	r3!, {r0, r1}
 1409 0354 28A8     		add	r0, sp, #160
 1410 0356 06A9     		add	r1, sp, #24
 1411 0358 0B00     		movs	r3, r1
 1412 035a 0200     		movs	r2, r0
 1413 035c 23CA     		ldmia	r2!, {r0, r1, r5}
 1414 035e 23C3     		stmia	r3!, {r0, r1, r5}
 1415 0360 03CA     		ldmia	r2!, {r0, r1}
 1416 0362 03C3     		stmia	r3!, {r0, r1}
 1417 0364 23A8     		add	r0, sp, #140
 1418 0366 01A9     		add	r1, sp, #4
 1419 0368 0B00     		movs	r3, r1
 1420 036a 0200     		movs	r2, r0
 1421 036c 23CA     		ldmia	r2!, {r0, r1, r5}
 1422 036e 23C3     		stmia	r3!, {r0, r1, r5}
ARM GAS  /tmp/ccr4JylA.s 			page 41


 1423 0370 03CA     		ldmia	r2!, {r0, r1}
 1424 0372 03C3     		stmia	r3!, {r0, r1}
 1425 0374 229B     		ldr	r3, [sp, #136]
 1426 0376 0093     		str	r3, [sp]
 1427 0378 1E98     		ldr	r0, [sp, #120]
 1428 037a 1F99     		ldr	r1, [sp, #124]
 1429 037c 209A     		ldr	r2, [sp, #128]
 1430 037e 219B     		ldr	r3, [sp, #132]
 1431 0380 FFF7FEFF 		bl	charlie
 1432              	.LVL108:
  49:Src/charlie.c ****          return;
 1433              		.loc 2 49 8 view .LVU243
  49:Src/charlie.c ****          return;
 1434              		.loc 2 49 16 is_stmt 0 view .LVU244
 1435 0384 434B     		ldr	r3, .L85
 1436 0386 1B68     		ldr	r3, [r3]
  49:Src/charlie.c ****          return;
 1437              		.loc 2 49 10 view .LVU245
 1438 0388 012B     		cmp	r3, #1
 1439 038a 00D1     		bne	.LCB1216
 1440 038c 54E6     		b	.L37	@long jump
 1441              	.LCB1216:
  51:Src/charlie.c ****        charlie(PinA, PinB, PinC, PinD, 9);
 1442              		.loc 2 51 8 is_stmt 1 view .LVU246
 1443 038e FA20     		movs	r0, #250
 1444 0390 8000     		lsls	r0, r0, #2
 1445 0392 FFF7FEFF 		bl	HAL_Delay
 1446              	.LVL109:
  52:Src/charlie.c ****        if(stop == 1)
 1447              		.loc 2 52 8 view .LVU247
 1448 0396 0923     		movs	r3, #9
 1449 0398 1093     		str	r3, [sp, #64]
 1450 039a 2DA8     		add	r0, sp, #180
 1451 039c 0BA9     		add	r1, sp, #44
 1452 039e 0B00     		movs	r3, r1
 1453 03a0 0200     		movs	r2, r0
 1454 03a2 23CA     		ldmia	r2!, {r0, r1, r5}
 1455 03a4 23C3     		stmia	r3!, {r0, r1, r5}
 1456 03a6 03CA     		ldmia	r2!, {r0, r1}
 1457 03a8 03C3     		stmia	r3!, {r0, r1}
 1458 03aa 28A8     		add	r0, sp, #160
 1459 03ac 06A9     		add	r1, sp, #24
 1460 03ae 0B00     		movs	r3, r1
 1461 03b0 0200     		movs	r2, r0
 1462 03b2 23CA     		ldmia	r2!, {r0, r1, r5}
 1463 03b4 23C3     		stmia	r3!, {r0, r1, r5}
 1464 03b6 03CA     		ldmia	r2!, {r0, r1}
 1465 03b8 03C3     		stmia	r3!, {r0, r1}
 1466 03ba 23A8     		add	r0, sp, #140
 1467 03bc 01A9     		add	r1, sp, #4
 1468 03be 0B00     		movs	r3, r1
 1469 03c0 0200     		movs	r2, r0
 1470 03c2 23CA     		ldmia	r2!, {r0, r1, r5}
 1471 03c4 23C3     		stmia	r3!, {r0, r1, r5}
 1472 03c6 03CA     		ldmia	r2!, {r0, r1}
 1473 03c8 03C3     		stmia	r3!, {r0, r1}
 1474 03ca 229B     		ldr	r3, [sp, #136]
ARM GAS  /tmp/ccr4JylA.s 			page 42


 1475 03cc 0093     		str	r3, [sp]
 1476 03ce 1E98     		ldr	r0, [sp, #120]
 1477 03d0 1F99     		ldr	r1, [sp, #124]
 1478 03d2 209A     		ldr	r2, [sp, #128]
 1479 03d4 219B     		ldr	r3, [sp, #132]
 1480 03d6 FFF7FEFF 		bl	charlie
 1481              	.LVL110:
  53:Src/charlie.c ****          return;
 1482              		.loc 2 53 8 view .LVU248
  53:Src/charlie.c ****          return;
 1483              		.loc 2 53 16 is_stmt 0 view .LVU249
 1484 03da 2E4B     		ldr	r3, .L85
 1485 03dc 1B68     		ldr	r3, [r3]
  53:Src/charlie.c ****          return;
 1486              		.loc 2 53 10 view .LVU250
 1487 03de 012B     		cmp	r3, #1
 1488 03e0 00D1     		bne	.LCB1260
 1489 03e2 29E6     		b	.L37	@long jump
 1490              	.LCB1260:
  55:Src/charlie.c ****        charlie(PinA, PinB, PinC, PinD, 10);
 1491              		.loc 2 55 8 is_stmt 1 view .LVU251
 1492 03e4 FA20     		movs	r0, #250
 1493 03e6 8000     		lsls	r0, r0, #2
 1494 03e8 FFF7FEFF 		bl	HAL_Delay
 1495              	.LVL111:
  56:Src/charlie.c ****        if(stop == 1)
 1496              		.loc 2 56 8 view .LVU252
 1497 03ec 0A23     		movs	r3, #10
 1498 03ee 1093     		str	r3, [sp, #64]
 1499 03f0 2DA8     		add	r0, sp, #180
 1500 03f2 0BA9     		add	r1, sp, #44
 1501 03f4 0B00     		movs	r3, r1
 1502 03f6 0200     		movs	r2, r0
 1503 03f8 23CA     		ldmia	r2!, {r0, r1, r5}
 1504 03fa 23C3     		stmia	r3!, {r0, r1, r5}
 1505 03fc 03CA     		ldmia	r2!, {r0, r1}
 1506 03fe 03C3     		stmia	r3!, {r0, r1}
 1507 0400 28A8     		add	r0, sp, #160
 1508 0402 06A9     		add	r1, sp, #24
 1509 0404 0B00     		movs	r3, r1
 1510 0406 0200     		movs	r2, r0
 1511 0408 23CA     		ldmia	r2!, {r0, r1, r5}
 1512 040a 23C3     		stmia	r3!, {r0, r1, r5}
 1513 040c 03CA     		ldmia	r2!, {r0, r1}
 1514 040e 03C3     		stmia	r3!, {r0, r1}
 1515 0410 23A8     		add	r0, sp, #140
 1516 0412 01A9     		add	r1, sp, #4
 1517 0414 0B00     		movs	r3, r1
 1518 0416 0200     		movs	r2, r0
 1519 0418 23CA     		ldmia	r2!, {r0, r1, r5}
 1520 041a 23C3     		stmia	r3!, {r0, r1, r5}
 1521 041c 03CA     		ldmia	r2!, {r0, r1}
 1522 041e 03C3     		stmia	r3!, {r0, r1}
 1523 0420 229B     		ldr	r3, [sp, #136]
 1524 0422 0093     		str	r3, [sp]
 1525 0424 1E98     		ldr	r0, [sp, #120]
 1526 0426 1F99     		ldr	r1, [sp, #124]
ARM GAS  /tmp/ccr4JylA.s 			page 43


 1527 0428 209A     		ldr	r2, [sp, #128]
 1528 042a 219B     		ldr	r3, [sp, #132]
 1529 042c FFF7FEFF 		bl	charlie
 1530              	.LVL112:
  57:Src/charlie.c ****          return;
 1531              		.loc 2 57 8 view .LVU253
  57:Src/charlie.c ****          return;
 1532              		.loc 2 57 16 is_stmt 0 view .LVU254
 1533 0430 184B     		ldr	r3, .L85
 1534 0432 1B68     		ldr	r3, [r3]
  57:Src/charlie.c ****          return;
 1535              		.loc 2 57 10 view .LVU255
 1536 0434 012B     		cmp	r3, #1
 1537 0436 00D1     		bne	.LCB1304
 1538 0438 FEE5     		b	.L37	@long jump
 1539              	.LCB1304:
  59:Src/charlie.c ****        charlie(PinA, PinB, PinC, PinD, 11);
 1540              		.loc 2 59 8 is_stmt 1 view .LVU256
 1541 043a FA20     		movs	r0, #250
 1542 043c 8000     		lsls	r0, r0, #2
 1543 043e FFF7FEFF 		bl	HAL_Delay
 1544              	.LVL113:
  60:Src/charlie.c ****        if(stop == 1)
 1545              		.loc 2 60 8 view .LVU257
 1546 0442 0B23     		movs	r3, #11
 1547 0444 1093     		str	r3, [sp, #64]
 1548 0446 2DA8     		add	r0, sp, #180
 1549 0448 0BA9     		add	r1, sp, #44
 1550 044a 0B00     		movs	r3, r1
 1551 044c 0200     		movs	r2, r0
 1552 044e 23CA     		ldmia	r2!, {r0, r1, r5}
 1553 0450 23C3     		stmia	r3!, {r0, r1, r5}
 1554 0452 03CA     		ldmia	r2!, {r0, r1}
 1555 0454 03C3     		stmia	r3!, {r0, r1}
 1556 0456 28A8     		add	r0, sp, #160
 1557 0458 06A9     		add	r1, sp, #24
 1558 045a 0B00     		movs	r3, r1
 1559 045c 0200     		movs	r2, r0
 1560 045e 23CA     		ldmia	r2!, {r0, r1, r5}
 1561 0460 23C3     		stmia	r3!, {r0, r1, r5}
 1562 0462 03CA     		ldmia	r2!, {r0, r1}
 1563 0464 03C3     		stmia	r3!, {r0, r1}
 1564 0466 23A8     		add	r0, sp, #140
 1565 0468 01A9     		add	r1, sp, #4
 1566 046a 0B00     		movs	r3, r1
 1567 046c 0200     		movs	r2, r0
 1568 046e 23CA     		ldmia	r2!, {r0, r1, r5}
 1569 0470 23C3     		stmia	r3!, {r0, r1, r5}
 1570 0472 03CA     		ldmia	r2!, {r0, r1}
 1571 0474 03C3     		stmia	r3!, {r0, r1}
 1572 0476 229B     		ldr	r3, [sp, #136]
 1573 0478 0093     		str	r3, [sp]
 1574 047a 1E98     		ldr	r0, [sp, #120]
 1575 047c 1F99     		ldr	r1, [sp, #124]
 1576 047e 209A     		ldr	r2, [sp, #128]
 1577 0480 219B     		ldr	r3, [sp, #132]
 1578 0482 FFF7FEFF 		bl	charlie
ARM GAS  /tmp/ccr4JylA.s 			page 44


 1579              	.LVL114:
  61:Src/charlie.c ****          return;
 1580              		.loc 2 61 8 view .LVU258
  61:Src/charlie.c ****          return;
 1581              		.loc 2 61 16 is_stmt 0 view .LVU259
 1582 0486 034B     		ldr	r3, .L85
 1583 0488 1B68     		ldr	r3, [r3]
  61:Src/charlie.c ****          return;
 1584              		.loc 2 61 10 view .LVU260
 1585 048a 012B     		cmp	r3, #1
 1586 048c 00D1     		bne	.LCB1348
 1587 048e D3E5     		b	.L37	@long jump
 1588              	.LCB1348:
 1589 0490 02E0     		b	.L86
 1590              	.L87:
 1591 0492 C046     		.align	2
 1592              	.L85:
 1593 0494 00000000 		.word	.LANCHOR0
 1594              	.L86:
  63:Src/charlie.c ****        charlie(PinA, PinB, PinC, PinD, 12);
 1595              		.loc 2 63 8 is_stmt 1 view .LVU261
 1596 0498 FA20     		movs	r0, #250
 1597 049a 8000     		lsls	r0, r0, #2
 1598 049c FFF7FEFF 		bl	HAL_Delay
 1599              	.LVL115:
  64:Src/charlie.c ****        if(stop == 1)
 1600              		.loc 2 64 8 view .LVU262
 1601 04a0 0C23     		movs	r3, #12
 1602 04a2 1093     		str	r3, [sp, #64]
 1603 04a4 2DA8     		add	r0, sp, #180
 1604 04a6 0BA9     		add	r1, sp, #44
 1605 04a8 0B00     		movs	r3, r1
 1606 04aa 0200     		movs	r2, r0
 1607 04ac 23CA     		ldmia	r2!, {r0, r1, r5}
 1608 04ae 23C3     		stmia	r3!, {r0, r1, r5}
 1609 04b0 03CA     		ldmia	r2!, {r0, r1}
 1610 04b2 03C3     		stmia	r3!, {r0, r1}
 1611 04b4 28A8     		add	r0, sp, #160
 1612 04b6 06A9     		add	r1, sp, #24
 1613 04b8 0B00     		movs	r3, r1
 1614 04ba 0200     		movs	r2, r0
 1615 04bc 23CA     		ldmia	r2!, {r0, r1, r5}
 1616 04be 23C3     		stmia	r3!, {r0, r1, r5}
 1617 04c0 03CA     		ldmia	r2!, {r0, r1}
 1618 04c2 03C3     		stmia	r3!, {r0, r1}
 1619 04c4 23A8     		add	r0, sp, #140
 1620 04c6 01A9     		add	r1, sp, #4
 1621 04c8 0B00     		movs	r3, r1
 1622 04ca 0200     		movs	r2, r0
 1623 04cc 23CA     		ldmia	r2!, {r0, r1, r5}
 1624 04ce 23C3     		stmia	r3!, {r0, r1, r5}
 1625 04d0 03CA     		ldmia	r2!, {r0, r1}
 1626 04d2 03C3     		stmia	r3!, {r0, r1}
 1627 04d4 229B     		ldr	r3, [sp, #136]
 1628 04d6 0093     		str	r3, [sp]
 1629 04d8 1E98     		ldr	r0, [sp, #120]
 1630 04da 1F99     		ldr	r1, [sp, #124]
ARM GAS  /tmp/ccr4JylA.s 			page 45


 1631 04dc 209A     		ldr	r2, [sp, #128]
 1632 04de 219B     		ldr	r3, [sp, #132]
 1633 04e0 FFF7FEFF 		bl	charlie
 1634              	.LVL116:
  65:Src/charlie.c ****          return;
 1635              		.loc 2 65 8 view .LVU263
  65:Src/charlie.c ****          return;
 1636              		.loc 2 65 16 is_stmt 0 view .LVU264
 1637 04e4 044B     		ldr	r3, .L88
 1638 04e6 1B68     		ldr	r3, [r3]
  65:Src/charlie.c ****          return;
 1639              		.loc 2 65 10 view .LVU265
 1640 04e8 012B     		cmp	r3, #1
 1641 04ea 00D1     		bne	.LCB1401
 1642 04ec A4E5     		b	.L37	@long jump
 1643              	.LCB1401:
  67:Src/charlie.c ****    }
 1644              		.loc 2 67 8 is_stmt 1 view .LVU266
 1645 04ee FA20     		movs	r0, #250
 1646 04f0 8000     		lsls	r0, r0, #2
 1647 04f2 FFF7FEFF 		bl	HAL_Delay
 1648              	.LVL117:
 1649 04f6 94E5     		b	.L39
 1650              	.L89:
 1651              		.align	2
 1652              	.L88:
 1653 04f8 00000000 		.word	.LANCHOR0
 1654              	.L74:
  72:Src/charlie.c ****        if(stop == 1)
 1655              		.loc 2 72 8 view .LVU267
 1656 04fc 0023     		movs	r3, #0
 1657 04fe 1093     		str	r3, [sp, #64]
 1658 0500 2DA8     		add	r0, sp, #180
 1659 0502 0BA9     		add	r1, sp, #44
 1660 0504 0B00     		movs	r3, r1
 1661 0506 0200     		movs	r2, r0
 1662 0508 23CA     		ldmia	r2!, {r0, r1, r5}
 1663 050a 23C3     		stmia	r3!, {r0, r1, r5}
 1664 050c 03CA     		ldmia	r2!, {r0, r1}
 1665 050e 03C3     		stmia	r3!, {r0, r1}
 1666 0510 28A8     		add	r0, sp, #160
 1667 0512 06A9     		add	r1, sp, #24
 1668 0514 0B00     		movs	r3, r1
 1669 0516 0200     		movs	r2, r0
 1670 0518 23CA     		ldmia	r2!, {r0, r1, r5}
 1671 051a 23C3     		stmia	r3!, {r0, r1, r5}
 1672 051c 03CA     		ldmia	r2!, {r0, r1}
 1673 051e 03C3     		stmia	r3!, {r0, r1}
 1674 0520 23A8     		add	r0, sp, #140
 1675 0522 01A9     		add	r1, sp, #4
 1676 0524 0B00     		movs	r3, r1
 1677 0526 0200     		movs	r2, r0
 1678 0528 23CA     		ldmia	r2!, {r0, r1, r5}
 1679 052a 23C3     		stmia	r3!, {r0, r1, r5}
 1680 052c 03CA     		ldmia	r2!, {r0, r1}
 1681 052e 03C3     		stmia	r3!, {r0, r1}
 1682 0530 229B     		ldr	r3, [sp, #136]
ARM GAS  /tmp/ccr4JylA.s 			page 46


 1683 0532 0093     		str	r3, [sp]
 1684 0534 1E98     		ldr	r0, [sp, #120]
 1685 0536 1F99     		ldr	r1, [sp, #124]
 1686 0538 209A     		ldr	r2, [sp, #128]
 1687 053a 219B     		ldr	r3, [sp, #132]
 1688 053c FFF7FEFF 		bl	charlie
 1689              	.LVL118:
  73:Src/charlie.c ****          return;
 1690              		.loc 2 73 8 view .LVU268
  73:Src/charlie.c ****          return;
 1691              		.loc 2 73 16 is_stmt 0 view .LVU269
 1692 0540 F04B     		ldr	r3, .L90
 1693 0542 1B68     		ldr	r3, [r3]
  73:Src/charlie.c ****          return;
 1694              		.loc 2 73 10 view .LVU270
 1695 0544 012B     		cmp	r3, #1
 1696 0546 00D1     		bne	.LCB1455
 1697 0548 76E5     		b	.L37	@long jump
 1698              	.LCB1455:
  75:Src/charlie.c ****        charlie(PinA, PinB, PinC, PinD, 1);
 1699              		.loc 2 75 8 is_stmt 1 view .LVU271
 1700 054a FA20     		movs	r0, #250
 1701 054c 4000     		lsls	r0, r0, #1
 1702 054e FFF7FEFF 		bl	HAL_Delay
 1703              	.LVL119:
  76:Src/charlie.c ****        if(stop == 1)
 1704              		.loc 2 76 8 view .LVU272
 1705 0552 0123     		movs	r3, #1
 1706 0554 1093     		str	r3, [sp, #64]
 1707 0556 2DA8     		add	r0, sp, #180
 1708 0558 0BA9     		add	r1, sp, #44
 1709 055a 0B00     		movs	r3, r1
 1710 055c 0200     		movs	r2, r0
 1711 055e 23CA     		ldmia	r2!, {r0, r1, r5}
 1712 0560 23C3     		stmia	r3!, {r0, r1, r5}
 1713 0562 03CA     		ldmia	r2!, {r0, r1}
 1714 0564 03C3     		stmia	r3!, {r0, r1}
 1715 0566 28A8     		add	r0, sp, #160
 1716 0568 06A9     		add	r1, sp, #24
 1717 056a 0B00     		movs	r3, r1
 1718 056c 0200     		movs	r2, r0
 1719 056e 23CA     		ldmia	r2!, {r0, r1, r5}
 1720 0570 23C3     		stmia	r3!, {r0, r1, r5}
 1721 0572 03CA     		ldmia	r2!, {r0, r1}
 1722 0574 03C3     		stmia	r3!, {r0, r1}
 1723 0576 23A8     		add	r0, sp, #140
 1724 0578 01A9     		add	r1, sp, #4
 1725 057a 0B00     		movs	r3, r1
 1726 057c 0200     		movs	r2, r0
 1727 057e 23CA     		ldmia	r2!, {r0, r1, r5}
 1728 0580 23C3     		stmia	r3!, {r0, r1, r5}
 1729 0582 03CA     		ldmia	r2!, {r0, r1}
 1730 0584 03C3     		stmia	r3!, {r0, r1}
 1731 0586 229B     		ldr	r3, [sp, #136]
 1732 0588 0093     		str	r3, [sp]
 1733 058a 1E98     		ldr	r0, [sp, #120]
 1734 058c 1F99     		ldr	r1, [sp, #124]
ARM GAS  /tmp/ccr4JylA.s 			page 47


 1735 058e 209A     		ldr	r2, [sp, #128]
 1736 0590 219B     		ldr	r3, [sp, #132]
 1737 0592 FFF7FEFF 		bl	charlie
 1738              	.LVL120:
  77:Src/charlie.c ****          return;
 1739              		.loc 2 77 8 view .LVU273
  77:Src/charlie.c ****          return;
 1740              		.loc 2 77 16 is_stmt 0 view .LVU274
 1741 0596 DB4B     		ldr	r3, .L90
 1742 0598 1B68     		ldr	r3, [r3]
  77:Src/charlie.c ****          return;
 1743              		.loc 2 77 10 view .LVU275
 1744 059a 012B     		cmp	r3, #1
 1745 059c 00D1     		bne	.LCB1499
 1746 059e 4BE5     		b	.L37	@long jump
 1747              	.LCB1499:
  79:Src/charlie.c ****        charlie(PinA, PinB, PinC, PinD, 2);
 1748              		.loc 2 79 8 is_stmt 1 view .LVU276
 1749 05a0 FA20     		movs	r0, #250
 1750 05a2 4000     		lsls	r0, r0, #1
 1751 05a4 FFF7FEFF 		bl	HAL_Delay
 1752              	.LVL121:
  80:Src/charlie.c ****        if(stop == 1)
 1753              		.loc 2 80 8 view .LVU277
 1754 05a8 0223     		movs	r3, #2
 1755 05aa 1093     		str	r3, [sp, #64]
 1756 05ac 2DA8     		add	r0, sp, #180
 1757 05ae 0BA9     		add	r1, sp, #44
 1758 05b0 0B00     		movs	r3, r1
 1759 05b2 0200     		movs	r2, r0
 1760 05b4 23CA     		ldmia	r2!, {r0, r1, r5}
 1761 05b6 23C3     		stmia	r3!, {r0, r1, r5}
 1762 05b8 03CA     		ldmia	r2!, {r0, r1}
 1763 05ba 03C3     		stmia	r3!, {r0, r1}
 1764 05bc 28A8     		add	r0, sp, #160
 1765 05be 06A9     		add	r1, sp, #24
 1766 05c0 0B00     		movs	r3, r1
 1767 05c2 0200     		movs	r2, r0
 1768 05c4 23CA     		ldmia	r2!, {r0, r1, r5}
 1769 05c6 23C3     		stmia	r3!, {r0, r1, r5}
 1770 05c8 03CA     		ldmia	r2!, {r0, r1}
 1771 05ca 03C3     		stmia	r3!, {r0, r1}
 1772 05cc 23A8     		add	r0, sp, #140
 1773 05ce 01A9     		add	r1, sp, #4
 1774 05d0 0B00     		movs	r3, r1
 1775 05d2 0200     		movs	r2, r0
 1776 05d4 23CA     		ldmia	r2!, {r0, r1, r5}
 1777 05d6 23C3     		stmia	r3!, {r0, r1, r5}
 1778 05d8 03CA     		ldmia	r2!, {r0, r1}
 1779 05da 03C3     		stmia	r3!, {r0, r1}
 1780 05dc 229B     		ldr	r3, [sp, #136]
 1781 05de 0093     		str	r3, [sp]
 1782 05e0 1E98     		ldr	r0, [sp, #120]
 1783 05e2 1F99     		ldr	r1, [sp, #124]
 1784 05e4 209A     		ldr	r2, [sp, #128]
 1785 05e6 219B     		ldr	r3, [sp, #132]
 1786 05e8 FFF7FEFF 		bl	charlie
ARM GAS  /tmp/ccr4JylA.s 			page 48


 1787              	.LVL122:
  81:Src/charlie.c ****          return;
 1788              		.loc 2 81 8 view .LVU278
  81:Src/charlie.c ****          return;
 1789              		.loc 2 81 16 is_stmt 0 view .LVU279
 1790 05ec C54B     		ldr	r3, .L90
 1791 05ee 1B68     		ldr	r3, [r3]
  81:Src/charlie.c ****          return;
 1792              		.loc 2 81 10 view .LVU280
 1793 05f0 012B     		cmp	r3, #1
 1794 05f2 00D1     		bne	.LCB1543
 1795 05f4 20E5     		b	.L37	@long jump
 1796              	.LCB1543:
  83:Src/charlie.c ****        charlie(PinA, PinB, PinC, PinD, 3);
 1797              		.loc 2 83 8 is_stmt 1 view .LVU281
 1798 05f6 FA20     		movs	r0, #250
 1799 05f8 4000     		lsls	r0, r0, #1
 1800 05fa FFF7FEFF 		bl	HAL_Delay
 1801              	.LVL123:
  84:Src/charlie.c ****        if(stop == 1)
 1802              		.loc 2 84 8 view .LVU282
 1803 05fe 0323     		movs	r3, #3
 1804 0600 1093     		str	r3, [sp, #64]
 1805 0602 2DA8     		add	r0, sp, #180
 1806 0604 0BA9     		add	r1, sp, #44
 1807 0606 0B00     		movs	r3, r1
 1808 0608 0200     		movs	r2, r0
 1809 060a 23CA     		ldmia	r2!, {r0, r1, r5}
 1810 060c 23C3     		stmia	r3!, {r0, r1, r5}
 1811 060e 03CA     		ldmia	r2!, {r0, r1}
 1812 0610 03C3     		stmia	r3!, {r0, r1}
 1813 0612 28A8     		add	r0, sp, #160
 1814 0614 06A9     		add	r1, sp, #24
 1815 0616 0B00     		movs	r3, r1
 1816 0618 0200     		movs	r2, r0
 1817 061a 23CA     		ldmia	r2!, {r0, r1, r5}
 1818 061c 23C3     		stmia	r3!, {r0, r1, r5}
 1819 061e 03CA     		ldmia	r2!, {r0, r1}
 1820 0620 03C3     		stmia	r3!, {r0, r1}
 1821 0622 23A8     		add	r0, sp, #140
 1822 0624 01A9     		add	r1, sp, #4
 1823 0626 0B00     		movs	r3, r1
 1824 0628 0200     		movs	r2, r0
 1825 062a 23CA     		ldmia	r2!, {r0, r1, r5}
 1826 062c 23C3     		stmia	r3!, {r0, r1, r5}
 1827 062e 03CA     		ldmia	r2!, {r0, r1}
 1828 0630 03C3     		stmia	r3!, {r0, r1}
 1829 0632 229B     		ldr	r3, [sp, #136]
 1830 0634 0093     		str	r3, [sp]
 1831 0636 1E98     		ldr	r0, [sp, #120]
 1832 0638 1F99     		ldr	r1, [sp, #124]
 1833 063a 209A     		ldr	r2, [sp, #128]
 1834 063c 219B     		ldr	r3, [sp, #132]
 1835 063e FFF7FEFF 		bl	charlie
 1836              	.LVL124:
  85:Src/charlie.c ****          return;
 1837              		.loc 2 85 8 view .LVU283
ARM GAS  /tmp/ccr4JylA.s 			page 49


  85:Src/charlie.c ****          return;
 1838              		.loc 2 85 16 is_stmt 0 view .LVU284
 1839 0642 B04B     		ldr	r3, .L90
 1840 0644 1B68     		ldr	r3, [r3]
  85:Src/charlie.c ****          return;
 1841              		.loc 2 85 10 view .LVU285
 1842 0646 012B     		cmp	r3, #1
 1843 0648 00D1     		bne	.LCB1587
 1844 064a F5E4     		b	.L37	@long jump
 1845              	.LCB1587:
  87:Src/charlie.c ****        charlie(PinA, PinB, PinC, PinD, 4);
 1846              		.loc 2 87 8 is_stmt 1 view .LVU286
 1847 064c FA20     		movs	r0, #250
 1848 064e 4000     		lsls	r0, r0, #1
 1849 0650 FFF7FEFF 		bl	HAL_Delay
 1850              	.LVL125:
  88:Src/charlie.c ****        if(stop == 1)
 1851              		.loc 2 88 8 view .LVU287
 1852 0654 0423     		movs	r3, #4
 1853 0656 1093     		str	r3, [sp, #64]
 1854 0658 2DA8     		add	r0, sp, #180
 1855 065a 0BA9     		add	r1, sp, #44
 1856 065c 0B00     		movs	r3, r1
 1857 065e 0200     		movs	r2, r0
 1858 0660 23CA     		ldmia	r2!, {r0, r1, r5}
 1859 0662 23C3     		stmia	r3!, {r0, r1, r5}
 1860 0664 03CA     		ldmia	r2!, {r0, r1}
 1861 0666 03C3     		stmia	r3!, {r0, r1}
 1862 0668 28A8     		add	r0, sp, #160
 1863 066a 06A9     		add	r1, sp, #24
 1864 066c 0B00     		movs	r3, r1
 1865 066e 0200     		movs	r2, r0
 1866 0670 23CA     		ldmia	r2!, {r0, r1, r5}
 1867 0672 23C3     		stmia	r3!, {r0, r1, r5}
 1868 0674 03CA     		ldmia	r2!, {r0, r1}
 1869 0676 03C3     		stmia	r3!, {r0, r1}
 1870 0678 23A8     		add	r0, sp, #140
 1871 067a 01A9     		add	r1, sp, #4
 1872 067c 0B00     		movs	r3, r1
 1873 067e 0200     		movs	r2, r0
 1874 0680 23CA     		ldmia	r2!, {r0, r1, r5}
 1875 0682 23C3     		stmia	r3!, {r0, r1, r5}
 1876 0684 03CA     		ldmia	r2!, {r0, r1}
 1877 0686 03C3     		stmia	r3!, {r0, r1}
 1878 0688 229B     		ldr	r3, [sp, #136]
 1879 068a 0093     		str	r3, [sp]
 1880 068c 1E98     		ldr	r0, [sp, #120]
 1881 068e 1F99     		ldr	r1, [sp, #124]
 1882 0690 209A     		ldr	r2, [sp, #128]
 1883 0692 219B     		ldr	r3, [sp, #132]
 1884 0694 FFF7FEFF 		bl	charlie
 1885              	.LVL126:
  89:Src/charlie.c ****          return;
 1886              		.loc 2 89 8 view .LVU288
  89:Src/charlie.c ****          return;
 1887              		.loc 2 89 16 is_stmt 0 view .LVU289
 1888 0698 9A4B     		ldr	r3, .L90
ARM GAS  /tmp/ccr4JylA.s 			page 50


 1889 069a 1B68     		ldr	r3, [r3]
  89:Src/charlie.c ****          return;
 1890              		.loc 2 89 10 view .LVU290
 1891 069c 012B     		cmp	r3, #1
 1892 069e 00D1     		bne	.LCB1631
 1893 06a0 CAE4     		b	.L37	@long jump
 1894              	.LCB1631:
  91:Src/charlie.c ****        charlie(PinA, PinB, PinC, PinD, 5);
 1895              		.loc 2 91 8 is_stmt 1 view .LVU291
 1896 06a2 FA20     		movs	r0, #250
 1897 06a4 4000     		lsls	r0, r0, #1
 1898 06a6 FFF7FEFF 		bl	HAL_Delay
 1899              	.LVL127:
  92:Src/charlie.c ****        if(stop == 1)
 1900              		.loc 2 92 8 view .LVU292
 1901 06aa 0523     		movs	r3, #5
 1902 06ac 1093     		str	r3, [sp, #64]
 1903 06ae 2DA8     		add	r0, sp, #180
 1904 06b0 0BA9     		add	r1, sp, #44
 1905 06b2 0B00     		movs	r3, r1
 1906 06b4 0200     		movs	r2, r0
 1907 06b6 23CA     		ldmia	r2!, {r0, r1, r5}
 1908 06b8 23C3     		stmia	r3!, {r0, r1, r5}
 1909 06ba 03CA     		ldmia	r2!, {r0, r1}
 1910 06bc 03C3     		stmia	r3!, {r0, r1}
 1911 06be 28A8     		add	r0, sp, #160
 1912 06c0 06A9     		add	r1, sp, #24
 1913 06c2 0B00     		movs	r3, r1
 1914 06c4 0200     		movs	r2, r0
 1915 06c6 23CA     		ldmia	r2!, {r0, r1, r5}
 1916 06c8 23C3     		stmia	r3!, {r0, r1, r5}
 1917 06ca 03CA     		ldmia	r2!, {r0, r1}
 1918 06cc 03C3     		stmia	r3!, {r0, r1}
 1919 06ce 23A8     		add	r0, sp, #140
 1920 06d0 01A9     		add	r1, sp, #4
 1921 06d2 0B00     		movs	r3, r1
 1922 06d4 0200     		movs	r2, r0
 1923 06d6 23CA     		ldmia	r2!, {r0, r1, r5}
 1924 06d8 23C3     		stmia	r3!, {r0, r1, r5}
 1925 06da 03CA     		ldmia	r2!, {r0, r1}
 1926 06dc 03C3     		stmia	r3!, {r0, r1}
 1927 06de 229B     		ldr	r3, [sp, #136]
 1928 06e0 0093     		str	r3, [sp]
 1929 06e2 1E98     		ldr	r0, [sp, #120]
 1930 06e4 1F99     		ldr	r1, [sp, #124]
 1931 06e6 209A     		ldr	r2, [sp, #128]
 1932 06e8 219B     		ldr	r3, [sp, #132]
 1933 06ea FFF7FEFF 		bl	charlie
 1934              	.LVL128:
  93:Src/charlie.c ****          return;
 1935              		.loc 2 93 8 view .LVU293
  93:Src/charlie.c ****          return;
 1936              		.loc 2 93 16 is_stmt 0 view .LVU294
 1937 06ee 854B     		ldr	r3, .L90
 1938 06f0 1B68     		ldr	r3, [r3]
  93:Src/charlie.c ****          return;
 1939              		.loc 2 93 10 view .LVU295
ARM GAS  /tmp/ccr4JylA.s 			page 51


 1940 06f2 012B     		cmp	r3, #1
 1941 06f4 00D1     		bne	.LCB1675
 1942 06f6 9FE4     		b	.L37	@long jump
 1943              	.LCB1675:
  95:Src/charlie.c ****        charlie(PinA, PinB, PinC, PinD, 6);
 1944              		.loc 2 95 8 is_stmt 1 view .LVU296
 1945 06f8 FA20     		movs	r0, #250
 1946 06fa 4000     		lsls	r0, r0, #1
 1947 06fc FFF7FEFF 		bl	HAL_Delay
 1948              	.LVL129:
  96:Src/charlie.c ****        if(stop == 1)
 1949              		.loc 2 96 8 view .LVU297
 1950 0700 0623     		movs	r3, #6
 1951 0702 1093     		str	r3, [sp, #64]
 1952 0704 2DA8     		add	r0, sp, #180
 1953 0706 0BA9     		add	r1, sp, #44
 1954 0708 0B00     		movs	r3, r1
 1955 070a 0200     		movs	r2, r0
 1956 070c 23CA     		ldmia	r2!, {r0, r1, r5}
 1957 070e 23C3     		stmia	r3!, {r0, r1, r5}
 1958 0710 03CA     		ldmia	r2!, {r0, r1}
 1959 0712 03C3     		stmia	r3!, {r0, r1}
 1960 0714 28A8     		add	r0, sp, #160
 1961 0716 06A9     		add	r1, sp, #24
 1962 0718 0B00     		movs	r3, r1
 1963 071a 0200     		movs	r2, r0
 1964 071c 23CA     		ldmia	r2!, {r0, r1, r5}
 1965 071e 23C3     		stmia	r3!, {r0, r1, r5}
 1966 0720 03CA     		ldmia	r2!, {r0, r1}
 1967 0722 03C3     		stmia	r3!, {r0, r1}
 1968 0724 23A8     		add	r0, sp, #140
 1969 0726 01A9     		add	r1, sp, #4
 1970 0728 0B00     		movs	r3, r1
 1971 072a 0200     		movs	r2, r0
 1972 072c 23CA     		ldmia	r2!, {r0, r1, r5}
 1973 072e 23C3     		stmia	r3!, {r0, r1, r5}
 1974 0730 03CA     		ldmia	r2!, {r0, r1}
 1975 0732 03C3     		stmia	r3!, {r0, r1}
 1976 0734 229B     		ldr	r3, [sp, #136]
 1977 0736 0093     		str	r3, [sp]
 1978 0738 1E98     		ldr	r0, [sp, #120]
 1979 073a 1F99     		ldr	r1, [sp, #124]
 1980 073c 209A     		ldr	r2, [sp, #128]
 1981 073e 219B     		ldr	r3, [sp, #132]
 1982 0740 FFF7FEFF 		bl	charlie
 1983              	.LVL130:
  97:Src/charlie.c ****          return;
 1984              		.loc 2 97 8 view .LVU298
  97:Src/charlie.c ****          return;
 1985              		.loc 2 97 16 is_stmt 0 view .LVU299
 1986 0744 6F4B     		ldr	r3, .L90
 1987 0746 1B68     		ldr	r3, [r3]
  97:Src/charlie.c ****          return;
 1988              		.loc 2 97 10 view .LVU300
 1989 0748 012B     		cmp	r3, #1
 1990 074a 00D1     		bne	.LCB1719
 1991 074c 74E4     		b	.L37	@long jump
ARM GAS  /tmp/ccr4JylA.s 			page 52


 1992              	.LCB1719:
  99:Src/charlie.c ****        charlie(PinA, PinB, PinC, PinD, 7);
 1993              		.loc 2 99 8 is_stmt 1 view .LVU301
 1994 074e FA20     		movs	r0, #250
 1995 0750 4000     		lsls	r0, r0, #1
 1996 0752 FFF7FEFF 		bl	HAL_Delay
 1997              	.LVL131:
 100:Src/charlie.c ****        if(stop == 1)
 1998              		.loc 2 100 8 view .LVU302
 1999 0756 0723     		movs	r3, #7
 2000 0758 1093     		str	r3, [sp, #64]
 2001 075a 2DA8     		add	r0, sp, #180
 2002 075c 0BA9     		add	r1, sp, #44
 2003 075e 0B00     		movs	r3, r1
 2004 0760 0200     		movs	r2, r0
 2005 0762 23CA     		ldmia	r2!, {r0, r1, r5}
 2006 0764 23C3     		stmia	r3!, {r0, r1, r5}
 2007 0766 03CA     		ldmia	r2!, {r0, r1}
 2008 0768 03C3     		stmia	r3!, {r0, r1}
 2009 076a 28A8     		add	r0, sp, #160
 2010 076c 06A9     		add	r1, sp, #24
 2011 076e 0B00     		movs	r3, r1
 2012 0770 0200     		movs	r2, r0
 2013 0772 23CA     		ldmia	r2!, {r0, r1, r5}
 2014 0774 23C3     		stmia	r3!, {r0, r1, r5}
 2015 0776 03CA     		ldmia	r2!, {r0, r1}
 2016 0778 03C3     		stmia	r3!, {r0, r1}
 2017 077a 23A8     		add	r0, sp, #140
 2018 077c 01A9     		add	r1, sp, #4
 2019 077e 0B00     		movs	r3, r1
 2020 0780 0200     		movs	r2, r0
 2021 0782 23CA     		ldmia	r2!, {r0, r1, r5}
 2022 0784 23C3     		stmia	r3!, {r0, r1, r5}
 2023 0786 03CA     		ldmia	r2!, {r0, r1}
 2024 0788 03C3     		stmia	r3!, {r0, r1}
 2025 078a 229B     		ldr	r3, [sp, #136]
 2026 078c 0093     		str	r3, [sp]
 2027 078e 1E98     		ldr	r0, [sp, #120]
 2028 0790 1F99     		ldr	r1, [sp, #124]
 2029 0792 209A     		ldr	r2, [sp, #128]
 2030 0794 219B     		ldr	r3, [sp, #132]
 2031 0796 FFF7FEFF 		bl	charlie
 2032              	.LVL132:
 101:Src/charlie.c ****          return;
 2033              		.loc 2 101 8 view .LVU303
 101:Src/charlie.c ****          return;
 2034              		.loc 2 101 16 is_stmt 0 view .LVU304
 2035 079a 5A4B     		ldr	r3, .L90
 2036 079c 1B68     		ldr	r3, [r3]
 101:Src/charlie.c ****          return;
 2037              		.loc 2 101 10 view .LVU305
 2038 079e 012B     		cmp	r3, #1
 2039 07a0 00D1     		bne	.LCB1763
 2040 07a2 49E4     		b	.L37	@long jump
 2041              	.LCB1763:
 103:Src/charlie.c ****        charlie(PinA, PinB, PinC, PinD, 8);
 2042              		.loc 2 103 8 is_stmt 1 view .LVU306
ARM GAS  /tmp/ccr4JylA.s 			page 53


 2043 07a4 FA20     		movs	r0, #250
 2044 07a6 4000     		lsls	r0, r0, #1
 2045 07a8 FFF7FEFF 		bl	HAL_Delay
 2046              	.LVL133:
 104:Src/charlie.c ****        if(stop == 1)
 2047              		.loc 2 104 8 view .LVU307
 2048 07ac 0823     		movs	r3, #8
 2049 07ae 1093     		str	r3, [sp, #64]
 2050 07b0 2DA8     		add	r0, sp, #180
 2051 07b2 0BA9     		add	r1, sp, #44
 2052 07b4 0B00     		movs	r3, r1
 2053 07b6 0200     		movs	r2, r0
 2054 07b8 23CA     		ldmia	r2!, {r0, r1, r5}
 2055 07ba 23C3     		stmia	r3!, {r0, r1, r5}
 2056 07bc 03CA     		ldmia	r2!, {r0, r1}
 2057 07be 03C3     		stmia	r3!, {r0, r1}
 2058 07c0 28A8     		add	r0, sp, #160
 2059 07c2 06A9     		add	r1, sp, #24
 2060 07c4 0B00     		movs	r3, r1
 2061 07c6 0200     		movs	r2, r0
 2062 07c8 23CA     		ldmia	r2!, {r0, r1, r5}
 2063 07ca 23C3     		stmia	r3!, {r0, r1, r5}
 2064 07cc 03CA     		ldmia	r2!, {r0, r1}
 2065 07ce 03C3     		stmia	r3!, {r0, r1}
 2066 07d0 23A8     		add	r0, sp, #140
 2067 07d2 01A9     		add	r1, sp, #4
 2068 07d4 0B00     		movs	r3, r1
 2069 07d6 0200     		movs	r2, r0
 2070 07d8 23CA     		ldmia	r2!, {r0, r1, r5}
 2071 07da 23C3     		stmia	r3!, {r0, r1, r5}
 2072 07dc 03CA     		ldmia	r2!, {r0, r1}
 2073 07de 03C3     		stmia	r3!, {r0, r1}
 2074 07e0 229B     		ldr	r3, [sp, #136]
 2075 07e2 0093     		str	r3, [sp]
 2076 07e4 1E98     		ldr	r0, [sp, #120]
 2077 07e6 1F99     		ldr	r1, [sp, #124]
 2078 07e8 209A     		ldr	r2, [sp, #128]
 2079 07ea 219B     		ldr	r3, [sp, #132]
 2080 07ec FFF7FEFF 		bl	charlie
 2081              	.LVL134:
 105:Src/charlie.c ****          return;
 2082              		.loc 2 105 8 view .LVU308
 105:Src/charlie.c ****          return;
 2083              		.loc 2 105 16 is_stmt 0 view .LVU309
 2084 07f0 444B     		ldr	r3, .L90
 2085 07f2 1B68     		ldr	r3, [r3]
 105:Src/charlie.c ****          return;
 2086              		.loc 2 105 10 view .LVU310
 2087 07f4 012B     		cmp	r3, #1
 2088 07f6 00D1     		bne	.LCB1807
 2089 07f8 1EE4     		b	.L37	@long jump
 2090              	.LCB1807:
 107:Src/charlie.c ****        charlie(PinA, PinB, PinC, PinD, 9);
 2091              		.loc 2 107 8 is_stmt 1 view .LVU311
 2092 07fa FA20     		movs	r0, #250
 2093 07fc 4000     		lsls	r0, r0, #1
 2094 07fe FFF7FEFF 		bl	HAL_Delay
ARM GAS  /tmp/ccr4JylA.s 			page 54


 2095              	.LVL135:
 108:Src/charlie.c ****        if(stop == 1)
 2096              		.loc 2 108 8 view .LVU312
 2097 0802 0923     		movs	r3, #9
 2098 0804 1093     		str	r3, [sp, #64]
 2099 0806 2DA8     		add	r0, sp, #180
 2100 0808 0BA9     		add	r1, sp, #44
 2101 080a 0B00     		movs	r3, r1
 2102 080c 0200     		movs	r2, r0
 2103 080e 23CA     		ldmia	r2!, {r0, r1, r5}
 2104 0810 23C3     		stmia	r3!, {r0, r1, r5}
 2105 0812 03CA     		ldmia	r2!, {r0, r1}
 2106 0814 03C3     		stmia	r3!, {r0, r1}
 2107 0816 28A8     		add	r0, sp, #160
 2108 0818 06A9     		add	r1, sp, #24
 2109 081a 0B00     		movs	r3, r1
 2110 081c 0200     		movs	r2, r0
 2111 081e 23CA     		ldmia	r2!, {r0, r1, r5}
 2112 0820 23C3     		stmia	r3!, {r0, r1, r5}
 2113 0822 03CA     		ldmia	r2!, {r0, r1}
 2114 0824 03C3     		stmia	r3!, {r0, r1}
 2115 0826 23A8     		add	r0, sp, #140
 2116 0828 01A9     		add	r1, sp, #4
 2117 082a 0B00     		movs	r3, r1
 2118 082c 0200     		movs	r2, r0
 2119 082e 23CA     		ldmia	r2!, {r0, r1, r5}
 2120 0830 23C3     		stmia	r3!, {r0, r1, r5}
 2121 0832 03CA     		ldmia	r2!, {r0, r1}
 2122 0834 03C3     		stmia	r3!, {r0, r1}
 2123 0836 229B     		ldr	r3, [sp, #136]
 2124 0838 0093     		str	r3, [sp]
 2125 083a 1E98     		ldr	r0, [sp, #120]
 2126 083c 1F99     		ldr	r1, [sp, #124]
 2127 083e 209A     		ldr	r2, [sp, #128]
 2128 0840 219B     		ldr	r3, [sp, #132]
 2129 0842 FFF7FEFF 		bl	charlie
 2130              	.LVL136:
 109:Src/charlie.c ****          return;
 2131              		.loc 2 109 8 view .LVU313
 109:Src/charlie.c ****          return;
 2132              		.loc 2 109 16 is_stmt 0 view .LVU314
 2133 0846 2F4B     		ldr	r3, .L90
 2134 0848 1B68     		ldr	r3, [r3]
 109:Src/charlie.c ****          return;
 2135              		.loc 2 109 10 view .LVU315
 2136 084a 012B     		cmp	r3, #1
 2137 084c 01D1     		bne	.LCB1851
 2138 084e FFF7F3FB 		bl	.L37	@far jump
 2139              	.LCB1851:
 111:Src/charlie.c ****        charlie(PinA, PinB, PinC, PinD, 10);
 2140              		.loc 2 111 8 is_stmt 1 view .LVU316
 2141 0852 FA20     		movs	r0, #250
 2142 0854 4000     		lsls	r0, r0, #1
 2143 0856 FFF7FEFF 		bl	HAL_Delay
 2144              	.LVL137:
 112:Src/charlie.c ****        if(stop == 1)
 2145              		.loc 2 112 8 view .LVU317
ARM GAS  /tmp/ccr4JylA.s 			page 55


 2146 085a 0A23     		movs	r3, #10
 2147 085c 1093     		str	r3, [sp, #64]
 2148 085e 2DA8     		add	r0, sp, #180
 2149 0860 0BA9     		add	r1, sp, #44
 2150 0862 0B00     		movs	r3, r1
 2151 0864 0200     		movs	r2, r0
 2152 0866 23CA     		ldmia	r2!, {r0, r1, r5}
 2153 0868 23C3     		stmia	r3!, {r0, r1, r5}
 2154 086a 03CA     		ldmia	r2!, {r0, r1}
 2155 086c 03C3     		stmia	r3!, {r0, r1}
 2156 086e 28A8     		add	r0, sp, #160
 2157 0870 06A9     		add	r1, sp, #24
 2158 0872 0B00     		movs	r3, r1
 2159 0874 0200     		movs	r2, r0
 2160 0876 23CA     		ldmia	r2!, {r0, r1, r5}
 2161 0878 23C3     		stmia	r3!, {r0, r1, r5}
 2162 087a 03CA     		ldmia	r2!, {r0, r1}
 2163 087c 03C3     		stmia	r3!, {r0, r1}
 2164 087e 23A8     		add	r0, sp, #140
 2165 0880 01A9     		add	r1, sp, #4
 2166 0882 0B00     		movs	r3, r1
 2167 0884 0200     		movs	r2, r0
 2168 0886 23CA     		ldmia	r2!, {r0, r1, r5}
 2169 0888 23C3     		stmia	r3!, {r0, r1, r5}
 2170 088a 03CA     		ldmia	r2!, {r0, r1}
 2171 088c 03C3     		stmia	r3!, {r0, r1}
 2172 088e 229B     		ldr	r3, [sp, #136]
 2173 0890 0093     		str	r3, [sp]
 2174 0892 1E98     		ldr	r0, [sp, #120]
 2175 0894 1F99     		ldr	r1, [sp, #124]
 2176 0896 209A     		ldr	r2, [sp, #128]
 2177 0898 219B     		ldr	r3, [sp, #132]
 2178 089a FFF7FEFF 		bl	charlie
 2179              	.LVL138:
 113:Src/charlie.c ****          return;
 2180              		.loc 2 113 8 view .LVU318
 113:Src/charlie.c ****          return;
 2181              		.loc 2 113 16 is_stmt 0 view .LVU319
 2182 089e 194B     		ldr	r3, .L90
 2183 08a0 1B68     		ldr	r3, [r3]
 113:Src/charlie.c ****          return;
 2184              		.loc 2 113 10 view .LVU320
 2185 08a2 012B     		cmp	r3, #1
 2186 08a4 01D1     		bne	.LCB1895
 2187 08a6 FFF7C7FB 		bl	.L37	@far jump
 2188              	.LCB1895:
 115:Src/charlie.c ****        charlie(PinA, PinB, PinC, PinD, 11);
 2189              		.loc 2 115 8 is_stmt 1 view .LVU321
 2190 08aa FA20     		movs	r0, #250
 2191 08ac 4000     		lsls	r0, r0, #1
 2192 08ae FFF7FEFF 		bl	HAL_Delay
 2193              	.LVL139:
 116:Src/charlie.c ****        if(stop == 1)
 2194              		.loc 2 116 8 view .LVU322
 2195 08b2 0B23     		movs	r3, #11
 2196 08b4 1093     		str	r3, [sp, #64]
 2197 08b6 2DA8     		add	r0, sp, #180
ARM GAS  /tmp/ccr4JylA.s 			page 56


 2198 08b8 0BA9     		add	r1, sp, #44
 2199 08ba 0B00     		movs	r3, r1
 2200 08bc 0200     		movs	r2, r0
 2201 08be 23CA     		ldmia	r2!, {r0, r1, r5}
 2202 08c0 23C3     		stmia	r3!, {r0, r1, r5}
 2203 08c2 03CA     		ldmia	r2!, {r0, r1}
 2204 08c4 03C3     		stmia	r3!, {r0, r1}
 2205 08c6 28A8     		add	r0, sp, #160
 2206 08c8 06A9     		add	r1, sp, #24
 2207 08ca 0B00     		movs	r3, r1
 2208 08cc 0200     		movs	r2, r0
 2209 08ce 23CA     		ldmia	r2!, {r0, r1, r5}
 2210 08d0 23C3     		stmia	r3!, {r0, r1, r5}
 2211 08d2 03CA     		ldmia	r2!, {r0, r1}
 2212 08d4 03C3     		stmia	r3!, {r0, r1}
 2213 08d6 23A8     		add	r0, sp, #140
 2214 08d8 01A9     		add	r1, sp, #4
 2215 08da 0B00     		movs	r3, r1
 2216 08dc 0200     		movs	r2, r0
 2217 08de 23CA     		ldmia	r2!, {r0, r1, r5}
 2218 08e0 23C3     		stmia	r3!, {r0, r1, r5}
 2219 08e2 03CA     		ldmia	r2!, {r0, r1}
 2220 08e4 03C3     		stmia	r3!, {r0, r1}
 2221 08e6 229B     		ldr	r3, [sp, #136]
 2222 08e8 0093     		str	r3, [sp]
 2223 08ea 1E98     		ldr	r0, [sp, #120]
 2224 08ec 1F99     		ldr	r1, [sp, #124]
 2225 08ee 209A     		ldr	r2, [sp, #128]
 2226 08f0 219B     		ldr	r3, [sp, #132]
 2227 08f2 FFF7FEFF 		bl	charlie
 2228              	.LVL140:
 117:Src/charlie.c ****          return;
 2229              		.loc 2 117 8 view .LVU323
 117:Src/charlie.c ****          return;
 2230              		.loc 2 117 16 is_stmt 0 view .LVU324
 2231 08f6 034B     		ldr	r3, .L90
 2232 08f8 1B68     		ldr	r3, [r3]
 117:Src/charlie.c ****          return;
 2233              		.loc 2 117 10 view .LVU325
 2234 08fa 012B     		cmp	r3, #1
 2235 08fc 01D1     		bne	.LCB1939
 2236 08fe FFF79BFB 		bl	.L37	@far jump
 2237              	.LCB1939:
 2238 0902 01E0     		b	.L91
 2239              	.L92:
 2240              		.align	2
 2241              	.L90:
 2242 0904 00000000 		.word	.LANCHOR0
 2243              	.L91:
 119:Src/charlie.c ****        charlie(PinA, PinB, PinC, PinD, 12);
 2244              		.loc 2 119 8 is_stmt 1 view .LVU326
 2245 0908 FA20     		movs	r0, #250
 2246 090a 4000     		lsls	r0, r0, #1
 2247 090c FFF7FEFF 		bl	HAL_Delay
 2248              	.LVL141:
 120:Src/charlie.c ****        if(stop == 1)
 2249              		.loc 2 120 8 view .LVU327
ARM GAS  /tmp/ccr4JylA.s 			page 57


 2250 0910 0C23     		movs	r3, #12
 2251 0912 1093     		str	r3, [sp, #64]
 2252 0914 2DA8     		add	r0, sp, #180
 2253 0916 0BA9     		add	r1, sp, #44
 2254 0918 0B00     		movs	r3, r1
 2255 091a 0200     		movs	r2, r0
 2256 091c 23CA     		ldmia	r2!, {r0, r1, r5}
 2257 091e 23C3     		stmia	r3!, {r0, r1, r5}
 2258 0920 03CA     		ldmia	r2!, {r0, r1}
 2259 0922 03C3     		stmia	r3!, {r0, r1}
 2260 0924 28A8     		add	r0, sp, #160
 2261 0926 06A9     		add	r1, sp, #24
 2262 0928 0B00     		movs	r3, r1
 2263 092a 0200     		movs	r2, r0
 2264 092c 23CA     		ldmia	r2!, {r0, r1, r5}
 2265 092e 23C3     		stmia	r3!, {r0, r1, r5}
 2266 0930 03CA     		ldmia	r2!, {r0, r1}
 2267 0932 03C3     		stmia	r3!, {r0, r1}
 2268 0934 23A8     		add	r0, sp, #140
 2269 0936 01A9     		add	r1, sp, #4
 2270 0938 0B00     		movs	r3, r1
 2271 093a 0200     		movs	r2, r0
 2272 093c 23CA     		ldmia	r2!, {r0, r1, r5}
 2273 093e 23C3     		stmia	r3!, {r0, r1, r5}
 2274 0940 03CA     		ldmia	r2!, {r0, r1}
 2275 0942 03C3     		stmia	r3!, {r0, r1}
 2276 0944 229B     		ldr	r3, [sp, #136]
 2277 0946 0093     		str	r3, [sp]
 2278 0948 1E98     		ldr	r0, [sp, #120]
 2279 094a 1F99     		ldr	r1, [sp, #124]
 2280 094c 209A     		ldr	r2, [sp, #128]
 2281 094e 219B     		ldr	r3, [sp, #132]
 2282 0950 FFF7FEFF 		bl	charlie
 2283              	.LVL142:
 121:Src/charlie.c ****          return;
 2284              		.loc 2 121 8 view .LVU328
 121:Src/charlie.c ****          return;
 2285              		.loc 2 121 16 is_stmt 0 view .LVU329
 2286 0954 E74B     		ldr	r3, .L93
 2287 0956 1B68     		ldr	r3, [r3]
 121:Src/charlie.c ****          return;
 2288              		.loc 2 121 10 view .LVU330
 2289 0958 012B     		cmp	r3, #1
 2290 095a 01D1     		bne	.LCB1992
 2291 095c FFF76CFB 		bl	.L37	@far jump
 2292              	.LCB1992:
 123:Src/charlie.c ****    }
 2293              		.loc 2 123 8 is_stmt 1 view .LVU331
 2294 0960 FA20     		movs	r0, #250
 2295 0962 4000     		lsls	r0, r0, #1
 2296 0964 FFF7FEFF 		bl	HAL_Delay
 2297              	.LVL143:
 2298 0968 FFF75EFB 		bl	.L41	@ far jump
 2299              	.L75:
 128:Src/charlie.c ****       for(int i=0; i<10000; i++){
 2300              		.loc 2 128 7 view .LVU332
 2301 096c 0023     		movs	r3, #0
ARM GAS  /tmp/ccr4JylA.s 			page 58


 2302 096e 1093     		str	r3, [sp, #64]
 2303 0970 2DA8     		add	r0, sp, #180
 2304 0972 0BA9     		add	r1, sp, #44
 2305 0974 0B00     		movs	r3, r1
 2306 0976 0200     		movs	r2, r0
 2307 0978 23CA     		ldmia	r2!, {r0, r1, r5}
 2308 097a 23C3     		stmia	r3!, {r0, r1, r5}
 2309 097c 03CA     		ldmia	r2!, {r0, r1}
 2310 097e 03C3     		stmia	r3!, {r0, r1}
 2311 0980 28A8     		add	r0, sp, #160
 2312 0982 06A9     		add	r1, sp, #24
 2313 0984 0B00     		movs	r3, r1
 2314 0986 0200     		movs	r2, r0
 2315 0988 23CA     		ldmia	r2!, {r0, r1, r5}
 2316 098a 23C3     		stmia	r3!, {r0, r1, r5}
 2317 098c 03CA     		ldmia	r2!, {r0, r1}
 2318 098e 03C3     		stmia	r3!, {r0, r1}
 2319 0990 23A8     		add	r0, sp, #140
 2320 0992 01A9     		add	r1, sp, #4
 2321 0994 0B00     		movs	r3, r1
 2322 0996 0200     		movs	r2, r0
 2323 0998 23CA     		ldmia	r2!, {r0, r1, r5}
 2324 099a 23C3     		stmia	r3!, {r0, r1, r5}
 2325 099c 03CA     		ldmia	r2!, {r0, r1}
 2326 099e 03C3     		stmia	r3!, {r0, r1}
 2327 09a0 229B     		ldr	r3, [sp, #136]
 2328 09a2 0093     		str	r3, [sp]
 2329 09a4 1E98     		ldr	r0, [sp, #120]
 2330 09a6 1F99     		ldr	r1, [sp, #124]
 2331 09a8 209A     		ldr	r2, [sp, #128]
 2332 09aa 219B     		ldr	r3, [sp, #132]
 2333 09ac FFF7FEFF 		bl	charlie
 2334              	.LVL144:
 129:Src/charlie.c ****          for(int j=1; j<=12; j++){
 2335              		.loc 2 129 7 view .LVU333
 2336              	.LBB4:
 129:Src/charlie.c ****          for(int j=1; j<=12; j++){
 2337              		.loc 2 129 11 view .LVU334
 129:Src/charlie.c ****          for(int j=1; j<=12; j++){
 2338              		.loc 2 129 15 is_stmt 0 view .LVU335
 2339 09b0 0026     		movs	r6, #0
 129:Src/charlie.c ****          for(int j=1; j<=12; j++){
 2340              		.loc 2 129 7 view .LVU336
 2341 09b2 00E0     		b	.L43
 2342              	.LVL145:
 2343              	.L77:
 129:Src/charlie.c ****          for(int j=1; j<=12; j++){
 2344              		.loc 2 129 29 is_stmt 1 discriminator 2 view .LVU337
 129:Src/charlie.c ****          for(int j=1; j<=12; j++){
 2345              		.loc 2 129 30 is_stmt 0 discriminator 2 view .LVU338
 2346 09b4 0136     		adds	r6, r6, #1
 2347              	.LVL146:
 2348              	.L43:
 129:Src/charlie.c ****          for(int j=1; j<=12; j++){
 2349              		.loc 2 129 20 is_stmt 1 discriminator 1 view .LVU339
 129:Src/charlie.c ****          for(int j=1; j<=12; j++){
 2350              		.loc 2 129 7 is_stmt 0 discriminator 1 view .LVU340
ARM GAS  /tmp/ccr4JylA.s 			page 59


 2351 09b6 D04B     		ldr	r3, .L93+4
 2352 09b8 9E42     		cmp	r6, r3
 2353 09ba 01DD     		ble	.LCB2059
 2354 09bc FFF738FB 		bl	.L42	@far jump
 2355              	.LCB2059:
 2356              	.LBB5:
 130:Src/charlie.c ****              charlie(PinA, PinB, PinC, PinD, j);
 2357              		.loc 2 130 18 view .LVU341
 2358 09c0 0125     		movs	r5, #1
 2359              	.L45:
 2360              	.LVL147:
 130:Src/charlie.c ****              charlie(PinA, PinB, PinC, PinD, j);
 2361              		.loc 2 130 23 is_stmt 1 discriminator 1 view .LVU342
 130:Src/charlie.c ****              charlie(PinA, PinB, PinC, PinD, j);
 2362              		.loc 2 130 10 is_stmt 0 discriminator 1 view .LVU343
 2363 09c2 0C2D     		cmp	r5, #12
 2364 09c4 F6DC     		bgt	.L77
 131:Src/charlie.c ****        //      HAL_Delay(1);
 2365              		.loc 2 131 14 is_stmt 1 view .LVU344
 2366 09c6 1095     		str	r5, [sp, #64]
 2367 09c8 2DA8     		add	r0, sp, #180
 2368 09ca 0BA9     		add	r1, sp, #44
 2369 09cc 0B00     		movs	r3, r1
 2370 09ce 0200     		movs	r2, r0
 2371 09d0 83CA     		ldmia	r2!, {r0, r1, r7}
 2372 09d2 83C3     		stmia	r3!, {r0, r1, r7}
 2373 09d4 03CA     		ldmia	r2!, {r0, r1}
 2374 09d6 03C3     		stmia	r3!, {r0, r1}
 2375 09d8 28A8     		add	r0, sp, #160
 2376 09da 06A9     		add	r1, sp, #24
 2377 09dc 0B00     		movs	r3, r1
 2378 09de 0200     		movs	r2, r0
 2379 09e0 83CA     		ldmia	r2!, {r0, r1, r7}
 2380 09e2 83C3     		stmia	r3!, {r0, r1, r7}
 2381 09e4 03CA     		ldmia	r2!, {r0, r1}
 2382 09e6 03C3     		stmia	r3!, {r0, r1}
 2383 09e8 23A8     		add	r0, sp, #140
 2384 09ea 01A9     		add	r1, sp, #4
 2385 09ec 0B00     		movs	r3, r1
 2386 09ee 0200     		movs	r2, r0
 2387 09f0 83CA     		ldmia	r2!, {r0, r1, r7}
 2388 09f2 83C3     		stmia	r3!, {r0, r1, r7}
 2389 09f4 03CA     		ldmia	r2!, {r0, r1}
 2390 09f6 03C3     		stmia	r3!, {r0, r1}
 2391 09f8 229B     		ldr	r3, [sp, #136]
 2392 09fa 0093     		str	r3, [sp]
 2393 09fc 1E98     		ldr	r0, [sp, #120]
 2394 09fe 1F99     		ldr	r1, [sp, #124]
 2395 0a00 209A     		ldr	r2, [sp, #128]
 2396 0a02 219B     		ldr	r3, [sp, #132]
 2397 0a04 FFF7FEFF 		bl	charlie
 2398              	.LVL148:
 133:Src/charlie.c ****                return;
 2399              		.loc 2 133 14 view .LVU345
 133:Src/charlie.c ****                return;
 2400              		.loc 2 133 22 is_stmt 0 view .LVU346
 2401 0a08 BA4B     		ldr	r3, .L93
ARM GAS  /tmp/ccr4JylA.s 			page 60


 2402 0a0a 1B68     		ldr	r3, [r3]
 133:Src/charlie.c ****                return;
 2403              		.loc 2 133 16 view .LVU347
 2404 0a0c 012B     		cmp	r3, #1
 2405 0a0e 01D1     		bne	.LCB2106
 2406 0a10 FFF712FB 		bl	.L37	@far jump
 2407              	.LCB2106:
 130:Src/charlie.c ****              charlie(PinA, PinB, PinC, PinD, j);
 2408              		.loc 2 130 30 is_stmt 1 discriminator 2 view .LVU348
 130:Src/charlie.c ****              charlie(PinA, PinB, PinC, PinD, j);
 2409              		.loc 2 130 31 is_stmt 0 discriminator 2 view .LVU349
 2410 0a14 0135     		adds	r5, r5, #1
 2411              	.LVL149:
 130:Src/charlie.c ****              charlie(PinA, PinB, PinC, PinD, j);
 2412              		.loc 2 130 31 discriminator 2 view .LVU350
 2413 0a16 D4E7     		b	.L45
 2414              	.LVL150:
 2415              	.L79:
 130:Src/charlie.c ****              charlie(PinA, PinB, PinC, PinD, j);
 2416              		.loc 2 130 31 discriminator 2 view .LVU351
 2417              	.LBE5:
 2418              	.LBE4:
 2419              	.LBB6:
 144:Src/charlie.c ****             HAL_Delay(500);
 2420              		.loc 2 144 13 is_stmt 1 view .LVU352
 2421 0a18 0B33     		adds	r3, r3, #11
 2422              	.LVL151:
 144:Src/charlie.c ****             HAL_Delay(500);
 2423              		.loc 2 144 13 is_stmt 0 view .LVU353
 2424 0a1a 1093     		str	r3, [sp, #64]
 2425 0a1c 2DA8     		add	r0, sp, #180
 2426 0a1e 0BA9     		add	r1, sp, #44
 2427 0a20 0B00     		movs	r3, r1
 2428 0a22 0200     		movs	r2, r0
 2429 0a24 13CA     		ldmia	r2!, {r0, r1, r4}
 2430 0a26 13C3     		stmia	r3!, {r0, r1, r4}
 2431 0a28 03CA     		ldmia	r2!, {r0, r1}
 2432 0a2a 03C3     		stmia	r3!, {r0, r1}
 2433 0a2c 28A8     		add	r0, sp, #160
 2434 0a2e 06A9     		add	r1, sp, #24
 2435 0a30 0B00     		movs	r3, r1
 2436 0a32 0200     		movs	r2, r0
 2437 0a34 13CA     		ldmia	r2!, {r0, r1, r4}
 2438 0a36 13C3     		stmia	r3!, {r0, r1, r4}
 2439 0a38 03CA     		ldmia	r2!, {r0, r1}
 2440 0a3a 03C3     		stmia	r3!, {r0, r1}
 2441 0a3c 23A8     		add	r0, sp, #140
 2442 0a3e 01A9     		add	r1, sp, #4
 2443 0a40 0B00     		movs	r3, r1
 2444 0a42 0200     		movs	r2, r0
 2445 0a44 13CA     		ldmia	r2!, {r0, r1, r4}
 2446 0a46 13C3     		stmia	r3!, {r0, r1, r4}
 2447 0a48 03CA     		ldmia	r2!, {r0, r1}
 2448 0a4a 03C3     		stmia	r3!, {r0, r1}
 2449 0a4c 229B     		ldr	r3, [sp, #136]
 2450 0a4e 0093     		str	r3, [sp]
 2451 0a50 1E98     		ldr	r0, [sp, #120]
ARM GAS  /tmp/ccr4JylA.s 			page 61


 2452 0a52 1F99     		ldr	r1, [sp, #124]
 2453 0a54 209A     		ldr	r2, [sp, #128]
 2454 0a56 219B     		ldr	r3, [sp, #132]
 2455 0a58 FFF7FEFF 		bl	charlie
 2456              	.LVL152:
 145:Src/charlie.c ****             if(stop == 1)
 2457              		.loc 2 145 13 is_stmt 1 view .LVU354
 2458 0a5c FA20     		movs	r0, #250
 2459 0a5e 4000     		lsls	r0, r0, #1
 2460 0a60 FFF7FEFF 		bl	HAL_Delay
 2461              	.LVL153:
 146:Src/charlie.c ****                return;
 2462              		.loc 2 146 13 view .LVU355
 146:Src/charlie.c ****                return;
 2463              		.loc 2 146 21 is_stmt 0 view .LVU356
 2464 0a64 A34B     		ldr	r3, .L93
 2465 0a66 1B68     		ldr	r3, [r3]
 146:Src/charlie.c ****                return;
 2466              		.loc 2 146 15 view .LVU357
 2467 0a68 012B     		cmp	r3, #1
 2468 0a6a 00D0     		beq	.LCB2166
 2469 0a6c A1E1     		b	.L47	@long jump
 2470              	.LCB2166:
 146:Src/charlie.c ****                return;
 2471              		.loc 2 146 15 view .LVU358
 2472 0a6e FFF7E3FA 		bl	.L37	@ far jump
 2473              	.LVL154:
 2474              	.L80:
 2475              	.LBB7:
 150:Src/charlie.c ****                charlie(PinA, PinB, PinC, PinD, 10);
 2476              		.loc 2 150 21 view .LVU359
 2477 0a72 0023     		movs	r3, #0
 2478              	.LVL155:
 150:Src/charlie.c ****                charlie(PinA, PinB, PinC, PinD, 10);
 2479              		.loc 2 150 21 view .LVU360
 2480 0a74 9B46     		mov	fp, r3
 2481              	.L48:
 2482              	.LVL156:
 150:Src/charlie.c ****                charlie(PinA, PinB, PinC, PinD, 10);
 2483              		.loc 2 150 27 is_stmt 1 discriminator 1 view .LVU361
 150:Src/charlie.c ****                charlie(PinA, PinB, PinC, PinD, 10);
 2484              		.loc 2 150 13 is_stmt 0 discriminator 1 view .LVU362
 2485 0a76 A04B     		ldr	r3, .L93+4
 2486 0a78 9B45     		cmp	fp, r3
 2487 0a7a 00DD     		ble	.LCB2183
 2488 0a7c 9DE1     		b	.L49	@long jump
 2489              	.LCB2183:
 151:Src/charlie.c ****                charlie(PinA, PinB, PinC, PinD, 1);
 2490              		.loc 2 151 16 is_stmt 1 view .LVU363
 2491 0a7e 0A23     		movs	r3, #10
 2492 0a80 1093     		str	r3, [sp, #64]
 2493 0a82 2DAB     		add	r3, sp, #180
 2494 0a84 9946     		mov	r9, r3
 2495 0a86 0BAB     		add	r3, sp, #44
 2496 0a88 9846     		mov	r8, r3
 2497 0a8a 4A46     		mov	r2, r9
 2498 0a8c 13CA     		ldmia	r2!, {r0, r1, r4}
ARM GAS  /tmp/ccr4JylA.s 			page 62


 2499 0a8e 13C3     		stmia	r3!, {r0, r1, r4}
 2500 0a90 03CA     		ldmia	r2!, {r0, r1}
 2501 0a92 03C3     		stmia	r3!, {r0, r1}
 2502 0a94 28AF     		add	r7, sp, #160
 2503 0a96 06AE     		add	r6, sp, #24
 2504 0a98 3300     		movs	r3, r6
 2505 0a9a 3A00     		movs	r2, r7
 2506 0a9c 13CA     		ldmia	r2!, {r0, r1, r4}
 2507 0a9e 13C3     		stmia	r3!, {r0, r1, r4}
 2508 0aa0 03CA     		ldmia	r2!, {r0, r1}
 2509 0aa2 03C3     		stmia	r3!, {r0, r1}
 2510 0aa4 23AD     		add	r5, sp, #140
 2511 0aa6 01AB     		add	r3, sp, #4
 2512 0aa8 1393     		str	r3, [sp, #76]
 2513 0aaa 2A00     		movs	r2, r5
 2514 0aac 13CA     		ldmia	r2!, {r0, r1, r4}
 2515 0aae 13C3     		stmia	r3!, {r0, r1, r4}
 2516 0ab0 03CA     		ldmia	r2!, {r0, r1}
 2517 0ab2 03C3     		stmia	r3!, {r0, r1}
 2518 0ab4 229B     		ldr	r3, [sp, #136]
 2519 0ab6 0093     		str	r3, [sp]
 2520 0ab8 1E98     		ldr	r0, [sp, #120]
 2521 0aba 1F99     		ldr	r1, [sp, #124]
 2522 0abc 209A     		ldr	r2, [sp, #128]
 2523 0abe 219B     		ldr	r3, [sp, #132]
 2524 0ac0 FFF7FEFF 		bl	charlie
 2525              	.LVL157:
 152:Src/charlie.c ****                if(stop == 1)
 2526              		.loc 2 152 16 view .LVU364
 2527 0ac4 0123     		movs	r3, #1
 2528 0ac6 1093     		str	r3, [sp, #64]
 2529 0ac8 4346     		mov	r3, r8
 2530 0aca 4A46     		mov	r2, r9
 2531 0acc 13CA     		ldmia	r2!, {r0, r1, r4}
 2532 0ace 13C3     		stmia	r3!, {r0, r1, r4}
 2533 0ad0 03CA     		ldmia	r2!, {r0, r1}
 2534 0ad2 03C3     		stmia	r3!, {r0, r1}
 2535 0ad4 3300     		movs	r3, r6
 2536 0ad6 3A00     		movs	r2, r7
 2537 0ad8 13CA     		ldmia	r2!, {r0, r1, r4}
 2538 0ada 13C3     		stmia	r3!, {r0, r1, r4}
 2539 0adc 03CA     		ldmia	r2!, {r0, r1}
 2540 0ade 03C3     		stmia	r3!, {r0, r1}
 2541 0ae0 1399     		ldr	r1, [sp, #76]
 2542 0ae2 0B00     		movs	r3, r1
 2543 0ae4 2A00     		movs	r2, r5
 2544 0ae6 13CA     		ldmia	r2!, {r0, r1, r4}
 2545 0ae8 13C3     		stmia	r3!, {r0, r1, r4}
 2546 0aea 03CA     		ldmia	r2!, {r0, r1}
 2547 0aec 03C3     		stmia	r3!, {r0, r1}
 2548 0aee 229B     		ldr	r3, [sp, #136]
 2549 0af0 0093     		str	r3, [sp]
 2550 0af2 1E98     		ldr	r0, [sp, #120]
 2551 0af4 1F99     		ldr	r1, [sp, #124]
 2552 0af6 209A     		ldr	r2, [sp, #128]
 2553 0af8 219B     		ldr	r3, [sp, #132]
 2554 0afa FFF7FEFF 		bl	charlie
ARM GAS  /tmp/ccr4JylA.s 			page 63


 2555              	.LVL158:
 153:Src/charlie.c ****                   return;
 2556              		.loc 2 153 16 view .LVU365
 153:Src/charlie.c ****                   return;
 2557              		.loc 2 153 24 is_stmt 0 view .LVU366
 2558 0afe 7D4B     		ldr	r3, .L93
 2559 0b00 1B68     		ldr	r3, [r3]
 153:Src/charlie.c ****                   return;
 2560              		.loc 2 153 18 view .LVU367
 2561 0b02 012B     		cmp	r3, #1
 2562 0b04 01D1     		bne	.LCB2255
 2563 0b06 FFF797FA 		bl	.L37	@far jump
 2564              	.LCB2255:
 150:Src/charlie.c ****                charlie(PinA, PinB, PinC, PinD, 10);
 2565              		.loc 2 150 36 is_stmt 1 discriminator 2 view .LVU368
 150:Src/charlie.c ****                charlie(PinA, PinB, PinC, PinD, 10);
 2566              		.loc 2 150 37 is_stmt 0 discriminator 2 view .LVU369
 2567 0b0a 0123     		movs	r3, #1
 2568 0b0c 9C46     		mov	ip, r3
 2569 0b0e E344     		add	fp, fp, ip
 2570              	.LVL159:
 150:Src/charlie.c ****                charlie(PinA, PinB, PinC, PinD, 10);
 2571              		.loc 2 150 37 discriminator 2 view .LVU370
 2572 0b10 B1E7     		b	.L48
 2573              	.LVL160:
 2574              	.L81:
 150:Src/charlie.c ****                charlie(PinA, PinB, PinC, PinD, 10);
 2575              		.loc 2 150 37 discriminator 2 view .LVU371
 2576              	.LBE7:
 2577              	.LBB8:
 158:Src/charlie.c ****                charlie(PinA, PinB, PinC, PinD, 2);
 2578              		.loc 2 158 21 view .LVU372
 2579 0b12 0023     		movs	r3, #0
 2580              	.LVL161:
 158:Src/charlie.c ****                charlie(PinA, PinB, PinC, PinD, 2);
 2581              		.loc 2 158 21 view .LVU373
 2582 0b14 9B46     		mov	fp, r3
 2583              	.L51:
 2584              	.LVL162:
 158:Src/charlie.c ****                charlie(PinA, PinB, PinC, PinD, 2);
 2585              		.loc 2 158 27 is_stmt 1 discriminator 1 view .LVU374
 158:Src/charlie.c ****                charlie(PinA, PinB, PinC, PinD, 2);
 2586              		.loc 2 158 13 is_stmt 0 discriminator 1 view .LVU375
 2587 0b16 784B     		ldr	r3, .L93+4
 2588 0b18 9B45     		cmp	fp, r3
 2589 0b1a 00DD     		ble	.LCB2279
 2590 0b1c 51E1     		b	.L52	@long jump
 2591              	.LCB2279:
 159:Src/charlie.c ****                charlie(PinA, PinB, PinC, PinD, 10);
 2592              		.loc 2 159 16 is_stmt 1 view .LVU376
 2593 0b1e 0223     		movs	r3, #2
 2594 0b20 1093     		str	r3, [sp, #64]
 2595 0b22 2DAB     		add	r3, sp, #180
 2596 0b24 9946     		mov	r9, r3
 2597 0b26 0BAB     		add	r3, sp, #44
 2598 0b28 9846     		mov	r8, r3
 2599 0b2a 4A46     		mov	r2, r9
ARM GAS  /tmp/ccr4JylA.s 			page 64


 2600 0b2c 13CA     		ldmia	r2!, {r0, r1, r4}
 2601 0b2e 13C3     		stmia	r3!, {r0, r1, r4}
 2602 0b30 03CA     		ldmia	r2!, {r0, r1}
 2603 0b32 03C3     		stmia	r3!, {r0, r1}
 2604 0b34 28AF     		add	r7, sp, #160
 2605 0b36 06AE     		add	r6, sp, #24
 2606 0b38 3300     		movs	r3, r6
 2607 0b3a 3A00     		movs	r2, r7
 2608 0b3c 13CA     		ldmia	r2!, {r0, r1, r4}
 2609 0b3e 13C3     		stmia	r3!, {r0, r1, r4}
 2610 0b40 03CA     		ldmia	r2!, {r0, r1}
 2611 0b42 03C3     		stmia	r3!, {r0, r1}
 2612 0b44 23AD     		add	r5, sp, #140
 2613 0b46 01AB     		add	r3, sp, #4
 2614 0b48 1393     		str	r3, [sp, #76]
 2615 0b4a 2A00     		movs	r2, r5
 2616 0b4c 13CA     		ldmia	r2!, {r0, r1, r4}
 2617 0b4e 13C3     		stmia	r3!, {r0, r1, r4}
 2618 0b50 03CA     		ldmia	r2!, {r0, r1}
 2619 0b52 03C3     		stmia	r3!, {r0, r1}
 2620 0b54 229B     		ldr	r3, [sp, #136]
 2621 0b56 0093     		str	r3, [sp]
 2622 0b58 1E98     		ldr	r0, [sp, #120]
 2623 0b5a 1F99     		ldr	r1, [sp, #124]
 2624 0b5c 209A     		ldr	r2, [sp, #128]
 2625 0b5e 219B     		ldr	r3, [sp, #132]
 2626 0b60 FFF7FEFF 		bl	charlie
 2627              	.LVL163:
 160:Src/charlie.c ****                if(stop == 1)
 2628              		.loc 2 160 16 view .LVU377
 2629 0b64 0A23     		movs	r3, #10
 2630 0b66 1093     		str	r3, [sp, #64]
 2631 0b68 4346     		mov	r3, r8
 2632 0b6a 4A46     		mov	r2, r9
 2633 0b6c 13CA     		ldmia	r2!, {r0, r1, r4}
 2634 0b6e 13C3     		stmia	r3!, {r0, r1, r4}
 2635 0b70 03CA     		ldmia	r2!, {r0, r1}
 2636 0b72 03C3     		stmia	r3!, {r0, r1}
 2637 0b74 3300     		movs	r3, r6
 2638 0b76 3A00     		movs	r2, r7
 2639 0b78 13CA     		ldmia	r2!, {r0, r1, r4}
 2640 0b7a 13C3     		stmia	r3!, {r0, r1, r4}
 2641 0b7c 03CA     		ldmia	r2!, {r0, r1}
 2642 0b7e 03C3     		stmia	r3!, {r0, r1}
 2643 0b80 1399     		ldr	r1, [sp, #76]
 2644 0b82 0B00     		movs	r3, r1
 2645 0b84 2A00     		movs	r2, r5
 2646 0b86 13CA     		ldmia	r2!, {r0, r1, r4}
 2647 0b88 13C3     		stmia	r3!, {r0, r1, r4}
 2648 0b8a 03CA     		ldmia	r2!, {r0, r1}
 2649 0b8c 03C3     		stmia	r3!, {r0, r1}
 2650 0b8e 229B     		ldr	r3, [sp, #136]
 2651 0b90 0093     		str	r3, [sp]
 2652 0b92 1E98     		ldr	r0, [sp, #120]
 2653 0b94 1F99     		ldr	r1, [sp, #124]
 2654 0b96 209A     		ldr	r2, [sp, #128]
 2655 0b98 219B     		ldr	r3, [sp, #132]
ARM GAS  /tmp/ccr4JylA.s 			page 65


 2656 0b9a FFF7FEFF 		bl	charlie
 2657              	.LVL164:
 161:Src/charlie.c ****                   return;
 2658              		.loc 2 161 16 view .LVU378
 161:Src/charlie.c ****                   return;
 2659              		.loc 2 161 24 is_stmt 0 view .LVU379
 2660 0b9e 554B     		ldr	r3, .L93
 2661 0ba0 1B68     		ldr	r3, [r3]
 161:Src/charlie.c ****                   return;
 2662              		.loc 2 161 18 view .LVU380
 2663 0ba2 012B     		cmp	r3, #1
 2664 0ba4 01D1     		bne	.LCB2351
 2665 0ba6 FFF747FA 		bl	.L37	@far jump
 2666              	.LCB2351:
 158:Src/charlie.c ****                charlie(PinA, PinB, PinC, PinD, 2);
 2667              		.loc 2 158 36 is_stmt 1 discriminator 2 view .LVU381
 158:Src/charlie.c ****                charlie(PinA, PinB, PinC, PinD, 2);
 2668              		.loc 2 158 37 is_stmt 0 discriminator 2 view .LVU382
 2669 0baa 0123     		movs	r3, #1
 2670 0bac 9C46     		mov	ip, r3
 2671 0bae E344     		add	fp, fp, ip
 2672              	.LVL165:
 158:Src/charlie.c ****                charlie(PinA, PinB, PinC, PinD, 2);
 2673              		.loc 2 158 37 discriminator 2 view .LVU383
 2674 0bb0 B1E7     		b	.L51
 2675              	.LVL166:
 2676              	.L78:
 158:Src/charlie.c ****                charlie(PinA, PinB, PinC, PinD, 2);
 2677              		.loc 2 158 37 discriminator 2 view .LVU384
 2678              	.LBE8:
 2679              	.LBB9:
 166:Src/charlie.c ****                charlie(PinA, PinB, PinC, PinD, 3);
 2680              		.loc 2 166 36 is_stmt 1 discriminator 2 view .LVU385
 166:Src/charlie.c ****                charlie(PinA, PinB, PinC, PinD, 3);
 2681              		.loc 2 166 37 is_stmt 0 discriminator 2 view .LVU386
 2682 0bb2 0123     		movs	r3, #1
 2683 0bb4 9C46     		mov	ip, r3
 2684 0bb6 E344     		add	fp, fp, ip
 2685              	.LVL167:
 2686              	.L54:
 166:Src/charlie.c ****                charlie(PinA, PinB, PinC, PinD, 3);
 2687              		.loc 2 166 27 is_stmt 1 discriminator 1 view .LVU387
 166:Src/charlie.c ****                charlie(PinA, PinB, PinC, PinD, 3);
 2688              		.loc 2 166 13 is_stmt 0 discriminator 1 view .LVU388
 2689 0bb8 4F4B     		ldr	r3, .L93+4
 2690 0bba 9B45     		cmp	fp, r3
 2691 0bbc 00DD     		ble	.LCB2380
 2692 0bbe 04E1     		b	.L55	@long jump
 2693              	.LCB2380:
 167:Src/charlie.c ****                charlie(PinA, PinB, PinC, PinD, 9);
 2694              		.loc 2 167 16 is_stmt 1 view .LVU389
 2695 0bc0 0323     		movs	r3, #3
 2696 0bc2 1093     		str	r3, [sp, #64]
 2697 0bc4 2DAB     		add	r3, sp, #180
 2698 0bc6 9946     		mov	r9, r3
 2699 0bc8 0BAB     		add	r3, sp, #44
 2700 0bca 9846     		mov	r8, r3
ARM GAS  /tmp/ccr4JylA.s 			page 66


 2701 0bcc 4A46     		mov	r2, r9
 2702 0bce 13CA     		ldmia	r2!, {r0, r1, r4}
 2703 0bd0 13C3     		stmia	r3!, {r0, r1, r4}
 2704 0bd2 03CA     		ldmia	r2!, {r0, r1}
 2705 0bd4 03C3     		stmia	r3!, {r0, r1}
 2706 0bd6 28AF     		add	r7, sp, #160
 2707 0bd8 06AE     		add	r6, sp, #24
 2708 0bda 3300     		movs	r3, r6
 2709 0bdc 3A00     		movs	r2, r7
 2710 0bde 13CA     		ldmia	r2!, {r0, r1, r4}
 2711 0be0 13C3     		stmia	r3!, {r0, r1, r4}
 2712 0be2 03CA     		ldmia	r2!, {r0, r1}
 2713 0be4 03C3     		stmia	r3!, {r0, r1}
 2714 0be6 23AD     		add	r5, sp, #140
 2715 0be8 01AB     		add	r3, sp, #4
 2716 0bea 1393     		str	r3, [sp, #76]
 2717 0bec 2A00     		movs	r2, r5
 2718 0bee 13CA     		ldmia	r2!, {r0, r1, r4}
 2719 0bf0 13C3     		stmia	r3!, {r0, r1, r4}
 2720 0bf2 03CA     		ldmia	r2!, {r0, r1}
 2721 0bf4 03C3     		stmia	r3!, {r0, r1}
 2722 0bf6 229B     		ldr	r3, [sp, #136]
 2723 0bf8 0093     		str	r3, [sp]
 2724 0bfa 1E98     		ldr	r0, [sp, #120]
 2725 0bfc 1F99     		ldr	r1, [sp, #124]
 2726 0bfe 209A     		ldr	r2, [sp, #128]
 2727 0c00 219B     		ldr	r3, [sp, #132]
 2728 0c02 FFF7FEFF 		bl	charlie
 2729              	.LVL168:
 168:Src/charlie.c ****                if(stop == 1)
 2730              		.loc 2 168 16 view .LVU390
 2731 0c06 0923     		movs	r3, #9
 2732 0c08 1093     		str	r3, [sp, #64]
 2733 0c0a 4346     		mov	r3, r8
 2734 0c0c 4A46     		mov	r2, r9
 2735 0c0e 13CA     		ldmia	r2!, {r0, r1, r4}
 2736 0c10 13C3     		stmia	r3!, {r0, r1, r4}
 2737 0c12 03CA     		ldmia	r2!, {r0, r1}
 2738 0c14 03C3     		stmia	r3!, {r0, r1}
 2739 0c16 3300     		movs	r3, r6
 2740 0c18 3A00     		movs	r2, r7
 2741 0c1a 13CA     		ldmia	r2!, {r0, r1, r4}
 2742 0c1c 13C3     		stmia	r3!, {r0, r1, r4}
 2743 0c1e 03CA     		ldmia	r2!, {r0, r1}
 2744 0c20 03C3     		stmia	r3!, {r0, r1}
 2745 0c22 1399     		ldr	r1, [sp, #76]
 2746 0c24 0B00     		movs	r3, r1
 2747 0c26 2A00     		movs	r2, r5
 2748 0c28 13CA     		ldmia	r2!, {r0, r1, r4}
 2749 0c2a 13C3     		stmia	r3!, {r0, r1, r4}
 2750 0c2c 03CA     		ldmia	r2!, {r0, r1}
 2751 0c2e 03C3     		stmia	r3!, {r0, r1}
 2752 0c30 229B     		ldr	r3, [sp, #136]
 2753 0c32 0093     		str	r3, [sp]
 2754 0c34 1E98     		ldr	r0, [sp, #120]
 2755 0c36 1F99     		ldr	r1, [sp, #124]
 2756 0c38 209A     		ldr	r2, [sp, #128]
ARM GAS  /tmp/ccr4JylA.s 			page 67


 2757 0c3a 219B     		ldr	r3, [sp, #132]
 2758 0c3c FFF7FEFF 		bl	charlie
 2759              	.LVL169:
 169:Src/charlie.c ****                   return;
 2760              		.loc 2 169 16 view .LVU391
 169:Src/charlie.c ****                   return;
 2761              		.loc 2 169 24 is_stmt 0 view .LVU392
 2762 0c40 2C4B     		ldr	r3, .L93
 2763 0c42 1B68     		ldr	r3, [r3]
 169:Src/charlie.c ****                   return;
 2764              		.loc 2 169 18 view .LVU393
 2765 0c44 012B     		cmp	r3, #1
 2766 0c46 B4D1     		bne	.L78
 2767 0c48 FFF7F6F9 		bl	.L37	@ far jump
 2768              	.LVL170:
 2769              	.L82:
 166:Src/charlie.c ****                charlie(PinA, PinB, PinC, PinD, 3);
 2770              		.loc 2 166 21 view .LVU394
 2771 0c4c 0023     		movs	r3, #0
 2772              	.LVL171:
 166:Src/charlie.c ****                charlie(PinA, PinB, PinC, PinD, 3);
 2773              		.loc 2 166 21 view .LVU395
 2774 0c4e 9B46     		mov	fp, r3
 2775 0c50 B2E7     		b	.L54
 2776              	.LVL172:
 2777              	.L83:
 166:Src/charlie.c ****                charlie(PinA, PinB, PinC, PinD, 3);
 2778              		.loc 2 166 21 view .LVU396
 2779              	.LBE9:
 2780              	.LBB10:
 174:Src/charlie.c ****                charlie(PinA, PinB, PinC, PinD, 4);
 2781              		.loc 2 174 21 view .LVU397
 2782 0c52 0023     		movs	r3, #0
 2783              	.LVL173:
 174:Src/charlie.c ****                charlie(PinA, PinB, PinC, PinD, 4);
 2784              		.loc 2 174 21 view .LVU398
 2785 0c54 9B46     		mov	fp, r3
 2786              	.L57:
 2787              	.LVL174:
 174:Src/charlie.c ****                charlie(PinA, PinB, PinC, PinD, 4);
 2788              		.loc 2 174 27 is_stmt 1 discriminator 1 view .LVU399
 174:Src/charlie.c ****                charlie(PinA, PinB, PinC, PinD, 4);
 2789              		.loc 2 174 13 is_stmt 0 discriminator 1 view .LVU400
 2790 0c56 284B     		ldr	r3, .L93+4
 2791 0c58 9B45     		cmp	fp, r3
 2792 0c5a 00DD     		ble	.LCB2478
 2793 0c5c B9E0     		b	.L58	@long jump
 2794              	.LCB2478:
 175:Src/charlie.c ****                charlie(PinA, PinB, PinC, PinD, 8);
 2795              		.loc 2 175 16 is_stmt 1 view .LVU401
 2796 0c5e 0423     		movs	r3, #4
 2797 0c60 1093     		str	r3, [sp, #64]
 2798 0c62 2DAB     		add	r3, sp, #180
 2799 0c64 9946     		mov	r9, r3
 2800 0c66 0BAB     		add	r3, sp, #44
 2801 0c68 9846     		mov	r8, r3
 2802 0c6a 4A46     		mov	r2, r9
ARM GAS  /tmp/ccr4JylA.s 			page 68


 2803 0c6c 13CA     		ldmia	r2!, {r0, r1, r4}
 2804 0c6e 13C3     		stmia	r3!, {r0, r1, r4}
 2805 0c70 03CA     		ldmia	r2!, {r0, r1}
 2806 0c72 03C3     		stmia	r3!, {r0, r1}
 2807 0c74 28AF     		add	r7, sp, #160
 2808 0c76 06AE     		add	r6, sp, #24
 2809 0c78 3300     		movs	r3, r6
 2810 0c7a 3A00     		movs	r2, r7
 2811 0c7c 13CA     		ldmia	r2!, {r0, r1, r4}
 2812 0c7e 13C3     		stmia	r3!, {r0, r1, r4}
 2813 0c80 03CA     		ldmia	r2!, {r0, r1}
 2814 0c82 03C3     		stmia	r3!, {r0, r1}
 2815 0c84 23AD     		add	r5, sp, #140
 2816 0c86 01AB     		add	r3, sp, #4
 2817 0c88 1393     		str	r3, [sp, #76]
 2818 0c8a 2A00     		movs	r2, r5
 2819 0c8c 13CA     		ldmia	r2!, {r0, r1, r4}
 2820 0c8e 13C3     		stmia	r3!, {r0, r1, r4}
 2821 0c90 03CA     		ldmia	r2!, {r0, r1}
 2822 0c92 03C3     		stmia	r3!, {r0, r1}
 2823 0c94 229B     		ldr	r3, [sp, #136]
 2824 0c96 0093     		str	r3, [sp]
 2825 0c98 1E98     		ldr	r0, [sp, #120]
 2826 0c9a 1F99     		ldr	r1, [sp, #124]
 2827 0c9c 209A     		ldr	r2, [sp, #128]
 2828 0c9e 219B     		ldr	r3, [sp, #132]
 2829 0ca0 FFF7FEFF 		bl	charlie
 2830              	.LVL175:
 176:Src/charlie.c ****                if(stop == 1)
 2831              		.loc 2 176 16 view .LVU402
 2832 0ca4 0823     		movs	r3, #8
 2833 0ca6 1093     		str	r3, [sp, #64]
 2834 0ca8 4346     		mov	r3, r8
 2835 0caa 4A46     		mov	r2, r9
 2836 0cac 13CA     		ldmia	r2!, {r0, r1, r4}
 2837 0cae 13C3     		stmia	r3!, {r0, r1, r4}
 2838 0cb0 03CA     		ldmia	r2!, {r0, r1}
 2839 0cb2 03C3     		stmia	r3!, {r0, r1}
 2840 0cb4 3300     		movs	r3, r6
 2841 0cb6 3A00     		movs	r2, r7
 2842 0cb8 13CA     		ldmia	r2!, {r0, r1, r4}
 2843 0cba 13C3     		stmia	r3!, {r0, r1, r4}
 2844 0cbc 03CA     		ldmia	r2!, {r0, r1}
 2845 0cbe 03C3     		stmia	r3!, {r0, r1}
 2846 0cc0 1399     		ldr	r1, [sp, #76]
 2847 0cc2 0B00     		movs	r3, r1
 2848 0cc4 2A00     		movs	r2, r5
 2849 0cc6 13CA     		ldmia	r2!, {r0, r1, r4}
 2850 0cc8 13C3     		stmia	r3!, {r0, r1, r4}
 2851 0cca 03CA     		ldmia	r2!, {r0, r1}
 2852 0ccc 03C3     		stmia	r3!, {r0, r1}
 2853 0cce 229B     		ldr	r3, [sp, #136]
 2854 0cd0 0093     		str	r3, [sp]
 2855 0cd2 1E98     		ldr	r0, [sp, #120]
 2856 0cd4 1F99     		ldr	r1, [sp, #124]
 2857 0cd6 209A     		ldr	r2, [sp, #128]
 2858 0cd8 219B     		ldr	r3, [sp, #132]
ARM GAS  /tmp/ccr4JylA.s 			page 69


 2859 0cda FFF7FEFF 		bl	charlie
 2860              	.LVL176:
 177:Src/charlie.c ****                   return;
 2861              		.loc 2 177 16 view .LVU403
 177:Src/charlie.c ****                   return;
 2862              		.loc 2 177 24 is_stmt 0 view .LVU404
 2863 0cde 054B     		ldr	r3, .L93
 2864 0ce0 1B68     		ldr	r3, [r3]
 177:Src/charlie.c ****                   return;
 2865              		.loc 2 177 18 view .LVU405
 2866 0ce2 012B     		cmp	r3, #1
 2867 0ce4 01D1     		bne	.LCB2550
 2868 0ce6 FFF7A7F9 		bl	.L37	@far jump
 2869              	.LCB2550:
 174:Src/charlie.c ****                charlie(PinA, PinB, PinC, PinD, 4);
 2870              		.loc 2 174 36 is_stmt 1 discriminator 2 view .LVU406
 174:Src/charlie.c ****                charlie(PinA, PinB, PinC, PinD, 4);
 2871              		.loc 2 174 37 is_stmt 0 discriminator 2 view .LVU407
 2872 0cea 0123     		movs	r3, #1
 2873 0cec 9C46     		mov	ip, r3
 2874 0cee E344     		add	fp, fp, ip
 2875              	.LVL177:
 174:Src/charlie.c ****                charlie(PinA, PinB, PinC, PinD, 4);
 2876              		.loc 2 174 37 discriminator 2 view .LVU408
 2877 0cf0 B1E7     		b	.L57
 2878              	.L94:
 2879 0cf2 C046     		.align	2
 2880              	.L93:
 2881 0cf4 00000000 		.word	.LANCHOR0
 2882 0cf8 0F270000 		.word	9999
 2883              	.LVL178:
 2884              	.L84:
 174:Src/charlie.c ****                charlie(PinA, PinB, PinC, PinD, 4);
 2885              		.loc 2 174 37 discriminator 2 view .LVU409
 2886              	.LBE10:
 2887              	.LBB11:
 182:Src/charlie.c ****                charlie(PinA, PinB, PinC, PinD, 5);
 2888              		.loc 2 182 21 view .LVU410
 2889 0cfc 0023     		movs	r3, #0
 2890              	.LVL179:
 182:Src/charlie.c ****                charlie(PinA, PinB, PinC, PinD, 5);
 2891              		.loc 2 182 21 view .LVU411
 2892 0cfe 9B46     		mov	fp, r3
 2893              	.L60:
 2894              	.LVL180:
 182:Src/charlie.c ****                charlie(PinA, PinB, PinC, PinD, 5);
 2895              		.loc 2 182 27 is_stmt 1 discriminator 1 view .LVU412
 182:Src/charlie.c ****                charlie(PinA, PinB, PinC, PinD, 5);
 2896              		.loc 2 182 13 is_stmt 0 discriminator 1 view .LVU413
 2897 0d00 4E4B     		ldr	r3, .L95
 2898 0d02 9B45     		cmp	fp, r3
 2899 0d04 68DC     		bgt	.L61
 183:Src/charlie.c ****                charlie(PinA, PinB, PinC, PinD, 7);
 2900              		.loc 2 183 16 is_stmt 1 view .LVU414
 2901 0d06 0523     		movs	r3, #5
 2902 0d08 1093     		str	r3, [sp, #64]
 2903 0d0a 2DAB     		add	r3, sp, #180
ARM GAS  /tmp/ccr4JylA.s 			page 70


 2904 0d0c 9946     		mov	r9, r3
 2905 0d0e 0BAB     		add	r3, sp, #44
 2906 0d10 9846     		mov	r8, r3
 2907 0d12 4A46     		mov	r2, r9
 2908 0d14 13CA     		ldmia	r2!, {r0, r1, r4}
 2909 0d16 13C3     		stmia	r3!, {r0, r1, r4}
 2910 0d18 03CA     		ldmia	r2!, {r0, r1}
 2911 0d1a 03C3     		stmia	r3!, {r0, r1}
 2912 0d1c 28AF     		add	r7, sp, #160
 2913 0d1e 06AE     		add	r6, sp, #24
 2914 0d20 3300     		movs	r3, r6
 2915 0d22 3A00     		movs	r2, r7
 2916 0d24 13CA     		ldmia	r2!, {r0, r1, r4}
 2917 0d26 13C3     		stmia	r3!, {r0, r1, r4}
 2918 0d28 03CA     		ldmia	r2!, {r0, r1}
 2919 0d2a 03C3     		stmia	r3!, {r0, r1}
 2920 0d2c 23AD     		add	r5, sp, #140
 2921 0d2e 01AB     		add	r3, sp, #4
 2922 0d30 1393     		str	r3, [sp, #76]
 2923 0d32 2A00     		movs	r2, r5
 2924 0d34 13CA     		ldmia	r2!, {r0, r1, r4}
 2925 0d36 13C3     		stmia	r3!, {r0, r1, r4}
 2926 0d38 03CA     		ldmia	r2!, {r0, r1}
 2927 0d3a 03C3     		stmia	r3!, {r0, r1}
 2928 0d3c 229B     		ldr	r3, [sp, #136]
 2929 0d3e 0093     		str	r3, [sp]
 2930 0d40 1E98     		ldr	r0, [sp, #120]
 2931 0d42 1F99     		ldr	r1, [sp, #124]
 2932 0d44 209A     		ldr	r2, [sp, #128]
 2933 0d46 219B     		ldr	r3, [sp, #132]
 2934 0d48 FFF7FEFF 		bl	charlie
 2935              	.LVL181:
 184:Src/charlie.c ****                if(stop == 1)
 2936              		.loc 2 184 16 view .LVU415
 2937 0d4c 0723     		movs	r3, #7
 2938 0d4e 1093     		str	r3, [sp, #64]
 2939 0d50 4346     		mov	r3, r8
 2940 0d52 4A46     		mov	r2, r9
 2941 0d54 13CA     		ldmia	r2!, {r0, r1, r4}
 2942 0d56 13C3     		stmia	r3!, {r0, r1, r4}
 2943 0d58 03CA     		ldmia	r2!, {r0, r1}
 2944 0d5a 03C3     		stmia	r3!, {r0, r1}
 2945 0d5c 3300     		movs	r3, r6
 2946 0d5e 3A00     		movs	r2, r7
 2947 0d60 13CA     		ldmia	r2!, {r0, r1, r4}
 2948 0d62 13C3     		stmia	r3!, {r0, r1, r4}
 2949 0d64 03CA     		ldmia	r2!, {r0, r1}
 2950 0d66 03C3     		stmia	r3!, {r0, r1}
 2951 0d68 1399     		ldr	r1, [sp, #76]
 2952 0d6a 0B00     		movs	r3, r1
 2953 0d6c 2A00     		movs	r2, r5
 2954 0d6e 13CA     		ldmia	r2!, {r0, r1, r4}
 2955 0d70 13C3     		stmia	r3!, {r0, r1, r4}
 2956 0d72 03CA     		ldmia	r2!, {r0, r1}
 2957 0d74 03C3     		stmia	r3!, {r0, r1}
 2958 0d76 229B     		ldr	r3, [sp, #136]
 2959 0d78 0093     		str	r3, [sp]
ARM GAS  /tmp/ccr4JylA.s 			page 71


 2960 0d7a 1E98     		ldr	r0, [sp, #120]
 2961 0d7c 1F99     		ldr	r1, [sp, #124]
 2962 0d7e 209A     		ldr	r2, [sp, #128]
 2963 0d80 219B     		ldr	r3, [sp, #132]
 2964 0d82 FFF7FEFF 		bl	charlie
 2965              	.LVL182:
 185:Src/charlie.c ****                   return;
 2966              		.loc 2 185 16 view .LVU416
 185:Src/charlie.c ****                   return;
 2967              		.loc 2 185 24 is_stmt 0 view .LVU417
 2968 0d86 2E4B     		ldr	r3, .L95+4
 2969 0d88 1B68     		ldr	r3, [r3]
 185:Src/charlie.c ****                   return;
 2970              		.loc 2 185 18 view .LVU418
 2971 0d8a 012B     		cmp	r3, #1
 2972 0d8c 01D1     		bne	.LCB2653
 2973 0d8e FFF753F9 		bl	.L37	@far jump
 2974              	.LCB2653:
 182:Src/charlie.c ****                charlie(PinA, PinB, PinC, PinD, 5);
 2975              		.loc 2 182 36 is_stmt 1 discriminator 2 view .LVU419
 182:Src/charlie.c ****                charlie(PinA, PinB, PinC, PinD, 5);
 2976              		.loc 2 182 37 is_stmt 0 discriminator 2 view .LVU420
 2977 0d92 0123     		movs	r3, #1
 2978 0d94 9C46     		mov	ip, r3
 2979 0d96 E344     		add	fp, fp, ip
 2980              	.LVL183:
 182:Src/charlie.c ****                charlie(PinA, PinB, PinC, PinD, 5);
 2981              		.loc 2 182 37 discriminator 2 view .LVU421
 2982 0d98 B2E7     		b	.L60
 2983              	.LVL184:
 2984              	.L63:
 182:Src/charlie.c ****                charlie(PinA, PinB, PinC, PinD, 5);
 2985              		.loc 2 182 37 discriminator 2 view .LVU422
 2986              	.LBE11:
 142:Src/charlie.c ****          if(i == 1){
 2987              		.loc 2 142 27 is_stmt 1 discriminator 2 view .LVU423
 142:Src/charlie.c ****          if(i == 1){
 2988              		.loc 2 142 28 is_stmt 0 discriminator 2 view .LVU424
 2989 0d9a 0123     		movs	r3, #1
 2990 0d9c 9C46     		mov	ip, r3
 2991 0d9e E244     		add	r10, r10, ip
 2992              	.LVL185:
 2993              	.L46:
 142:Src/charlie.c ****          if(i == 1){
 2994              		.loc 2 142 21 is_stmt 1 discriminator 1 view .LVU425
 142:Src/charlie.c ****          if(i == 1){
 2995              		.loc 2 142 7 is_stmt 0 discriminator 1 view .LVU426
 2996 0da0 5346     		mov	r3, r10
 2997 0da2 072B     		cmp	r3, #7
 2998 0da4 01DD     		ble	.LCB2680
 2999 0da6 FFF747F9 		bl	.L37	@far jump
 3000              	.LCB2680:
 143:Src/charlie.c ****             charlie(PinA, PinB, PinC, PinD, 12);
 3001              		.loc 2 143 10 is_stmt 1 view .LVU427
 143:Src/charlie.c ****             charlie(PinA, PinB, PinC, PinD, 12);
 3002              		.loc 2 143 12 is_stmt 0 view .LVU428
 3003 0daa 5346     		mov	r3, r10
ARM GAS  /tmp/ccr4JylA.s 			page 72


 3004 0dac 012B     		cmp	r3, #1
 3005 0dae 00D1     		bne	.LCB2684
 3006 0db0 32E6     		b	.L79	@long jump
 3007              	.LCB2684:
 3008              	.L47:
 149:Src/charlie.c ****             for(int j =0; j<10000; j++){
 3009              		.loc 2 149 10 is_stmt 1 view .LVU429
 149:Src/charlie.c ****             for(int j =0; j<10000; j++){
 3010              		.loc 2 149 12 is_stmt 0 view .LVU430
 3011 0db2 5346     		mov	r3, r10
 3012 0db4 022B     		cmp	r3, #2
 3013 0db6 00D1     		bne	.LCB2690
 3014 0db8 5BE6     		b	.L80	@long jump
 3015              	.LCB2690:
 3016              	.L49:
 157:Src/charlie.c ****             for(int j =0; j<10000; j++){
 3017              		.loc 2 157 10 is_stmt 1 view .LVU431
 157:Src/charlie.c ****             for(int j =0; j<10000; j++){
 3018              		.loc 2 157 12 is_stmt 0 view .LVU432
 3019 0dba 5346     		mov	r3, r10
 3020 0dbc 032B     		cmp	r3, #3
 3021 0dbe 00D1     		bne	.LCB2695
 3022 0dc0 A7E6     		b	.L81	@long jump
 3023              	.LCB2695:
 3024              	.L52:
 165:Src/charlie.c ****             for(int j =0; j<10000; j++){
 3025              		.loc 2 165 10 is_stmt 1 view .LVU433
 165:Src/charlie.c ****             for(int j =0; j<10000; j++){
 3026              		.loc 2 165 12 is_stmt 0 view .LVU434
 3027 0dc2 5346     		mov	r3, r10
 3028 0dc4 042B     		cmp	r3, #4
 3029 0dc6 00D1     		bne	.LCB2700
 3030 0dc8 40E7     		b	.L82	@long jump
 3031              	.LCB2700:
 3032              	.L55:
 173:Src/charlie.c ****             for(int j =0; j<10000; j++){
 3033              		.loc 2 173 10 is_stmt 1 view .LVU435
 173:Src/charlie.c ****             for(int j =0; j<10000; j++){
 3034              		.loc 2 173 12 is_stmt 0 view .LVU436
 3035 0dca 5346     		mov	r3, r10
 3036 0dcc 052B     		cmp	r3, #5
 3037 0dce 00D1     		bne	.LCB2705
 3038 0dd0 3FE7     		b	.L83	@long jump
 3039              	.LCB2705:
 3040              	.L58:
 181:Src/charlie.c ****             for(int j =0; j<10000; j++){
 3041              		.loc 2 181 10 is_stmt 1 view .LVU437
 181:Src/charlie.c ****             for(int j =0; j<10000; j++){
 3042              		.loc 2 181 12 is_stmt 0 view .LVU438
 3043 0dd2 5346     		mov	r3, r10
 3044 0dd4 062B     		cmp	r3, #6
 3045 0dd6 91D0     		beq	.L84
 3046              	.L61:
 189:Src/charlie.c ****             charlie(PinA, PinB, PinC, PinD, 6);
 3047              		.loc 2 189 10 is_stmt 1 view .LVU439
 189:Src/charlie.c ****             charlie(PinA, PinB, PinC, PinD, 6);
 3048              		.loc 2 189 12 is_stmt 0 view .LVU440
ARM GAS  /tmp/ccr4JylA.s 			page 73


 3049 0dd8 5346     		mov	r3, r10
 3050 0dda 072B     		cmp	r3, #7
 3051 0ddc DDD1     		bne	.L63
 3052              	.LVL186:
 190:Src/charlie.c ****             HAL_Delay(500);
 3053              		.loc 2 190 13 is_stmt 1 view .LVU441
 3054 0dde 013B     		subs	r3, r3, #1
 3055              	.LVL187:
 190:Src/charlie.c ****             HAL_Delay(500);
 3056              		.loc 2 190 13 is_stmt 0 view .LVU442
 3057 0de0 1093     		str	r3, [sp, #64]
 3058 0de2 2DA8     		add	r0, sp, #180
 3059 0de4 0BA9     		add	r1, sp, #44
 3060 0de6 0B00     		movs	r3, r1
 3061 0de8 0200     		movs	r2, r0
 3062 0dea 13CA     		ldmia	r2!, {r0, r1, r4}
 3063 0dec 13C3     		stmia	r3!, {r0, r1, r4}
 3064 0dee 03CA     		ldmia	r2!, {r0, r1}
 3065 0df0 03C3     		stmia	r3!, {r0, r1}
 3066 0df2 28A8     		add	r0, sp, #160
 3067 0df4 06A9     		add	r1, sp, #24
 3068 0df6 0B00     		movs	r3, r1
 3069 0df8 0200     		movs	r2, r0
 3070 0dfa 13CA     		ldmia	r2!, {r0, r1, r4}
 3071 0dfc 13C3     		stmia	r3!, {r0, r1, r4}
 3072 0dfe 03CA     		ldmia	r2!, {r0, r1}
 3073 0e00 03C3     		stmia	r3!, {r0, r1}
 3074 0e02 23A8     		add	r0, sp, #140
 3075 0e04 01A9     		add	r1, sp, #4
 3076 0e06 0B00     		movs	r3, r1
 3077 0e08 0200     		movs	r2, r0
 3078 0e0a 13CA     		ldmia	r2!, {r0, r1, r4}
 3079 0e0c 13C3     		stmia	r3!, {r0, r1, r4}
 3080 0e0e 03CA     		ldmia	r2!, {r0, r1}
 3081 0e10 03C3     		stmia	r3!, {r0, r1}
 3082 0e12 229B     		ldr	r3, [sp, #136]
 3083 0e14 0093     		str	r3, [sp]
 3084 0e16 1E98     		ldr	r0, [sp, #120]
 3085 0e18 1F99     		ldr	r1, [sp, #124]
 3086 0e1a 209A     		ldr	r2, [sp, #128]
 3087 0e1c 219B     		ldr	r3, [sp, #132]
 3088 0e1e FFF7FEFF 		bl	charlie
 3089              	.LVL188:
 191:Src/charlie.c ****             if(stop == 1)
 3090              		.loc 2 191 13 is_stmt 1 view .LVU443
 3091 0e22 FA20     		movs	r0, #250
 3092 0e24 4000     		lsls	r0, r0, #1
 3093 0e26 FFF7FEFF 		bl	HAL_Delay
 3094              	.LVL189:
 192:Src/charlie.c ****                return;
 3095              		.loc 2 192 13 view .LVU444
 192:Src/charlie.c ****                return;
 3096              		.loc 2 192 21 is_stmt 0 view .LVU445
 3097 0e2a 054B     		ldr	r3, .L95+4
 3098 0e2c 1B68     		ldr	r3, [r3]
 192:Src/charlie.c ****                return;
 3099              		.loc 2 192 15 view .LVU446
ARM GAS  /tmp/ccr4JylA.s 			page 74


 3100 0e2e 012B     		cmp	r3, #1
 3101 0e30 B3D1     		bne	.L63
 3102 0e32 FFF701F9 		bl	.L37	@ far jump
 3103              	.LVL190:
 3104              	.L76:
 142:Src/charlie.c ****          if(i == 1){
 3105              		.loc 2 142 15 view .LVU447
 3106 0e36 0123     		movs	r3, #1
 3107 0e38 9A46     		mov	r10, r3
 3108 0e3a B1E7     		b	.L46
 3109              	.L96:
 3110              		.align	2
 3111              	.L95:
 3112 0e3c 0F270000 		.word	9999
 3113 0e40 00000000 		.word	.LANCHOR0
 3114              	.LBE6:
 3115              		.cfi_endproc
 3116              	.LFE43:
 3118              		.section	.text.initA,"ax",%progbits
 3119              		.align	1
 3120              		.global	initA
 3121              		.syntax unified
 3122              		.code	16
 3123              		.thumb_func
 3124              		.fpu softvfp
 3126              	initA:
 3127              	.LVL191:
 3128              	.LFB45:
 388:Src/charlie.c **** 
 389:Src/charlie.c **** GPIO_InitTypeDef initA(){
 3129              		.loc 2 389 25 is_stmt 1 view -0
 3130              		.cfi_startproc
 3131              		@ args = 0, pretend = 0, frame = 24
 3132              		@ frame_needed = 0, uses_anonymous_args = 0
 3133              		.loc 2 389 25 is_stmt 0 view .LVU449
 3134 0000 F0B5     		push	{r4, r5, r6, r7, lr}
 3135              	.LCFI11:
 3136              		.cfi_def_cfa_offset 20
 3137              		.cfi_offset 4, -20
 3138              		.cfi_offset 5, -16
 3139              		.cfi_offset 6, -12
 3140              		.cfi_offset 7, -8
 3141              		.cfi_offset 14, -4
 3142 0002 87B0     		sub	sp, sp, #28
 3143              	.LCFI12:
 3144              		.cfi_def_cfa_offset 48
 3145 0004 0500     		movs	r5, r0
 390:Src/charlie.c ****   GPIO_InitTypeDef GPIO_InitStruct = {0};
 3146              		.loc 2 390 3 is_stmt 1 view .LVU450
 3147              		.loc 2 390 20 is_stmt 0 view .LVU451
 3148 0006 01AC     		add	r4, sp, #4
 3149 0008 1422     		movs	r2, #20
 3150 000a 0021     		movs	r1, #0
 3151 000c 2000     		movs	r0, r4
 3152              	.LVL192:
 3153              		.loc 2 390 20 view .LVU452
 3154 000e FFF7FEFF 		bl	memset
ARM GAS  /tmp/ccr4JylA.s 			page 75


 3155              	.LVL193:
 391:Src/charlie.c **** 
 392:Src/charlie.c ****   /*Configure GPIO pin Output Level */
 393:Src/charlie.c ****   HAL_GPIO_WritePin(GPIOA, A_Pin, GPIO_PIN_RESET);
 3156              		.loc 2 393 3 is_stmt 1 view .LVU453
 3157 0012 9020     		movs	r0, #144
 3158 0014 0022     		movs	r2, #0
 3159 0016 0121     		movs	r1, #1
 3160 0018 C005     		lsls	r0, r0, #23
 3161 001a FFF7FEFF 		bl	HAL_GPIO_WritePin
 3162              	.LVL194:
 394:Src/charlie.c **** 
 395:Src/charlie.c ****   /*Configure GPIO pin : Mode_Pin */
 396:Src/charlie.c ****   GPIO_InitStruct.Pin = Mode_Pin;
 3163              		.loc 2 396 3 view .LVU454
 3164              		.loc 2 396 23 is_stmt 0 view .LVU455
 3165 001e 8023     		movs	r3, #128
 3166 0020 5B00     		lsls	r3, r3, #1
 3167 0022 0193     		str	r3, [sp, #4]
 397:Src/charlie.c ****   GPIO_InitStruct.Mode = GPIO_MODE_INPUT;
 3168              		.loc 2 397 3 is_stmt 1 view .LVU456
 3169              		.loc 2 397 24 is_stmt 0 view .LVU457
 3170 0024 0026     		movs	r6, #0
 3171 0026 6660     		str	r6, [r4, #4]
 398:Src/charlie.c ****   GPIO_InitStruct.Pull = GPIO_PULLUP;
 3172              		.loc 2 398 3 is_stmt 1 view .LVU458
 3173              		.loc 2 398 24 is_stmt 0 view .LVU459
 3174 0028 0127     		movs	r7, #1
 3175 002a A760     		str	r7, [r4, #8]
 399:Src/charlie.c ****   HAL_GPIO_Init(Mode_GPIO_Port, &GPIO_InitStruct);
 3176              		.loc 2 399 3 is_stmt 1 view .LVU460
 3177 002c 2100     		movs	r1, r4
 3178 002e 0748     		ldr	r0, .L98
 3179 0030 FFF7FEFF 		bl	HAL_GPIO_Init
 3180              	.LVL195:
 400:Src/charlie.c **** 
 401:Src/charlie.c ****   /*Configure GPIO pins : A_Pin */
 402:Src/charlie.c ****   GPIO_InitStruct.Pin = A_Pin;
 3181              		.loc 2 402 3 view .LVU461
 3182              		.loc 2 402 23 is_stmt 0 view .LVU462
 3183 0034 0197     		str	r7, [sp, #4]
 403:Src/charlie.c ****   GPIO_InitStruct.Mode = GPIO_MODE_OUTPUT_PP;
 3184              		.loc 2 403 3 is_stmt 1 view .LVU463
 3185              		.loc 2 403 24 is_stmt 0 view .LVU464
 3186 0036 6760     		str	r7, [r4, #4]
 404:Src/charlie.c ****   GPIO_InitStruct.Pull = GPIO_NOPULL;
 3187              		.loc 2 404 3 is_stmt 1 view .LVU465
 3188              		.loc 2 404 24 is_stmt 0 view .LVU466
 3189 0038 A660     		str	r6, [r4, #8]
 405:Src/charlie.c ****   GPIO_InitStruct.Speed = GPIO_SPEED_FREQ_LOW;
 3190              		.loc 2 405 3 is_stmt 1 view .LVU467
 3191              		.loc 2 405 25 is_stmt 0 view .LVU468
 3192 003a E660     		str	r6, [r4, #12]
 406:Src/charlie.c **** //  HAL_GPIO_Init(GPIOA, &GPIO_InitStruct);
 407:Src/charlie.c **** 
 408:Src/charlie.c ****   return GPIO_InitStruct;
 3193              		.loc 2 408 3 is_stmt 1 view .LVU469
ARM GAS  /tmp/ccr4JylA.s 			page 76


 3194              		.loc 2 408 10 is_stmt 0 view .LVU470
 3195 003c 2B00     		movs	r3, r5
 3196 003e 07CC     		ldmia	r4!, {r0, r1, r2}
 3197 0040 07C3     		stmia	r3!, {r0, r1, r2}
 3198 0042 06CC     		ldmia	r4!, {r1, r2}
 3199 0044 06C3     		stmia	r3!, {r1, r2}
 409:Src/charlie.c **** }
 3200              		.loc 2 409 1 view .LVU471
 3201 0046 2800     		movs	r0, r5
 3202 0048 07B0     		add	sp, sp, #28
 3203              		@ sp needed
 3204              	.LVL196:
 3205              		.loc 2 409 1 view .LVU472
 3206 004a F0BD     		pop	{r4, r5, r6, r7, pc}
 3207              	.L99:
 3208              		.align	2
 3209              	.L98:
 3210 004c 00040048 		.word	1207960576
 3211              		.cfi_endproc
 3212              	.LFE45:
 3214              		.section	.text.initB,"ax",%progbits
 3215              		.align	1
 3216              		.global	initB
 3217              		.syntax unified
 3218              		.code	16
 3219              		.thumb_func
 3220              		.fpu softvfp
 3222              	initB:
 3223              	.LVL197:
 3224              	.LFB46:
 410:Src/charlie.c **** 
 411:Src/charlie.c **** GPIO_InitTypeDef initB(){
 3225              		.loc 2 411 25 is_stmt 1 view -0
 3226              		.cfi_startproc
 3227              		@ args = 0, pretend = 0, frame = 24
 3228              		@ frame_needed = 0, uses_anonymous_args = 0
 3229              		.loc 2 411 25 is_stmt 0 view .LVU474
 3230 0000 F0B5     		push	{r4, r5, r6, r7, lr}
 3231              	.LCFI13:
 3232              		.cfi_def_cfa_offset 20
 3233              		.cfi_offset 4, -20
 3234              		.cfi_offset 5, -16
 3235              		.cfi_offset 6, -12
 3236              		.cfi_offset 7, -8
 3237              		.cfi_offset 14, -4
 3238 0002 87B0     		sub	sp, sp, #28
 3239              	.LCFI14:
 3240              		.cfi_def_cfa_offset 48
 3241 0004 0500     		movs	r5, r0
 412:Src/charlie.c ****   GPIO_InitTypeDef GPIO_InitStruct = {0};
 3242              		.loc 2 412 3 is_stmt 1 view .LVU475
 3243              		.loc 2 412 20 is_stmt 0 view .LVU476
 3244 0006 01AC     		add	r4, sp, #4
 3245 0008 1422     		movs	r2, #20
 3246 000a 0021     		movs	r1, #0
 3247 000c 2000     		movs	r0, r4
 3248              	.LVL198:
ARM GAS  /tmp/ccr4JylA.s 			page 77


 3249              		.loc 2 412 20 view .LVU477
 3250 000e FFF7FEFF 		bl	memset
 3251              	.LVL199:
 413:Src/charlie.c **** 
 414:Src/charlie.c ****   /*Configure GPIO pin Output Level */
 415:Src/charlie.c ****   HAL_GPIO_WritePin(GPIOA, B_Pin, GPIO_PIN_RESET);
 3252              		.loc 2 415 3 is_stmt 1 view .LVU478
 3253 0012 9020     		movs	r0, #144
 3254 0014 0022     		movs	r2, #0
 3255 0016 0221     		movs	r1, #2
 3256 0018 C005     		lsls	r0, r0, #23
 3257 001a FFF7FEFF 		bl	HAL_GPIO_WritePin
 3258              	.LVL200:
 416:Src/charlie.c **** 
 417:Src/charlie.c ****   /*Configure GPIO pin : Mode_Pin */
 418:Src/charlie.c ****   GPIO_InitStruct.Pin = Mode_Pin;
 3259              		.loc 2 418 3 view .LVU479
 3260              		.loc 2 418 23 is_stmt 0 view .LVU480
 3261 001e 8023     		movs	r3, #128
 3262 0020 5B00     		lsls	r3, r3, #1
 3263 0022 0193     		str	r3, [sp, #4]
 419:Src/charlie.c ****   GPIO_InitStruct.Mode = GPIO_MODE_INPUT;
 3264              		.loc 2 419 3 is_stmt 1 view .LVU481
 3265              		.loc 2 419 24 is_stmt 0 view .LVU482
 3266 0024 0026     		movs	r6, #0
 3267 0026 6660     		str	r6, [r4, #4]
 420:Src/charlie.c ****   GPIO_InitStruct.Pull = GPIO_PULLUP;
 3268              		.loc 2 420 3 is_stmt 1 view .LVU483
 3269              		.loc 2 420 24 is_stmt 0 view .LVU484
 3270 0028 0127     		movs	r7, #1
 3271 002a A760     		str	r7, [r4, #8]
 421:Src/charlie.c ****   HAL_GPIO_Init(Mode_GPIO_Port, &GPIO_InitStruct);
 3272              		.loc 2 421 3 is_stmt 1 view .LVU485
 3273 002c 2100     		movs	r1, r4
 3274 002e 0848     		ldr	r0, .L101
 3275 0030 FFF7FEFF 		bl	HAL_GPIO_Init
 3276              	.LVL201:
 422:Src/charlie.c **** 
 423:Src/charlie.c ****   /*Configure GPIO pins : A_Pin */
 424:Src/charlie.c ****   GPIO_InitStruct.Pin = B_Pin;
 3277              		.loc 2 424 3 view .LVU486
 3278              		.loc 2 424 23 is_stmt 0 view .LVU487
 3279 0034 0223     		movs	r3, #2
 3280 0036 0193     		str	r3, [sp, #4]
 425:Src/charlie.c ****   GPIO_InitStruct.Mode = GPIO_MODE_OUTPUT_PP;
 3281              		.loc 2 425 3 is_stmt 1 view .LVU488
 3282              		.loc 2 425 24 is_stmt 0 view .LVU489
 3283 0038 6760     		str	r7, [r4, #4]
 426:Src/charlie.c ****   GPIO_InitStruct.Pull = GPIO_NOPULL;
 3284              		.loc 2 426 3 is_stmt 1 view .LVU490
 3285              		.loc 2 426 24 is_stmt 0 view .LVU491
 3286 003a A660     		str	r6, [r4, #8]
 427:Src/charlie.c ****   GPIO_InitStruct.Speed = GPIO_SPEED_FREQ_LOW;
 3287              		.loc 2 427 3 is_stmt 1 view .LVU492
 3288              		.loc 2 427 25 is_stmt 0 view .LVU493
 3289 003c E660     		str	r6, [r4, #12]
 428:Src/charlie.c **** //  HAL_GPIO_Init(GPIOA, &GPIO_InitStruct);
ARM GAS  /tmp/ccr4JylA.s 			page 78


 429:Src/charlie.c **** 
 430:Src/charlie.c ****   return GPIO_InitStruct;
 3290              		.loc 2 430 3 is_stmt 1 view .LVU494
 3291              		.loc 2 430 10 is_stmt 0 view .LVU495
 3292 003e 2B00     		movs	r3, r5
 3293 0040 07CC     		ldmia	r4!, {r0, r1, r2}
 3294 0042 07C3     		stmia	r3!, {r0, r1, r2}
 3295 0044 06CC     		ldmia	r4!, {r1, r2}
 3296 0046 06C3     		stmia	r3!, {r1, r2}
 431:Src/charlie.c **** }
 3297              		.loc 2 431 1 view .LVU496
 3298 0048 2800     		movs	r0, r5
 3299 004a 07B0     		add	sp, sp, #28
 3300              		@ sp needed
 3301              	.LVL202:
 3302              		.loc 2 431 1 view .LVU497
 3303 004c F0BD     		pop	{r4, r5, r6, r7, pc}
 3304              	.L102:
 3305 004e C046     		.align	2
 3306              	.L101:
 3307 0050 00040048 		.word	1207960576
 3308              		.cfi_endproc
 3309              	.LFE46:
 3311              		.section	.text.initC,"ax",%progbits
 3312              		.align	1
 3313              		.global	initC
 3314              		.syntax unified
 3315              		.code	16
 3316              		.thumb_func
 3317              		.fpu softvfp
 3319              	initC:
 3320              	.LVL203:
 3321              	.LFB47:
 432:Src/charlie.c **** 
 433:Src/charlie.c **** GPIO_InitTypeDef initC(){
 3322              		.loc 2 433 25 is_stmt 1 view -0
 3323              		.cfi_startproc
 3324              		@ args = 0, pretend = 0, frame = 24
 3325              		@ frame_needed = 0, uses_anonymous_args = 0
 3326              		.loc 2 433 25 is_stmt 0 view .LVU499
 3327 0000 F0B5     		push	{r4, r5, r6, r7, lr}
 3328              	.LCFI15:
 3329              		.cfi_def_cfa_offset 20
 3330              		.cfi_offset 4, -20
 3331              		.cfi_offset 5, -16
 3332              		.cfi_offset 6, -12
 3333              		.cfi_offset 7, -8
 3334              		.cfi_offset 14, -4
 3335 0002 87B0     		sub	sp, sp, #28
 3336              	.LCFI16:
 3337              		.cfi_def_cfa_offset 48
 3338 0004 0500     		movs	r5, r0
 434:Src/charlie.c ****   GPIO_InitTypeDef GPIO_InitStruct = {0};
 3339              		.loc 2 434 3 is_stmt 1 view .LVU500
 3340              		.loc 2 434 20 is_stmt 0 view .LVU501
 3341 0006 01AC     		add	r4, sp, #4
 3342 0008 1422     		movs	r2, #20
ARM GAS  /tmp/ccr4JylA.s 			page 79


 3343 000a 0021     		movs	r1, #0
 3344 000c 2000     		movs	r0, r4
 3345              	.LVL204:
 3346              		.loc 2 434 20 view .LVU502
 3347 000e FFF7FEFF 		bl	memset
 3348              	.LVL205:
 435:Src/charlie.c **** 
 436:Src/charlie.c ****   /*Configure GPIO pin Output Level */
 437:Src/charlie.c ****   HAL_GPIO_WritePin(GPIOA, C_Pin, GPIO_PIN_RESET);
 3349              		.loc 2 437 3 is_stmt 1 view .LVU503
 3350 0012 9020     		movs	r0, #144
 3351 0014 0022     		movs	r2, #0
 3352 0016 0421     		movs	r1, #4
 3353 0018 C005     		lsls	r0, r0, #23
 3354 001a FFF7FEFF 		bl	HAL_GPIO_WritePin
 3355              	.LVL206:
 438:Src/charlie.c **** 
 439:Src/charlie.c ****   /*Configure GPIO pin : Mode_Pin */
 440:Src/charlie.c ****   GPIO_InitStruct.Pin = Mode_Pin;
 3356              		.loc 2 440 3 view .LVU504
 3357              		.loc 2 440 23 is_stmt 0 view .LVU505
 3358 001e 8023     		movs	r3, #128
 3359 0020 5B00     		lsls	r3, r3, #1
 3360 0022 0193     		str	r3, [sp, #4]
 441:Src/charlie.c ****   GPIO_InitStruct.Mode = GPIO_MODE_INPUT;
 3361              		.loc 2 441 3 is_stmt 1 view .LVU506
 3362              		.loc 2 441 24 is_stmt 0 view .LVU507
 3363 0024 0026     		movs	r6, #0
 3364 0026 6660     		str	r6, [r4, #4]
 442:Src/charlie.c ****   GPIO_InitStruct.Pull = GPIO_PULLUP;
 3365              		.loc 2 442 3 is_stmt 1 view .LVU508
 3366              		.loc 2 442 24 is_stmt 0 view .LVU509
 3367 0028 0127     		movs	r7, #1
 3368 002a A760     		str	r7, [r4, #8]
 443:Src/charlie.c ****   HAL_GPIO_Init(Mode_GPIO_Port, &GPIO_InitStruct);
 3369              		.loc 2 443 3 is_stmt 1 view .LVU510
 3370 002c 2100     		movs	r1, r4
 3371 002e 0848     		ldr	r0, .L104
 3372 0030 FFF7FEFF 		bl	HAL_GPIO_Init
 3373              	.LVL207:
 444:Src/charlie.c **** 
 445:Src/charlie.c ****   /*Configure GPIO pins : A_Pin */
 446:Src/charlie.c ****   GPIO_InitStruct.Pin = C_Pin;
 3374              		.loc 2 446 3 view .LVU511
 3375              		.loc 2 446 23 is_stmt 0 view .LVU512
 3376 0034 0423     		movs	r3, #4
 3377 0036 0193     		str	r3, [sp, #4]
 447:Src/charlie.c ****   GPIO_InitStruct.Mode = GPIO_MODE_OUTPUT_PP;
 3378              		.loc 2 447 3 is_stmt 1 view .LVU513
 3379              		.loc 2 447 24 is_stmt 0 view .LVU514
 3380 0038 6760     		str	r7, [r4, #4]
 448:Src/charlie.c ****   GPIO_InitStruct.Pull = GPIO_NOPULL;
 3381              		.loc 2 448 3 is_stmt 1 view .LVU515
 3382              		.loc 2 448 24 is_stmt 0 view .LVU516
 3383 003a A660     		str	r6, [r4, #8]
 449:Src/charlie.c ****   GPIO_InitStruct.Speed = GPIO_SPEED_FREQ_LOW;
 3384              		.loc 2 449 3 is_stmt 1 view .LVU517
ARM GAS  /tmp/ccr4JylA.s 			page 80


 3385              		.loc 2 449 25 is_stmt 0 view .LVU518
 3386 003c E660     		str	r6, [r4, #12]
 450:Src/charlie.c **** //  HAL_GPIO_Init(GPIOA, &GPIO_InitStruct);
 451:Src/charlie.c **** 
 452:Src/charlie.c ****   return GPIO_InitStruct;
 3387              		.loc 2 452 3 is_stmt 1 view .LVU519
 3388              		.loc 2 452 10 is_stmt 0 view .LVU520
 3389 003e 2B00     		movs	r3, r5
 3390 0040 07CC     		ldmia	r4!, {r0, r1, r2}
 3391 0042 07C3     		stmia	r3!, {r0, r1, r2}
 3392 0044 06CC     		ldmia	r4!, {r1, r2}
 3393 0046 06C3     		stmia	r3!, {r1, r2}
 453:Src/charlie.c **** }
 3394              		.loc 2 453 1 view .LVU521
 3395 0048 2800     		movs	r0, r5
 3396 004a 07B0     		add	sp, sp, #28
 3397              		@ sp needed
 3398              	.LVL208:
 3399              		.loc 2 453 1 view .LVU522
 3400 004c F0BD     		pop	{r4, r5, r6, r7, pc}
 3401              	.L105:
 3402 004e C046     		.align	2
 3403              	.L104:
 3404 0050 00040048 		.word	1207960576
 3405              		.cfi_endproc
 3406              	.LFE47:
 3408              		.section	.text.initD,"ax",%progbits
 3409              		.align	1
 3410              		.global	initD
 3411              		.syntax unified
 3412              		.code	16
 3413              		.thumb_func
 3414              		.fpu softvfp
 3416              	initD:
 3417              	.LVL209:
 3418              	.LFB48:
 454:Src/charlie.c **** 
 455:Src/charlie.c **** GPIO_InitTypeDef initD(){
 3419              		.loc 2 455 25 is_stmt 1 view -0
 3420              		.cfi_startproc
 3421              		@ args = 0, pretend = 0, frame = 24
 3422              		@ frame_needed = 0, uses_anonymous_args = 0
 3423              		.loc 2 455 25 is_stmt 0 view .LVU524
 3424 0000 F0B5     		push	{r4, r5, r6, r7, lr}
 3425              	.LCFI17:
 3426              		.cfi_def_cfa_offset 20
 3427              		.cfi_offset 4, -20
 3428              		.cfi_offset 5, -16
 3429              		.cfi_offset 6, -12
 3430              		.cfi_offset 7, -8
 3431              		.cfi_offset 14, -4
 3432 0002 87B0     		sub	sp, sp, #28
 3433              	.LCFI18:
 3434              		.cfi_def_cfa_offset 48
 3435 0004 0500     		movs	r5, r0
 456:Src/charlie.c ****   GPIO_InitTypeDef GPIO_InitStruct = {0};
 3436              		.loc 2 456 3 is_stmt 1 view .LVU525
ARM GAS  /tmp/ccr4JylA.s 			page 81


 3437              		.loc 2 456 20 is_stmt 0 view .LVU526
 3438 0006 01AC     		add	r4, sp, #4
 3439 0008 1422     		movs	r2, #20
 3440 000a 0021     		movs	r1, #0
 3441 000c 2000     		movs	r0, r4
 3442              	.LVL210:
 3443              		.loc 2 456 20 view .LVU527
 3444 000e FFF7FEFF 		bl	memset
 3445              	.LVL211:
 457:Src/charlie.c **** 
 458:Src/charlie.c ****   /*Configure GPIO pin Output Level */
 459:Src/charlie.c ****   HAL_GPIO_WritePin(GPIOA, D_Pin, GPIO_PIN_RESET);
 3446              		.loc 2 459 3 is_stmt 1 view .LVU528
 3447 0012 9020     		movs	r0, #144
 3448 0014 0022     		movs	r2, #0
 3449 0016 0821     		movs	r1, #8
 3450 0018 C005     		lsls	r0, r0, #23
 3451 001a FFF7FEFF 		bl	HAL_GPIO_WritePin
 3452              	.LVL212:
 460:Src/charlie.c **** 
 461:Src/charlie.c ****   /*Configure GPIO pin : Mode_Pin */
 462:Src/charlie.c ****   GPIO_InitStruct.Pin = Mode_Pin;
 3453              		.loc 2 462 3 view .LVU529
 3454              		.loc 2 462 23 is_stmt 0 view .LVU530
 3455 001e 8023     		movs	r3, #128
 3456 0020 5B00     		lsls	r3, r3, #1
 3457 0022 0193     		str	r3, [sp, #4]
 463:Src/charlie.c ****   GPIO_InitStruct.Mode = GPIO_MODE_INPUT;
 3458              		.loc 2 463 3 is_stmt 1 view .LVU531
 3459              		.loc 2 463 24 is_stmt 0 view .LVU532
 3460 0024 0026     		movs	r6, #0
 3461 0026 6660     		str	r6, [r4, #4]
 464:Src/charlie.c ****   GPIO_InitStruct.Pull = GPIO_PULLUP;
 3462              		.loc 2 464 3 is_stmt 1 view .LVU533
 3463              		.loc 2 464 24 is_stmt 0 view .LVU534
 3464 0028 0127     		movs	r7, #1
 3465 002a A760     		str	r7, [r4, #8]
 465:Src/charlie.c ****   HAL_GPIO_Init(Mode_GPIO_Port, &GPIO_InitStruct);
 3466              		.loc 2 465 3 is_stmt 1 view .LVU535
 3467 002c 2100     		movs	r1, r4
 3468 002e 0848     		ldr	r0, .L107
 3469 0030 FFF7FEFF 		bl	HAL_GPIO_Init
 3470              	.LVL213:
 466:Src/charlie.c **** 
 467:Src/charlie.c ****   /*Configure GPIO pins : A_Pin */
 468:Src/charlie.c ****   GPIO_InitStruct.Pin = D_Pin;
 3471              		.loc 2 468 3 view .LVU536
 3472              		.loc 2 468 23 is_stmt 0 view .LVU537
 3473 0034 0823     		movs	r3, #8
 3474 0036 0193     		str	r3, [sp, #4]
 469:Src/charlie.c ****   GPIO_InitStruct.Mode = GPIO_MODE_OUTPUT_PP;
 3475              		.loc 2 469 3 is_stmt 1 view .LVU538
 3476              		.loc 2 469 24 is_stmt 0 view .LVU539
 3477 0038 6760     		str	r7, [r4, #4]
 470:Src/charlie.c ****   GPIO_InitStruct.Pull = GPIO_NOPULL;
 3478              		.loc 2 470 3 is_stmt 1 view .LVU540
 3479              		.loc 2 470 24 is_stmt 0 view .LVU541
ARM GAS  /tmp/ccr4JylA.s 			page 82


 3480 003a A660     		str	r6, [r4, #8]
 471:Src/charlie.c ****   GPIO_InitStruct.Speed = GPIO_SPEED_FREQ_LOW;
 3481              		.loc 2 471 3 is_stmt 1 view .LVU542
 3482              		.loc 2 471 25 is_stmt 0 view .LVU543
 3483 003c E660     		str	r6, [r4, #12]
 472:Src/charlie.c **** //  HAL_GPIO_Init(GPIOA, &GPIO_InitStruct);
 473:Src/charlie.c **** 
 474:Src/charlie.c ****   return GPIO_InitStruct;
 3484              		.loc 2 474 3 is_stmt 1 view .LVU544
 3485              		.loc 2 474 10 is_stmt 0 view .LVU545
 3486 003e 2B00     		movs	r3, r5
 3487 0040 07CC     		ldmia	r4!, {r0, r1, r2}
 3488 0042 07C3     		stmia	r3!, {r0, r1, r2}
 3489 0044 06CC     		ldmia	r4!, {r1, r2}
 3490 0046 06C3     		stmia	r3!, {r1, r2}
 475:Src/charlie.c **** }
 3491              		.loc 2 475 1 view .LVU546
 3492 0048 2800     		movs	r0, r5
 3493 004a 07B0     		add	sp, sp, #28
 3494              		@ sp needed
 3495              	.LVL214:
 3496              		.loc 2 475 1 view .LVU547
 3497 004c F0BD     		pop	{r4, r5, r6, r7, pc}
 3498              	.L108:
 3499 004e C046     		.align	2
 3500              	.L107:
 3501 0050 00040048 		.word	1207960576
 3502              		.cfi_endproc
 3503              	.LFE48:
 3505              		.section	.text.SystemClock_Config,"ax",%progbits
 3506              		.align	1
 3507              		.global	SystemClock_Config
 3508              		.syntax unified
 3509              		.code	16
 3510              		.thumb_func
 3511              		.fpu softvfp
 3513              	SystemClock_Config:
 3514              	.LFB50:
 141:Src/main.c    ****   RCC_OscInitTypeDef RCC_OscInitStruct = {0};
 3515              		.loc 1 141 1 is_stmt 1 view -0
 3516              		.cfi_startproc
 3517              		@ args = 0, pretend = 0, frame = 96
 3518              		@ frame_needed = 0, uses_anonymous_args = 0
 3519 0000 10B5     		push	{r4, lr}
 3520              	.LCFI19:
 3521              		.cfi_def_cfa_offset 8
 3522              		.cfi_offset 4, -8
 3523              		.cfi_offset 14, -4
 3524 0002 98B0     		sub	sp, sp, #96
 3525              	.LCFI20:
 3526              		.cfi_def_cfa_offset 104
 142:Src/main.c    ****   RCC_ClkInitTypeDef RCC_ClkInitStruct = {0};
 3527              		.loc 1 142 3 view .LVU549
 142:Src/main.c    ****   RCC_ClkInitTypeDef RCC_ClkInitStruct = {0};
 3528              		.loc 1 142 22 is_stmt 0 view .LVU550
 3529 0004 3022     		movs	r2, #48
 3530 0006 0021     		movs	r1, #0
ARM GAS  /tmp/ccr4JylA.s 			page 83


 3531 0008 0CA8     		add	r0, sp, #48
 3532 000a FFF7FEFF 		bl	memset
 3533              	.LVL215:
 143:Src/main.c    ****   RCC_PeriphCLKInitTypeDef PeriphClkInit = {0};
 3534              		.loc 1 143 3 is_stmt 1 view .LVU551
 143:Src/main.c    ****   RCC_PeriphCLKInitTypeDef PeriphClkInit = {0};
 3535              		.loc 1 143 22 is_stmt 0 view .LVU552
 3536 000e 1022     		movs	r2, #16
 3537 0010 0021     		movs	r1, #0
 3538 0012 07A8     		add	r0, sp, #28
 3539 0014 FFF7FEFF 		bl	memset
 3540              	.LVL216:
 144:Src/main.c    **** 
 3541              		.loc 1 144 3 is_stmt 1 view .LVU553
 144:Src/main.c    **** 
 3542              		.loc 1 144 28 is_stmt 0 view .LVU554
 3543 0018 1822     		movs	r2, #24
 3544 001a 0021     		movs	r1, #0
 3545 001c 01A8     		add	r0, sp, #4
 3546 001e FFF7FEFF 		bl	memset
 3547              	.LVL217:
 148:Src/main.c    ****   RCC_OscInitStruct.HSI48State = RCC_HSI48_ON;
 3548              		.loc 1 148 3 is_stmt 1 view .LVU555
 148:Src/main.c    ****   RCC_OscInitStruct.HSI48State = RCC_HSI48_ON;
 3549              		.loc 1 148 36 is_stmt 0 view .LVU556
 3550 0022 2823     		movs	r3, #40
 3551 0024 0B93     		str	r3, [sp, #44]
 149:Src/main.c    ****   RCC_OscInitStruct.LSIState = RCC_LSI_ON;
 3552              		.loc 1 149 3 is_stmt 1 view .LVU557
 149:Src/main.c    ****   RCC_OscInitStruct.LSIState = RCC_LSI_ON;
 3553              		.loc 1 149 32 is_stmt 0 view .LVU558
 3554 0026 273B     		subs	r3, r3, #39
 3555 0028 1393     		str	r3, [sp, #76]
 150:Src/main.c    ****   RCC_OscInitStruct.PLL.PLLState = RCC_PLL_NONE;
 3556              		.loc 1 150 3 is_stmt 1 view .LVU559
 150:Src/main.c    ****   RCC_OscInitStruct.PLL.PLLState = RCC_PLL_NONE;
 3557              		.loc 1 150 30 is_stmt 0 view .LVU560
 3558 002a 1293     		str	r3, [sp, #72]
 151:Src/main.c    ****   if (HAL_RCC_OscConfig(&RCC_OscInitStruct) != HAL_OK)
 3559              		.loc 1 151 3 is_stmt 1 view .LVU561
 152:Src/main.c    ****   {
 3560              		.loc 1 152 3 view .LVU562
 152:Src/main.c    ****   {
 3561              		.loc 1 152 7 is_stmt 0 view .LVU563
 3562 002c 0BA8     		add	r0, sp, #44
 3563 002e FFF7FEFF 		bl	HAL_RCC_OscConfig
 3564              	.LVL218:
 158:Src/main.c    ****                               |RCC_CLOCKTYPE_PCLK1;
 3565              		.loc 1 158 3 is_stmt 1 view .LVU564
 158:Src/main.c    ****                               |RCC_CLOCKTYPE_PCLK1;
 3566              		.loc 1 158 31 is_stmt 0 view .LVU565
 3567 0032 0723     		movs	r3, #7
 3568 0034 0793     		str	r3, [sp, #28]
 160:Src/main.c    ****   RCC_ClkInitStruct.AHBCLKDivider = RCC_SYSCLK_DIV1;
 3569              		.loc 1 160 3 is_stmt 1 view .LVU566
 160:Src/main.c    ****   RCC_ClkInitStruct.AHBCLKDivider = RCC_SYSCLK_DIV1;
 3570              		.loc 1 160 34 is_stmt 0 view .LVU567
ARM GAS  /tmp/ccr4JylA.s 			page 84


 3571 0036 043B     		subs	r3, r3, #4
 3572 0038 0893     		str	r3, [sp, #32]
 161:Src/main.c    ****   RCC_ClkInitStruct.APB1CLKDivider = RCC_HCLK_DIV1;
 3573              		.loc 1 161 3 is_stmt 1 view .LVU568
 161:Src/main.c    ****   RCC_ClkInitStruct.APB1CLKDivider = RCC_HCLK_DIV1;
 3574              		.loc 1 161 35 is_stmt 0 view .LVU569
 3575 003a 0024     		movs	r4, #0
 3576 003c 0994     		str	r4, [sp, #36]
 162:Src/main.c    **** 
 3577              		.loc 1 162 3 is_stmt 1 view .LVU570
 162:Src/main.c    **** 
 3578              		.loc 1 162 36 is_stmt 0 view .LVU571
 3579 003e 0A94     		str	r4, [sp, #40]
 164:Src/main.c    ****   {
 3580              		.loc 1 164 3 is_stmt 1 view .LVU572
 164:Src/main.c    ****   {
 3581              		.loc 1 164 7 is_stmt 0 view .LVU573
 3582 0040 0121     		movs	r1, #1
 3583 0042 07A8     		add	r0, sp, #28
 3584 0044 FFF7FEFF 		bl	HAL_RCC_ClockConfig
 3585              	.LVL219:
 168:Src/main.c    ****   PeriphClkInit.RTCClockSelection = RCC_RTCCLKSOURCE_LSI;
 3586              		.loc 1 168 3 is_stmt 1 view .LVU574
 168:Src/main.c    ****   PeriphClkInit.RTCClockSelection = RCC_RTCCLKSOURCE_LSI;
 3587              		.loc 1 168 38 is_stmt 0 view .LVU575
 3588 0048 C023     		movs	r3, #192
 3589 004a 9B02     		lsls	r3, r3, #10
 3590 004c 0193     		str	r3, [sp, #4]
 169:Src/main.c    ****   PeriphClkInit.UsbClockSelection = RCC_USBCLKSOURCE_HSI48;
 3591              		.loc 1 169 3 is_stmt 1 view .LVU576
 169:Src/main.c    ****   PeriphClkInit.UsbClockSelection = RCC_USBCLKSOURCE_HSI48;
 3592              		.loc 1 169 35 is_stmt 0 view .LVU577
 3593 004e 8023     		movs	r3, #128
 3594 0050 9B00     		lsls	r3, r3, #2
 3595 0052 0293     		str	r3, [sp, #8]
 170:Src/main.c    **** 
 3596              		.loc 1 170 3 is_stmt 1 view .LVU578
 170:Src/main.c    **** 
 3597              		.loc 1 170 35 is_stmt 0 view .LVU579
 3598 0054 0694     		str	r4, [sp, #24]
 172:Src/main.c    ****   {
 3599              		.loc 1 172 3 is_stmt 1 view .LVU580
 172:Src/main.c    ****   {
 3600              		.loc 1 172 7 is_stmt 0 view .LVU581
 3601 0056 01A8     		add	r0, sp, #4
 3602 0058 FFF7FEFF 		bl	HAL_RCCEx_PeriphCLKConfig
 3603              	.LVL220:
 176:Src/main.c    **** 
 3604              		.loc 1 176 1 view .LVU582
 3605 005c 18B0     		add	sp, sp, #96
 3606              		@ sp needed
 3607 005e 10BD     		pop	{r4, pc}
 3608              		.cfi_endproc
 3609              	.LFE50:
 3611              		.section	.text.main,"ax",%progbits
 3612              		.align	1
 3613              		.global	main
ARM GAS  /tmp/ccr4JylA.s 			page 85


 3614              		.syntax unified
 3615              		.code	16
 3616              		.thumb_func
 3617              		.fpu softvfp
 3619              	main:
 3620              	.LFB49:
  80:Src/main.c    ****   /* USER CODE BEGIN 1 */
 3621              		.loc 1 80 1 is_stmt 1 view -0
 3622              		.cfi_startproc
 3623              		@ Volatile: function does not return.
 3624              		@ args = 0, pretend = 0, frame = 88
 3625              		@ frame_needed = 0, uses_anonymous_args = 0
 3626 0000 10B5     		push	{r4, lr}
 3627              	.LCFI21:
 3628              		.cfi_def_cfa_offset 8
 3629              		.cfi_offset 4, -8
 3630              		.cfi_offset 14, -4
 3631 0002 A8B0     		sub	sp, sp, #160
 3632              	.LCFI22:
 3633              		.cfi_def_cfa_offset 168
  88:Src/main.c    **** 
 3634              		.loc 1 88 3 view .LVU584
 3635 0004 FFF7FEFF 		bl	HAL_Init
 3636              	.LVL221:
  95:Src/main.c    **** 
 3637              		.loc 1 95 3 view .LVU585
 3638 0008 FFF7FEFF 		bl	SystemClock_Config
 3639              	.LVL222:
 102:Src/main.c    ****   MX_USB_DEVICE_Init();
 3640              		.loc 1 102 3 view .LVU586
 3641 000c FFF7FEFF 		bl	MX_GPIO_Init
 3642              	.LVL223:
 103:Src/main.c    ****   MX_RTC_Init();
 3643              		.loc 1 103 3 view .LVU587
 3644 0010 FFF7FEFF 		bl	MX_USB_DEVICE_Init
 3645              	.LVL224:
 104:Src/main.c    ****   MX_TIM1_Init();
 3646              		.loc 1 104 3 view .LVU588
 3647 0014 FFF7FEFF 		bl	MX_RTC_Init
 3648              	.LVL225:
 105:Src/main.c    ****   /* USER CODE BEGIN 2 */
 3649              		.loc 1 105 3 view .LVU589
 3650 0018 FFF7FEFF 		bl	MX_TIM1_Init
 3651              	.LVL226:
 107:Src/main.c    ****   GPIO_InitTypeDef PinB = initB();
 3652              		.loc 1 107 3 view .LVU590
 107:Src/main.c    ****   GPIO_InitTypeDef PinB = initB();
 3653              		.loc 1 107 27 is_stmt 0 view .LVU591
 3654 001c 23A8     		add	r0, sp, #140
 3655 001e FFF7FEFF 		bl	initA
 3656              	.LVL227:
 108:Src/main.c    ****   GPIO_InitTypeDef PinC = initC();
 3657              		.loc 1 108 3 is_stmt 1 view .LVU592
 108:Src/main.c    ****   GPIO_InitTypeDef PinC = initC();
 3658              		.loc 1 108 27 is_stmt 0 view .LVU593
 3659 0022 1EA8     		add	r0, sp, #120
 3660 0024 FFF7FEFF 		bl	initB
ARM GAS  /tmp/ccr4JylA.s 			page 86


 3661              	.LVL228:
 109:Src/main.c    ****   GPIO_InitTypeDef PinD = initD();
 3662              		.loc 1 109 3 is_stmt 1 view .LVU594
 109:Src/main.c    ****   GPIO_InitTypeDef PinD = initD();
 3663              		.loc 1 109 27 is_stmt 0 view .LVU595
 3664 0028 19A8     		add	r0, sp, #100
 3665 002a FFF7FEFF 		bl	initC
 3666              	.LVL229:
 110:Src/main.c    **** 
 3667              		.loc 1 110 3 is_stmt 1 view .LVU596
 110:Src/main.c    **** 
 3668              		.loc 1 110 27 is_stmt 0 view .LVU597
 3669 002e 14A8     		add	r0, sp, #80
 3670 0030 FFF7FEFF 		bl	initD
 3671              	.LVL230:
 112:Src/main.c    **** 
 3672              		.loc 1 112 3 is_stmt 1 view .LVU598
 112:Src/main.c    **** 
 3673              		.loc 1 112 8 is_stmt 0 view .LVU599
 3674 0034 1D4B     		ldr	r3, .L114
 3675 0036 0022     		movs	r2, #0
 3676 0038 1A60     		str	r2, [r3]
 3677              	.L111:
 118:Src/main.c    ****   {
 3678              		.loc 1 118 3 is_stmt 1 view .LVU600
 124:Src/main.c    ****     if(stop == 1){
 3679              		.loc 1 124 5 view .LVU601
 3680 003a 1D4B     		ldr	r3, .L114+4
 3681 003c 1B68     		ldr	r3, [r3]
 3682 003e 1093     		str	r3, [sp, #64]
 3683 0040 14A8     		add	r0, sp, #80
 3684 0042 0BA9     		add	r1, sp, #44
 3685 0044 0B00     		movs	r3, r1
 3686 0046 0200     		movs	r2, r0
 3687 0048 13CA     		ldmia	r2!, {r0, r1, r4}
 3688 004a 13C3     		stmia	r3!, {r0, r1, r4}
 3689 004c 03CA     		ldmia	r2!, {r0, r1}
 3690 004e 03C3     		stmia	r3!, {r0, r1}
 3691 0050 19A8     		add	r0, sp, #100
 3692 0052 06A9     		add	r1, sp, #24
 3693 0054 0B00     		movs	r3, r1
 3694 0056 0200     		movs	r2, r0
 3695 0058 13CA     		ldmia	r2!, {r0, r1, r4}
 3696 005a 13C3     		stmia	r3!, {r0, r1, r4}
 3697 005c 03CA     		ldmia	r2!, {r0, r1}
 3698 005e 03C3     		stmia	r3!, {r0, r1}
 3699 0060 1EA8     		add	r0, sp, #120
 3700 0062 01A9     		add	r1, sp, #4
 3701 0064 0B00     		movs	r3, r1
 3702 0066 0200     		movs	r2, r0
 3703 0068 13CA     		ldmia	r2!, {r0, r1, r4}
 3704 006a 13C3     		stmia	r3!, {r0, r1, r4}
 3705 006c 03CA     		ldmia	r2!, {r0, r1}
 3706 006e 03C3     		stmia	r3!, {r0, r1}
 3707 0070 279B     		ldr	r3, [sp, #156]
 3708 0072 1393     		str	r3, [sp, #76]
 3709 0074 0093     		str	r3, [sp]
ARM GAS  /tmp/ccr4JylA.s 			page 87


 3710 0076 2398     		ldr	r0, [sp, #140]
 3711 0078 2499     		ldr	r1, [sp, #144]
 3712 007a 259A     		ldr	r2, [sp, #148]
 3713 007c 269B     		ldr	r3, [sp, #152]
 3714 007e FFF7FEFF 		bl	dance
 3715              	.LVL231:
 125:Src/main.c    ****       HAL_Delay(100);
 3716              		.loc 1 125 5 view .LVU602
 125:Src/main.c    ****       HAL_Delay(100);
 3717              		.loc 1 125 13 is_stmt 0 view .LVU603
 3718 0082 0A4B     		ldr	r3, .L114
 3719 0084 1B68     		ldr	r3, [r3]
 125:Src/main.c    ****       HAL_Delay(100);
 3720              		.loc 1 125 7 view .LVU604
 3721 0086 012B     		cmp	r3, #1
 3722 0088 D7D1     		bne	.L111
 126:Src/main.c    ****       stop =0;
 3723              		.loc 1 126 7 is_stmt 1 view .LVU605
 3724 008a 6420     		movs	r0, #100
 3725 008c FFF7FEFF 		bl	HAL_Delay
 3726              	.LVL232:
 127:Src/main.c    ****       mamboNumber++;
 3727              		.loc 1 127 7 view .LVU606
 127:Src/main.c    ****       mamboNumber++;
 3728              		.loc 1 127 12 is_stmt 0 view .LVU607
 3729 0090 064B     		ldr	r3, .L114
 3730 0092 0022     		movs	r2, #0
 3731 0094 1A60     		str	r2, [r3]
 128:Src/main.c    ****       if(mamboNumber > 5)
 3732              		.loc 1 128 7 is_stmt 1 view .LVU608
 128:Src/main.c    ****       if(mamboNumber > 5)
 3733              		.loc 1 128 18 is_stmt 0 view .LVU609
 3734 0096 064A     		ldr	r2, .L114+4
 3735 0098 1368     		ldr	r3, [r2]
 3736 009a 0133     		adds	r3, r3, #1
 3737 009c 1360     		str	r3, [r2]
 129:Src/main.c    ****          mamboNumber = 0;
 3738              		.loc 1 129 7 is_stmt 1 view .LVU610
 129:Src/main.c    ****          mamboNumber = 0;
 3739              		.loc 1 129 9 is_stmt 0 view .LVU611
 3740 009e 052B     		cmp	r3, #5
 3741 00a0 CBDD     		ble	.L111
 130:Src/main.c    ****     }
 3742              		.loc 1 130 10 is_stmt 1 view .LVU612
 130:Src/main.c    ****     }
 3743              		.loc 1 130 22 is_stmt 0 view .LVU613
 3744 00a2 1300     		movs	r3, r2
 3745 00a4 0022     		movs	r2, #0
 3746 00a6 1A60     		str	r2, [r3]
 3747 00a8 C7E7     		b	.L111
 3748              	.L115:
 3749 00aa C046     		.align	2
 3750              	.L114:
 3751 00ac 00000000 		.word	.LANCHOR0
 3752 00b0 00000000 		.word	.LANCHOR1
 3753              		.cfi_endproc
 3754              	.LFE49:
ARM GAS  /tmp/ccr4JylA.s 			page 88


 3756              		.section	.text.HAL_GPIO_EXTI_Callback,"ax",%progbits
 3757              		.align	1
 3758              		.global	HAL_GPIO_EXTI_Callback
 3759              		.syntax unified
 3760              		.code	16
 3761              		.thumb_func
 3762              		.fpu softvfp
 3764              	HAL_GPIO_EXTI_Callback:
 3765              	.LVL233:
 3766              	.LFB54:
 300:Src/main.c    **** 
 301:Src/main.c    **** /* USER CODE BEGIN 4 */
 302:Src/main.c    **** 
 303:Src/main.c    **** /**
 304:Src/main.c    **** * @brief Interrupt callback for GPIOs
 305:Src/main.c    **** */
 306:Src/main.c    **** void HAL_GPIO_EXTI_Callback(uint16_t GPIO_Pin)
 307:Src/main.c    **** {
 3767              		.loc 1 307 1 is_stmt 1 view -0
 3768              		.cfi_startproc
 3769              		@ args = 0, pretend = 0, frame = 0
 3770              		@ frame_needed = 0, uses_anonymous_args = 0
 3771              		@ link register save eliminated.
 308:Src/main.c    ****     if ( GPIO_Pin == GPIO_PIN_8)
 3772              		.loc 1 308 5 view .LVU615
 3773              		.loc 1 308 8 is_stmt 0 view .LVU616
 3774 0000 8023     		movs	r3, #128
 3775 0002 5B00     		lsls	r3, r3, #1
 3776 0004 9842     		cmp	r0, r3
 3777 0006 00D0     		beq	.L118
 3778              	.L116:
 309:Src/main.c    ****     {
 310:Src/main.c    ****       stop = 1;
 311:Src/main.c    ****     }
 312:Src/main.c    **** 
 313:Src/main.c    **** }
 3779              		.loc 1 313 1 view .LVU617
 3780              		@ sp needed
 3781 0008 7047     		bx	lr
 3782              	.L118:
 310:Src/main.c    ****     }
 3783              		.loc 1 310 7 is_stmt 1 view .LVU618
 310:Src/main.c    ****     }
 3784              		.loc 1 310 12 is_stmt 0 view .LVU619
 3785 000a 024B     		ldr	r3, .L119
 3786 000c 0122     		movs	r2, #1
 3787 000e 1A60     		str	r2, [r3]
 3788              		.loc 1 313 1 view .LVU620
 3789 0010 FAE7     		b	.L116
 3790              	.L120:
 3791 0012 C046     		.align	2
 3792              	.L119:
 3793 0014 00000000 		.word	.LANCHOR0
 3794              		.cfi_endproc
 3795              	.LFE54:
 3797              		.section	.text.Error_Handler,"ax",%progbits
 3798              		.align	1
ARM GAS  /tmp/ccr4JylA.s 			page 89


 3799              		.global	Error_Handler
 3800              		.syntax unified
 3801              		.code	16
 3802              		.thumb_func
 3803              		.fpu softvfp
 3805              	Error_Handler:
 3806              	.LFB55:
 314:Src/main.c    **** 
 315:Src/main.c    **** /* USER CODE END 4 */
 316:Src/main.c    **** 
 317:Src/main.c    **** /**
 318:Src/main.c    ****   * @brief  This function is executed in case of error occurrence.
 319:Src/main.c    ****   * @retval None
 320:Src/main.c    ****   */
 321:Src/main.c    **** void Error_Handler(void)
 322:Src/main.c    **** {
 3807              		.loc 1 322 1 is_stmt 1 view -0
 3808              		.cfi_startproc
 3809              		@ args = 0, pretend = 0, frame = 0
 3810              		@ frame_needed = 0, uses_anonymous_args = 0
 3811              		@ link register save eliminated.
 323:Src/main.c    ****   /* USER CODE BEGIN Error_Handler_Debug */
 324:Src/main.c    ****   /* User can add his own implementation to report the HAL error return state */
 325:Src/main.c    **** 
 326:Src/main.c    ****   /* USER CODE END Error_Handler_Debug */
 327:Src/main.c    **** }
 3812              		.loc 1 327 1 view .LVU622
 3813              		@ sp needed
 3814 0000 7047     		bx	lr
 3815              		.cfi_endproc
 3816              	.LFE55:
 3818              		.global	stop
 3819              		.global	mamboNumber
 3820              		.comm	htim1,64,4
 3821              		.comm	hrtc,32,4
 3822              		.section	.bss.stop,"aw",%nobits
 3823              		.align	2
 3824              		.set	.LANCHOR0,. + 0
 3827              	stop:
 3828 0000 00000000 		.space	4
 3829              		.section	.data.mamboNumber,"aw"
 3830              		.align	2
 3831              		.set	.LANCHOR1,. + 0
 3834              	mamboNumber:
 3835 0000 04000000 		.word	4
 3836              		.text
 3837              	.Letext0:
 3838              		.file 3 "/usr/arm-none-eabi/include/machine/_default_types.h"
 3839              		.file 4 "/usr/arm-none-eabi/include/sys/_stdint.h"
 3840              		.file 5 "Drivers/CMSIS/Device/ST/STM32F0xx/Include/system_stm32f0xx.h"
 3841              		.file 6 "Drivers/CMSIS/Device/ST/STM32F0xx/Include/stm32f042x6.h"
 3842              		.file 7 "Drivers/STM32F0xx_HAL_Driver/Inc/stm32f0xx_hal_def.h"
 3843              		.file 8 "Drivers/STM32F0xx_HAL_Driver/Inc/stm32f0xx_hal_rcc.h"
 3844              		.file 9 "Drivers/STM32F0xx_HAL_Driver/Inc/stm32f0xx_hal_rcc_ex.h"
 3845              		.file 10 "Drivers/STM32F0xx_HAL_Driver/Inc/stm32f0xx_hal_gpio.h"
 3846              		.file 11 "Drivers/STM32F0xx_HAL_Driver/Inc/stm32f0xx_hal_dma.h"
 3847              		.file 12 "Drivers/STM32F0xx_HAL_Driver/Inc/stm32f0xx_hal_rtc.h"
ARM GAS  /tmp/ccr4JylA.s 			page 90


 3848              		.file 13 "Drivers/STM32F0xx_HAL_Driver/Inc/stm32f0xx_hal_tim.h"
 3849              		.file 14 "Drivers/STM32F0xx_HAL_Driver/Inc/stm32f0xx_hal.h"
 3850              		.file 15 "/usr/arm-none-eabi/include/sys/lock.h"
 3851              		.file 16 "/usr/arm-none-eabi/include/sys/_types.h"
 3852              		.file 17 "/usr/lib/gcc/arm-none-eabi/9.2.0/include/stddef.h"
 3853              		.file 18 "/usr/arm-none-eabi/include/sys/reent.h"
 3854              		.file 19 "/usr/arm-none-eabi/include/stdlib.h"
 3855              		.file 20 "Drivers/STM32F0xx_HAL_Driver/Inc/stm32f0xx_hal_cortex.h"
 3856              		.file 21 "Drivers/STM32F0xx_HAL_Driver/Inc/stm32f0xx_hal_tim_ex.h"
 3857              		.file 22 "Inc/usb_device.h"
 3858              		.file 23 "<built-in>"
ARM GAS  /tmp/ccr4JylA.s 			page 91


DEFINED SYMBOLS
                            *ABS*:0000000000000000 main.c
     /tmp/ccr4JylA.s:16     .text.MX_GPIO_Init:0000000000000000 $t
     /tmp/ccr4JylA.s:23     .text.MX_GPIO_Init:0000000000000000 MX_GPIO_Init
     /tmp/ccr4JylA.s:132    .text.MX_GPIO_Init:0000000000000070 $d
     /tmp/ccr4JylA.s:139    .text.MX_RTC_Init:0000000000000000 $t
     /tmp/ccr4JylA.s:145    .text.MX_RTC_Init:0000000000000000 MX_RTC_Init
     /tmp/ccr4JylA.s:193    .text.MX_RTC_Init:0000000000000024 $d
                            *COM*:0000000000000020 hrtc
     /tmp/ccr4JylA.s:199    .text.MX_TIM1_Init:0000000000000000 $t
     /tmp/ccr4JylA.s:205    .text.MX_TIM1_Init:0000000000000000 MX_TIM1_Init
     /tmp/ccr4JylA.s:293    .text.MX_TIM1_Init:0000000000000050 $d
                            *COM*:0000000000000040 htim1
     /tmp/ccr4JylA.s:299    .text.charlie:0000000000000000 $t
     /tmp/ccr4JylA.s:306    .text.charlie:0000000000000000 charlie
     /tmp/ccr4JylA.s:880    .text.dance:0000000000000000 $t
     /tmp/ccr4JylA.s:887    .text.dance:0000000000000000 dance
     /tmp/ccr4JylA.s:1593   .text.dance:0000000000000494 $d
     /tmp/ccr4JylA.s:1596   .text.dance:0000000000000498 $t
     /tmp/ccr4JylA.s:1653   .text.dance:00000000000004f8 $d
     /tmp/ccr4JylA.s:1656   .text.dance:00000000000004fc $t
     /tmp/ccr4JylA.s:2242   .text.dance:0000000000000904 $d
     /tmp/ccr4JylA.s:2245   .text.dance:0000000000000908 $t
     /tmp/ccr4JylA.s:2881   .text.dance:0000000000000cf4 $d
     /tmp/ccr4JylA.s:2889   .text.dance:0000000000000cfc $t
     /tmp/ccr4JylA.s:3112   .text.dance:0000000000000e3c $d
     /tmp/ccr4JylA.s:3119   .text.initA:0000000000000000 $t
     /tmp/ccr4JylA.s:3126   .text.initA:0000000000000000 initA
     /tmp/ccr4JylA.s:3210   .text.initA:000000000000004c $d
     /tmp/ccr4JylA.s:3215   .text.initB:0000000000000000 $t
     /tmp/ccr4JylA.s:3222   .text.initB:0000000000000000 initB
     /tmp/ccr4JylA.s:3307   .text.initB:0000000000000050 $d
     /tmp/ccr4JylA.s:3312   .text.initC:0000000000000000 $t
     /tmp/ccr4JylA.s:3319   .text.initC:0000000000000000 initC
     /tmp/ccr4JylA.s:3404   .text.initC:0000000000000050 $d
     /tmp/ccr4JylA.s:3409   .text.initD:0000000000000000 $t
     /tmp/ccr4JylA.s:3416   .text.initD:0000000000000000 initD
     /tmp/ccr4JylA.s:3501   .text.initD:0000000000000050 $d
     /tmp/ccr4JylA.s:3506   .text.SystemClock_Config:0000000000000000 $t
     /tmp/ccr4JylA.s:3513   .text.SystemClock_Config:0000000000000000 SystemClock_Config
     /tmp/ccr4JylA.s:3612   .text.main:0000000000000000 $t
     /tmp/ccr4JylA.s:3619   .text.main:0000000000000000 main
     /tmp/ccr4JylA.s:3751   .text.main:00000000000000ac $d
     /tmp/ccr4JylA.s:3757   .text.HAL_GPIO_EXTI_Callback:0000000000000000 $t
     /tmp/ccr4JylA.s:3764   .text.HAL_GPIO_EXTI_Callback:0000000000000000 HAL_GPIO_EXTI_Callback
     /tmp/ccr4JylA.s:3793   .text.HAL_GPIO_EXTI_Callback:0000000000000014 $d
     /tmp/ccr4JylA.s:3798   .text.Error_Handler:0000000000000000 $t
     /tmp/ccr4JylA.s:3805   .text.Error_Handler:0000000000000000 Error_Handler
     /tmp/ccr4JylA.s:3827   .bss.stop:0000000000000000 stop
     /tmp/ccr4JylA.s:3834   .data.mamboNumber:0000000000000000 mamboNumber
     /tmp/ccr4JylA.s:3823   .bss.stop:0000000000000000 $d
     /tmp/ccr4JylA.s:3830   .data.mamboNumber:0000000000000000 $d

UNDEFINED SYMBOLS
memset
HAL_GPIO_Init
HAL_NVIC_SetPriority
ARM GAS  /tmp/ccr4JylA.s 			page 92


HAL_NVIC_EnableIRQ
HAL_RTC_Init
HAL_TIM_Base_Init
HAL_TIM_ConfigClockSource
HAL_TIMEx_MasterConfigSynchronization
HAL_GPIO_DeInit
HAL_GPIO_WritePin
HAL_Delay
HAL_RCC_OscConfig
HAL_RCC_ClockConfig
HAL_RCCEx_PeriphCLKConfig
HAL_Init
MX_USB_DEVICE_Init
