ARM GAS  /tmp/ccJbOwNd.s 			page 1


   1              		.cpu cortex-m0
   2              		.eabi_attribute 20, 1
   3              		.eabi_attribute 21, 1
   4              		.eabi_attribute 23, 3
   5              		.eabi_attribute 24, 1
   6              		.eabi_attribute 25, 1
   7              		.eabi_attribute 26, 1
   8              		.eabi_attribute 30, 1
   9              		.eabi_attribute 34, 0
  10              		.eabi_attribute 18, 4
  11              		.file	"stm32f0xx_hal_rtc_ex.c"
  12              		.text
  13              	.Ltext0:
  14              		.cfi_sections	.debug_frame
  15              		.section	.text.HAL_RTCEx_SetTimeStamp,"ax",%progbits
  16              		.align	1
  17              		.global	HAL_RTCEx_SetTimeStamp
  18              		.arch armv6s-m
  19              		.syntax unified
  20              		.code	16
  21              		.thumb_func
  22              		.fpu softvfp
  24              	HAL_RTCEx_SetTimeStamp:
  25              	.LVL0:
  26              	.LFB40:
  27              		.file 1 "Drivers/STM32F0xx_HAL_Driver/Src/stm32f0xx_hal_rtc_ex.c"
   1:Drivers/STM32F0xx_HAL_Driver/Src/stm32f0xx_hal_rtc_ex.c **** /**
   2:Drivers/STM32F0xx_HAL_Driver/Src/stm32f0xx_hal_rtc_ex.c ****   ******************************************************************************
   3:Drivers/STM32F0xx_HAL_Driver/Src/stm32f0xx_hal_rtc_ex.c ****   * @file    stm32f0xx_hal_rtc_ex.c
   4:Drivers/STM32F0xx_HAL_Driver/Src/stm32f0xx_hal_rtc_ex.c ****   * @author  MCD Application Team
   5:Drivers/STM32F0xx_HAL_Driver/Src/stm32f0xx_hal_rtc_ex.c ****   * @brief   Extended RTC HAL module driver.
   6:Drivers/STM32F0xx_HAL_Driver/Src/stm32f0xx_hal_rtc_ex.c ****   *          This file provides firmware functions to manage the following
   7:Drivers/STM32F0xx_HAL_Driver/Src/stm32f0xx_hal_rtc_ex.c ****   *          functionalities of the Real Time Clock (RTC) Extended peripheral:
   8:Drivers/STM32F0xx_HAL_Driver/Src/stm32f0xx_hal_rtc_ex.c ****   *           + RTC Time Stamp functions
   9:Drivers/STM32F0xx_HAL_Driver/Src/stm32f0xx_hal_rtc_ex.c ****   *           + RTC Tamper functions
  10:Drivers/STM32F0xx_HAL_Driver/Src/stm32f0xx_hal_rtc_ex.c ****   *           + RTC Wake-up functions
  11:Drivers/STM32F0xx_HAL_Driver/Src/stm32f0xx_hal_rtc_ex.c ****   *           + Extended Control functions
  12:Drivers/STM32F0xx_HAL_Driver/Src/stm32f0xx_hal_rtc_ex.c ****   *           + Extended RTC features functions
  13:Drivers/STM32F0xx_HAL_Driver/Src/stm32f0xx_hal_rtc_ex.c ****   *
  14:Drivers/STM32F0xx_HAL_Driver/Src/stm32f0xx_hal_rtc_ex.c ****   @verbatim
  15:Drivers/STM32F0xx_HAL_Driver/Src/stm32f0xx_hal_rtc_ex.c ****   ==============================================================================
  16:Drivers/STM32F0xx_HAL_Driver/Src/stm32f0xx_hal_rtc_ex.c ****                   ##### How to use this driver #####
  17:Drivers/STM32F0xx_HAL_Driver/Src/stm32f0xx_hal_rtc_ex.c ****   ==============================================================================
  18:Drivers/STM32F0xx_HAL_Driver/Src/stm32f0xx_hal_rtc_ex.c ****   [..]
  19:Drivers/STM32F0xx_HAL_Driver/Src/stm32f0xx_hal_rtc_ex.c ****     (+) Enable the RTC domain access.
  20:Drivers/STM32F0xx_HAL_Driver/Src/stm32f0xx_hal_rtc_ex.c ****         (+) Configure the RTC Prescaler (Asynchronous and Synchronous) and RTC hour
  21:Drivers/STM32F0xx_HAL_Driver/Src/stm32f0xx_hal_rtc_ex.c ****             format using the HAL_RTC_Init() function.
  22:Drivers/STM32F0xx_HAL_Driver/Src/stm32f0xx_hal_rtc_ex.c **** 
  23:Drivers/STM32F0xx_HAL_Driver/Src/stm32f0xx_hal_rtc_ex.c ****     *** RTC Wake-up configuration ***
  24:Drivers/STM32F0xx_HAL_Driver/Src/stm32f0xx_hal_rtc_ex.c ****     ================================
  25:Drivers/STM32F0xx_HAL_Driver/Src/stm32f0xx_hal_rtc_ex.c ****     [..]
  26:Drivers/STM32F0xx_HAL_Driver/Src/stm32f0xx_hal_rtc_ex.c ****     (+) To configure the RTC Wakeup Clock source and Counter use the HAL_RTCEx_SetWakeUpTimer()
  27:Drivers/STM32F0xx_HAL_Driver/Src/stm32f0xx_hal_rtc_ex.c ****         function. You can also configure the RTC Wakeup timer with interrupt mode
  28:Drivers/STM32F0xx_HAL_Driver/Src/stm32f0xx_hal_rtc_ex.c ****             using the HAL_RTCEx_SetWakeUpTimer_IT() function.
  29:Drivers/STM32F0xx_HAL_Driver/Src/stm32f0xx_hal_rtc_ex.c ****     (+) To read the RTC WakeUp Counter register, use the HAL_RTCEx_GetWakeUpTimer()
  30:Drivers/STM32F0xx_HAL_Driver/Src/stm32f0xx_hal_rtc_ex.c ****             function.
  31:Drivers/STM32F0xx_HAL_Driver/Src/stm32f0xx_hal_rtc_ex.c ****         (@) Not available on F030x4/x6/x8 and F070x6
ARM GAS  /tmp/ccJbOwNd.s 			page 2


  32:Drivers/STM32F0xx_HAL_Driver/Src/stm32f0xx_hal_rtc_ex.c **** 
  33:Drivers/STM32F0xx_HAL_Driver/Src/stm32f0xx_hal_rtc_ex.c ****     *** TimeStamp configuration ***
  34:Drivers/STM32F0xx_HAL_Driver/Src/stm32f0xx_hal_rtc_ex.c ****     ===============================
  35:Drivers/STM32F0xx_HAL_Driver/Src/stm32f0xx_hal_rtc_ex.c ****     [..]
  36:Drivers/STM32F0xx_HAL_Driver/Src/stm32f0xx_hal_rtc_ex.c ****         (+) Configure the RTC_AF trigger and enable the RTC TimeStamp using the
  37:Drivers/STM32F0xx_HAL_Driver/Src/stm32f0xx_hal_rtc_ex.c ****             HAL_RTCEx_SetTimeStamp() function. You can also configure the RTC TimeStamp with
  38:Drivers/STM32F0xx_HAL_Driver/Src/stm32f0xx_hal_rtc_ex.c ****             interrupt mode using the HAL_RTCEx_SetTimeStamp_IT() function.
  39:Drivers/STM32F0xx_HAL_Driver/Src/stm32f0xx_hal_rtc_ex.c ****         (+) To read the RTC TimeStamp Time and Date register, use the HAL_RTCEx_GetTimeStamp()
  40:Drivers/STM32F0xx_HAL_Driver/Src/stm32f0xx_hal_rtc_ex.c ****             function.
  41:Drivers/STM32F0xx_HAL_Driver/Src/stm32f0xx_hal_rtc_ex.c **** 
  42:Drivers/STM32F0xx_HAL_Driver/Src/stm32f0xx_hal_rtc_ex.c ****     *** Tamper configuration ***
  43:Drivers/STM32F0xx_HAL_Driver/Src/stm32f0xx_hal_rtc_ex.c ****     ============================
  44:Drivers/STM32F0xx_HAL_Driver/Src/stm32f0xx_hal_rtc_ex.c ****     [..]
  45:Drivers/STM32F0xx_HAL_Driver/Src/stm32f0xx_hal_rtc_ex.c ****         (+) Enable the RTC Tamper and configure the Tamper filter count, trigger Edge
  46:Drivers/STM32F0xx_HAL_Driver/Src/stm32f0xx_hal_rtc_ex.c ****             or Level according to the Tamper filter (if equal to 0 Edge else Level)
  47:Drivers/STM32F0xx_HAL_Driver/Src/stm32f0xx_hal_rtc_ex.c ****             value, sampling frequency, precharge or discharge and Pull-UP using the
  48:Drivers/STM32F0xx_HAL_Driver/Src/stm32f0xx_hal_rtc_ex.c ****             HAL_RTCEx_SetTamper() function. You can configure RTC Tamper in interrupt
  49:Drivers/STM32F0xx_HAL_Driver/Src/stm32f0xx_hal_rtc_ex.c ****             mode using HAL_RTCEx_SetTamper_IT() function.
  50:Drivers/STM32F0xx_HAL_Driver/Src/stm32f0xx_hal_rtc_ex.c **** 
  51:Drivers/STM32F0xx_HAL_Driver/Src/stm32f0xx_hal_rtc_ex.c ****     *** Backup Data Registers configuration ***
  52:Drivers/STM32F0xx_HAL_Driver/Src/stm32f0xx_hal_rtc_ex.c ****     ===========================================
  53:Drivers/STM32F0xx_HAL_Driver/Src/stm32f0xx_hal_rtc_ex.c ****     [..]
  54:Drivers/STM32F0xx_HAL_Driver/Src/stm32f0xx_hal_rtc_ex.c ****         (+) To write to the RTC Backup Data registers, use the HAL_RTCEx_BKUPWrite()
  55:Drivers/STM32F0xx_HAL_Driver/Src/stm32f0xx_hal_rtc_ex.c ****             function.
  56:Drivers/STM32F0xx_HAL_Driver/Src/stm32f0xx_hal_rtc_ex.c ****         (+) To read the RTC Backup Data registers, use the HAL_RTCEx_BKUPRead()
  57:Drivers/STM32F0xx_HAL_Driver/Src/stm32f0xx_hal_rtc_ex.c ****             function.
  58:Drivers/STM32F0xx_HAL_Driver/Src/stm32f0xx_hal_rtc_ex.c ****         (@) Not available on F030x6/x8/xC and F070x6/xB (F0xx Value Line devices)
  59:Drivers/STM32F0xx_HAL_Driver/Src/stm32f0xx_hal_rtc_ex.c **** 
  60:Drivers/STM32F0xx_HAL_Driver/Src/stm32f0xx_hal_rtc_ex.c **** 
  61:Drivers/STM32F0xx_HAL_Driver/Src/stm32f0xx_hal_rtc_ex.c ****    @endverbatim
  62:Drivers/STM32F0xx_HAL_Driver/Src/stm32f0xx_hal_rtc_ex.c ****   ******************************************************************************
  63:Drivers/STM32F0xx_HAL_Driver/Src/stm32f0xx_hal_rtc_ex.c ****   * @attention
  64:Drivers/STM32F0xx_HAL_Driver/Src/stm32f0xx_hal_rtc_ex.c ****   *
  65:Drivers/STM32F0xx_HAL_Driver/Src/stm32f0xx_hal_rtc_ex.c ****   * <h2><center>&copy; Copyright (c) 2016 STMicroelectronics.
  66:Drivers/STM32F0xx_HAL_Driver/Src/stm32f0xx_hal_rtc_ex.c ****   * All rights reserved.</center></h2>
  67:Drivers/STM32F0xx_HAL_Driver/Src/stm32f0xx_hal_rtc_ex.c ****   *
  68:Drivers/STM32F0xx_HAL_Driver/Src/stm32f0xx_hal_rtc_ex.c ****   * This software component is licensed by ST under BSD 3-Clause license,
  69:Drivers/STM32F0xx_HAL_Driver/Src/stm32f0xx_hal_rtc_ex.c ****   * the "License"; You may not use this file except in compliance with the
  70:Drivers/STM32F0xx_HAL_Driver/Src/stm32f0xx_hal_rtc_ex.c ****   * License. You may obtain a copy of the License at:
  71:Drivers/STM32F0xx_HAL_Driver/Src/stm32f0xx_hal_rtc_ex.c ****   *                        opensource.org/licenses/BSD-3-Clause
  72:Drivers/STM32F0xx_HAL_Driver/Src/stm32f0xx_hal_rtc_ex.c ****   *
  73:Drivers/STM32F0xx_HAL_Driver/Src/stm32f0xx_hal_rtc_ex.c ****   ******************************************************************************
  74:Drivers/STM32F0xx_HAL_Driver/Src/stm32f0xx_hal_rtc_ex.c ****   */
  75:Drivers/STM32F0xx_HAL_Driver/Src/stm32f0xx_hal_rtc_ex.c **** 
  76:Drivers/STM32F0xx_HAL_Driver/Src/stm32f0xx_hal_rtc_ex.c **** /* Includes ------------------------------------------------------------------*/
  77:Drivers/STM32F0xx_HAL_Driver/Src/stm32f0xx_hal_rtc_ex.c **** #include "stm32f0xx_hal.h"
  78:Drivers/STM32F0xx_HAL_Driver/Src/stm32f0xx_hal_rtc_ex.c **** 
  79:Drivers/STM32F0xx_HAL_Driver/Src/stm32f0xx_hal_rtc_ex.c **** /** @addtogroup STM32F0xx_HAL_Driver
  80:Drivers/STM32F0xx_HAL_Driver/Src/stm32f0xx_hal_rtc_ex.c ****   * @{
  81:Drivers/STM32F0xx_HAL_Driver/Src/stm32f0xx_hal_rtc_ex.c ****   */
  82:Drivers/STM32F0xx_HAL_Driver/Src/stm32f0xx_hal_rtc_ex.c **** 
  83:Drivers/STM32F0xx_HAL_Driver/Src/stm32f0xx_hal_rtc_ex.c **** 
  84:Drivers/STM32F0xx_HAL_Driver/Src/stm32f0xx_hal_rtc_ex.c **** 
  85:Drivers/STM32F0xx_HAL_Driver/Src/stm32f0xx_hal_rtc_ex.c **** /** @addtogroup RTCEx
  86:Drivers/STM32F0xx_HAL_Driver/Src/stm32f0xx_hal_rtc_ex.c ****   * @brief RTC Extended HAL module driver
  87:Drivers/STM32F0xx_HAL_Driver/Src/stm32f0xx_hal_rtc_ex.c ****   * @{
  88:Drivers/STM32F0xx_HAL_Driver/Src/stm32f0xx_hal_rtc_ex.c ****   */
ARM GAS  /tmp/ccJbOwNd.s 			page 3


  89:Drivers/STM32F0xx_HAL_Driver/Src/stm32f0xx_hal_rtc_ex.c **** 
  90:Drivers/STM32F0xx_HAL_Driver/Src/stm32f0xx_hal_rtc_ex.c **** #ifdef HAL_RTC_MODULE_ENABLED
  91:Drivers/STM32F0xx_HAL_Driver/Src/stm32f0xx_hal_rtc_ex.c **** 
  92:Drivers/STM32F0xx_HAL_Driver/Src/stm32f0xx_hal_rtc_ex.c **** /* Private typedef -----------------------------------------------------------*/
  93:Drivers/STM32F0xx_HAL_Driver/Src/stm32f0xx_hal_rtc_ex.c **** /* Private define ------------------------------------------------------------*/
  94:Drivers/STM32F0xx_HAL_Driver/Src/stm32f0xx_hal_rtc_ex.c **** /* Private macro -------------------------------------------------------------*/
  95:Drivers/STM32F0xx_HAL_Driver/Src/stm32f0xx_hal_rtc_ex.c **** /* Private variables ---------------------------------------------------------*/
  96:Drivers/STM32F0xx_HAL_Driver/Src/stm32f0xx_hal_rtc_ex.c **** /* Private function prototypes -----------------------------------------------*/
  97:Drivers/STM32F0xx_HAL_Driver/Src/stm32f0xx_hal_rtc_ex.c **** /* Exported functions ---------------------------------------------------------*/
  98:Drivers/STM32F0xx_HAL_Driver/Src/stm32f0xx_hal_rtc_ex.c **** 
  99:Drivers/STM32F0xx_HAL_Driver/Src/stm32f0xx_hal_rtc_ex.c **** /** @addtogroup RTCEx_Exported_Functions
 100:Drivers/STM32F0xx_HAL_Driver/Src/stm32f0xx_hal_rtc_ex.c ****   * @{
 101:Drivers/STM32F0xx_HAL_Driver/Src/stm32f0xx_hal_rtc_ex.c ****   */
 102:Drivers/STM32F0xx_HAL_Driver/Src/stm32f0xx_hal_rtc_ex.c **** 
 103:Drivers/STM32F0xx_HAL_Driver/Src/stm32f0xx_hal_rtc_ex.c **** 
 104:Drivers/STM32F0xx_HAL_Driver/Src/stm32f0xx_hal_rtc_ex.c **** /** @addtogroup RTCEx_Exported_Functions_Group1
 105:Drivers/STM32F0xx_HAL_Driver/Src/stm32f0xx_hal_rtc_ex.c ****  *  @brief   RTC TimeStamp and Tamper functions
 106:Drivers/STM32F0xx_HAL_Driver/Src/stm32f0xx_hal_rtc_ex.c ****  *
 107:Drivers/STM32F0xx_HAL_Driver/Src/stm32f0xx_hal_rtc_ex.c **** @verbatim
 108:Drivers/STM32F0xx_HAL_Driver/Src/stm32f0xx_hal_rtc_ex.c ****  ===============================================================================
 109:Drivers/STM32F0xx_HAL_Driver/Src/stm32f0xx_hal_rtc_ex.c ****                  ##### RTC TimeStamp and Tamper functions #####
 110:Drivers/STM32F0xx_HAL_Driver/Src/stm32f0xx_hal_rtc_ex.c ****  ===============================================================================
 111:Drivers/STM32F0xx_HAL_Driver/Src/stm32f0xx_hal_rtc_ex.c **** 
 112:Drivers/STM32F0xx_HAL_Driver/Src/stm32f0xx_hal_rtc_ex.c ****  [..] This section provides functions allowing to configure TimeStamp feature
 113:Drivers/STM32F0xx_HAL_Driver/Src/stm32f0xx_hal_rtc_ex.c **** 
 114:Drivers/STM32F0xx_HAL_Driver/Src/stm32f0xx_hal_rtc_ex.c **** @endverbatim
 115:Drivers/STM32F0xx_HAL_Driver/Src/stm32f0xx_hal_rtc_ex.c ****   * @{
 116:Drivers/STM32F0xx_HAL_Driver/Src/stm32f0xx_hal_rtc_ex.c ****   */
 117:Drivers/STM32F0xx_HAL_Driver/Src/stm32f0xx_hal_rtc_ex.c **** 
 118:Drivers/STM32F0xx_HAL_Driver/Src/stm32f0xx_hal_rtc_ex.c **** /**
 119:Drivers/STM32F0xx_HAL_Driver/Src/stm32f0xx_hal_rtc_ex.c ****   * @brief  Set TimeStamp.
 120:Drivers/STM32F0xx_HAL_Driver/Src/stm32f0xx_hal_rtc_ex.c ****   * @note   This API must be called before enabling the TimeStamp feature.
 121:Drivers/STM32F0xx_HAL_Driver/Src/stm32f0xx_hal_rtc_ex.c ****   * @param  hrtc RTC handle
 122:Drivers/STM32F0xx_HAL_Driver/Src/stm32f0xx_hal_rtc_ex.c ****   * @param  TimeStampEdge Specifies the pin edge on which the TimeStamp is
 123:Drivers/STM32F0xx_HAL_Driver/Src/stm32f0xx_hal_rtc_ex.c ****   *         activated.
 124:Drivers/STM32F0xx_HAL_Driver/Src/stm32f0xx_hal_rtc_ex.c ****   *          This parameter can be one of the following values:
 125:Drivers/STM32F0xx_HAL_Driver/Src/stm32f0xx_hal_rtc_ex.c ****   *             @arg RTC_TIMESTAMPEDGE_RISING: the Time stamp event occurs on the
 126:Drivers/STM32F0xx_HAL_Driver/Src/stm32f0xx_hal_rtc_ex.c ****   *                                        rising edge of the related pin.
 127:Drivers/STM32F0xx_HAL_Driver/Src/stm32f0xx_hal_rtc_ex.c ****   *             @arg RTC_TIMESTAMPEDGE_FALLING: the Time stamp event occurs on the
 128:Drivers/STM32F0xx_HAL_Driver/Src/stm32f0xx_hal_rtc_ex.c ****   *                                         falling edge of the related pin.
 129:Drivers/STM32F0xx_HAL_Driver/Src/stm32f0xx_hal_rtc_ex.c ****   * @param  RTC_TimeStampPin specifies the RTC TimeStamp Pin.
 130:Drivers/STM32F0xx_HAL_Driver/Src/stm32f0xx_hal_rtc_ex.c ****   *          This parameter can be one of the following values:
 131:Drivers/STM32F0xx_HAL_Driver/Src/stm32f0xx_hal_rtc_ex.c ****   *             @arg RTC_TIMESTAMPPIN_DEFAULT: PC13 is selected as RTC TimeStamp Pin.
 132:Drivers/STM32F0xx_HAL_Driver/Src/stm32f0xx_hal_rtc_ex.c ****   * @retval HAL status
 133:Drivers/STM32F0xx_HAL_Driver/Src/stm32f0xx_hal_rtc_ex.c ****   */
 134:Drivers/STM32F0xx_HAL_Driver/Src/stm32f0xx_hal_rtc_ex.c **** HAL_StatusTypeDef HAL_RTCEx_SetTimeStamp(RTC_HandleTypeDef *hrtc, uint32_t TimeStampEdge, uint32_t 
 135:Drivers/STM32F0xx_HAL_Driver/Src/stm32f0xx_hal_rtc_ex.c **** {
  28              		.loc 1 135 1 view -0
  29              		.cfi_startproc
  30              		@ args = 0, pretend = 0, frame = 0
  31              		@ frame_needed = 0, uses_anonymous_args = 0
  32              		.loc 1 135 1 is_stmt 0 view .LVU1
  33 0000 30B5     		push	{r4, r5, lr}
  34              	.LCFI0:
  35              		.cfi_def_cfa_offset 12
  36              		.cfi_offset 4, -12
  37              		.cfi_offset 5, -8
ARM GAS  /tmp/ccJbOwNd.s 			page 4


  38              		.cfi_offset 14, -4
  39 0002 0B00     		movs	r3, r1
 136:Drivers/STM32F0xx_HAL_Driver/Src/stm32f0xx_hal_rtc_ex.c ****   uint32_t tmpreg = 0U;
  40              		.loc 1 136 3 is_stmt 1 view .LVU2
  41              	.LVL1:
 137:Drivers/STM32F0xx_HAL_Driver/Src/stm32f0xx_hal_rtc_ex.c **** 
 138:Drivers/STM32F0xx_HAL_Driver/Src/stm32f0xx_hal_rtc_ex.c ****   /* Check the parameters */
 139:Drivers/STM32F0xx_HAL_Driver/Src/stm32f0xx_hal_rtc_ex.c ****   assert_param(IS_TIMESTAMP_EDGE(TimeStampEdge));
  42              		.loc 1 139 3 view .LVU3
 140:Drivers/STM32F0xx_HAL_Driver/Src/stm32f0xx_hal_rtc_ex.c ****   assert_param(IS_RTC_TIMESTAMP_PIN(RTC_TimeStampPin));
  43              		.loc 1 140 3 view .LVU4
 141:Drivers/STM32F0xx_HAL_Driver/Src/stm32f0xx_hal_rtc_ex.c **** 
 142:Drivers/STM32F0xx_HAL_Driver/Src/stm32f0xx_hal_rtc_ex.c ****   /* Process Locked */
 143:Drivers/STM32F0xx_HAL_Driver/Src/stm32f0xx_hal_rtc_ex.c ****   __HAL_LOCK(hrtc);
  44              		.loc 1 143 3 view .LVU5
  45              		.loc 1 143 3 view .LVU6
  46 0004 027F     		ldrb	r2, [r0, #28]
  47              	.LVL2:
  48              		.loc 1 143 3 is_stmt 0 view .LVU7
  49 0006 012A     		cmp	r2, #1
  50 0008 1DD0     		beq	.L3
  51              		.loc 1 143 3 is_stmt 1 discriminator 2 view .LVU8
  52 000a 0122     		movs	r2, #1
  53 000c 0277     		strb	r2, [r0, #28]
  54              		.loc 1 143 3 discriminator 2 view .LVU9
 144:Drivers/STM32F0xx_HAL_Driver/Src/stm32f0xx_hal_rtc_ex.c **** 
 145:Drivers/STM32F0xx_HAL_Driver/Src/stm32f0xx_hal_rtc_ex.c ****   hrtc->State = HAL_RTC_STATE_BUSY;
  55              		.loc 1 145 3 discriminator 2 view .LVU10
  56              		.loc 1 145 15 is_stmt 0 discriminator 2 view .LVU11
  57 000e 0221     		movs	r1, #2
  58              	.LVL3:
  59              		.loc 1 145 15 discriminator 2 view .LVU12
  60 0010 4177     		strb	r1, [r0, #29]
 146:Drivers/STM32F0xx_HAL_Driver/Src/stm32f0xx_hal_rtc_ex.c **** 
 147:Drivers/STM32F0xx_HAL_Driver/Src/stm32f0xx_hal_rtc_ex.c ****   /* Get the RTC_CR register and clear the bits to be configured */
 148:Drivers/STM32F0xx_HAL_Driver/Src/stm32f0xx_hal_rtc_ex.c ****   tmpreg = (uint32_t)(hrtc->Instance->CR & (uint32_t)~(RTC_CR_TSEDGE | RTC_CR_TSE));
  61              		.loc 1 148 3 is_stmt 1 discriminator 2 view .LVU13
  62              		.loc 1 148 27 is_stmt 0 discriminator 2 view .LVU14
  63 0012 0468     		ldr	r4, [r0]
  64              		.loc 1 148 37 discriminator 2 view .LVU15
  65 0014 A168     		ldr	r1, [r4, #8]
  66              		.loc 1 148 10 discriminator 2 view .LVU16
  67 0016 0D4D     		ldr	r5, .L4
  68 0018 2940     		ands	r1, r5
  69              	.LVL4:
 149:Drivers/STM32F0xx_HAL_Driver/Src/stm32f0xx_hal_rtc_ex.c **** 
 150:Drivers/STM32F0xx_HAL_Driver/Src/stm32f0xx_hal_rtc_ex.c ****   tmpreg |= TimeStampEdge;
  70              		.loc 1 150 3 is_stmt 1 discriminator 2 view .LVU17
  71              		.loc 1 150 10 is_stmt 0 discriminator 2 view .LVU18
  72 001a 1943     		orrs	r1, r3
  73              	.LVL5:
 151:Drivers/STM32F0xx_HAL_Driver/Src/stm32f0xx_hal_rtc_ex.c **** 
 152:Drivers/STM32F0xx_HAL_Driver/Src/stm32f0xx_hal_rtc_ex.c ****   /* Disable the write protection for RTC registers */
 153:Drivers/STM32F0xx_HAL_Driver/Src/stm32f0xx_hal_rtc_ex.c ****   __HAL_RTC_WRITEPROTECTION_DISABLE(hrtc);
  74              		.loc 1 153 3 is_stmt 1 discriminator 2 view .LVU19
  75              		.loc 1 153 3 discriminator 2 view .LVU20
  76 001c CA23     		movs	r3, #202
ARM GAS  /tmp/ccJbOwNd.s 			page 5


  77              	.LVL6:
  78              		.loc 1 153 3 is_stmt 0 discriminator 2 view .LVU21
  79 001e 6362     		str	r3, [r4, #36]
  80              		.loc 1 153 3 is_stmt 1 discriminator 2 view .LVU22
  81 0020 0368     		ldr	r3, [r0]
  82 0022 5324     		movs	r4, #83
  83 0024 5C62     		str	r4, [r3, #36]
  84              		.loc 1 153 3 discriminator 2 view .LVU23
 154:Drivers/STM32F0xx_HAL_Driver/Src/stm32f0xx_hal_rtc_ex.c **** 
 155:Drivers/STM32F0xx_HAL_Driver/Src/stm32f0xx_hal_rtc_ex.c ****   /* Configure the Time Stamp TSEDGE and Enable bits */
 156:Drivers/STM32F0xx_HAL_Driver/Src/stm32f0xx_hal_rtc_ex.c ****   hrtc->Instance->CR = (uint32_t)tmpreg;
  85              		.loc 1 156 3 discriminator 2 view .LVU24
  86              		.loc 1 156 7 is_stmt 0 discriminator 2 view .LVU25
  87 0026 0368     		ldr	r3, [r0]
  88              		.loc 1 156 22 discriminator 2 view .LVU26
  89 0028 9960     		str	r1, [r3, #8]
 157:Drivers/STM32F0xx_HAL_Driver/Src/stm32f0xx_hal_rtc_ex.c **** 
 158:Drivers/STM32F0xx_HAL_Driver/Src/stm32f0xx_hal_rtc_ex.c ****   __HAL_RTC_TIMESTAMP_ENABLE(hrtc);
  90              		.loc 1 158 3 is_stmt 1 discriminator 2 view .LVU27
  91 002a 0168     		ldr	r1, [r0]
  92              	.LVL7:
  93              		.loc 1 158 3 is_stmt 0 discriminator 2 view .LVU28
  94 002c 8C68     		ldr	r4, [r1, #8]
  95 002e 8023     		movs	r3, #128
  96              	.LVL8:
  97              		.loc 1 158 3 discriminator 2 view .LVU29
  98 0030 1B01     		lsls	r3, r3, #4
  99 0032 2343     		orrs	r3, r4
 100 0034 8B60     		str	r3, [r1, #8]
 159:Drivers/STM32F0xx_HAL_Driver/Src/stm32f0xx_hal_rtc_ex.c **** 
 160:Drivers/STM32F0xx_HAL_Driver/Src/stm32f0xx_hal_rtc_ex.c ****   /* Enable the write protection for RTC registers */
 161:Drivers/STM32F0xx_HAL_Driver/Src/stm32f0xx_hal_rtc_ex.c ****   __HAL_RTC_WRITEPROTECTION_ENABLE(hrtc);
 101              		.loc 1 161 3 is_stmt 1 discriminator 2 view .LVU30
 102              		.loc 1 161 3 discriminator 2 view .LVU31
 103 0036 0368     		ldr	r3, [r0]
 104 0038 FF21     		movs	r1, #255
 105 003a 5962     		str	r1, [r3, #36]
 106              		.loc 1 161 3 discriminator 2 view .LVU32
 162:Drivers/STM32F0xx_HAL_Driver/Src/stm32f0xx_hal_rtc_ex.c **** 
 163:Drivers/STM32F0xx_HAL_Driver/Src/stm32f0xx_hal_rtc_ex.c ****   /* Change RTC state */
 164:Drivers/STM32F0xx_HAL_Driver/Src/stm32f0xx_hal_rtc_ex.c ****   hrtc->State = HAL_RTC_STATE_READY;
 107              		.loc 1 164 3 discriminator 2 view .LVU33
 108              		.loc 1 164 15 is_stmt 0 discriminator 2 view .LVU34
 109 003c 4277     		strb	r2, [r0, #29]
 165:Drivers/STM32F0xx_HAL_Driver/Src/stm32f0xx_hal_rtc_ex.c **** 
 166:Drivers/STM32F0xx_HAL_Driver/Src/stm32f0xx_hal_rtc_ex.c ****   /* Process Unlocked */
 167:Drivers/STM32F0xx_HAL_Driver/Src/stm32f0xx_hal_rtc_ex.c ****   __HAL_UNLOCK(hrtc);
 110              		.loc 1 167 3 is_stmt 1 discriminator 2 view .LVU35
 111              		.loc 1 167 3 discriminator 2 view .LVU36
 112 003e 0023     		movs	r3, #0
 113 0040 0377     		strb	r3, [r0, #28]
 114              		.loc 1 167 3 discriminator 2 view .LVU37
 168:Drivers/STM32F0xx_HAL_Driver/Src/stm32f0xx_hal_rtc_ex.c **** 
 169:Drivers/STM32F0xx_HAL_Driver/Src/stm32f0xx_hal_rtc_ex.c ****   return HAL_OK;
 115              		.loc 1 169 3 discriminator 2 view .LVU38
 116              		.loc 1 169 10 is_stmt 0 discriminator 2 view .LVU39
 117 0042 0020     		movs	r0, #0
ARM GAS  /tmp/ccJbOwNd.s 			page 6


 118              	.LVL9:
 119              	.L2:
 170:Drivers/STM32F0xx_HAL_Driver/Src/stm32f0xx_hal_rtc_ex.c **** }
 120              		.loc 1 170 1 view .LVU40
 121              		@ sp needed
 122 0044 30BD     		pop	{r4, r5, pc}
 123              	.LVL10:
 124              	.L3:
 143:Drivers/STM32F0xx_HAL_Driver/Src/stm32f0xx_hal_rtc_ex.c **** 
 125              		.loc 1 143 3 view .LVU41
 126 0046 0220     		movs	r0, #2
 127              	.LVL11:
 143:Drivers/STM32F0xx_HAL_Driver/Src/stm32f0xx_hal_rtc_ex.c **** 
 128              		.loc 1 143 3 view .LVU42
 129 0048 FCE7     		b	.L2
 130              	.L5:
 131 004a C046     		.align	2
 132              	.L4:
 133 004c F7F7FFFF 		.word	-2057
 134              		.cfi_endproc
 135              	.LFE40:
 137              		.section	.text.HAL_RTCEx_SetTimeStamp_IT,"ax",%progbits
 138              		.align	1
 139              		.global	HAL_RTCEx_SetTimeStamp_IT
 140              		.syntax unified
 141              		.code	16
 142              		.thumb_func
 143              		.fpu softvfp
 145              	HAL_RTCEx_SetTimeStamp_IT:
 146              	.LVL12:
 147              	.LFB41:
 171:Drivers/STM32F0xx_HAL_Driver/Src/stm32f0xx_hal_rtc_ex.c **** 
 172:Drivers/STM32F0xx_HAL_Driver/Src/stm32f0xx_hal_rtc_ex.c **** /**
 173:Drivers/STM32F0xx_HAL_Driver/Src/stm32f0xx_hal_rtc_ex.c ****   * @brief  Set TimeStamp with Interrupt.
 174:Drivers/STM32F0xx_HAL_Driver/Src/stm32f0xx_hal_rtc_ex.c ****   * @param  hrtc RTC handle
 175:Drivers/STM32F0xx_HAL_Driver/Src/stm32f0xx_hal_rtc_ex.c ****   * @note   This API must be called before enabling the TimeStamp feature.
 176:Drivers/STM32F0xx_HAL_Driver/Src/stm32f0xx_hal_rtc_ex.c ****   * @param  TimeStampEdge Specifies the pin edge on which the TimeStamp is
 177:Drivers/STM32F0xx_HAL_Driver/Src/stm32f0xx_hal_rtc_ex.c ****   *         activated.
 178:Drivers/STM32F0xx_HAL_Driver/Src/stm32f0xx_hal_rtc_ex.c ****   *          This parameter can be one of the following values:
 179:Drivers/STM32F0xx_HAL_Driver/Src/stm32f0xx_hal_rtc_ex.c ****   *             @arg RTC_TIMESTAMPEDGE_RISING: the Time stamp event occurs on the
 180:Drivers/STM32F0xx_HAL_Driver/Src/stm32f0xx_hal_rtc_ex.c ****   *                                        rising edge of the related pin.
 181:Drivers/STM32F0xx_HAL_Driver/Src/stm32f0xx_hal_rtc_ex.c ****   *             @arg RTC_TIMESTAMPEDGE_FALLING: the Time stamp event occurs on the
 182:Drivers/STM32F0xx_HAL_Driver/Src/stm32f0xx_hal_rtc_ex.c ****   *                                         falling edge of the related pin.
 183:Drivers/STM32F0xx_HAL_Driver/Src/stm32f0xx_hal_rtc_ex.c ****   * @param  RTC_TimeStampPin Specifies the RTC TimeStamp Pin.
 184:Drivers/STM32F0xx_HAL_Driver/Src/stm32f0xx_hal_rtc_ex.c ****   *          This parameter can be one of the following values:
 185:Drivers/STM32F0xx_HAL_Driver/Src/stm32f0xx_hal_rtc_ex.c ****   *             @arg RTC_TIMESTAMPPIN_DEFAULT: PC13 is selected as RTC TimeStamp Pin.
 186:Drivers/STM32F0xx_HAL_Driver/Src/stm32f0xx_hal_rtc_ex.c ****   * @retval HAL status
 187:Drivers/STM32F0xx_HAL_Driver/Src/stm32f0xx_hal_rtc_ex.c ****   */
 188:Drivers/STM32F0xx_HAL_Driver/Src/stm32f0xx_hal_rtc_ex.c **** HAL_StatusTypeDef HAL_RTCEx_SetTimeStamp_IT(RTC_HandleTypeDef *hrtc, uint32_t TimeStampEdge, uint32
 189:Drivers/STM32F0xx_HAL_Driver/Src/stm32f0xx_hal_rtc_ex.c **** {
 148              		.loc 1 189 1 is_stmt 1 view -0
 149              		.cfi_startproc
 150              		@ args = 0, pretend = 0, frame = 0
 151              		@ frame_needed = 0, uses_anonymous_args = 0
 152              		.loc 1 189 1 is_stmt 0 view .LVU44
 153 0000 30B5     		push	{r4, r5, lr}
 154              	.LCFI1:
ARM GAS  /tmp/ccJbOwNd.s 			page 7


 155              		.cfi_def_cfa_offset 12
 156              		.cfi_offset 4, -12
 157              		.cfi_offset 5, -8
 158              		.cfi_offset 14, -4
 159 0002 0B00     		movs	r3, r1
 190:Drivers/STM32F0xx_HAL_Driver/Src/stm32f0xx_hal_rtc_ex.c ****   uint32_t tmpreg = 0U;
 160              		.loc 1 190 3 is_stmt 1 view .LVU45
 161              	.LVL13:
 191:Drivers/STM32F0xx_HAL_Driver/Src/stm32f0xx_hal_rtc_ex.c **** 
 192:Drivers/STM32F0xx_HAL_Driver/Src/stm32f0xx_hal_rtc_ex.c ****   /* Check the parameters */
 193:Drivers/STM32F0xx_HAL_Driver/Src/stm32f0xx_hal_rtc_ex.c ****   assert_param(IS_TIMESTAMP_EDGE(TimeStampEdge));
 162              		.loc 1 193 3 view .LVU46
 194:Drivers/STM32F0xx_HAL_Driver/Src/stm32f0xx_hal_rtc_ex.c ****   assert_param(IS_RTC_TIMESTAMP_PIN(RTC_TimeStampPin));
 163              		.loc 1 194 3 view .LVU47
 195:Drivers/STM32F0xx_HAL_Driver/Src/stm32f0xx_hal_rtc_ex.c **** 
 196:Drivers/STM32F0xx_HAL_Driver/Src/stm32f0xx_hal_rtc_ex.c ****   /* Process Locked */
 197:Drivers/STM32F0xx_HAL_Driver/Src/stm32f0xx_hal_rtc_ex.c ****   __HAL_LOCK(hrtc);
 164              		.loc 1 197 3 view .LVU48
 165              		.loc 1 197 3 view .LVU49
 166 0004 027F     		ldrb	r2, [r0, #28]
 167              	.LVL14:
 168              		.loc 1 197 3 is_stmt 0 view .LVU50
 169 0006 012A     		cmp	r2, #1
 170 0008 2CD0     		beq	.L8
 171              		.loc 1 197 3 is_stmt 1 discriminator 2 view .LVU51
 172 000a 0124     		movs	r4, #1
 173 000c 0477     		strb	r4, [r0, #28]
 174              		.loc 1 197 3 discriminator 2 view .LVU52
 198:Drivers/STM32F0xx_HAL_Driver/Src/stm32f0xx_hal_rtc_ex.c **** 
 199:Drivers/STM32F0xx_HAL_Driver/Src/stm32f0xx_hal_rtc_ex.c ****   hrtc->State = HAL_RTC_STATE_BUSY;
 175              		.loc 1 199 3 discriminator 2 view .LVU53
 176              		.loc 1 199 15 is_stmt 0 discriminator 2 view .LVU54
 177 000e 0222     		movs	r2, #2
 178 0010 4277     		strb	r2, [r0, #29]
 200:Drivers/STM32F0xx_HAL_Driver/Src/stm32f0xx_hal_rtc_ex.c **** 
 201:Drivers/STM32F0xx_HAL_Driver/Src/stm32f0xx_hal_rtc_ex.c ****   /* Get the RTC_CR register and clear the bits to be configured */
 202:Drivers/STM32F0xx_HAL_Driver/Src/stm32f0xx_hal_rtc_ex.c ****   tmpreg = (uint32_t)(hrtc->Instance->CR & (uint32_t)~(RTC_CR_TSEDGE | RTC_CR_TSE));
 179              		.loc 1 202 3 is_stmt 1 discriminator 2 view .LVU55
 180              		.loc 1 202 27 is_stmt 0 discriminator 2 view .LVU56
 181 0012 0268     		ldr	r2, [r0]
 182              		.loc 1 202 37 discriminator 2 view .LVU57
 183 0014 9168     		ldr	r1, [r2, #8]
 184              	.LVL15:
 185              		.loc 1 202 10 discriminator 2 view .LVU58
 186 0016 144D     		ldr	r5, .L9
 187 0018 2940     		ands	r1, r5
 188              	.LVL16:
 203:Drivers/STM32F0xx_HAL_Driver/Src/stm32f0xx_hal_rtc_ex.c **** 
 204:Drivers/STM32F0xx_HAL_Driver/Src/stm32f0xx_hal_rtc_ex.c ****   tmpreg |= TimeStampEdge;
 189              		.loc 1 204 3 is_stmt 1 discriminator 2 view .LVU59
 190              		.loc 1 204 10 is_stmt 0 discriminator 2 view .LVU60
 191 001a 1943     		orrs	r1, r3
 192              	.LVL17:
 205:Drivers/STM32F0xx_HAL_Driver/Src/stm32f0xx_hal_rtc_ex.c **** 
 206:Drivers/STM32F0xx_HAL_Driver/Src/stm32f0xx_hal_rtc_ex.c ****   /* Disable the write protection for RTC registers */
 207:Drivers/STM32F0xx_HAL_Driver/Src/stm32f0xx_hal_rtc_ex.c ****   __HAL_RTC_WRITEPROTECTION_DISABLE(hrtc);
 193              		.loc 1 207 3 is_stmt 1 discriminator 2 view .LVU61
ARM GAS  /tmp/ccJbOwNd.s 			page 8


 194              		.loc 1 207 3 discriminator 2 view .LVU62
 195 001c CA23     		movs	r3, #202
 196              	.LVL18:
 197              		.loc 1 207 3 is_stmt 0 discriminator 2 view .LVU63
 198 001e 5362     		str	r3, [r2, #36]
 199              		.loc 1 207 3 is_stmt 1 discriminator 2 view .LVU64
 200 0020 0368     		ldr	r3, [r0]
 201 0022 5322     		movs	r2, #83
 202 0024 5A62     		str	r2, [r3, #36]
 203              		.loc 1 207 3 discriminator 2 view .LVU65
 208:Drivers/STM32F0xx_HAL_Driver/Src/stm32f0xx_hal_rtc_ex.c **** 
 209:Drivers/STM32F0xx_HAL_Driver/Src/stm32f0xx_hal_rtc_ex.c ****   /* Configure the Time Stamp TSEDGE and Enable bits */
 210:Drivers/STM32F0xx_HAL_Driver/Src/stm32f0xx_hal_rtc_ex.c ****   hrtc->Instance->CR = (uint32_t)tmpreg;
 204              		.loc 1 210 3 discriminator 2 view .LVU66
 205              		.loc 1 210 7 is_stmt 0 discriminator 2 view .LVU67
 206 0026 0368     		ldr	r3, [r0]
 207              		.loc 1 210 22 discriminator 2 view .LVU68
 208 0028 9960     		str	r1, [r3, #8]
 211:Drivers/STM32F0xx_HAL_Driver/Src/stm32f0xx_hal_rtc_ex.c **** 
 212:Drivers/STM32F0xx_HAL_Driver/Src/stm32f0xx_hal_rtc_ex.c ****   __HAL_RTC_TIMESTAMP_ENABLE(hrtc);
 209              		.loc 1 212 3 is_stmt 1 discriminator 2 view .LVU69
 210 002a 0268     		ldr	r2, [r0]
 211 002c 9168     		ldr	r1, [r2, #8]
 212              	.LVL19:
 213              		.loc 1 212 3 is_stmt 0 discriminator 2 view .LVU70
 214 002e 8023     		movs	r3, #128
 215              	.LVL20:
 216              		.loc 1 212 3 discriminator 2 view .LVU71
 217 0030 1B01     		lsls	r3, r3, #4
 218 0032 0B43     		orrs	r3, r1
 219 0034 9360     		str	r3, [r2, #8]
 213:Drivers/STM32F0xx_HAL_Driver/Src/stm32f0xx_hal_rtc_ex.c **** 
 214:Drivers/STM32F0xx_HAL_Driver/Src/stm32f0xx_hal_rtc_ex.c ****   /* Enable IT timestamp */
 215:Drivers/STM32F0xx_HAL_Driver/Src/stm32f0xx_hal_rtc_ex.c ****   __HAL_RTC_TIMESTAMP_ENABLE_IT(hrtc, RTC_IT_TS);
 220              		.loc 1 215 3 is_stmt 1 discriminator 2 view .LVU72
 221 0036 0268     		ldr	r2, [r0]
 222 0038 9168     		ldr	r1, [r2, #8]
 223 003a 8023     		movs	r3, #128
 224 003c 1B02     		lsls	r3, r3, #8
 225 003e 0B43     		orrs	r3, r1
 226 0040 9360     		str	r3, [r2, #8]
 216:Drivers/STM32F0xx_HAL_Driver/Src/stm32f0xx_hal_rtc_ex.c **** 
 217:Drivers/STM32F0xx_HAL_Driver/Src/stm32f0xx_hal_rtc_ex.c ****   /* RTC timestamp Interrupt Configuration: EXTI configuration */
 218:Drivers/STM32F0xx_HAL_Driver/Src/stm32f0xx_hal_rtc_ex.c ****   __HAL_RTC_TAMPER_TIMESTAMP_EXTI_ENABLE_IT();
 227              		.loc 1 218 3 discriminator 2 view .LVU73
 228 0042 0A4B     		ldr	r3, .L9+4
 229 0044 1968     		ldr	r1, [r3]
 230 0046 8022     		movs	r2, #128
 231 0048 1203     		lsls	r2, r2, #12
 232 004a 1143     		orrs	r1, r2
 233 004c 1960     		str	r1, [r3]
 219:Drivers/STM32F0xx_HAL_Driver/Src/stm32f0xx_hal_rtc_ex.c **** 
 220:Drivers/STM32F0xx_HAL_Driver/Src/stm32f0xx_hal_rtc_ex.c ****   __HAL_RTC_TAMPER_TIMESTAMP_EXTI_ENABLE_RISING_EDGE();
 234              		.loc 1 220 3 discriminator 2 view .LVU74
 235 004e 9968     		ldr	r1, [r3, #8]
 236 0050 0A43     		orrs	r2, r1
 237 0052 9A60     		str	r2, [r3, #8]
ARM GAS  /tmp/ccJbOwNd.s 			page 9


 221:Drivers/STM32F0xx_HAL_Driver/Src/stm32f0xx_hal_rtc_ex.c **** 
 222:Drivers/STM32F0xx_HAL_Driver/Src/stm32f0xx_hal_rtc_ex.c ****   /* Enable the write protection for RTC registers */
 223:Drivers/STM32F0xx_HAL_Driver/Src/stm32f0xx_hal_rtc_ex.c ****   __HAL_RTC_WRITEPROTECTION_ENABLE(hrtc);
 238              		.loc 1 223 3 discriminator 2 view .LVU75
 239              		.loc 1 223 3 discriminator 2 view .LVU76
 240 0054 0368     		ldr	r3, [r0]
 241 0056 FF22     		movs	r2, #255
 242 0058 5A62     		str	r2, [r3, #36]
 243              		.loc 1 223 3 discriminator 2 view .LVU77
 224:Drivers/STM32F0xx_HAL_Driver/Src/stm32f0xx_hal_rtc_ex.c **** 
 225:Drivers/STM32F0xx_HAL_Driver/Src/stm32f0xx_hal_rtc_ex.c ****   hrtc->State = HAL_RTC_STATE_READY;
 244              		.loc 1 225 3 discriminator 2 view .LVU78
 245              		.loc 1 225 15 is_stmt 0 discriminator 2 view .LVU79
 246 005a 4477     		strb	r4, [r0, #29]
 226:Drivers/STM32F0xx_HAL_Driver/Src/stm32f0xx_hal_rtc_ex.c **** 
 227:Drivers/STM32F0xx_HAL_Driver/Src/stm32f0xx_hal_rtc_ex.c ****   /* Process Unlocked */
 228:Drivers/STM32F0xx_HAL_Driver/Src/stm32f0xx_hal_rtc_ex.c ****   __HAL_UNLOCK(hrtc);
 247              		.loc 1 228 3 is_stmt 1 discriminator 2 view .LVU80
 248              		.loc 1 228 3 discriminator 2 view .LVU81
 249 005c 0023     		movs	r3, #0
 250 005e 0377     		strb	r3, [r0, #28]
 251              		.loc 1 228 3 discriminator 2 view .LVU82
 229:Drivers/STM32F0xx_HAL_Driver/Src/stm32f0xx_hal_rtc_ex.c **** 
 230:Drivers/STM32F0xx_HAL_Driver/Src/stm32f0xx_hal_rtc_ex.c ****   return HAL_OK;
 252              		.loc 1 230 3 discriminator 2 view .LVU83
 253              		.loc 1 230 10 is_stmt 0 discriminator 2 view .LVU84
 254 0060 0020     		movs	r0, #0
 255              	.LVL21:
 256              	.L7:
 231:Drivers/STM32F0xx_HAL_Driver/Src/stm32f0xx_hal_rtc_ex.c **** }
 257              		.loc 1 231 1 view .LVU85
 258              		@ sp needed
 259 0062 30BD     		pop	{r4, r5, pc}
 260              	.LVL22:
 261              	.L8:
 197:Drivers/STM32F0xx_HAL_Driver/Src/stm32f0xx_hal_rtc_ex.c **** 
 262              		.loc 1 197 3 view .LVU86
 263 0064 0220     		movs	r0, #2
 264              	.LVL23:
 197:Drivers/STM32F0xx_HAL_Driver/Src/stm32f0xx_hal_rtc_ex.c **** 
 265              		.loc 1 197 3 view .LVU87
 266 0066 FCE7     		b	.L7
 267              	.L10:
 268              		.align	2
 269              	.L9:
 270 0068 F7F7FFFF 		.word	-2057
 271 006c 00040140 		.word	1073808384
 272              		.cfi_endproc
 273              	.LFE41:
 275              		.section	.text.HAL_RTCEx_DeactivateTimeStamp,"ax",%progbits
 276              		.align	1
 277              		.global	HAL_RTCEx_DeactivateTimeStamp
 278              		.syntax unified
 279              		.code	16
 280              		.thumb_func
 281              		.fpu softvfp
 283              	HAL_RTCEx_DeactivateTimeStamp:
ARM GAS  /tmp/ccJbOwNd.s 			page 10


 284              	.LVL24:
 285              	.LFB42:
 232:Drivers/STM32F0xx_HAL_Driver/Src/stm32f0xx_hal_rtc_ex.c **** 
 233:Drivers/STM32F0xx_HAL_Driver/Src/stm32f0xx_hal_rtc_ex.c **** /**
 234:Drivers/STM32F0xx_HAL_Driver/Src/stm32f0xx_hal_rtc_ex.c ****   * @brief  Deactivate TimeStamp.
 235:Drivers/STM32F0xx_HAL_Driver/Src/stm32f0xx_hal_rtc_ex.c ****   * @param  hrtc RTC handle
 236:Drivers/STM32F0xx_HAL_Driver/Src/stm32f0xx_hal_rtc_ex.c ****   * @retval HAL status
 237:Drivers/STM32F0xx_HAL_Driver/Src/stm32f0xx_hal_rtc_ex.c ****   */
 238:Drivers/STM32F0xx_HAL_Driver/Src/stm32f0xx_hal_rtc_ex.c **** HAL_StatusTypeDef HAL_RTCEx_DeactivateTimeStamp(RTC_HandleTypeDef *hrtc)
 239:Drivers/STM32F0xx_HAL_Driver/Src/stm32f0xx_hal_rtc_ex.c **** {
 286              		.loc 1 239 1 is_stmt 1 view -0
 287              		.cfi_startproc
 288              		@ args = 0, pretend = 0, frame = 0
 289              		@ frame_needed = 0, uses_anonymous_args = 0
 290              		.loc 1 239 1 is_stmt 0 view .LVU89
 291 0000 10B5     		push	{r4, lr}
 292              	.LCFI2:
 293              		.cfi_def_cfa_offset 8
 294              		.cfi_offset 4, -8
 295              		.cfi_offset 14, -4
 240:Drivers/STM32F0xx_HAL_Driver/Src/stm32f0xx_hal_rtc_ex.c ****   uint32_t tmpreg = 0U;
 296              		.loc 1 240 3 is_stmt 1 view .LVU90
 297              	.LVL25:
 241:Drivers/STM32F0xx_HAL_Driver/Src/stm32f0xx_hal_rtc_ex.c **** 
 242:Drivers/STM32F0xx_HAL_Driver/Src/stm32f0xx_hal_rtc_ex.c ****   /* Process Locked */
 243:Drivers/STM32F0xx_HAL_Driver/Src/stm32f0xx_hal_rtc_ex.c ****   __HAL_LOCK(hrtc);
 298              		.loc 1 243 3 view .LVU91
 299              		.loc 1 243 3 view .LVU92
 300 0002 037F     		ldrb	r3, [r0, #28]
 301 0004 012B     		cmp	r3, #1
 302 0006 1BD0     		beq	.L13
 303              		.loc 1 243 3 discriminator 2 view .LVU93
 304 0008 0122     		movs	r2, #1
 305 000a 0277     		strb	r2, [r0, #28]
 306              		.loc 1 243 3 discriminator 2 view .LVU94
 244:Drivers/STM32F0xx_HAL_Driver/Src/stm32f0xx_hal_rtc_ex.c **** 
 245:Drivers/STM32F0xx_HAL_Driver/Src/stm32f0xx_hal_rtc_ex.c ****   hrtc->State = HAL_RTC_STATE_BUSY;
 307              		.loc 1 245 3 discriminator 2 view .LVU95
 308              		.loc 1 245 15 is_stmt 0 discriminator 2 view .LVU96
 309 000c 0223     		movs	r3, #2
 310 000e 4377     		strb	r3, [r0, #29]
 246:Drivers/STM32F0xx_HAL_Driver/Src/stm32f0xx_hal_rtc_ex.c **** 
 247:Drivers/STM32F0xx_HAL_Driver/Src/stm32f0xx_hal_rtc_ex.c ****   /* Disable the write protection for RTC registers */
 248:Drivers/STM32F0xx_HAL_Driver/Src/stm32f0xx_hal_rtc_ex.c ****   __HAL_RTC_WRITEPROTECTION_DISABLE(hrtc);
 311              		.loc 1 248 3 is_stmt 1 discriminator 2 view .LVU97
 312              		.loc 1 248 3 discriminator 2 view .LVU98
 313 0010 0368     		ldr	r3, [r0]
 314 0012 CA21     		movs	r1, #202
 315 0014 5962     		str	r1, [r3, #36]
 316              		.loc 1 248 3 discriminator 2 view .LVU99
 317 0016 0368     		ldr	r3, [r0]
 318 0018 7739     		subs	r1, r1, #119
 319 001a 5962     		str	r1, [r3, #36]
 320              		.loc 1 248 3 discriminator 2 view .LVU100
 249:Drivers/STM32F0xx_HAL_Driver/Src/stm32f0xx_hal_rtc_ex.c **** 
 250:Drivers/STM32F0xx_HAL_Driver/Src/stm32f0xx_hal_rtc_ex.c ****   /* In case of interrupt mode is used, the interrupt source must disabled */
 251:Drivers/STM32F0xx_HAL_Driver/Src/stm32f0xx_hal_rtc_ex.c ****   __HAL_RTC_TIMESTAMP_DISABLE_IT(hrtc, RTC_IT_TS);
ARM GAS  /tmp/ccJbOwNd.s 			page 11


 321              		.loc 1 251 3 discriminator 2 view .LVU101
 322 001c 0168     		ldr	r1, [r0]
 323 001e 8B68     		ldr	r3, [r1, #8]
 324 0020 084C     		ldr	r4, .L14
 325 0022 2340     		ands	r3, r4
 326 0024 8B60     		str	r3, [r1, #8]
 252:Drivers/STM32F0xx_HAL_Driver/Src/stm32f0xx_hal_rtc_ex.c **** 
 253:Drivers/STM32F0xx_HAL_Driver/Src/stm32f0xx_hal_rtc_ex.c ****   /* Get the RTC_CR register and clear the bits to be configured */
 254:Drivers/STM32F0xx_HAL_Driver/Src/stm32f0xx_hal_rtc_ex.c ****   tmpreg = (uint32_t)(hrtc->Instance->CR & (uint32_t)~(RTC_CR_TSEDGE | RTC_CR_TSE));
 327              		.loc 1 254 3 discriminator 2 view .LVU102
 328              		.loc 1 254 27 is_stmt 0 discriminator 2 view .LVU103
 329 0026 0168     		ldr	r1, [r0]
 330              		.loc 1 254 37 discriminator 2 view .LVU104
 331 0028 8B68     		ldr	r3, [r1, #8]
 332              		.loc 1 254 10 discriminator 2 view .LVU105
 333 002a 074C     		ldr	r4, .L14+4
 334 002c 2340     		ands	r3, r4
 335              	.LVL26:
 255:Drivers/STM32F0xx_HAL_Driver/Src/stm32f0xx_hal_rtc_ex.c **** 
 256:Drivers/STM32F0xx_HAL_Driver/Src/stm32f0xx_hal_rtc_ex.c ****   /* Configure the Time Stamp TSEDGE and Enable bits */
 257:Drivers/STM32F0xx_HAL_Driver/Src/stm32f0xx_hal_rtc_ex.c ****   hrtc->Instance->CR = (uint32_t)tmpreg;
 336              		.loc 1 257 3 is_stmt 1 discriminator 2 view .LVU106
 337              		.loc 1 257 22 is_stmt 0 discriminator 2 view .LVU107
 338 002e 8B60     		str	r3, [r1, #8]
 258:Drivers/STM32F0xx_HAL_Driver/Src/stm32f0xx_hal_rtc_ex.c **** 
 259:Drivers/STM32F0xx_HAL_Driver/Src/stm32f0xx_hal_rtc_ex.c ****   /* Enable the write protection for RTC registers */
 260:Drivers/STM32F0xx_HAL_Driver/Src/stm32f0xx_hal_rtc_ex.c ****   __HAL_RTC_WRITEPROTECTION_ENABLE(hrtc);
 339              		.loc 1 260 3 is_stmt 1 discriminator 2 view .LVU108
 340              		.loc 1 260 3 discriminator 2 view .LVU109
 341 0030 0368     		ldr	r3, [r0]
 342              	.LVL27:
 343              		.loc 1 260 3 is_stmt 0 discriminator 2 view .LVU110
 344 0032 FF21     		movs	r1, #255
 345              	.LVL28:
 346              		.loc 1 260 3 discriminator 2 view .LVU111
 347 0034 5962     		str	r1, [r3, #36]
 348              		.loc 1 260 3 is_stmt 1 discriminator 2 view .LVU112
 261:Drivers/STM32F0xx_HAL_Driver/Src/stm32f0xx_hal_rtc_ex.c **** 
 262:Drivers/STM32F0xx_HAL_Driver/Src/stm32f0xx_hal_rtc_ex.c ****   hrtc->State = HAL_RTC_STATE_READY;
 349              		.loc 1 262 3 discriminator 2 view .LVU113
 350              		.loc 1 262 15 is_stmt 0 discriminator 2 view .LVU114
 351 0036 4277     		strb	r2, [r0, #29]
 263:Drivers/STM32F0xx_HAL_Driver/Src/stm32f0xx_hal_rtc_ex.c **** 
 264:Drivers/STM32F0xx_HAL_Driver/Src/stm32f0xx_hal_rtc_ex.c ****   /* Process Unlocked */
 265:Drivers/STM32F0xx_HAL_Driver/Src/stm32f0xx_hal_rtc_ex.c ****   __HAL_UNLOCK(hrtc);
 352              		.loc 1 265 3 is_stmt 1 discriminator 2 view .LVU115
 353              		.loc 1 265 3 discriminator 2 view .LVU116
 354 0038 0023     		movs	r3, #0
 355 003a 0377     		strb	r3, [r0, #28]
 356              		.loc 1 265 3 discriminator 2 view .LVU117
 266:Drivers/STM32F0xx_HAL_Driver/Src/stm32f0xx_hal_rtc_ex.c **** 
 267:Drivers/STM32F0xx_HAL_Driver/Src/stm32f0xx_hal_rtc_ex.c ****   return HAL_OK;
 357              		.loc 1 267 3 discriminator 2 view .LVU118
 358              		.loc 1 267 10 is_stmt 0 discriminator 2 view .LVU119
 359 003c 0020     		movs	r0, #0
 360              	.LVL29:
 361              	.L12:
ARM GAS  /tmp/ccJbOwNd.s 			page 12


 268:Drivers/STM32F0xx_HAL_Driver/Src/stm32f0xx_hal_rtc_ex.c **** }
 362              		.loc 1 268 1 view .LVU120
 363              		@ sp needed
 364 003e 10BD     		pop	{r4, pc}
 365              	.LVL30:
 366              	.L13:
 243:Drivers/STM32F0xx_HAL_Driver/Src/stm32f0xx_hal_rtc_ex.c **** 
 367              		.loc 1 243 3 view .LVU121
 368 0040 0220     		movs	r0, #2
 369              	.LVL31:
 243:Drivers/STM32F0xx_HAL_Driver/Src/stm32f0xx_hal_rtc_ex.c **** 
 370              		.loc 1 243 3 view .LVU122
 371 0042 FCE7     		b	.L12
 372              	.L15:
 373              		.align	2
 374              	.L14:
 375 0044 FF7FFFFF 		.word	-32769
 376 0048 F7F7FFFF 		.word	-2057
 377              		.cfi_endproc
 378              	.LFE42:
 380              		.section	.text.HAL_RTCEx_GetTimeStamp,"ax",%progbits
 381              		.align	1
 382              		.global	HAL_RTCEx_GetTimeStamp
 383              		.syntax unified
 384              		.code	16
 385              		.thumb_func
 386              		.fpu softvfp
 388              	HAL_RTCEx_GetTimeStamp:
 389              	.LVL32:
 390              	.LFB43:
 269:Drivers/STM32F0xx_HAL_Driver/Src/stm32f0xx_hal_rtc_ex.c **** 
 270:Drivers/STM32F0xx_HAL_Driver/Src/stm32f0xx_hal_rtc_ex.c **** /**
 271:Drivers/STM32F0xx_HAL_Driver/Src/stm32f0xx_hal_rtc_ex.c ****   * @brief  Get the RTC TimeStamp value.
 272:Drivers/STM32F0xx_HAL_Driver/Src/stm32f0xx_hal_rtc_ex.c ****   * @param  hrtc RTC handle
 273:Drivers/STM32F0xx_HAL_Driver/Src/stm32f0xx_hal_rtc_ex.c **** 
 274:Drivers/STM32F0xx_HAL_Driver/Src/stm32f0xx_hal_rtc_ex.c ****   * @param  sTimeStamp Pointer to Time structure
 275:Drivers/STM32F0xx_HAL_Driver/Src/stm32f0xx_hal_rtc_ex.c ****   * @param  sTimeStampDate Pointer to Date structure
 276:Drivers/STM32F0xx_HAL_Driver/Src/stm32f0xx_hal_rtc_ex.c ****   * @param  Format specifies the format of the entered parameters.
 277:Drivers/STM32F0xx_HAL_Driver/Src/stm32f0xx_hal_rtc_ex.c ****   *          This parameter can be one of the following values:
 278:Drivers/STM32F0xx_HAL_Driver/Src/stm32f0xx_hal_rtc_ex.c ****   *             @arg RTC_FORMAT_BIN: Binary data format
 279:Drivers/STM32F0xx_HAL_Driver/Src/stm32f0xx_hal_rtc_ex.c ****   *             @arg RTC_FORMAT_BCD: BCD data format
 280:Drivers/STM32F0xx_HAL_Driver/Src/stm32f0xx_hal_rtc_ex.c ****   * @retval HAL status
 281:Drivers/STM32F0xx_HAL_Driver/Src/stm32f0xx_hal_rtc_ex.c ****   */
 282:Drivers/STM32F0xx_HAL_Driver/Src/stm32f0xx_hal_rtc_ex.c **** HAL_StatusTypeDef HAL_RTCEx_GetTimeStamp(RTC_HandleTypeDef *hrtc, RTC_TimeTypeDef *sTimeStamp, RTC_
 283:Drivers/STM32F0xx_HAL_Driver/Src/stm32f0xx_hal_rtc_ex.c **** {
 391              		.loc 1 283 1 is_stmt 1 view -0
 392              		.cfi_startproc
 393              		@ args = 0, pretend = 0, frame = 0
 394              		@ frame_needed = 0, uses_anonymous_args = 0
 395              		.loc 1 283 1 is_stmt 0 view .LVU124
 396 0000 F8B5     		push	{r3, r4, r5, r6, r7, lr}
 397              	.LCFI3:
 398              		.cfi_def_cfa_offset 24
 399              		.cfi_offset 3, -24
 400              		.cfi_offset 4, -20
 401              		.cfi_offset 5, -16
 402              		.cfi_offset 6, -12
ARM GAS  /tmp/ccJbOwNd.s 			page 13


 403              		.cfi_offset 7, -8
 404              		.cfi_offset 14, -4
 405 0002 CE46     		mov	lr, r9
 406 0004 4746     		mov	r7, r8
 407 0006 80B5     		push	{r7, lr}
 408              	.LCFI4:
 409              		.cfi_def_cfa_offset 32
 410              		.cfi_offset 8, -32
 411              		.cfi_offset 9, -28
 412 0008 0600     		movs	r6, r0
 413 000a 0C00     		movs	r4, r1
 414 000c 1500     		movs	r5, r2
 415 000e 9946     		mov	r9, r3
 284:Drivers/STM32F0xx_HAL_Driver/Src/stm32f0xx_hal_rtc_ex.c ****   uint32_t tmptime = 0U, tmpdate = 0U;
 416              		.loc 1 284 3 is_stmt 1 view .LVU125
 417              	.LVL33:
 285:Drivers/STM32F0xx_HAL_Driver/Src/stm32f0xx_hal_rtc_ex.c **** 
 286:Drivers/STM32F0xx_HAL_Driver/Src/stm32f0xx_hal_rtc_ex.c ****   /* Check the parameters */
 287:Drivers/STM32F0xx_HAL_Driver/Src/stm32f0xx_hal_rtc_ex.c ****   assert_param(IS_RTC_FORMAT(Format));
 418              		.loc 1 287 3 view .LVU126
 288:Drivers/STM32F0xx_HAL_Driver/Src/stm32f0xx_hal_rtc_ex.c **** 
 289:Drivers/STM32F0xx_HAL_Driver/Src/stm32f0xx_hal_rtc_ex.c ****   /* Get the TimeStamp time and date registers values */
 290:Drivers/STM32F0xx_HAL_Driver/Src/stm32f0xx_hal_rtc_ex.c ****   tmptime = (uint32_t)(hrtc->Instance->TSTR & RTC_TR_RESERVED_MASK);
 419              		.loc 1 290 3 view .LVU127
 420              		.loc 1 290 28 is_stmt 0 view .LVU128
 421 0010 0268     		ldr	r2, [r0]
 422              	.LVL34:
 423              		.loc 1 290 38 view .LVU129
 424 0012 106B     		ldr	r0, [r2, #48]
 425              	.LVL35:
 426              		.loc 1 290 11 view .LVU130
 427 0014 2549     		ldr	r1, .L19
 428              	.LVL36:
 429              		.loc 1 290 11 view .LVU131
 430 0016 0140     		ands	r1, r0
 431              	.LVL37:
 291:Drivers/STM32F0xx_HAL_Driver/Src/stm32f0xx_hal_rtc_ex.c ****   tmpdate = (uint32_t)(hrtc->Instance->TSDR & RTC_DR_RESERVED_MASK);
 432              		.loc 1 291 3 is_stmt 1 view .LVU132
 433              		.loc 1 291 38 is_stmt 0 view .LVU133
 434 0018 506B     		ldr	r0, [r2, #52]
 435              		.loc 1 291 11 view .LVU134
 436 001a 254A     		ldr	r2, .L19+4
 437 001c 0240     		ands	r2, r0
 438              	.LVL38:
 292:Drivers/STM32F0xx_HAL_Driver/Src/stm32f0xx_hal_rtc_ex.c **** 
 293:Drivers/STM32F0xx_HAL_Driver/Src/stm32f0xx_hal_rtc_ex.c ****   /* Fill the Time structure fields with the read parameters */
 294:Drivers/STM32F0xx_HAL_Driver/Src/stm32f0xx_hal_rtc_ex.c ****   sTimeStamp->Hours = (uint8_t)((tmptime & (RTC_TR_HT | RTC_TR_HU)) >> 16U);
 439              		.loc 1 294 3 is_stmt 1 view .LVU135
 440              		.loc 1 294 23 is_stmt 0 view .LVU136
 441 001e 0B0C     		lsrs	r3, r1, #16
 442              	.LVL39:
 443              		.loc 1 294 23 view .LVU137
 444 0020 9846     		mov	r8, r3
 445 0022 3F20     		movs	r0, #63
 446 0024 1F00     		movs	r7, r3
 447 0026 0740     		ands	r7, r0
 448              		.loc 1 294 21 view .LVU138
ARM GAS  /tmp/ccJbOwNd.s 			page 14


 449 0028 2770     		strb	r7, [r4]
 295:Drivers/STM32F0xx_HAL_Driver/Src/stm32f0xx_hal_rtc_ex.c ****   sTimeStamp->Minutes = (uint8_t)((tmptime & (RTC_TR_MNT | RTC_TR_MNU)) >> 8U);
 450              		.loc 1 295 3 is_stmt 1 view .LVU139
 451              		.loc 1 295 73 is_stmt 0 view .LVU140
 452 002a 0B0A     		lsrs	r3, r1, #8
 453              		.loc 1 295 25 view .LVU141
 454 002c 7F27     		movs	r7, #127
 455 002e 3B40     		ands	r3, r7
 456              		.loc 1 295 23 view .LVU142
 457 0030 6370     		strb	r3, [r4, #1]
 296:Drivers/STM32F0xx_HAL_Driver/Src/stm32f0xx_hal_rtc_ex.c ****   sTimeStamp->Seconds = (uint8_t)(tmptime & (RTC_TR_ST | RTC_TR_SU));
 458              		.loc 1 296 3 is_stmt 1 view .LVU143
 459              		.loc 1 296 25 is_stmt 0 view .LVU144
 460 0032 3940     		ands	r1, r7
 461              	.LVL40:
 462              		.loc 1 296 23 view .LVU145
 463 0034 A170     		strb	r1, [r4, #2]
 297:Drivers/STM32F0xx_HAL_Driver/Src/stm32f0xx_hal_rtc_ex.c ****   sTimeStamp->TimeFormat = (uint8_t)((tmptime & (RTC_TR_PM)) >> 16U);
 464              		.loc 1 297 3 is_stmt 1 view .LVU146
 465              		.loc 1 297 28 is_stmt 0 view .LVU147
 466 0036 4021     		movs	r1, #64
 467 0038 4346     		mov	r3, r8
 468 003a 1940     		ands	r1, r3
 469              		.loc 1 297 26 view .LVU148
 470 003c E170     		strb	r1, [r4, #3]
 298:Drivers/STM32F0xx_HAL_Driver/Src/stm32f0xx_hal_rtc_ex.c ****   sTimeStamp->SubSeconds = (uint32_t) hrtc->Instance->TSSSR;
 471              		.loc 1 298 3 is_stmt 1 view .LVU149
 472              		.loc 1 298 43 is_stmt 0 view .LVU150
 473 003e 3168     		ldr	r1, [r6]
 474              		.loc 1 298 53 view .LVU151
 475 0040 896B     		ldr	r1, [r1, #56]
 476              		.loc 1 298 26 view .LVU152
 477 0042 6160     		str	r1, [r4, #4]
 299:Drivers/STM32F0xx_HAL_Driver/Src/stm32f0xx_hal_rtc_ex.c **** 
 300:Drivers/STM32F0xx_HAL_Driver/Src/stm32f0xx_hal_rtc_ex.c ****   /* Fill the Date structure fields with the read parameters */
 301:Drivers/STM32F0xx_HAL_Driver/Src/stm32f0xx_hal_rtc_ex.c ****   sTimeStampDate->Year = 0;
 478              		.loc 1 301 3 is_stmt 1 view .LVU153
 479              		.loc 1 301 24 is_stmt 0 view .LVU154
 480 0044 0021     		movs	r1, #0
 481 0046 E970     		strb	r1, [r5, #3]
 302:Drivers/STM32F0xx_HAL_Driver/Src/stm32f0xx_hal_rtc_ex.c ****   sTimeStampDate->Month = (uint8_t)((tmpdate & (RTC_DR_MT | RTC_DR_MU)) >> 8U);
 482              		.loc 1 302 3 is_stmt 1 view .LVU155
 483              		.loc 1 302 73 is_stmt 0 view .LVU156
 484 0048 170A     		lsrs	r7, r2, #8
 485              		.loc 1 302 27 view .LVU157
 486 004a 1F31     		adds	r1, r1, #31
 487 004c 3940     		ands	r1, r7
 488              		.loc 1 302 25 view .LVU158
 489 004e 6970     		strb	r1, [r5, #1]
 303:Drivers/STM32F0xx_HAL_Driver/Src/stm32f0xx_hal_rtc_ex.c ****   sTimeStampDate->Date = (uint8_t)(tmpdate & (RTC_DR_DT | RTC_DR_DU));
 490              		.loc 1 303 3 is_stmt 1 view .LVU159
 491              		.loc 1 303 26 is_stmt 0 view .LVU160
 492 0050 1040     		ands	r0, r2
 493              		.loc 1 303 24 view .LVU161
 494 0052 A870     		strb	r0, [r5, #2]
 304:Drivers/STM32F0xx_HAL_Driver/Src/stm32f0xx_hal_rtc_ex.c ****   sTimeStampDate->WeekDay = (uint8_t)((tmpdate & (RTC_DR_WDU)) >> 13U);
 495              		.loc 1 304 3 is_stmt 1 view .LVU162
ARM GAS  /tmp/ccJbOwNd.s 			page 15


 496              		.loc 1 304 64 is_stmt 0 view .LVU163
 497 0054 520B     		lsrs	r2, r2, #13
 498              	.LVL41:
 499              		.loc 1 304 29 view .LVU164
 500 0056 0721     		movs	r1, #7
 501 0058 0A40     		ands	r2, r1
 502              		.loc 1 304 27 view .LVU165
 503 005a 2A70     		strb	r2, [r5]
 305:Drivers/STM32F0xx_HAL_Driver/Src/stm32f0xx_hal_rtc_ex.c **** 
 306:Drivers/STM32F0xx_HAL_Driver/Src/stm32f0xx_hal_rtc_ex.c ****   /* Check the input parameters format */
 307:Drivers/STM32F0xx_HAL_Driver/Src/stm32f0xx_hal_rtc_ex.c ****   if (Format == RTC_FORMAT_BIN)
 504              		.loc 1 307 3 is_stmt 1 view .LVU166
 505              		.loc 1 307 6 is_stmt 0 view .LVU167
 506 005c 4B46     		mov	r3, r9
 507 005e 002B     		cmp	r3, #0
 508 0060 0BD0     		beq	.L18
 509              	.L17:
 308:Drivers/STM32F0xx_HAL_Driver/Src/stm32f0xx_hal_rtc_ex.c ****   {
 309:Drivers/STM32F0xx_HAL_Driver/Src/stm32f0xx_hal_rtc_ex.c ****     /* Convert the TimeStamp structure parameters to Binary format */
 310:Drivers/STM32F0xx_HAL_Driver/Src/stm32f0xx_hal_rtc_ex.c ****     sTimeStamp->Hours = (uint8_t)RTC_Bcd2ToByte(sTimeStamp->Hours);
 311:Drivers/STM32F0xx_HAL_Driver/Src/stm32f0xx_hal_rtc_ex.c ****     sTimeStamp->Minutes = (uint8_t)RTC_Bcd2ToByte(sTimeStamp->Minutes);
 312:Drivers/STM32F0xx_HAL_Driver/Src/stm32f0xx_hal_rtc_ex.c ****     sTimeStamp->Seconds = (uint8_t)RTC_Bcd2ToByte(sTimeStamp->Seconds);
 313:Drivers/STM32F0xx_HAL_Driver/Src/stm32f0xx_hal_rtc_ex.c **** 
 314:Drivers/STM32F0xx_HAL_Driver/Src/stm32f0xx_hal_rtc_ex.c ****     /* Convert the DateTimeStamp structure parameters to Binary format */
 315:Drivers/STM32F0xx_HAL_Driver/Src/stm32f0xx_hal_rtc_ex.c ****     sTimeStampDate->Month = (uint8_t)RTC_Bcd2ToByte(sTimeStampDate->Month);
 316:Drivers/STM32F0xx_HAL_Driver/Src/stm32f0xx_hal_rtc_ex.c ****     sTimeStampDate->Date = (uint8_t)RTC_Bcd2ToByte(sTimeStampDate->Date);
 317:Drivers/STM32F0xx_HAL_Driver/Src/stm32f0xx_hal_rtc_ex.c ****     sTimeStampDate->WeekDay = (uint8_t)RTC_Bcd2ToByte(sTimeStampDate->WeekDay);
 318:Drivers/STM32F0xx_HAL_Driver/Src/stm32f0xx_hal_rtc_ex.c ****   }
 319:Drivers/STM32F0xx_HAL_Driver/Src/stm32f0xx_hal_rtc_ex.c **** 
 320:Drivers/STM32F0xx_HAL_Driver/Src/stm32f0xx_hal_rtc_ex.c ****   /* Clear the TIMESTAMP Flag */
 321:Drivers/STM32F0xx_HAL_Driver/Src/stm32f0xx_hal_rtc_ex.c ****   __HAL_RTC_TIMESTAMP_CLEAR_FLAG(hrtc, RTC_FLAG_TSF);
 510              		.loc 1 321 3 is_stmt 1 view .LVU168
 511 0062 3168     		ldr	r1, [r6]
 512 0064 CA68     		ldr	r2, [r1, #12]
 513 0066 FF23     		movs	r3, #255
 514 0068 1A40     		ands	r2, r3
 515 006a 124B     		ldr	r3, .L19+8
 516 006c 1343     		orrs	r3, r2
 517 006e CB60     		str	r3, [r1, #12]
 322:Drivers/STM32F0xx_HAL_Driver/Src/stm32f0xx_hal_rtc_ex.c **** 
 323:Drivers/STM32F0xx_HAL_Driver/Src/stm32f0xx_hal_rtc_ex.c ****   return HAL_OK;
 518              		.loc 1 323 3 view .LVU169
 324:Drivers/STM32F0xx_HAL_Driver/Src/stm32f0xx_hal_rtc_ex.c **** }
 519              		.loc 1 324 1 is_stmt 0 view .LVU170
 520 0070 0020     		movs	r0, #0
 521              		@ sp needed
 522              	.LVL42:
 523              	.LVL43:
 524              	.LVL44:
 525              	.LVL45:
 526              		.loc 1 324 1 view .LVU171
 527 0072 0CBC     		pop	{r2, r3}
 528 0074 9046     		mov	r8, r2
 529 0076 9946     		mov	r9, r3
 530 0078 F8BD     		pop	{r3, r4, r5, r6, r7, pc}
 531              	.LVL46:
 532              	.L18:
ARM GAS  /tmp/ccJbOwNd.s 			page 16


 310:Drivers/STM32F0xx_HAL_Driver/Src/stm32f0xx_hal_rtc_ex.c ****     sTimeStamp->Minutes = (uint8_t)RTC_Bcd2ToByte(sTimeStamp->Minutes);
 533              		.loc 1 310 5 is_stmt 1 view .LVU172
 310:Drivers/STM32F0xx_HAL_Driver/Src/stm32f0xx_hal_rtc_ex.c ****     sTimeStamp->Minutes = (uint8_t)RTC_Bcd2ToByte(sTimeStamp->Minutes);
 534              		.loc 1 310 34 is_stmt 0 view .LVU173
 535 007a 2078     		ldrb	r0, [r4]
 536 007c FFF7FEFF 		bl	RTC_Bcd2ToByte
 537              	.LVL47:
 310:Drivers/STM32F0xx_HAL_Driver/Src/stm32f0xx_hal_rtc_ex.c ****     sTimeStamp->Minutes = (uint8_t)RTC_Bcd2ToByte(sTimeStamp->Minutes);
 538              		.loc 1 310 23 view .LVU174
 539 0080 2070     		strb	r0, [r4]
 311:Drivers/STM32F0xx_HAL_Driver/Src/stm32f0xx_hal_rtc_ex.c ****     sTimeStamp->Seconds = (uint8_t)RTC_Bcd2ToByte(sTimeStamp->Seconds);
 540              		.loc 1 311 5 is_stmt 1 view .LVU175
 311:Drivers/STM32F0xx_HAL_Driver/Src/stm32f0xx_hal_rtc_ex.c ****     sTimeStamp->Seconds = (uint8_t)RTC_Bcd2ToByte(sTimeStamp->Seconds);
 541              		.loc 1 311 36 is_stmt 0 view .LVU176
 542 0082 6078     		ldrb	r0, [r4, #1]
 543 0084 FFF7FEFF 		bl	RTC_Bcd2ToByte
 544              	.LVL48:
 311:Drivers/STM32F0xx_HAL_Driver/Src/stm32f0xx_hal_rtc_ex.c ****     sTimeStamp->Seconds = (uint8_t)RTC_Bcd2ToByte(sTimeStamp->Seconds);
 545              		.loc 1 311 25 view .LVU177
 546 0088 6070     		strb	r0, [r4, #1]
 312:Drivers/STM32F0xx_HAL_Driver/Src/stm32f0xx_hal_rtc_ex.c **** 
 547              		.loc 1 312 5 is_stmt 1 view .LVU178
 312:Drivers/STM32F0xx_HAL_Driver/Src/stm32f0xx_hal_rtc_ex.c **** 
 548              		.loc 1 312 36 is_stmt 0 view .LVU179
 549 008a A078     		ldrb	r0, [r4, #2]
 550 008c FFF7FEFF 		bl	RTC_Bcd2ToByte
 551              	.LVL49:
 312:Drivers/STM32F0xx_HAL_Driver/Src/stm32f0xx_hal_rtc_ex.c **** 
 552              		.loc 1 312 25 view .LVU180
 553 0090 A070     		strb	r0, [r4, #2]
 315:Drivers/STM32F0xx_HAL_Driver/Src/stm32f0xx_hal_rtc_ex.c ****     sTimeStampDate->Date = (uint8_t)RTC_Bcd2ToByte(sTimeStampDate->Date);
 554              		.loc 1 315 5 is_stmt 1 view .LVU181
 315:Drivers/STM32F0xx_HAL_Driver/Src/stm32f0xx_hal_rtc_ex.c ****     sTimeStampDate->Date = (uint8_t)RTC_Bcd2ToByte(sTimeStampDate->Date);
 555              		.loc 1 315 38 is_stmt 0 view .LVU182
 556 0092 6878     		ldrb	r0, [r5, #1]
 557 0094 FFF7FEFF 		bl	RTC_Bcd2ToByte
 558              	.LVL50:
 315:Drivers/STM32F0xx_HAL_Driver/Src/stm32f0xx_hal_rtc_ex.c ****     sTimeStampDate->Date = (uint8_t)RTC_Bcd2ToByte(sTimeStampDate->Date);
 559              		.loc 1 315 27 view .LVU183
 560 0098 6870     		strb	r0, [r5, #1]
 316:Drivers/STM32F0xx_HAL_Driver/Src/stm32f0xx_hal_rtc_ex.c ****     sTimeStampDate->WeekDay = (uint8_t)RTC_Bcd2ToByte(sTimeStampDate->WeekDay);
 561              		.loc 1 316 5 is_stmt 1 view .LVU184
 316:Drivers/STM32F0xx_HAL_Driver/Src/stm32f0xx_hal_rtc_ex.c ****     sTimeStampDate->WeekDay = (uint8_t)RTC_Bcd2ToByte(sTimeStampDate->WeekDay);
 562              		.loc 1 316 37 is_stmt 0 view .LVU185
 563 009a A878     		ldrb	r0, [r5, #2]
 564 009c FFF7FEFF 		bl	RTC_Bcd2ToByte
 565              	.LVL51:
 316:Drivers/STM32F0xx_HAL_Driver/Src/stm32f0xx_hal_rtc_ex.c ****     sTimeStampDate->WeekDay = (uint8_t)RTC_Bcd2ToByte(sTimeStampDate->WeekDay);
 566              		.loc 1 316 26 view .LVU186
 567 00a0 A870     		strb	r0, [r5, #2]
 317:Drivers/STM32F0xx_HAL_Driver/Src/stm32f0xx_hal_rtc_ex.c ****   }
 568              		.loc 1 317 5 is_stmt 1 view .LVU187
 317:Drivers/STM32F0xx_HAL_Driver/Src/stm32f0xx_hal_rtc_ex.c ****   }
 569              		.loc 1 317 40 is_stmt 0 view .LVU188
 570 00a2 2878     		ldrb	r0, [r5]
 571 00a4 FFF7FEFF 		bl	RTC_Bcd2ToByte
 572              	.LVL52:
ARM GAS  /tmp/ccJbOwNd.s 			page 17


 317:Drivers/STM32F0xx_HAL_Driver/Src/stm32f0xx_hal_rtc_ex.c ****   }
 573              		.loc 1 317 29 view .LVU189
 574 00a8 2870     		strb	r0, [r5]
 575 00aa DAE7     		b	.L17
 576              	.L20:
 577              		.align	2
 578              	.L19:
 579 00ac 7F7F7F00 		.word	8355711
 580 00b0 3FFFFF00 		.word	16777023
 581 00b4 7FF7FFFF 		.word	-2177
 582              		.cfi_endproc
 583              	.LFE43:
 585              		.section	.text.HAL_RTCEx_SetTamper,"ax",%progbits
 586              		.align	1
 587              		.global	HAL_RTCEx_SetTamper
 588              		.syntax unified
 589              		.code	16
 590              		.thumb_func
 591              		.fpu softvfp
 593              	HAL_RTCEx_SetTamper:
 594              	.LVL53:
 595              	.LFB44:
 325:Drivers/STM32F0xx_HAL_Driver/Src/stm32f0xx_hal_rtc_ex.c **** 
 326:Drivers/STM32F0xx_HAL_Driver/Src/stm32f0xx_hal_rtc_ex.c **** /**
 327:Drivers/STM32F0xx_HAL_Driver/Src/stm32f0xx_hal_rtc_ex.c ****   * @brief  Set Tamper
 328:Drivers/STM32F0xx_HAL_Driver/Src/stm32f0xx_hal_rtc_ex.c ****   * @note   By calling this API we disable the tamper interrupt for all tampers.
 329:Drivers/STM32F0xx_HAL_Driver/Src/stm32f0xx_hal_rtc_ex.c ****   * @param  hrtc RTC handle
 330:Drivers/STM32F0xx_HAL_Driver/Src/stm32f0xx_hal_rtc_ex.c ****   * @param  sTamper Pointer to Tamper Structure.
 331:Drivers/STM32F0xx_HAL_Driver/Src/stm32f0xx_hal_rtc_ex.c ****   * @retval HAL status
 332:Drivers/STM32F0xx_HAL_Driver/Src/stm32f0xx_hal_rtc_ex.c ****   */
 333:Drivers/STM32F0xx_HAL_Driver/Src/stm32f0xx_hal_rtc_ex.c **** HAL_StatusTypeDef HAL_RTCEx_SetTamper(RTC_HandleTypeDef *hrtc, RTC_TamperTypeDef *sTamper)
 334:Drivers/STM32F0xx_HAL_Driver/Src/stm32f0xx_hal_rtc_ex.c **** {
 596              		.loc 1 334 1 is_stmt 1 view -0
 597              		.cfi_startproc
 598              		@ args = 0, pretend = 0, frame = 0
 599              		@ frame_needed = 0, uses_anonymous_args = 0
 600              		.loc 1 334 1 is_stmt 0 view .LVU191
 601 0000 30B5     		push	{r4, r5, lr}
 602              	.LCFI5:
 603              		.cfi_def_cfa_offset 12
 604              		.cfi_offset 4, -12
 605              		.cfi_offset 5, -8
 606              		.cfi_offset 14, -4
 335:Drivers/STM32F0xx_HAL_Driver/Src/stm32f0xx_hal_rtc_ex.c ****   uint32_t tmpreg = 0U;
 607              		.loc 1 335 3 is_stmt 1 view .LVU192
 608              	.LVL54:
 336:Drivers/STM32F0xx_HAL_Driver/Src/stm32f0xx_hal_rtc_ex.c **** 
 337:Drivers/STM32F0xx_HAL_Driver/Src/stm32f0xx_hal_rtc_ex.c ****   /* Check the parameters */
 338:Drivers/STM32F0xx_HAL_Driver/Src/stm32f0xx_hal_rtc_ex.c ****   assert_param(IS_RTC_TAMPER(sTamper->Tamper));
 609              		.loc 1 338 3 view .LVU193
 339:Drivers/STM32F0xx_HAL_Driver/Src/stm32f0xx_hal_rtc_ex.c ****   assert_param(IS_RTC_TAMPER_TRIGGER(sTamper->Trigger));
 610              		.loc 1 339 3 view .LVU194
 340:Drivers/STM32F0xx_HAL_Driver/Src/stm32f0xx_hal_rtc_ex.c ****   assert_param(IS_RTC_TAMPER_FILTER(sTamper->Filter));
 611              		.loc 1 340 3 view .LVU195
 341:Drivers/STM32F0xx_HAL_Driver/Src/stm32f0xx_hal_rtc_ex.c ****   assert_param(IS_RTC_TAMPER_SAMPLING_FREQ(sTamper->SamplingFrequency));
 612              		.loc 1 341 3 view .LVU196
 342:Drivers/STM32F0xx_HAL_Driver/Src/stm32f0xx_hal_rtc_ex.c ****   assert_param(IS_RTC_TAMPER_PRECHARGE_DURATION(sTamper->PrechargeDuration));
ARM GAS  /tmp/ccJbOwNd.s 			page 18


 613              		.loc 1 342 3 view .LVU197
 343:Drivers/STM32F0xx_HAL_Driver/Src/stm32f0xx_hal_rtc_ex.c ****   assert_param(IS_RTC_TAMPER_PULLUP_STATE(sTamper->TamperPullUp));
 614              		.loc 1 343 3 view .LVU198
 344:Drivers/STM32F0xx_HAL_Driver/Src/stm32f0xx_hal_rtc_ex.c ****   assert_param(IS_RTC_TAMPER_TIMESTAMPONTAMPER_DETECTION(sTamper->TimeStampOnTamperDetection));
 615              		.loc 1 344 3 view .LVU199
 345:Drivers/STM32F0xx_HAL_Driver/Src/stm32f0xx_hal_rtc_ex.c **** 
 346:Drivers/STM32F0xx_HAL_Driver/Src/stm32f0xx_hal_rtc_ex.c ****   /* Process Locked */
 347:Drivers/STM32F0xx_HAL_Driver/Src/stm32f0xx_hal_rtc_ex.c ****   __HAL_LOCK(hrtc);
 616              		.loc 1 347 3 view .LVU200
 617              		.loc 1 347 3 view .LVU201
 618 0002 037F     		ldrb	r3, [r0, #28]
 619 0004 012B     		cmp	r3, #1
 620 0006 28D0     		beq	.L24
 621              		.loc 1 347 3 discriminator 2 view .LVU202
 622 0008 0123     		movs	r3, #1
 623 000a 0377     		strb	r3, [r0, #28]
 624              		.loc 1 347 3 discriminator 2 view .LVU203
 348:Drivers/STM32F0xx_HAL_Driver/Src/stm32f0xx_hal_rtc_ex.c **** 
 349:Drivers/STM32F0xx_HAL_Driver/Src/stm32f0xx_hal_rtc_ex.c ****   hrtc->State = HAL_RTC_STATE_BUSY;
 625              		.loc 1 349 3 discriminator 2 view .LVU204
 626              		.loc 1 349 15 is_stmt 0 discriminator 2 view .LVU205
 627 000c 0133     		adds	r3, r3, #1
 628 000e 4377     		strb	r3, [r0, #29]
 350:Drivers/STM32F0xx_HAL_Driver/Src/stm32f0xx_hal_rtc_ex.c **** 
 351:Drivers/STM32F0xx_HAL_Driver/Src/stm32f0xx_hal_rtc_ex.c ****   if (sTamper->Trigger != RTC_TAMPERTRIGGER_RISINGEDGE)
 629              		.loc 1 351 3 is_stmt 1 discriminator 2 view .LVU206
 630              		.loc 1 351 6 is_stmt 0 discriminator 2 view .LVU207
 631 0010 4B68     		ldr	r3, [r1, #4]
 632 0012 002B     		cmp	r3, #0
 633 0014 02D0     		beq	.L23
 352:Drivers/STM32F0xx_HAL_Driver/Src/stm32f0xx_hal_rtc_ex.c ****   {
 353:Drivers/STM32F0xx_HAL_Driver/Src/stm32f0xx_hal_rtc_ex.c ****     sTamper->Trigger = (uint32_t)(sTamper->Tamper << 1U);
 634              		.loc 1 353 5 is_stmt 1 view .LVU208
 635              		.loc 1 353 51 is_stmt 0 view .LVU209
 636 0016 0B68     		ldr	r3, [r1]
 637 0018 5B00     		lsls	r3, r3, #1
 638              		.loc 1 353 22 view .LVU210
 639 001a 4B60     		str	r3, [r1, #4]
 640              	.L23:
 354:Drivers/STM32F0xx_HAL_Driver/Src/stm32f0xx_hal_rtc_ex.c ****   }
 355:Drivers/STM32F0xx_HAL_Driver/Src/stm32f0xx_hal_rtc_ex.c **** 
 356:Drivers/STM32F0xx_HAL_Driver/Src/stm32f0xx_hal_rtc_ex.c ****   tmpreg = ((uint32_t)sTamper->Tamper | (uint32_t)sTamper->Trigger | (uint32_t)sTamper->Filter | \
 641              		.loc 1 356 3 is_stmt 1 view .LVU211
 642              		.loc 1 356 30 is_stmt 0 view .LVU212
 643 001c 0A68     		ldr	r2, [r1]
 644              		.loc 1 356 39 view .LVU213
 645 001e 4B68     		ldr	r3, [r1, #4]
 646 0020 1343     		orrs	r3, r2
 647              		.loc 1 356 68 view .LVU214
 648 0022 8C68     		ldr	r4, [r1, #8]
 649 0024 2343     		orrs	r3, r4
 650              		.loc 1 356 96 view .LVU215
 651 0026 CC68     		ldr	r4, [r1, #12]
 652 0028 2343     		orrs	r3, r4
 357:Drivers/STM32F0xx_HAL_Driver/Src/stm32f0xx_hal_rtc_ex.c ****             (uint32_t)sTamper->SamplingFrequency | (uint32_t)sTamper->PrechargeDuration | \
 653              		.loc 1 357 50 view .LVU216
 654 002a 0C69     		ldr	r4, [r1, #16]
ARM GAS  /tmp/ccJbOwNd.s 			page 19


 655 002c 2343     		orrs	r3, r4
 656              		.loc 1 357 89 view .LVU217
 657 002e 4C69     		ldr	r4, [r1, #20]
 658 0030 2343     		orrs	r3, r4
 358:Drivers/STM32F0xx_HAL_Driver/Src/stm32f0xx_hal_rtc_ex.c ****             (uint32_t)sTamper->TamperPullUp | sTamper->TimeStampOnTamperDetection);
 659              		.loc 1 358 54 view .LVU218
 660 0032 8969     		ldr	r1, [r1, #24]
 661              	.LVL55:
 356:Drivers/STM32F0xx_HAL_Driver/Src/stm32f0xx_hal_rtc_ex.c ****             (uint32_t)sTamper->SamplingFrequency | (uint32_t)sTamper->PrechargeDuration | \
 662              		.loc 1 356 10 view .LVU219
 663 0034 0B43     		orrs	r3, r1
 664              	.LVL56:
 359:Drivers/STM32F0xx_HAL_Driver/Src/stm32f0xx_hal_rtc_ex.c **** 
 360:Drivers/STM32F0xx_HAL_Driver/Src/stm32f0xx_hal_rtc_ex.c ****   hrtc->Instance->TAFCR &= (uint32_t)~((uint32_t)sTamper->Tamper | (uint32_t)(sTamper->Tamper << 1U
 665              		.loc 1 360 3 is_stmt 1 view .LVU220
 666              		.loc 1 360 7 is_stmt 0 view .LVU221
 667 0036 0568     		ldr	r5, [r0]
 668              		.loc 1 360 25 view .LVU222
 669 0038 296C     		ldr	r1, [r5, #64]
 670              		.loc 1 360 95 view .LVU223
 671 003a 5400     		lsls	r4, r2, #1
 672              		.loc 1 360 66 view .LVU224
 673 003c 2243     		orrs	r2, r4
 361:Drivers/STM32F0xx_HAL_Driver/Src/stm32f0xx_hal_rtc_ex.c ****                                        (uint32_t)RTC_TAFCR_TAMPFREQ | (uint32_t)RTC_TAFCR_TAMPFLT |
 362:Drivers/STM32F0xx_HAL_Driver/Src/stm32f0xx_hal_rtc_ex.c ****                                        (uint32_t)RTC_TAFCR_TAMPPUDIS | (uint32_t)RTC_TAFCR_TAMPIE);
 674              		.loc 1 362 70 view .LVU225
 675 003e 084C     		ldr	r4, .L25
 676 0040 2243     		orrs	r2, r4
 360:Drivers/STM32F0xx_HAL_Driver/Src/stm32f0xx_hal_rtc_ex.c ****                                        (uint32_t)RTC_TAFCR_TAMPFREQ | (uint32_t)RTC_TAFCR_TAMPFLT |
 677              		.loc 1 360 25 view .LVU226
 678 0042 9143     		bics	r1, r2
 679 0044 2964     		str	r1, [r5, #64]
 363:Drivers/STM32F0xx_HAL_Driver/Src/stm32f0xx_hal_rtc_ex.c **** 
 364:Drivers/STM32F0xx_HAL_Driver/Src/stm32f0xx_hal_rtc_ex.c ****   hrtc->Instance->TAFCR |= tmpreg;
 680              		.loc 1 364 3 is_stmt 1 view .LVU227
 681              		.loc 1 364 7 is_stmt 0 view .LVU228
 682 0046 0168     		ldr	r1, [r0]
 683              		.loc 1 364 25 view .LVU229
 684 0048 0A6C     		ldr	r2, [r1, #64]
 685 004a 1343     		orrs	r3, r2
 686              	.LVL57:
 687              		.loc 1 364 25 view .LVU230
 688 004c 0B64     		str	r3, [r1, #64]
 365:Drivers/STM32F0xx_HAL_Driver/Src/stm32f0xx_hal_rtc_ex.c **** 
 366:Drivers/STM32F0xx_HAL_Driver/Src/stm32f0xx_hal_rtc_ex.c ****   hrtc->State = HAL_RTC_STATE_READY;
 689              		.loc 1 366 3 is_stmt 1 view .LVU231
 690              		.loc 1 366 15 is_stmt 0 view .LVU232
 691 004e 0123     		movs	r3, #1
 692 0050 4377     		strb	r3, [r0, #29]
 367:Drivers/STM32F0xx_HAL_Driver/Src/stm32f0xx_hal_rtc_ex.c **** 
 368:Drivers/STM32F0xx_HAL_Driver/Src/stm32f0xx_hal_rtc_ex.c ****   /* Process Unlocked */
 369:Drivers/STM32F0xx_HAL_Driver/Src/stm32f0xx_hal_rtc_ex.c ****   __HAL_UNLOCK(hrtc);
 693              		.loc 1 369 3 is_stmt 1 view .LVU233
 694              		.loc 1 369 3 view .LVU234
 695 0052 0023     		movs	r3, #0
 696 0054 0377     		strb	r3, [r0, #28]
 697              		.loc 1 369 3 view .LVU235
ARM GAS  /tmp/ccJbOwNd.s 			page 20


 370:Drivers/STM32F0xx_HAL_Driver/Src/stm32f0xx_hal_rtc_ex.c **** 
 371:Drivers/STM32F0xx_HAL_Driver/Src/stm32f0xx_hal_rtc_ex.c ****   return HAL_OK;
 698              		.loc 1 371 3 view .LVU236
 699              		.loc 1 371 10 is_stmt 0 view .LVU237
 700 0056 0020     		movs	r0, #0
 701              	.LVL58:
 702              	.L22:
 372:Drivers/STM32F0xx_HAL_Driver/Src/stm32f0xx_hal_rtc_ex.c **** }
 703              		.loc 1 372 1 view .LVU238
 704              		@ sp needed
 705 0058 30BD     		pop	{r4, r5, pc}
 706              	.LVL59:
 707              	.L24:
 347:Drivers/STM32F0xx_HAL_Driver/Src/stm32f0xx_hal_rtc_ex.c **** 
 708              		.loc 1 347 3 view .LVU239
 709 005a 0220     		movs	r0, #2
 710              	.LVL60:
 347:Drivers/STM32F0xx_HAL_Driver/Src/stm32f0xx_hal_rtc_ex.c **** 
 711              		.loc 1 347 3 view .LVU240
 712 005c FCE7     		b	.L22
 713              	.L26:
 714 005e C046     		.align	2
 715              	.L25:
 716 0060 84FF0000 		.word	65412
 717              		.cfi_endproc
 718              	.LFE44:
 720              		.section	.text.HAL_RTCEx_SetTamper_IT,"ax",%progbits
 721              		.align	1
 722              		.global	HAL_RTCEx_SetTamper_IT
 723              		.syntax unified
 724              		.code	16
 725              		.thumb_func
 726              		.fpu softvfp
 728              	HAL_RTCEx_SetTamper_IT:
 729              	.LVL61:
 730              	.LFB45:
 373:Drivers/STM32F0xx_HAL_Driver/Src/stm32f0xx_hal_rtc_ex.c **** 
 374:Drivers/STM32F0xx_HAL_Driver/Src/stm32f0xx_hal_rtc_ex.c **** /**
 375:Drivers/STM32F0xx_HAL_Driver/Src/stm32f0xx_hal_rtc_ex.c ****   * @brief  Sets Tamper with interrupt.
 376:Drivers/STM32F0xx_HAL_Driver/Src/stm32f0xx_hal_rtc_ex.c ****   * @note   By calling this API we force the tamper interrupt for all tampers.
 377:Drivers/STM32F0xx_HAL_Driver/Src/stm32f0xx_hal_rtc_ex.c ****   * @param  hrtc pointer to a RTC_HandleTypeDef structure that contains
 378:Drivers/STM32F0xx_HAL_Driver/Src/stm32f0xx_hal_rtc_ex.c ****   *                the configuration information for RTC.
 379:Drivers/STM32F0xx_HAL_Driver/Src/stm32f0xx_hal_rtc_ex.c ****   * @param  sTamper Pointer to RTC Tamper.
 380:Drivers/STM32F0xx_HAL_Driver/Src/stm32f0xx_hal_rtc_ex.c ****   * @retval HAL status
 381:Drivers/STM32F0xx_HAL_Driver/Src/stm32f0xx_hal_rtc_ex.c ****   */
 382:Drivers/STM32F0xx_HAL_Driver/Src/stm32f0xx_hal_rtc_ex.c **** HAL_StatusTypeDef HAL_RTCEx_SetTamper_IT(RTC_HandleTypeDef *hrtc, RTC_TamperTypeDef *sTamper)
 383:Drivers/STM32F0xx_HAL_Driver/Src/stm32f0xx_hal_rtc_ex.c **** {
 731              		.loc 1 383 1 is_stmt 1 view -0
 732              		.cfi_startproc
 733              		@ args = 0, pretend = 0, frame = 0
 734              		@ frame_needed = 0, uses_anonymous_args = 0
 735              		.loc 1 383 1 is_stmt 0 view .LVU242
 736 0000 30B5     		push	{r4, r5, lr}
 737              	.LCFI6:
 738              		.cfi_def_cfa_offset 12
 739              		.cfi_offset 4, -12
 740              		.cfi_offset 5, -8
ARM GAS  /tmp/ccJbOwNd.s 			page 21


 741              		.cfi_offset 14, -4
 384:Drivers/STM32F0xx_HAL_Driver/Src/stm32f0xx_hal_rtc_ex.c ****   uint32_t tmpreg = 0U;
 742              		.loc 1 384 3 is_stmt 1 view .LVU243
 743              	.LVL62:
 385:Drivers/STM32F0xx_HAL_Driver/Src/stm32f0xx_hal_rtc_ex.c **** 
 386:Drivers/STM32F0xx_HAL_Driver/Src/stm32f0xx_hal_rtc_ex.c ****   /* Check the parameters */
 387:Drivers/STM32F0xx_HAL_Driver/Src/stm32f0xx_hal_rtc_ex.c ****   assert_param(IS_RTC_TAMPER(sTamper->Tamper));
 744              		.loc 1 387 3 view .LVU244
 388:Drivers/STM32F0xx_HAL_Driver/Src/stm32f0xx_hal_rtc_ex.c ****   assert_param(IS_RTC_TAMPER_TRIGGER(sTamper->Trigger));
 745              		.loc 1 388 3 view .LVU245
 389:Drivers/STM32F0xx_HAL_Driver/Src/stm32f0xx_hal_rtc_ex.c ****   assert_param(IS_RTC_TAMPER_FILTER(sTamper->Filter));
 746              		.loc 1 389 3 view .LVU246
 390:Drivers/STM32F0xx_HAL_Driver/Src/stm32f0xx_hal_rtc_ex.c ****   assert_param(IS_RTC_TAMPER_SAMPLING_FREQ(sTamper->SamplingFrequency));
 747              		.loc 1 390 3 view .LVU247
 391:Drivers/STM32F0xx_HAL_Driver/Src/stm32f0xx_hal_rtc_ex.c ****   assert_param(IS_RTC_TAMPER_PRECHARGE_DURATION(sTamper->PrechargeDuration));
 748              		.loc 1 391 3 view .LVU248
 392:Drivers/STM32F0xx_HAL_Driver/Src/stm32f0xx_hal_rtc_ex.c ****   assert_param(IS_RTC_TAMPER_PULLUP_STATE(sTamper->TamperPullUp));
 749              		.loc 1 392 3 view .LVU249
 393:Drivers/STM32F0xx_HAL_Driver/Src/stm32f0xx_hal_rtc_ex.c ****   assert_param(IS_RTC_TAMPER_TIMESTAMPONTAMPER_DETECTION(sTamper->TimeStampOnTamperDetection));
 750              		.loc 1 393 3 view .LVU250
 394:Drivers/STM32F0xx_HAL_Driver/Src/stm32f0xx_hal_rtc_ex.c **** 
 395:Drivers/STM32F0xx_HAL_Driver/Src/stm32f0xx_hal_rtc_ex.c ****   /* Process Locked */
 396:Drivers/STM32F0xx_HAL_Driver/Src/stm32f0xx_hal_rtc_ex.c ****   __HAL_LOCK(hrtc);
 751              		.loc 1 396 3 view .LVU251
 752              		.loc 1 396 3 view .LVU252
 753 0002 037F     		ldrb	r3, [r0, #28]
 754 0004 012B     		cmp	r3, #1
 755 0006 36D0     		beq	.L30
 756              		.loc 1 396 3 discriminator 2 view .LVU253
 757 0008 0123     		movs	r3, #1
 758 000a 0377     		strb	r3, [r0, #28]
 759              		.loc 1 396 3 discriminator 2 view .LVU254
 397:Drivers/STM32F0xx_HAL_Driver/Src/stm32f0xx_hal_rtc_ex.c **** 
 398:Drivers/STM32F0xx_HAL_Driver/Src/stm32f0xx_hal_rtc_ex.c ****   hrtc->State = HAL_RTC_STATE_BUSY;
 760              		.loc 1 398 3 discriminator 2 view .LVU255
 761              		.loc 1 398 15 is_stmt 0 discriminator 2 view .LVU256
 762 000c 0133     		adds	r3, r3, #1
 763 000e 4377     		strb	r3, [r0, #29]
 399:Drivers/STM32F0xx_HAL_Driver/Src/stm32f0xx_hal_rtc_ex.c **** 
 400:Drivers/STM32F0xx_HAL_Driver/Src/stm32f0xx_hal_rtc_ex.c ****   /* Configure the tamper trigger */
 401:Drivers/STM32F0xx_HAL_Driver/Src/stm32f0xx_hal_rtc_ex.c ****   if (sTamper->Trigger != RTC_TAMPERTRIGGER_RISINGEDGE)
 764              		.loc 1 401 3 is_stmt 1 discriminator 2 view .LVU257
 765              		.loc 1 401 6 is_stmt 0 discriminator 2 view .LVU258
 766 0010 4B68     		ldr	r3, [r1, #4]
 767 0012 002B     		cmp	r3, #0
 768 0014 02D0     		beq	.L29
 402:Drivers/STM32F0xx_HAL_Driver/Src/stm32f0xx_hal_rtc_ex.c ****   {
 403:Drivers/STM32F0xx_HAL_Driver/Src/stm32f0xx_hal_rtc_ex.c ****     sTamper->Trigger = (uint32_t)(sTamper->Tamper << 1U);
 769              		.loc 1 403 5 is_stmt 1 view .LVU259
 770              		.loc 1 403 51 is_stmt 0 view .LVU260
 771 0016 0B68     		ldr	r3, [r1]
 772 0018 5B00     		lsls	r3, r3, #1
 773              		.loc 1 403 22 view .LVU261
 774 001a 4B60     		str	r3, [r1, #4]
 775              	.L29:
 404:Drivers/STM32F0xx_HAL_Driver/Src/stm32f0xx_hal_rtc_ex.c ****   }
 405:Drivers/STM32F0xx_HAL_Driver/Src/stm32f0xx_hal_rtc_ex.c **** 
ARM GAS  /tmp/ccJbOwNd.s 			page 22


 406:Drivers/STM32F0xx_HAL_Driver/Src/stm32f0xx_hal_rtc_ex.c ****   tmpreg = ((uint32_t)sTamper->Tamper | (uint32_t)sTamper->Trigger | (uint32_t)sTamper->Filter | \
 776              		.loc 1 406 3 is_stmt 1 view .LVU262
 777              		.loc 1 406 30 is_stmt 0 view .LVU263
 778 001c 0A68     		ldr	r2, [r1]
 779              		.loc 1 406 39 view .LVU264
 780 001e 4B68     		ldr	r3, [r1, #4]
 781 0020 1343     		orrs	r3, r2
 782              		.loc 1 406 68 view .LVU265
 783 0022 8C68     		ldr	r4, [r1, #8]
 784 0024 2343     		orrs	r3, r4
 785              		.loc 1 406 96 view .LVU266
 786 0026 CC68     		ldr	r4, [r1, #12]
 787 0028 2343     		orrs	r3, r4
 407:Drivers/STM32F0xx_HAL_Driver/Src/stm32f0xx_hal_rtc_ex.c ****             (uint32_t)sTamper->SamplingFrequency | (uint32_t)sTamper->PrechargeDuration | \
 788              		.loc 1 407 50 view .LVU267
 789 002a 0C69     		ldr	r4, [r1, #16]
 790 002c 2343     		orrs	r3, r4
 791              		.loc 1 407 89 view .LVU268
 792 002e 4C69     		ldr	r4, [r1, #20]
 793 0030 2343     		orrs	r3, r4
 408:Drivers/STM32F0xx_HAL_Driver/Src/stm32f0xx_hal_rtc_ex.c ****             (uint32_t)sTamper->TamperPullUp | sTamper->TimeStampOnTamperDetection);
 794              		.loc 1 408 54 view .LVU269
 795 0032 8969     		ldr	r1, [r1, #24]
 796              	.LVL63:
 406:Drivers/STM32F0xx_HAL_Driver/Src/stm32f0xx_hal_rtc_ex.c ****             (uint32_t)sTamper->SamplingFrequency | (uint32_t)sTamper->PrechargeDuration | \
 797              		.loc 1 406 10 view .LVU270
 798 0034 0B43     		orrs	r3, r1
 799              	.LVL64:
 409:Drivers/STM32F0xx_HAL_Driver/Src/stm32f0xx_hal_rtc_ex.c **** 
 410:Drivers/STM32F0xx_HAL_Driver/Src/stm32f0xx_hal_rtc_ex.c ****   hrtc->Instance->TAFCR &= (uint32_t)~((uint32_t)sTamper->Tamper | (uint32_t)(sTamper->Tamper << 1U
 800              		.loc 1 410 3 is_stmt 1 view .LVU271
 801              		.loc 1 410 7 is_stmt 0 view .LVU272
 802 0036 0568     		ldr	r5, [r0]
 803              		.loc 1 410 25 view .LVU273
 804 0038 296C     		ldr	r1, [r5, #64]
 805              		.loc 1 410 95 view .LVU274
 806 003a 5400     		lsls	r4, r2, #1
 807              		.loc 1 410 66 view .LVU275
 808 003c 2243     		orrs	r2, r4
 411:Drivers/STM32F0xx_HAL_Driver/Src/stm32f0xx_hal_rtc_ex.c ****                                        (uint32_t)RTC_TAFCR_TAMPFREQ | (uint32_t)RTC_TAFCR_TAMPFLT |
 809              		.loc 1 411 130 view .LVU276
 810 003e 0F4C     		ldr	r4, .L31
 811 0040 2243     		orrs	r2, r4
 410:Drivers/STM32F0xx_HAL_Driver/Src/stm32f0xx_hal_rtc_ex.c ****                                        (uint32_t)RTC_TAFCR_TAMPFREQ | (uint32_t)RTC_TAFCR_TAMPFLT |
 812              		.loc 1 410 25 view .LVU277
 813 0042 9143     		bics	r1, r2
 814 0044 2964     		str	r1, [r5, #64]
 412:Drivers/STM32F0xx_HAL_Driver/Src/stm32f0xx_hal_rtc_ex.c ****                                        (uint32_t)RTC_TAFCR_TAMPPUDIS);
 413:Drivers/STM32F0xx_HAL_Driver/Src/stm32f0xx_hal_rtc_ex.c **** 
 414:Drivers/STM32F0xx_HAL_Driver/Src/stm32f0xx_hal_rtc_ex.c ****   hrtc->Instance->TAFCR |= tmpreg;
 815              		.loc 1 414 3 is_stmt 1 view .LVU278
 816              		.loc 1 414 7 is_stmt 0 view .LVU279
 817 0046 0168     		ldr	r1, [r0]
 818              		.loc 1 414 25 view .LVU280
 819 0048 0A6C     		ldr	r2, [r1, #64]
 820 004a 1343     		orrs	r3, r2
 821              	.LVL65:
ARM GAS  /tmp/ccJbOwNd.s 			page 23


 822              		.loc 1 414 25 view .LVU281
 823 004c 0B64     		str	r3, [r1, #64]
 415:Drivers/STM32F0xx_HAL_Driver/Src/stm32f0xx_hal_rtc_ex.c **** 
 416:Drivers/STM32F0xx_HAL_Driver/Src/stm32f0xx_hal_rtc_ex.c ****   /* Configure the Tamper Interrupt in the RTC_TAFCR */
 417:Drivers/STM32F0xx_HAL_Driver/Src/stm32f0xx_hal_rtc_ex.c ****   hrtc->Instance->TAFCR |= (uint32_t)RTC_TAFCR_TAMPIE;
 824              		.loc 1 417 3 is_stmt 1 view .LVU282
 825              		.loc 1 417 7 is_stmt 0 view .LVU283
 826 004e 0268     		ldr	r2, [r0]
 827              		.loc 1 417 25 view .LVU284
 828 0050 136C     		ldr	r3, [r2, #64]
 829 0052 0421     		movs	r1, #4
 830 0054 0B43     		orrs	r3, r1
 831 0056 1364     		str	r3, [r2, #64]
 418:Drivers/STM32F0xx_HAL_Driver/Src/stm32f0xx_hal_rtc_ex.c **** 
 419:Drivers/STM32F0xx_HAL_Driver/Src/stm32f0xx_hal_rtc_ex.c ****   /* RTC Tamper Interrupt Configuration: EXTI configuration */
 420:Drivers/STM32F0xx_HAL_Driver/Src/stm32f0xx_hal_rtc_ex.c ****   __HAL_RTC_TAMPER_TIMESTAMP_EXTI_ENABLE_IT();
 832              		.loc 1 420 3 is_stmt 1 view .LVU285
 833 0058 094B     		ldr	r3, .L31+4
 834 005a 1968     		ldr	r1, [r3]
 835 005c 8022     		movs	r2, #128
 836 005e 1203     		lsls	r2, r2, #12
 837 0060 1143     		orrs	r1, r2
 838 0062 1960     		str	r1, [r3]
 421:Drivers/STM32F0xx_HAL_Driver/Src/stm32f0xx_hal_rtc_ex.c **** 
 422:Drivers/STM32F0xx_HAL_Driver/Src/stm32f0xx_hal_rtc_ex.c ****   __HAL_RTC_TAMPER_TIMESTAMP_EXTI_ENABLE_RISING_EDGE();
 839              		.loc 1 422 3 view .LVU286
 840 0064 9968     		ldr	r1, [r3, #8]
 841 0066 0A43     		orrs	r2, r1
 842 0068 9A60     		str	r2, [r3, #8]
 423:Drivers/STM32F0xx_HAL_Driver/Src/stm32f0xx_hal_rtc_ex.c **** 
 424:Drivers/STM32F0xx_HAL_Driver/Src/stm32f0xx_hal_rtc_ex.c ****   hrtc->State = HAL_RTC_STATE_READY;
 843              		.loc 1 424 3 view .LVU287
 844              		.loc 1 424 15 is_stmt 0 view .LVU288
 845 006a 0123     		movs	r3, #1
 846 006c 4377     		strb	r3, [r0, #29]
 425:Drivers/STM32F0xx_HAL_Driver/Src/stm32f0xx_hal_rtc_ex.c **** 
 426:Drivers/STM32F0xx_HAL_Driver/Src/stm32f0xx_hal_rtc_ex.c ****   /* Process Unlocked */
 427:Drivers/STM32F0xx_HAL_Driver/Src/stm32f0xx_hal_rtc_ex.c ****   __HAL_UNLOCK(hrtc);
 847              		.loc 1 427 3 is_stmt 1 view .LVU289
 848              		.loc 1 427 3 view .LVU290
 849 006e 0023     		movs	r3, #0
 850 0070 0377     		strb	r3, [r0, #28]
 851              		.loc 1 427 3 view .LVU291
 428:Drivers/STM32F0xx_HAL_Driver/Src/stm32f0xx_hal_rtc_ex.c **** 
 429:Drivers/STM32F0xx_HAL_Driver/Src/stm32f0xx_hal_rtc_ex.c ****   return HAL_OK;
 852              		.loc 1 429 3 view .LVU292
 853              		.loc 1 429 10 is_stmt 0 view .LVU293
 854 0072 0020     		movs	r0, #0
 855              	.LVL66:
 856              	.L28:
 430:Drivers/STM32F0xx_HAL_Driver/Src/stm32f0xx_hal_rtc_ex.c **** }
 857              		.loc 1 430 1 view .LVU294
 858              		@ sp needed
 859 0074 30BD     		pop	{r4, r5, pc}
 860              	.LVL67:
 861              	.L30:
 396:Drivers/STM32F0xx_HAL_Driver/Src/stm32f0xx_hal_rtc_ex.c **** 
ARM GAS  /tmp/ccJbOwNd.s 			page 24


 862              		.loc 1 396 3 view .LVU295
 863 0076 0220     		movs	r0, #2
 864              	.LVL68:
 396:Drivers/STM32F0xx_HAL_Driver/Src/stm32f0xx_hal_rtc_ex.c **** 
 865              		.loc 1 396 3 view .LVU296
 866 0078 FCE7     		b	.L28
 867              	.L32:
 868 007a C046     		.align	2
 869              	.L31:
 870 007c 80FF0000 		.word	65408
 871 0080 00040140 		.word	1073808384
 872              		.cfi_endproc
 873              	.LFE45:
 875              		.section	.text.HAL_RTCEx_DeactivateTamper,"ax",%progbits
 876              		.align	1
 877              		.global	HAL_RTCEx_DeactivateTamper
 878              		.syntax unified
 879              		.code	16
 880              		.thumb_func
 881              		.fpu softvfp
 883              	HAL_RTCEx_DeactivateTamper:
 884              	.LVL69:
 885              	.LFB46:
 431:Drivers/STM32F0xx_HAL_Driver/Src/stm32f0xx_hal_rtc_ex.c **** 
 432:Drivers/STM32F0xx_HAL_Driver/Src/stm32f0xx_hal_rtc_ex.c **** /**
 433:Drivers/STM32F0xx_HAL_Driver/Src/stm32f0xx_hal_rtc_ex.c ****   * @brief  Deactivate Tamper.
 434:Drivers/STM32F0xx_HAL_Driver/Src/stm32f0xx_hal_rtc_ex.c ****   * @param  hrtc RTC handle
 435:Drivers/STM32F0xx_HAL_Driver/Src/stm32f0xx_hal_rtc_ex.c ****   * @param  Tamper Selected tamper pin.
 436:Drivers/STM32F0xx_HAL_Driver/Src/stm32f0xx_hal_rtc_ex.c ****   *          This parameter can be any combination of RTC_TAMPER_1, RTC_TAMPER_2 and RTC_TAMPER_3.
 437:Drivers/STM32F0xx_HAL_Driver/Src/stm32f0xx_hal_rtc_ex.c ****   * @retval HAL status
 438:Drivers/STM32F0xx_HAL_Driver/Src/stm32f0xx_hal_rtc_ex.c ****   */
 439:Drivers/STM32F0xx_HAL_Driver/Src/stm32f0xx_hal_rtc_ex.c **** HAL_StatusTypeDef HAL_RTCEx_DeactivateTamper(RTC_HandleTypeDef *hrtc, uint32_t Tamper)
 440:Drivers/STM32F0xx_HAL_Driver/Src/stm32f0xx_hal_rtc_ex.c **** {
 886              		.loc 1 440 1 is_stmt 1 view -0
 887              		.cfi_startproc
 888              		@ args = 0, pretend = 0, frame = 0
 889              		@ frame_needed = 0, uses_anonymous_args = 0
 890              		.loc 1 440 1 is_stmt 0 view .LVU298
 891 0000 10B5     		push	{r4, lr}
 892              	.LCFI7:
 893              		.cfi_def_cfa_offset 8
 894              		.cfi_offset 4, -8
 895              		.cfi_offset 14, -4
 441:Drivers/STM32F0xx_HAL_Driver/Src/stm32f0xx_hal_rtc_ex.c ****   assert_param(IS_RTC_TAMPER(Tamper));
 896              		.loc 1 441 3 is_stmt 1 view .LVU299
 442:Drivers/STM32F0xx_HAL_Driver/Src/stm32f0xx_hal_rtc_ex.c **** 
 443:Drivers/STM32F0xx_HAL_Driver/Src/stm32f0xx_hal_rtc_ex.c ****   /* Process Locked */
 444:Drivers/STM32F0xx_HAL_Driver/Src/stm32f0xx_hal_rtc_ex.c ****   __HAL_LOCK(hrtc);
 897              		.loc 1 444 3 view .LVU300
 898              		.loc 1 444 3 view .LVU301
 899 0002 037F     		ldrb	r3, [r0, #28]
 900 0004 012B     		cmp	r3, #1
 901 0006 0CD0     		beq	.L35
 902              		.loc 1 444 3 discriminator 2 view .LVU302
 903 0008 0122     		movs	r2, #1
 904 000a 0277     		strb	r2, [r0, #28]
 905              		.loc 1 444 3 discriminator 2 view .LVU303
ARM GAS  /tmp/ccJbOwNd.s 			page 25


 445:Drivers/STM32F0xx_HAL_Driver/Src/stm32f0xx_hal_rtc_ex.c **** 
 446:Drivers/STM32F0xx_HAL_Driver/Src/stm32f0xx_hal_rtc_ex.c ****   hrtc->State = HAL_RTC_STATE_BUSY;
 906              		.loc 1 446 3 discriminator 2 view .LVU304
 907              		.loc 1 446 15 is_stmt 0 discriminator 2 view .LVU305
 908 000c 0223     		movs	r3, #2
 909 000e 4377     		strb	r3, [r0, #29]
 447:Drivers/STM32F0xx_HAL_Driver/Src/stm32f0xx_hal_rtc_ex.c **** 
 448:Drivers/STM32F0xx_HAL_Driver/Src/stm32f0xx_hal_rtc_ex.c ****   /* Disable the selected Tamper pin */
 449:Drivers/STM32F0xx_HAL_Driver/Src/stm32f0xx_hal_rtc_ex.c ****   hrtc->Instance->TAFCR &= (uint32_t)~Tamper;
 910              		.loc 1 449 3 is_stmt 1 discriminator 2 view .LVU306
 911              		.loc 1 449 7 is_stmt 0 discriminator 2 view .LVU307
 912 0010 0468     		ldr	r4, [r0]
 913              		.loc 1 449 25 discriminator 2 view .LVU308
 914 0012 236C     		ldr	r3, [r4, #64]
 915 0014 8B43     		bics	r3, r1
 916 0016 2364     		str	r3, [r4, #64]
 450:Drivers/STM32F0xx_HAL_Driver/Src/stm32f0xx_hal_rtc_ex.c **** 
 451:Drivers/STM32F0xx_HAL_Driver/Src/stm32f0xx_hal_rtc_ex.c ****   hrtc->State = HAL_RTC_STATE_READY;
 917              		.loc 1 451 3 is_stmt 1 discriminator 2 view .LVU309
 918              		.loc 1 451 15 is_stmt 0 discriminator 2 view .LVU310
 919 0018 4277     		strb	r2, [r0, #29]
 452:Drivers/STM32F0xx_HAL_Driver/Src/stm32f0xx_hal_rtc_ex.c **** 
 453:Drivers/STM32F0xx_HAL_Driver/Src/stm32f0xx_hal_rtc_ex.c ****   /* Process Unlocked */
 454:Drivers/STM32F0xx_HAL_Driver/Src/stm32f0xx_hal_rtc_ex.c ****   __HAL_UNLOCK(hrtc);
 920              		.loc 1 454 3 is_stmt 1 discriminator 2 view .LVU311
 921              		.loc 1 454 3 discriminator 2 view .LVU312
 922 001a 0023     		movs	r3, #0
 923 001c 0377     		strb	r3, [r0, #28]
 924              		.loc 1 454 3 discriminator 2 view .LVU313
 455:Drivers/STM32F0xx_HAL_Driver/Src/stm32f0xx_hal_rtc_ex.c **** 
 456:Drivers/STM32F0xx_HAL_Driver/Src/stm32f0xx_hal_rtc_ex.c ****   return HAL_OK;
 925              		.loc 1 456 3 discriminator 2 view .LVU314
 926              		.loc 1 456 10 is_stmt 0 discriminator 2 view .LVU315
 927 001e 0020     		movs	r0, #0
 928              	.LVL70:
 929              	.L34:
 457:Drivers/STM32F0xx_HAL_Driver/Src/stm32f0xx_hal_rtc_ex.c **** }
 930              		.loc 1 457 1 view .LVU316
 931              		@ sp needed
 932 0020 10BD     		pop	{r4, pc}
 933              	.LVL71:
 934              	.L35:
 444:Drivers/STM32F0xx_HAL_Driver/Src/stm32f0xx_hal_rtc_ex.c **** 
 935              		.loc 1 444 3 view .LVU317
 936 0022 0220     		movs	r0, #2
 937              	.LVL72:
 444:Drivers/STM32F0xx_HAL_Driver/Src/stm32f0xx_hal_rtc_ex.c **** 
 938              		.loc 1 444 3 view .LVU318
 939 0024 FCE7     		b	.L34
 940              		.cfi_endproc
 941              	.LFE46:
 943              		.section	.text.HAL_RTCEx_TimeStampEventCallback,"ax",%progbits
 944              		.align	1
 945              		.weak	HAL_RTCEx_TimeStampEventCallback
 946              		.syntax unified
 947              		.code	16
 948              		.thumb_func
ARM GAS  /tmp/ccJbOwNd.s 			page 26


 949              		.fpu softvfp
 951              	HAL_RTCEx_TimeStampEventCallback:
 952              	.LVL73:
 953              	.LFB48:
 458:Drivers/STM32F0xx_HAL_Driver/Src/stm32f0xx_hal_rtc_ex.c **** 
 459:Drivers/STM32F0xx_HAL_Driver/Src/stm32f0xx_hal_rtc_ex.c **** /**
 460:Drivers/STM32F0xx_HAL_Driver/Src/stm32f0xx_hal_rtc_ex.c ****   * @brief  Handle TimeStamp interrupt request.
 461:Drivers/STM32F0xx_HAL_Driver/Src/stm32f0xx_hal_rtc_ex.c ****   * @param  hrtc RTC handle
 462:Drivers/STM32F0xx_HAL_Driver/Src/stm32f0xx_hal_rtc_ex.c ****   * @retval None
 463:Drivers/STM32F0xx_HAL_Driver/Src/stm32f0xx_hal_rtc_ex.c ****   */
 464:Drivers/STM32F0xx_HAL_Driver/Src/stm32f0xx_hal_rtc_ex.c **** void HAL_RTCEx_TamperTimeStampIRQHandler(RTC_HandleTypeDef *hrtc)
 465:Drivers/STM32F0xx_HAL_Driver/Src/stm32f0xx_hal_rtc_ex.c **** {
 466:Drivers/STM32F0xx_HAL_Driver/Src/stm32f0xx_hal_rtc_ex.c ****   /* Get the TimeStamp interrupt source enable status */
 467:Drivers/STM32F0xx_HAL_Driver/Src/stm32f0xx_hal_rtc_ex.c ****   if (__HAL_RTC_TIMESTAMP_GET_IT_SOURCE(hrtc, RTC_IT_TS) != RESET)
 468:Drivers/STM32F0xx_HAL_Driver/Src/stm32f0xx_hal_rtc_ex.c ****   {
 469:Drivers/STM32F0xx_HAL_Driver/Src/stm32f0xx_hal_rtc_ex.c ****     /* Get the pending status of the TIMESTAMP Interrupt */
 470:Drivers/STM32F0xx_HAL_Driver/Src/stm32f0xx_hal_rtc_ex.c ****     if (__HAL_RTC_TIMESTAMP_GET_FLAG(hrtc, RTC_FLAG_TSF) != RESET)
 471:Drivers/STM32F0xx_HAL_Driver/Src/stm32f0xx_hal_rtc_ex.c ****     {
 472:Drivers/STM32F0xx_HAL_Driver/Src/stm32f0xx_hal_rtc_ex.c ****       /* TIMESTAMP callback */
 473:Drivers/STM32F0xx_HAL_Driver/Src/stm32f0xx_hal_rtc_ex.c **** #if (USE_HAL_RTC_REGISTER_CALLBACKS == 1)
 474:Drivers/STM32F0xx_HAL_Driver/Src/stm32f0xx_hal_rtc_ex.c ****       hrtc->TimeStampEventCallback(hrtc);
 475:Drivers/STM32F0xx_HAL_Driver/Src/stm32f0xx_hal_rtc_ex.c **** #else
 476:Drivers/STM32F0xx_HAL_Driver/Src/stm32f0xx_hal_rtc_ex.c ****       HAL_RTCEx_TimeStampEventCallback(hrtc);
 477:Drivers/STM32F0xx_HAL_Driver/Src/stm32f0xx_hal_rtc_ex.c **** #endif /* USE_HAL_RTC_REGISTER_CALLBACKS */
 478:Drivers/STM32F0xx_HAL_Driver/Src/stm32f0xx_hal_rtc_ex.c **** 
 479:Drivers/STM32F0xx_HAL_Driver/Src/stm32f0xx_hal_rtc_ex.c ****       /* Clear the TIMESTAMP interrupt pending bit */
 480:Drivers/STM32F0xx_HAL_Driver/Src/stm32f0xx_hal_rtc_ex.c ****       __HAL_RTC_TIMESTAMP_CLEAR_FLAG(hrtc, RTC_FLAG_TSF);
 481:Drivers/STM32F0xx_HAL_Driver/Src/stm32f0xx_hal_rtc_ex.c ****     }
 482:Drivers/STM32F0xx_HAL_Driver/Src/stm32f0xx_hal_rtc_ex.c ****   }
 483:Drivers/STM32F0xx_HAL_Driver/Src/stm32f0xx_hal_rtc_ex.c **** 
 484:Drivers/STM32F0xx_HAL_Driver/Src/stm32f0xx_hal_rtc_ex.c ****   /* Get the Tamper interrupts source enable status */
 485:Drivers/STM32F0xx_HAL_Driver/Src/stm32f0xx_hal_rtc_ex.c ****   if (__HAL_RTC_TAMPER_GET_IT_SOURCE(hrtc, RTC_IT_TAMP))
 486:Drivers/STM32F0xx_HAL_Driver/Src/stm32f0xx_hal_rtc_ex.c ****   {
 487:Drivers/STM32F0xx_HAL_Driver/Src/stm32f0xx_hal_rtc_ex.c ****     /* Get the pending status of the Tamper1 Interrupt */
 488:Drivers/STM32F0xx_HAL_Driver/Src/stm32f0xx_hal_rtc_ex.c ****     if (__HAL_RTC_TAMPER_GET_FLAG(hrtc, RTC_FLAG_TAMP1F) != RESET)
 489:Drivers/STM32F0xx_HAL_Driver/Src/stm32f0xx_hal_rtc_ex.c ****     {
 490:Drivers/STM32F0xx_HAL_Driver/Src/stm32f0xx_hal_rtc_ex.c ****       /* Tamper1 callback */
 491:Drivers/STM32F0xx_HAL_Driver/Src/stm32f0xx_hal_rtc_ex.c **** #if (USE_HAL_RTC_REGISTER_CALLBACKS == 1)
 492:Drivers/STM32F0xx_HAL_Driver/Src/stm32f0xx_hal_rtc_ex.c ****       hrtc->Tamper1EventCallback(hrtc);
 493:Drivers/STM32F0xx_HAL_Driver/Src/stm32f0xx_hal_rtc_ex.c **** #else
 494:Drivers/STM32F0xx_HAL_Driver/Src/stm32f0xx_hal_rtc_ex.c ****       HAL_RTCEx_Tamper1EventCallback(hrtc);
 495:Drivers/STM32F0xx_HAL_Driver/Src/stm32f0xx_hal_rtc_ex.c **** #endif /* USE_HAL_RTC_REGISTER_CALLBACKS */
 496:Drivers/STM32F0xx_HAL_Driver/Src/stm32f0xx_hal_rtc_ex.c **** 
 497:Drivers/STM32F0xx_HAL_Driver/Src/stm32f0xx_hal_rtc_ex.c ****       /* Clear the Tamper1 interrupt pending bit */
 498:Drivers/STM32F0xx_HAL_Driver/Src/stm32f0xx_hal_rtc_ex.c ****       __HAL_RTC_TAMPER_CLEAR_FLAG(hrtc, RTC_FLAG_TAMP1F);
 499:Drivers/STM32F0xx_HAL_Driver/Src/stm32f0xx_hal_rtc_ex.c ****     }
 500:Drivers/STM32F0xx_HAL_Driver/Src/stm32f0xx_hal_rtc_ex.c ****   }
 501:Drivers/STM32F0xx_HAL_Driver/Src/stm32f0xx_hal_rtc_ex.c **** 
 502:Drivers/STM32F0xx_HAL_Driver/Src/stm32f0xx_hal_rtc_ex.c ****   /* Get the Tamper interrupts source enable status */
 503:Drivers/STM32F0xx_HAL_Driver/Src/stm32f0xx_hal_rtc_ex.c ****   if (__HAL_RTC_TAMPER_GET_IT_SOURCE(hrtc, RTC_IT_TAMP))
 504:Drivers/STM32F0xx_HAL_Driver/Src/stm32f0xx_hal_rtc_ex.c ****   {
 505:Drivers/STM32F0xx_HAL_Driver/Src/stm32f0xx_hal_rtc_ex.c ****     /* Get the pending status of the Tamper2 Interrupt */
 506:Drivers/STM32F0xx_HAL_Driver/Src/stm32f0xx_hal_rtc_ex.c ****     if (__HAL_RTC_TAMPER_GET_FLAG(hrtc, RTC_FLAG_TAMP2F) != RESET)
 507:Drivers/STM32F0xx_HAL_Driver/Src/stm32f0xx_hal_rtc_ex.c ****     {
 508:Drivers/STM32F0xx_HAL_Driver/Src/stm32f0xx_hal_rtc_ex.c ****       /* Tamper2 callback */
 509:Drivers/STM32F0xx_HAL_Driver/Src/stm32f0xx_hal_rtc_ex.c **** #if (USE_HAL_RTC_REGISTER_CALLBACKS == 1)
 510:Drivers/STM32F0xx_HAL_Driver/Src/stm32f0xx_hal_rtc_ex.c ****       hrtc->Tamper2EventCallback(hrtc);
ARM GAS  /tmp/ccJbOwNd.s 			page 27


 511:Drivers/STM32F0xx_HAL_Driver/Src/stm32f0xx_hal_rtc_ex.c **** #else
 512:Drivers/STM32F0xx_HAL_Driver/Src/stm32f0xx_hal_rtc_ex.c ****       HAL_RTCEx_Tamper2EventCallback(hrtc);
 513:Drivers/STM32F0xx_HAL_Driver/Src/stm32f0xx_hal_rtc_ex.c **** #endif /* USE_HAL_RTC_REGISTER_CALLBACKS */
 514:Drivers/STM32F0xx_HAL_Driver/Src/stm32f0xx_hal_rtc_ex.c **** 
 515:Drivers/STM32F0xx_HAL_Driver/Src/stm32f0xx_hal_rtc_ex.c ****       /* Clear the Tamper2 interrupt pending bit */
 516:Drivers/STM32F0xx_HAL_Driver/Src/stm32f0xx_hal_rtc_ex.c ****       __HAL_RTC_TAMPER_CLEAR_FLAG(hrtc, RTC_FLAG_TAMP2F);
 517:Drivers/STM32F0xx_HAL_Driver/Src/stm32f0xx_hal_rtc_ex.c ****     }
 518:Drivers/STM32F0xx_HAL_Driver/Src/stm32f0xx_hal_rtc_ex.c ****   }
 519:Drivers/STM32F0xx_HAL_Driver/Src/stm32f0xx_hal_rtc_ex.c **** 
 520:Drivers/STM32F0xx_HAL_Driver/Src/stm32f0xx_hal_rtc_ex.c **** #if defined(STM32F071xB) || defined(STM32F072xB) || defined(STM32F078xx) || defined(STM32F091xC) ||
 521:Drivers/STM32F0xx_HAL_Driver/Src/stm32f0xx_hal_rtc_ex.c ****   /* Get the Tamper interrupts source enable status */
 522:Drivers/STM32F0xx_HAL_Driver/Src/stm32f0xx_hal_rtc_ex.c ****   if (__HAL_RTC_TAMPER_GET_IT_SOURCE(hrtc, RTC_IT_TAMP))
 523:Drivers/STM32F0xx_HAL_Driver/Src/stm32f0xx_hal_rtc_ex.c ****   {
 524:Drivers/STM32F0xx_HAL_Driver/Src/stm32f0xx_hal_rtc_ex.c ****     /* Get the pending status of the Tamper3 Interrupt */
 525:Drivers/STM32F0xx_HAL_Driver/Src/stm32f0xx_hal_rtc_ex.c ****     if (__HAL_RTC_TAMPER_GET_FLAG(hrtc, RTC_FLAG_TAMP3F) != RESET)
 526:Drivers/STM32F0xx_HAL_Driver/Src/stm32f0xx_hal_rtc_ex.c ****     {
 527:Drivers/STM32F0xx_HAL_Driver/Src/stm32f0xx_hal_rtc_ex.c ****       /* Tamper3 callback */
 528:Drivers/STM32F0xx_HAL_Driver/Src/stm32f0xx_hal_rtc_ex.c **** #if (USE_HAL_RTC_REGISTER_CALLBACKS == 1)
 529:Drivers/STM32F0xx_HAL_Driver/Src/stm32f0xx_hal_rtc_ex.c ****       hrtc->Tamper3EventCallback(hrtc);
 530:Drivers/STM32F0xx_HAL_Driver/Src/stm32f0xx_hal_rtc_ex.c **** #else
 531:Drivers/STM32F0xx_HAL_Driver/Src/stm32f0xx_hal_rtc_ex.c ****       HAL_RTCEx_Tamper3EventCallback(hrtc);
 532:Drivers/STM32F0xx_HAL_Driver/Src/stm32f0xx_hal_rtc_ex.c **** #endif /* USE_HAL_RTC_REGISTER_CALLBACKS */
 533:Drivers/STM32F0xx_HAL_Driver/Src/stm32f0xx_hal_rtc_ex.c **** 
 534:Drivers/STM32F0xx_HAL_Driver/Src/stm32f0xx_hal_rtc_ex.c ****       /* Clear the Tamper3 interrupt pending bit */
 535:Drivers/STM32F0xx_HAL_Driver/Src/stm32f0xx_hal_rtc_ex.c ****       __HAL_RTC_TAMPER_CLEAR_FLAG(hrtc, RTC_FLAG_TAMP3F);
 536:Drivers/STM32F0xx_HAL_Driver/Src/stm32f0xx_hal_rtc_ex.c ****     }
 537:Drivers/STM32F0xx_HAL_Driver/Src/stm32f0xx_hal_rtc_ex.c ****   }
 538:Drivers/STM32F0xx_HAL_Driver/Src/stm32f0xx_hal_rtc_ex.c **** #endif
 539:Drivers/STM32F0xx_HAL_Driver/Src/stm32f0xx_hal_rtc_ex.c **** 
 540:Drivers/STM32F0xx_HAL_Driver/Src/stm32f0xx_hal_rtc_ex.c ****   /* Clear the EXTI's Flag for RTC TimeStamp and Tamper */
 541:Drivers/STM32F0xx_HAL_Driver/Src/stm32f0xx_hal_rtc_ex.c ****   __HAL_RTC_TAMPER_TIMESTAMP_EXTI_CLEAR_FLAG();
 542:Drivers/STM32F0xx_HAL_Driver/Src/stm32f0xx_hal_rtc_ex.c **** 
 543:Drivers/STM32F0xx_HAL_Driver/Src/stm32f0xx_hal_rtc_ex.c ****   /* Change RTC state */
 544:Drivers/STM32F0xx_HAL_Driver/Src/stm32f0xx_hal_rtc_ex.c ****   hrtc->State = HAL_RTC_STATE_READY;
 545:Drivers/STM32F0xx_HAL_Driver/Src/stm32f0xx_hal_rtc_ex.c **** }
 546:Drivers/STM32F0xx_HAL_Driver/Src/stm32f0xx_hal_rtc_ex.c **** 
 547:Drivers/STM32F0xx_HAL_Driver/Src/stm32f0xx_hal_rtc_ex.c **** /**
 548:Drivers/STM32F0xx_HAL_Driver/Src/stm32f0xx_hal_rtc_ex.c ****   * @brief  TimeStamp callback.
 549:Drivers/STM32F0xx_HAL_Driver/Src/stm32f0xx_hal_rtc_ex.c ****   * @param  hrtc RTC handle
 550:Drivers/STM32F0xx_HAL_Driver/Src/stm32f0xx_hal_rtc_ex.c ****   * @retval None
 551:Drivers/STM32F0xx_HAL_Driver/Src/stm32f0xx_hal_rtc_ex.c ****   */
 552:Drivers/STM32F0xx_HAL_Driver/Src/stm32f0xx_hal_rtc_ex.c **** __weak void HAL_RTCEx_TimeStampEventCallback(RTC_HandleTypeDef *hrtc)
 553:Drivers/STM32F0xx_HAL_Driver/Src/stm32f0xx_hal_rtc_ex.c **** {
 954              		.loc 1 553 1 is_stmt 1 view -0
 955              		.cfi_startproc
 956              		@ args = 0, pretend = 0, frame = 0
 957              		@ frame_needed = 0, uses_anonymous_args = 0
 958              		@ link register save eliminated.
 554:Drivers/STM32F0xx_HAL_Driver/Src/stm32f0xx_hal_rtc_ex.c ****   /* Prevent unused argument(s) compilation warning */
 555:Drivers/STM32F0xx_HAL_Driver/Src/stm32f0xx_hal_rtc_ex.c ****   UNUSED(hrtc);
 959              		.loc 1 555 3 view .LVU320
 556:Drivers/STM32F0xx_HAL_Driver/Src/stm32f0xx_hal_rtc_ex.c **** 
 557:Drivers/STM32F0xx_HAL_Driver/Src/stm32f0xx_hal_rtc_ex.c ****   /* NOTE : This function should not be modified, when the callback is needed,
 558:Drivers/STM32F0xx_HAL_Driver/Src/stm32f0xx_hal_rtc_ex.c ****             the HAL_RTCEx_TimeStampEventCallback could be implemented in the user file
 559:Drivers/STM32F0xx_HAL_Driver/Src/stm32f0xx_hal_rtc_ex.c ****   */
 560:Drivers/STM32F0xx_HAL_Driver/Src/stm32f0xx_hal_rtc_ex.c **** }
 960              		.loc 1 560 1 is_stmt 0 view .LVU321
ARM GAS  /tmp/ccJbOwNd.s 			page 28


 961              		@ sp needed
 962 0000 7047     		bx	lr
 963              		.cfi_endproc
 964              	.LFE48:
 966              		.section	.text.HAL_RTCEx_Tamper1EventCallback,"ax",%progbits
 967              		.align	1
 968              		.weak	HAL_RTCEx_Tamper1EventCallback
 969              		.syntax unified
 970              		.code	16
 971              		.thumb_func
 972              		.fpu softvfp
 974              	HAL_RTCEx_Tamper1EventCallback:
 975              	.LVL74:
 976              	.LFB49:
 561:Drivers/STM32F0xx_HAL_Driver/Src/stm32f0xx_hal_rtc_ex.c **** 
 562:Drivers/STM32F0xx_HAL_Driver/Src/stm32f0xx_hal_rtc_ex.c **** /**
 563:Drivers/STM32F0xx_HAL_Driver/Src/stm32f0xx_hal_rtc_ex.c ****   * @brief  Tamper 1 callback.
 564:Drivers/STM32F0xx_HAL_Driver/Src/stm32f0xx_hal_rtc_ex.c ****   * @param  hrtc RTC handle
 565:Drivers/STM32F0xx_HAL_Driver/Src/stm32f0xx_hal_rtc_ex.c ****   * @retval None
 566:Drivers/STM32F0xx_HAL_Driver/Src/stm32f0xx_hal_rtc_ex.c ****   */
 567:Drivers/STM32F0xx_HAL_Driver/Src/stm32f0xx_hal_rtc_ex.c **** __weak void HAL_RTCEx_Tamper1EventCallback(RTC_HandleTypeDef *hrtc)
 568:Drivers/STM32F0xx_HAL_Driver/Src/stm32f0xx_hal_rtc_ex.c **** {
 977              		.loc 1 568 1 is_stmt 1 view -0
 978              		.cfi_startproc
 979              		@ args = 0, pretend = 0, frame = 0
 980              		@ frame_needed = 0, uses_anonymous_args = 0
 981              		@ link register save eliminated.
 569:Drivers/STM32F0xx_HAL_Driver/Src/stm32f0xx_hal_rtc_ex.c ****   /* Prevent unused argument(s) compilation warning */
 570:Drivers/STM32F0xx_HAL_Driver/Src/stm32f0xx_hal_rtc_ex.c ****   UNUSED(hrtc);
 982              		.loc 1 570 3 view .LVU323
 571:Drivers/STM32F0xx_HAL_Driver/Src/stm32f0xx_hal_rtc_ex.c **** 
 572:Drivers/STM32F0xx_HAL_Driver/Src/stm32f0xx_hal_rtc_ex.c ****   /* NOTE : This function should not be modified, when the callback is needed,
 573:Drivers/STM32F0xx_HAL_Driver/Src/stm32f0xx_hal_rtc_ex.c ****             the HAL_RTCEx_Tamper1EventCallback could be implemented in the user file
 574:Drivers/STM32F0xx_HAL_Driver/Src/stm32f0xx_hal_rtc_ex.c ****    */
 575:Drivers/STM32F0xx_HAL_Driver/Src/stm32f0xx_hal_rtc_ex.c **** }
 983              		.loc 1 575 1 is_stmt 0 view .LVU324
 984              		@ sp needed
 985 0000 7047     		bx	lr
 986              		.cfi_endproc
 987              	.LFE49:
 989              		.section	.text.HAL_RTCEx_Tamper2EventCallback,"ax",%progbits
 990              		.align	1
 991              		.weak	HAL_RTCEx_Tamper2EventCallback
 992              		.syntax unified
 993              		.code	16
 994              		.thumb_func
 995              		.fpu softvfp
 997              	HAL_RTCEx_Tamper2EventCallback:
 998              	.LVL75:
 999              	.LFB50:
 576:Drivers/STM32F0xx_HAL_Driver/Src/stm32f0xx_hal_rtc_ex.c **** 
 577:Drivers/STM32F0xx_HAL_Driver/Src/stm32f0xx_hal_rtc_ex.c **** /**
 578:Drivers/STM32F0xx_HAL_Driver/Src/stm32f0xx_hal_rtc_ex.c ****   * @brief  Tamper 2 callback.
 579:Drivers/STM32F0xx_HAL_Driver/Src/stm32f0xx_hal_rtc_ex.c ****   * @param  hrtc RTC handle
 580:Drivers/STM32F0xx_HAL_Driver/Src/stm32f0xx_hal_rtc_ex.c ****   * @retval None
 581:Drivers/STM32F0xx_HAL_Driver/Src/stm32f0xx_hal_rtc_ex.c ****   */
 582:Drivers/STM32F0xx_HAL_Driver/Src/stm32f0xx_hal_rtc_ex.c **** __weak void HAL_RTCEx_Tamper2EventCallback(RTC_HandleTypeDef *hrtc)
ARM GAS  /tmp/ccJbOwNd.s 			page 29


 583:Drivers/STM32F0xx_HAL_Driver/Src/stm32f0xx_hal_rtc_ex.c **** {
 1000              		.loc 1 583 1 is_stmt 1 view -0
 1001              		.cfi_startproc
 1002              		@ args = 0, pretend = 0, frame = 0
 1003              		@ frame_needed = 0, uses_anonymous_args = 0
 1004              		@ link register save eliminated.
 584:Drivers/STM32F0xx_HAL_Driver/Src/stm32f0xx_hal_rtc_ex.c ****   /* Prevent unused argument(s) compilation warning */
 585:Drivers/STM32F0xx_HAL_Driver/Src/stm32f0xx_hal_rtc_ex.c ****   UNUSED(hrtc);
 1005              		.loc 1 585 3 view .LVU326
 586:Drivers/STM32F0xx_HAL_Driver/Src/stm32f0xx_hal_rtc_ex.c **** 
 587:Drivers/STM32F0xx_HAL_Driver/Src/stm32f0xx_hal_rtc_ex.c ****   /* NOTE : This function should not be modified, when the callback is needed,
 588:Drivers/STM32F0xx_HAL_Driver/Src/stm32f0xx_hal_rtc_ex.c ****             the HAL_RTCEx_Tamper2EventCallback could be implemented in the user file
 589:Drivers/STM32F0xx_HAL_Driver/Src/stm32f0xx_hal_rtc_ex.c ****    */
 590:Drivers/STM32F0xx_HAL_Driver/Src/stm32f0xx_hal_rtc_ex.c **** }
 1006              		.loc 1 590 1 is_stmt 0 view .LVU327
 1007              		@ sp needed
 1008 0000 7047     		bx	lr
 1009              		.cfi_endproc
 1010              	.LFE50:
 1012              		.section	.text.HAL_RTCEx_TamperTimeStampIRQHandler,"ax",%progbits
 1013              		.align	1
 1014              		.global	HAL_RTCEx_TamperTimeStampIRQHandler
 1015              		.syntax unified
 1016              		.code	16
 1017              		.thumb_func
 1018              		.fpu softvfp
 1020              	HAL_RTCEx_TamperTimeStampIRQHandler:
 1021              	.LVL76:
 1022              	.LFB47:
 465:Drivers/STM32F0xx_HAL_Driver/Src/stm32f0xx_hal_rtc_ex.c ****   /* Get the TimeStamp interrupt source enable status */
 1023              		.loc 1 465 1 is_stmt 1 view -0
 1024              		.cfi_startproc
 1025              		@ args = 0, pretend = 0, frame = 0
 1026              		@ frame_needed = 0, uses_anonymous_args = 0
 465:Drivers/STM32F0xx_HAL_Driver/Src/stm32f0xx_hal_rtc_ex.c ****   /* Get the TimeStamp interrupt source enable status */
 1027              		.loc 1 465 1 is_stmt 0 view .LVU329
 1028 0000 10B5     		push	{r4, lr}
 1029              	.LCFI8:
 1030              		.cfi_def_cfa_offset 8
 1031              		.cfi_offset 4, -8
 1032              		.cfi_offset 14, -4
 1033 0002 0400     		movs	r4, r0
 467:Drivers/STM32F0xx_HAL_Driver/Src/stm32f0xx_hal_rtc_ex.c ****   {
 1034              		.loc 1 467 3 is_stmt 1 view .LVU330
 467:Drivers/STM32F0xx_HAL_Driver/Src/stm32f0xx_hal_rtc_ex.c ****   {
 1035              		.loc 1 467 7 is_stmt 0 view .LVU331
 1036 0004 0368     		ldr	r3, [r0]
 1037 0006 9A68     		ldr	r2, [r3, #8]
 467:Drivers/STM32F0xx_HAL_Driver/Src/stm32f0xx_hal_rtc_ex.c ****   {
 1038              		.loc 1 467 6 view .LVU332
 1039 0008 1204     		lsls	r2, r2, #16
 1040 000a 02D5     		bpl	.L40
 470:Drivers/STM32F0xx_HAL_Driver/Src/stm32f0xx_hal_rtc_ex.c ****     {
 1041              		.loc 1 470 5 is_stmt 1 view .LVU333
 470:Drivers/STM32F0xx_HAL_Driver/Src/stm32f0xx_hal_rtc_ex.c ****     {
 1042              		.loc 1 470 9 is_stmt 0 view .LVU334
 1043 000c DB68     		ldr	r3, [r3, #12]
ARM GAS  /tmp/ccJbOwNd.s 			page 30


 470:Drivers/STM32F0xx_HAL_Driver/Src/stm32f0xx_hal_rtc_ex.c ****     {
 1044              		.loc 1 470 8 view .LVU335
 1045 000e 1B05     		lsls	r3, r3, #20
 1046 0010 14D4     		bmi	.L43
 1047              	.LVL77:
 1048              	.L40:
 485:Drivers/STM32F0xx_HAL_Driver/Src/stm32f0xx_hal_rtc_ex.c ****   {
 1049              		.loc 1 485 3 is_stmt 1 view .LVU336
 485:Drivers/STM32F0xx_HAL_Driver/Src/stm32f0xx_hal_rtc_ex.c ****   {
 1050              		.loc 1 485 7 is_stmt 0 view .LVU337
 1051 0012 2368     		ldr	r3, [r4]
 1052 0014 1A6C     		ldr	r2, [r3, #64]
 485:Drivers/STM32F0xx_HAL_Driver/Src/stm32f0xx_hal_rtc_ex.c ****   {
 1053              		.loc 1 485 6 view .LVU338
 1054 0016 5207     		lsls	r2, r2, #29
 1055 0018 02D5     		bpl	.L41
 488:Drivers/STM32F0xx_HAL_Driver/Src/stm32f0xx_hal_rtc_ex.c ****     {
 1056              		.loc 1 488 5 is_stmt 1 view .LVU339
 488:Drivers/STM32F0xx_HAL_Driver/Src/stm32f0xx_hal_rtc_ex.c ****     {
 1057              		.loc 1 488 9 is_stmt 0 view .LVU340
 1058 001a DB68     		ldr	r3, [r3, #12]
 488:Drivers/STM32F0xx_HAL_Driver/Src/stm32f0xx_hal_rtc_ex.c ****     {
 1059              		.loc 1 488 8 view .LVU341
 1060 001c 9B04     		lsls	r3, r3, #18
 1061 001e 17D4     		bmi	.L44
 1062              	.L41:
 503:Drivers/STM32F0xx_HAL_Driver/Src/stm32f0xx_hal_rtc_ex.c ****   {
 1063              		.loc 1 503 3 is_stmt 1 view .LVU342
 503:Drivers/STM32F0xx_HAL_Driver/Src/stm32f0xx_hal_rtc_ex.c ****   {
 1064              		.loc 1 503 7 is_stmt 0 view .LVU343
 1065 0020 2368     		ldr	r3, [r4]
 1066 0022 1A6C     		ldr	r2, [r3, #64]
 503:Drivers/STM32F0xx_HAL_Driver/Src/stm32f0xx_hal_rtc_ex.c ****   {
 1067              		.loc 1 503 6 view .LVU344
 1068 0024 5207     		lsls	r2, r2, #29
 1069 0026 02D5     		bpl	.L42
 506:Drivers/STM32F0xx_HAL_Driver/Src/stm32f0xx_hal_rtc_ex.c ****     {
 1070              		.loc 1 506 5 is_stmt 1 view .LVU345
 506:Drivers/STM32F0xx_HAL_Driver/Src/stm32f0xx_hal_rtc_ex.c ****     {
 1071              		.loc 1 506 9 is_stmt 0 view .LVU346
 1072 0028 DB68     		ldr	r3, [r3, #12]
 506:Drivers/STM32F0xx_HAL_Driver/Src/stm32f0xx_hal_rtc_ex.c ****     {
 1073              		.loc 1 506 8 view .LVU347
 1074 002a 5B04     		lsls	r3, r3, #17
 1075 002c 1BD4     		bmi	.L45
 1076              	.L42:
 541:Drivers/STM32F0xx_HAL_Driver/Src/stm32f0xx_hal_rtc_ex.c **** 
 1077              		.loc 1 541 3 is_stmt 1 view .LVU348
 1078 002e 134B     		ldr	r3, .L46
 1079 0030 8022     		movs	r2, #128
 1080 0032 1203     		lsls	r2, r2, #12
 1081 0034 5A61     		str	r2, [r3, #20]
 544:Drivers/STM32F0xx_HAL_Driver/Src/stm32f0xx_hal_rtc_ex.c **** }
 1082              		.loc 1 544 3 view .LVU349
 544:Drivers/STM32F0xx_HAL_Driver/Src/stm32f0xx_hal_rtc_ex.c **** }
 1083              		.loc 1 544 15 is_stmt 0 view .LVU350
 1084 0036 0123     		movs	r3, #1
ARM GAS  /tmp/ccJbOwNd.s 			page 31


 1085 0038 6377     		strb	r3, [r4, #29]
 545:Drivers/STM32F0xx_HAL_Driver/Src/stm32f0xx_hal_rtc_ex.c **** 
 1086              		.loc 1 545 1 view .LVU351
 1087              		@ sp needed
 1088              	.LVL78:
 545:Drivers/STM32F0xx_HAL_Driver/Src/stm32f0xx_hal_rtc_ex.c **** 
 1089              		.loc 1 545 1 view .LVU352
 1090 003a 10BD     		pop	{r4, pc}
 1091              	.LVL79:
 1092              	.L43:
 476:Drivers/STM32F0xx_HAL_Driver/Src/stm32f0xx_hal_rtc_ex.c **** #endif /* USE_HAL_RTC_REGISTER_CALLBACKS */
 1093              		.loc 1 476 7 is_stmt 1 view .LVU353
 1094 003c FFF7FEFF 		bl	HAL_RTCEx_TimeStampEventCallback
 1095              	.LVL80:
 480:Drivers/STM32F0xx_HAL_Driver/Src/stm32f0xx_hal_rtc_ex.c ****     }
 1096              		.loc 1 480 7 view .LVU354
 1097 0040 2168     		ldr	r1, [r4]
 1098 0042 CA68     		ldr	r2, [r1, #12]
 1099 0044 FF23     		movs	r3, #255
 1100 0046 1A40     		ands	r2, r3
 1101 0048 0D4B     		ldr	r3, .L46+4
 1102 004a 1343     		orrs	r3, r2
 1103 004c CB60     		str	r3, [r1, #12]
 1104 004e E0E7     		b	.L40
 1105              	.L44:
 494:Drivers/STM32F0xx_HAL_Driver/Src/stm32f0xx_hal_rtc_ex.c **** #endif /* USE_HAL_RTC_REGISTER_CALLBACKS */
 1106              		.loc 1 494 7 view .LVU355
 1107 0050 2000     		movs	r0, r4
 1108 0052 FFF7FEFF 		bl	HAL_RTCEx_Tamper1EventCallback
 1109              	.LVL81:
 498:Drivers/STM32F0xx_HAL_Driver/Src/stm32f0xx_hal_rtc_ex.c ****     }
 1110              		.loc 1 498 7 view .LVU356
 1111 0056 2168     		ldr	r1, [r4]
 1112 0058 CA68     		ldr	r2, [r1, #12]
 1113 005a FF23     		movs	r3, #255
 1114 005c 1A40     		ands	r2, r3
 1115 005e 094B     		ldr	r3, .L46+8
 1116 0060 1343     		orrs	r3, r2
 1117 0062 CB60     		str	r3, [r1, #12]
 1118 0064 DCE7     		b	.L41
 1119              	.L45:
 512:Drivers/STM32F0xx_HAL_Driver/Src/stm32f0xx_hal_rtc_ex.c **** #endif /* USE_HAL_RTC_REGISTER_CALLBACKS */
 1120              		.loc 1 512 7 view .LVU357
 1121 0066 2000     		movs	r0, r4
 1122 0068 FFF7FEFF 		bl	HAL_RTCEx_Tamper2EventCallback
 1123              	.LVL82:
 516:Drivers/STM32F0xx_HAL_Driver/Src/stm32f0xx_hal_rtc_ex.c ****     }
 1124              		.loc 1 516 7 view .LVU358
 1125 006c 2168     		ldr	r1, [r4]
 1126 006e CA68     		ldr	r2, [r1, #12]
 1127 0070 FF23     		movs	r3, #255
 1128 0072 1A40     		ands	r2, r3
 1129 0074 044B     		ldr	r3, .L46+12
 1130 0076 1343     		orrs	r3, r2
 1131 0078 CB60     		str	r3, [r1, #12]
 1132 007a D8E7     		b	.L42
 1133              	.L47:
ARM GAS  /tmp/ccJbOwNd.s 			page 32


 1134              		.align	2
 1135              	.L46:
 1136 007c 00040140 		.word	1073808384
 1137 0080 7FF7FFFF 		.word	-2177
 1138 0084 7FDFFFFF 		.word	-8321
 1139 0088 7FBFFFFF 		.word	-16513
 1140              		.cfi_endproc
 1141              	.LFE47:
 1143              		.section	.text.HAL_RTCEx_PollForTimeStampEvent,"ax",%progbits
 1144              		.align	1
 1145              		.global	HAL_RTCEx_PollForTimeStampEvent
 1146              		.syntax unified
 1147              		.code	16
 1148              		.thumb_func
 1149              		.fpu softvfp
 1151              	HAL_RTCEx_PollForTimeStampEvent:
 1152              	.LVL83:
 1153              	.LFB51:
 591:Drivers/STM32F0xx_HAL_Driver/Src/stm32f0xx_hal_rtc_ex.c **** 
 592:Drivers/STM32F0xx_HAL_Driver/Src/stm32f0xx_hal_rtc_ex.c **** #if defined(STM32F071xB) || defined(STM32F072xB) || defined(STM32F078xx) || defined(STM32F091xC) ||
 593:Drivers/STM32F0xx_HAL_Driver/Src/stm32f0xx_hal_rtc_ex.c **** /**
 594:Drivers/STM32F0xx_HAL_Driver/Src/stm32f0xx_hal_rtc_ex.c ****   * @brief  Tamper 3 callback.
 595:Drivers/STM32F0xx_HAL_Driver/Src/stm32f0xx_hal_rtc_ex.c ****   * @param  hrtc RTC handle
 596:Drivers/STM32F0xx_HAL_Driver/Src/stm32f0xx_hal_rtc_ex.c ****   * @retval None
 597:Drivers/STM32F0xx_HAL_Driver/Src/stm32f0xx_hal_rtc_ex.c ****   */
 598:Drivers/STM32F0xx_HAL_Driver/Src/stm32f0xx_hal_rtc_ex.c **** __weak void HAL_RTCEx_Tamper3EventCallback(RTC_HandleTypeDef *hrtc)
 599:Drivers/STM32F0xx_HAL_Driver/Src/stm32f0xx_hal_rtc_ex.c **** {
 600:Drivers/STM32F0xx_HAL_Driver/Src/stm32f0xx_hal_rtc_ex.c ****   /* Prevent unused argument(s) compilation warning */
 601:Drivers/STM32F0xx_HAL_Driver/Src/stm32f0xx_hal_rtc_ex.c ****   UNUSED(hrtc);
 602:Drivers/STM32F0xx_HAL_Driver/Src/stm32f0xx_hal_rtc_ex.c **** 
 603:Drivers/STM32F0xx_HAL_Driver/Src/stm32f0xx_hal_rtc_ex.c ****   /* NOTE : This function should not be modified, when the callback is needed,
 604:Drivers/STM32F0xx_HAL_Driver/Src/stm32f0xx_hal_rtc_ex.c ****             the HAL_RTCEx_Tamper3EventCallback could be implemented in the user file
 605:Drivers/STM32F0xx_HAL_Driver/Src/stm32f0xx_hal_rtc_ex.c ****    */
 606:Drivers/STM32F0xx_HAL_Driver/Src/stm32f0xx_hal_rtc_ex.c **** }
 607:Drivers/STM32F0xx_HAL_Driver/Src/stm32f0xx_hal_rtc_ex.c **** #endif
 608:Drivers/STM32F0xx_HAL_Driver/Src/stm32f0xx_hal_rtc_ex.c **** 
 609:Drivers/STM32F0xx_HAL_Driver/Src/stm32f0xx_hal_rtc_ex.c **** /**
 610:Drivers/STM32F0xx_HAL_Driver/Src/stm32f0xx_hal_rtc_ex.c ****   * @brief  Handle TimeStamp polling request.
 611:Drivers/STM32F0xx_HAL_Driver/Src/stm32f0xx_hal_rtc_ex.c ****   * @param  hrtc RTC handle
 612:Drivers/STM32F0xx_HAL_Driver/Src/stm32f0xx_hal_rtc_ex.c ****   * @param  Timeout Timeout duration
 613:Drivers/STM32F0xx_HAL_Driver/Src/stm32f0xx_hal_rtc_ex.c ****   * @retval HAL status
 614:Drivers/STM32F0xx_HAL_Driver/Src/stm32f0xx_hal_rtc_ex.c ****   */
 615:Drivers/STM32F0xx_HAL_Driver/Src/stm32f0xx_hal_rtc_ex.c **** HAL_StatusTypeDef HAL_RTCEx_PollForTimeStampEvent(RTC_HandleTypeDef *hrtc, uint32_t Timeout)
 616:Drivers/STM32F0xx_HAL_Driver/Src/stm32f0xx_hal_rtc_ex.c **** {
 1154              		.loc 1 616 1 view -0
 1155              		.cfi_startproc
 1156              		@ args = 0, pretend = 0, frame = 0
 1157              		@ frame_needed = 0, uses_anonymous_args = 0
 1158              		.loc 1 616 1 is_stmt 0 view .LVU360
 1159 0000 70B5     		push	{r4, r5, r6, lr}
 1160              	.LCFI9:
 1161              		.cfi_def_cfa_offset 16
 1162              		.cfi_offset 4, -16
 1163              		.cfi_offset 5, -12
 1164              		.cfi_offset 6, -8
 1165              		.cfi_offset 14, -4
 1166 0002 0500     		movs	r5, r0
ARM GAS  /tmp/ccJbOwNd.s 			page 33


 1167 0004 0E00     		movs	r6, r1
 617:Drivers/STM32F0xx_HAL_Driver/Src/stm32f0xx_hal_rtc_ex.c ****   uint32_t tickstart = HAL_GetTick();
 1168              		.loc 1 617 3 is_stmt 1 view .LVU361
 1169              		.loc 1 617 24 is_stmt 0 view .LVU362
 1170 0006 FFF7FEFF 		bl	HAL_GetTick
 1171              	.LVL84:
 1172              		.loc 1 617 24 view .LVU363
 1173 000a 0400     		movs	r4, r0
 1174              	.LVL85:
 618:Drivers/STM32F0xx_HAL_Driver/Src/stm32f0xx_hal_rtc_ex.c **** 
 619:Drivers/STM32F0xx_HAL_Driver/Src/stm32f0xx_hal_rtc_ex.c ****   while (__HAL_RTC_TIMESTAMP_GET_FLAG(hrtc, RTC_FLAG_TSF) == RESET)
 1175              		.loc 1 619 3 is_stmt 1 view .LVU364
 1176              	.L52:
 1177              		.loc 1 619 9 view .LVU365
 1178              		.loc 1 619 10 is_stmt 0 view .LVU366
 1179 000c 2B68     		ldr	r3, [r5]
 1180 000e DA68     		ldr	r2, [r3, #12]
 1181              		.loc 1 619 9 view .LVU367
 1182 0010 1205     		lsls	r2, r2, #20
 1183 0012 19D4     		bmi	.L55
 620:Drivers/STM32F0xx_HAL_Driver/Src/stm32f0xx_hal_rtc_ex.c ****   {
 621:Drivers/STM32F0xx_HAL_Driver/Src/stm32f0xx_hal_rtc_ex.c ****     if (__HAL_RTC_TIMESTAMP_GET_FLAG(hrtc, RTC_FLAG_TSOVF) != RESET)
 1184              		.loc 1 621 5 is_stmt 1 view .LVU368
 1185              		.loc 1 621 9 is_stmt 0 view .LVU369
 1186 0014 DA68     		ldr	r2, [r3, #12]
 1187              		.loc 1 621 8 view .LVU370
 1188 0016 D204     		lsls	r2, r2, #19
 1189 0018 0CD4     		bmi	.L56
 622:Drivers/STM32F0xx_HAL_Driver/Src/stm32f0xx_hal_rtc_ex.c ****     {
 623:Drivers/STM32F0xx_HAL_Driver/Src/stm32f0xx_hal_rtc_ex.c ****       /* Clear the TIMESTAMP OverRun Flag */
 624:Drivers/STM32F0xx_HAL_Driver/Src/stm32f0xx_hal_rtc_ex.c ****       __HAL_RTC_TIMESTAMP_CLEAR_FLAG(hrtc, RTC_FLAG_TSOVF);
 625:Drivers/STM32F0xx_HAL_Driver/Src/stm32f0xx_hal_rtc_ex.c **** 
 626:Drivers/STM32F0xx_HAL_Driver/Src/stm32f0xx_hal_rtc_ex.c ****       /* Change TIMESTAMP state */
 627:Drivers/STM32F0xx_HAL_Driver/Src/stm32f0xx_hal_rtc_ex.c ****       hrtc->State = HAL_RTC_STATE_ERROR;
 628:Drivers/STM32F0xx_HAL_Driver/Src/stm32f0xx_hal_rtc_ex.c **** 
 629:Drivers/STM32F0xx_HAL_Driver/Src/stm32f0xx_hal_rtc_ex.c ****       return HAL_ERROR;
 630:Drivers/STM32F0xx_HAL_Driver/Src/stm32f0xx_hal_rtc_ex.c ****     }
 631:Drivers/STM32F0xx_HAL_Driver/Src/stm32f0xx_hal_rtc_ex.c **** 
 632:Drivers/STM32F0xx_HAL_Driver/Src/stm32f0xx_hal_rtc_ex.c ****     if (Timeout != HAL_MAX_DELAY)
 1190              		.loc 1 632 5 is_stmt 1 view .LVU371
 1191              		.loc 1 632 8 is_stmt 0 view .LVU372
 1192 001a 731C     		adds	r3, r6, #1
 1193 001c F6D0     		beq	.L52
 633:Drivers/STM32F0xx_HAL_Driver/Src/stm32f0xx_hal_rtc_ex.c ****     {
 634:Drivers/STM32F0xx_HAL_Driver/Src/stm32f0xx_hal_rtc_ex.c ****       if ((Timeout == 0U) || ((HAL_GetTick() - tickstart) > Timeout))
 1194              		.loc 1 634 7 is_stmt 1 view .LVU373
 1195              		.loc 1 634 10 is_stmt 0 view .LVU374
 1196 001e 002E     		cmp	r6, #0
 1197 0020 04D0     		beq	.L53
 1198              		.loc 1 634 32 discriminator 1 view .LVU375
 1199 0022 FFF7FEFF 		bl	HAL_GetTick
 1200              	.LVL86:
 1201              		.loc 1 634 46 discriminator 1 view .LVU376
 1202 0026 001B     		subs	r0, r0, r4
 1203              		.loc 1 634 27 discriminator 1 view .LVU377
 1204 0028 B042     		cmp	r0, r6
 1205 002a EFD9     		bls	.L52
ARM GAS  /tmp/ccJbOwNd.s 			page 34


 1206              	.L53:
 635:Drivers/STM32F0xx_HAL_Driver/Src/stm32f0xx_hal_rtc_ex.c ****       {
 636:Drivers/STM32F0xx_HAL_Driver/Src/stm32f0xx_hal_rtc_ex.c ****         hrtc->State = HAL_RTC_STATE_TIMEOUT;
 1207              		.loc 1 636 9 is_stmt 1 view .LVU378
 1208              		.loc 1 636 21 is_stmt 0 view .LVU379
 1209 002c 0323     		movs	r3, #3
 1210 002e 6B77     		strb	r3, [r5, #29]
 637:Drivers/STM32F0xx_HAL_Driver/Src/stm32f0xx_hal_rtc_ex.c ****         return HAL_TIMEOUT;
 1211              		.loc 1 637 9 is_stmt 1 view .LVU380
 1212              		.loc 1 637 16 is_stmt 0 view .LVU381
 1213 0030 0320     		movs	r0, #3
 1214 0032 0CE0     		b	.L51
 1215              	.L56:
 624:Drivers/STM32F0xx_HAL_Driver/Src/stm32f0xx_hal_rtc_ex.c **** 
 1216              		.loc 1 624 7 is_stmt 1 view .LVU382
 1217 0034 D968     		ldr	r1, [r3, #12]
 1218 0036 FF22     		movs	r2, #255
 1219 0038 1140     		ands	r1, r2
 1220 003a 054A     		ldr	r2, .L57
 1221 003c 0A43     		orrs	r2, r1
 1222 003e DA60     		str	r2, [r3, #12]
 627:Drivers/STM32F0xx_HAL_Driver/Src/stm32f0xx_hal_rtc_ex.c **** 
 1223              		.loc 1 627 7 view .LVU383
 627:Drivers/STM32F0xx_HAL_Driver/Src/stm32f0xx_hal_rtc_ex.c **** 
 1224              		.loc 1 627 19 is_stmt 0 view .LVU384
 1225 0040 0423     		movs	r3, #4
 1226 0042 6B77     		strb	r3, [r5, #29]
 629:Drivers/STM32F0xx_HAL_Driver/Src/stm32f0xx_hal_rtc_ex.c ****     }
 1227              		.loc 1 629 7 is_stmt 1 view .LVU385
 629:Drivers/STM32F0xx_HAL_Driver/Src/stm32f0xx_hal_rtc_ex.c ****     }
 1228              		.loc 1 629 14 is_stmt 0 view .LVU386
 1229 0044 0120     		movs	r0, #1
 1230 0046 02E0     		b	.L51
 1231              	.L55:
 638:Drivers/STM32F0xx_HAL_Driver/Src/stm32f0xx_hal_rtc_ex.c ****       }
 639:Drivers/STM32F0xx_HAL_Driver/Src/stm32f0xx_hal_rtc_ex.c ****     }
 640:Drivers/STM32F0xx_HAL_Driver/Src/stm32f0xx_hal_rtc_ex.c ****   }
 641:Drivers/STM32F0xx_HAL_Driver/Src/stm32f0xx_hal_rtc_ex.c **** 
 642:Drivers/STM32F0xx_HAL_Driver/Src/stm32f0xx_hal_rtc_ex.c ****   /* Change RTC state */
 643:Drivers/STM32F0xx_HAL_Driver/Src/stm32f0xx_hal_rtc_ex.c ****   hrtc->State = HAL_RTC_STATE_READY;
 1232              		.loc 1 643 3 is_stmt 1 view .LVU387
 1233              		.loc 1 643 15 is_stmt 0 view .LVU388
 1234 0048 0123     		movs	r3, #1
 1235 004a 6B77     		strb	r3, [r5, #29]
 644:Drivers/STM32F0xx_HAL_Driver/Src/stm32f0xx_hal_rtc_ex.c **** 
 645:Drivers/STM32F0xx_HAL_Driver/Src/stm32f0xx_hal_rtc_ex.c ****   return HAL_OK;
 1236              		.loc 1 645 3 is_stmt 1 view .LVU389
 1237              		.loc 1 645 10 is_stmt 0 view .LVU390
 1238 004c 0020     		movs	r0, #0
 1239              	.L51:
 646:Drivers/STM32F0xx_HAL_Driver/Src/stm32f0xx_hal_rtc_ex.c **** }
 1240              		.loc 1 646 1 view .LVU391
 1241              		@ sp needed
 1242              	.LVL87:
 1243              	.LVL88:
 1244              	.LVL89:
 1245              		.loc 1 646 1 view .LVU392
ARM GAS  /tmp/ccJbOwNd.s 			page 35


 1246 004e 70BD     		pop	{r4, r5, r6, pc}
 1247              	.L58:
 1248              		.align	2
 1249              	.L57:
 1250 0050 7FEFFFFF 		.word	-4225
 1251              		.cfi_endproc
 1252              	.LFE51:
 1254              		.section	.text.HAL_RTCEx_PollForTamper1Event,"ax",%progbits
 1255              		.align	1
 1256              		.global	HAL_RTCEx_PollForTamper1Event
 1257              		.syntax unified
 1258              		.code	16
 1259              		.thumb_func
 1260              		.fpu softvfp
 1262              	HAL_RTCEx_PollForTamper1Event:
 1263              	.LVL90:
 1264              	.LFB52:
 647:Drivers/STM32F0xx_HAL_Driver/Src/stm32f0xx_hal_rtc_ex.c **** 
 648:Drivers/STM32F0xx_HAL_Driver/Src/stm32f0xx_hal_rtc_ex.c **** /**
 649:Drivers/STM32F0xx_HAL_Driver/Src/stm32f0xx_hal_rtc_ex.c ****   * @brief  Handle Tamper 1 Polling.
 650:Drivers/STM32F0xx_HAL_Driver/Src/stm32f0xx_hal_rtc_ex.c ****   * @param  hrtc RTC handle
 651:Drivers/STM32F0xx_HAL_Driver/Src/stm32f0xx_hal_rtc_ex.c ****   * @param  Timeout Timeout duration
 652:Drivers/STM32F0xx_HAL_Driver/Src/stm32f0xx_hal_rtc_ex.c ****   * @retval HAL status
 653:Drivers/STM32F0xx_HAL_Driver/Src/stm32f0xx_hal_rtc_ex.c ****   */
 654:Drivers/STM32F0xx_HAL_Driver/Src/stm32f0xx_hal_rtc_ex.c **** HAL_StatusTypeDef HAL_RTCEx_PollForTamper1Event(RTC_HandleTypeDef *hrtc, uint32_t Timeout)
 655:Drivers/STM32F0xx_HAL_Driver/Src/stm32f0xx_hal_rtc_ex.c **** {
 1265              		.loc 1 655 1 is_stmt 1 view -0
 1266              		.cfi_startproc
 1267              		@ args = 0, pretend = 0, frame = 0
 1268              		@ frame_needed = 0, uses_anonymous_args = 0
 1269              		.loc 1 655 1 is_stmt 0 view .LVU394
 1270 0000 70B5     		push	{r4, r5, r6, lr}
 1271              	.LCFI10:
 1272              		.cfi_def_cfa_offset 16
 1273              		.cfi_offset 4, -16
 1274              		.cfi_offset 5, -12
 1275              		.cfi_offset 6, -8
 1276              		.cfi_offset 14, -4
 1277 0002 0400     		movs	r4, r0
 1278 0004 0D00     		movs	r5, r1
 656:Drivers/STM32F0xx_HAL_Driver/Src/stm32f0xx_hal_rtc_ex.c ****   uint32_t tickstart = HAL_GetTick();
 1279              		.loc 1 656 3 is_stmt 1 view .LVU395
 1280              		.loc 1 656 24 is_stmt 0 view .LVU396
 1281 0006 FFF7FEFF 		bl	HAL_GetTick
 1282              	.LVL91:
 1283              		.loc 1 656 24 view .LVU397
 1284 000a 0600     		movs	r6, r0
 1285              	.LVL92:
 657:Drivers/STM32F0xx_HAL_Driver/Src/stm32f0xx_hal_rtc_ex.c **** 
 658:Drivers/STM32F0xx_HAL_Driver/Src/stm32f0xx_hal_rtc_ex.c ****   /* Get the status of the Interrupt */
 659:Drivers/STM32F0xx_HAL_Driver/Src/stm32f0xx_hal_rtc_ex.c ****   while (__HAL_RTC_TAMPER_GET_FLAG(hrtc, RTC_FLAG_TAMP1F) == RESET)
 1286              		.loc 1 659 3 is_stmt 1 view .LVU398
 1287              	.L61:
 1288              		.loc 1 659 9 view .LVU399
 1289              		.loc 1 659 10 is_stmt 0 view .LVU400
 1290 000c 2368     		ldr	r3, [r4]
 1291 000e DA68     		ldr	r2, [r3, #12]
ARM GAS  /tmp/ccJbOwNd.s 			page 36


 1292              		.loc 1 659 9 view .LVU401
 1293 0010 9204     		lsls	r2, r2, #18
 1294 0012 0CD4     		bmi	.L65
 660:Drivers/STM32F0xx_HAL_Driver/Src/stm32f0xx_hal_rtc_ex.c ****   {
 661:Drivers/STM32F0xx_HAL_Driver/Src/stm32f0xx_hal_rtc_ex.c ****     if (Timeout != HAL_MAX_DELAY)
 1295              		.loc 1 661 5 is_stmt 1 view .LVU402
 1296              		.loc 1 661 8 is_stmt 0 view .LVU403
 1297 0014 6B1C     		adds	r3, r5, #1
 1298 0016 F9D0     		beq	.L61
 662:Drivers/STM32F0xx_HAL_Driver/Src/stm32f0xx_hal_rtc_ex.c ****     {
 663:Drivers/STM32F0xx_HAL_Driver/Src/stm32f0xx_hal_rtc_ex.c ****       if ((Timeout == 0U) || ((HAL_GetTick() - tickstart) > Timeout))
 1299              		.loc 1 663 7 is_stmt 1 view .LVU404
 1300              		.loc 1 663 10 is_stmt 0 view .LVU405
 1301 0018 002D     		cmp	r5, #0
 1302 001a 04D0     		beq	.L62
 1303              		.loc 1 663 32 discriminator 1 view .LVU406
 1304 001c FFF7FEFF 		bl	HAL_GetTick
 1305              	.LVL93:
 1306              		.loc 1 663 46 discriminator 1 view .LVU407
 1307 0020 801B     		subs	r0, r0, r6
 1308              		.loc 1 663 27 discriminator 1 view .LVU408
 1309 0022 A842     		cmp	r0, r5
 1310 0024 F2D9     		bls	.L61
 1311              	.L62:
 664:Drivers/STM32F0xx_HAL_Driver/Src/stm32f0xx_hal_rtc_ex.c ****       {
 665:Drivers/STM32F0xx_HAL_Driver/Src/stm32f0xx_hal_rtc_ex.c ****         hrtc->State = HAL_RTC_STATE_TIMEOUT;
 1312              		.loc 1 665 9 is_stmt 1 view .LVU409
 1313              		.loc 1 665 21 is_stmt 0 view .LVU410
 1314 0026 0323     		movs	r3, #3
 1315 0028 6377     		strb	r3, [r4, #29]
 666:Drivers/STM32F0xx_HAL_Driver/Src/stm32f0xx_hal_rtc_ex.c ****         return HAL_TIMEOUT;
 1316              		.loc 1 666 9 is_stmt 1 view .LVU411
 1317              		.loc 1 666 16 is_stmt 0 view .LVU412
 1318 002a 0320     		movs	r0, #3
 1319 002c 08E0     		b	.L63
 1320              	.L65:
 667:Drivers/STM32F0xx_HAL_Driver/Src/stm32f0xx_hal_rtc_ex.c ****       }
 668:Drivers/STM32F0xx_HAL_Driver/Src/stm32f0xx_hal_rtc_ex.c ****     }
 669:Drivers/STM32F0xx_HAL_Driver/Src/stm32f0xx_hal_rtc_ex.c ****   }
 670:Drivers/STM32F0xx_HAL_Driver/Src/stm32f0xx_hal_rtc_ex.c **** 
 671:Drivers/STM32F0xx_HAL_Driver/Src/stm32f0xx_hal_rtc_ex.c ****   /* Clear the Tamper Flag */
 672:Drivers/STM32F0xx_HAL_Driver/Src/stm32f0xx_hal_rtc_ex.c ****   __HAL_RTC_TAMPER_CLEAR_FLAG(hrtc, RTC_FLAG_TAMP1F);
 1321              		.loc 1 672 3 is_stmt 1 view .LVU413
 1322 002e D968     		ldr	r1, [r3, #12]
 1323 0030 FF22     		movs	r2, #255
 1324 0032 1140     		ands	r1, r2
 1325 0034 034A     		ldr	r2, .L66
 1326 0036 0A43     		orrs	r2, r1
 1327 0038 DA60     		str	r2, [r3, #12]
 673:Drivers/STM32F0xx_HAL_Driver/Src/stm32f0xx_hal_rtc_ex.c **** 
 674:Drivers/STM32F0xx_HAL_Driver/Src/stm32f0xx_hal_rtc_ex.c ****   /* Change RTC state */
 675:Drivers/STM32F0xx_HAL_Driver/Src/stm32f0xx_hal_rtc_ex.c ****   hrtc->State = HAL_RTC_STATE_READY;
 1328              		.loc 1 675 3 view .LVU414
 1329              		.loc 1 675 15 is_stmt 0 view .LVU415
 1330 003a 0123     		movs	r3, #1
 1331 003c 6377     		strb	r3, [r4, #29]
 676:Drivers/STM32F0xx_HAL_Driver/Src/stm32f0xx_hal_rtc_ex.c **** 
ARM GAS  /tmp/ccJbOwNd.s 			page 37


 677:Drivers/STM32F0xx_HAL_Driver/Src/stm32f0xx_hal_rtc_ex.c ****   return HAL_OK;
 1332              		.loc 1 677 3 is_stmt 1 view .LVU416
 1333              		.loc 1 677 10 is_stmt 0 view .LVU417
 1334 003e 0020     		movs	r0, #0
 1335              	.L63:
 678:Drivers/STM32F0xx_HAL_Driver/Src/stm32f0xx_hal_rtc_ex.c **** }
 1336              		.loc 1 678 1 view .LVU418
 1337              		@ sp needed
 1338              	.LVL94:
 1339              	.LVL95:
 1340              	.LVL96:
 1341              		.loc 1 678 1 view .LVU419
 1342 0040 70BD     		pop	{r4, r5, r6, pc}
 1343              	.L67:
 1344 0042 C046     		.align	2
 1345              	.L66:
 1346 0044 7FDFFFFF 		.word	-8321
 1347              		.cfi_endproc
 1348              	.LFE52:
 1350              		.section	.text.HAL_RTCEx_PollForTamper2Event,"ax",%progbits
 1351              		.align	1
 1352              		.global	HAL_RTCEx_PollForTamper2Event
 1353              		.syntax unified
 1354              		.code	16
 1355              		.thumb_func
 1356              		.fpu softvfp
 1358              	HAL_RTCEx_PollForTamper2Event:
 1359              	.LVL97:
 1360              	.LFB53:
 679:Drivers/STM32F0xx_HAL_Driver/Src/stm32f0xx_hal_rtc_ex.c **** 
 680:Drivers/STM32F0xx_HAL_Driver/Src/stm32f0xx_hal_rtc_ex.c **** /**
 681:Drivers/STM32F0xx_HAL_Driver/Src/stm32f0xx_hal_rtc_ex.c ****   * @brief  Handle Tamper 2 Polling.
 682:Drivers/STM32F0xx_HAL_Driver/Src/stm32f0xx_hal_rtc_ex.c ****   * @param  hrtc RTC handle
 683:Drivers/STM32F0xx_HAL_Driver/Src/stm32f0xx_hal_rtc_ex.c ****   * @param  Timeout Timeout duration
 684:Drivers/STM32F0xx_HAL_Driver/Src/stm32f0xx_hal_rtc_ex.c ****   * @retval HAL status
 685:Drivers/STM32F0xx_HAL_Driver/Src/stm32f0xx_hal_rtc_ex.c ****   */
 686:Drivers/STM32F0xx_HAL_Driver/Src/stm32f0xx_hal_rtc_ex.c **** HAL_StatusTypeDef HAL_RTCEx_PollForTamper2Event(RTC_HandleTypeDef *hrtc, uint32_t Timeout)
 687:Drivers/STM32F0xx_HAL_Driver/Src/stm32f0xx_hal_rtc_ex.c **** {
 1361              		.loc 1 687 1 is_stmt 1 view -0
 1362              		.cfi_startproc
 1363              		@ args = 0, pretend = 0, frame = 0
 1364              		@ frame_needed = 0, uses_anonymous_args = 0
 1365              		.loc 1 687 1 is_stmt 0 view .LVU421
 1366 0000 70B5     		push	{r4, r5, r6, lr}
 1367              	.LCFI11:
 1368              		.cfi_def_cfa_offset 16
 1369              		.cfi_offset 4, -16
 1370              		.cfi_offset 5, -12
 1371              		.cfi_offset 6, -8
 1372              		.cfi_offset 14, -4
 1373 0002 0400     		movs	r4, r0
 1374 0004 0D00     		movs	r5, r1
 688:Drivers/STM32F0xx_HAL_Driver/Src/stm32f0xx_hal_rtc_ex.c ****   uint32_t tickstart = HAL_GetTick();
 1375              		.loc 1 688 3 is_stmt 1 view .LVU422
 1376              		.loc 1 688 24 is_stmt 0 view .LVU423
 1377 0006 FFF7FEFF 		bl	HAL_GetTick
 1378              	.LVL98:
ARM GAS  /tmp/ccJbOwNd.s 			page 38


 1379              		.loc 1 688 24 view .LVU424
 1380 000a 0600     		movs	r6, r0
 1381              	.LVL99:
 689:Drivers/STM32F0xx_HAL_Driver/Src/stm32f0xx_hal_rtc_ex.c **** 
 690:Drivers/STM32F0xx_HAL_Driver/Src/stm32f0xx_hal_rtc_ex.c ****   /* Get the status of the Interrupt */
 691:Drivers/STM32F0xx_HAL_Driver/Src/stm32f0xx_hal_rtc_ex.c ****   while (__HAL_RTC_TAMPER_GET_FLAG(hrtc, RTC_FLAG_TAMP2F) == RESET)
 1382              		.loc 1 691 3 is_stmt 1 view .LVU425
 1383              	.L70:
 1384              		.loc 1 691 9 view .LVU426
 1385              		.loc 1 691 10 is_stmt 0 view .LVU427
 1386 000c 2368     		ldr	r3, [r4]
 1387 000e DA68     		ldr	r2, [r3, #12]
 1388              		.loc 1 691 9 view .LVU428
 1389 0010 5204     		lsls	r2, r2, #17
 1390 0012 0CD4     		bmi	.L74
 692:Drivers/STM32F0xx_HAL_Driver/Src/stm32f0xx_hal_rtc_ex.c ****   {
 693:Drivers/STM32F0xx_HAL_Driver/Src/stm32f0xx_hal_rtc_ex.c ****     if (Timeout != HAL_MAX_DELAY)
 1391              		.loc 1 693 5 is_stmt 1 view .LVU429
 1392              		.loc 1 693 8 is_stmt 0 view .LVU430
 1393 0014 6B1C     		adds	r3, r5, #1
 1394 0016 F9D0     		beq	.L70
 694:Drivers/STM32F0xx_HAL_Driver/Src/stm32f0xx_hal_rtc_ex.c ****     {
 695:Drivers/STM32F0xx_HAL_Driver/Src/stm32f0xx_hal_rtc_ex.c ****       if ((Timeout == 0U) || ((HAL_GetTick() - tickstart) > Timeout))
 1395              		.loc 1 695 7 is_stmt 1 view .LVU431
 1396              		.loc 1 695 10 is_stmt 0 view .LVU432
 1397 0018 002D     		cmp	r5, #0
 1398 001a 04D0     		beq	.L71
 1399              		.loc 1 695 32 discriminator 1 view .LVU433
 1400 001c FFF7FEFF 		bl	HAL_GetTick
 1401              	.LVL100:
 1402              		.loc 1 695 46 discriminator 1 view .LVU434
 1403 0020 801B     		subs	r0, r0, r6
 1404              		.loc 1 695 27 discriminator 1 view .LVU435
 1405 0022 A842     		cmp	r0, r5
 1406 0024 F2D9     		bls	.L70
 1407              	.L71:
 696:Drivers/STM32F0xx_HAL_Driver/Src/stm32f0xx_hal_rtc_ex.c ****       {
 697:Drivers/STM32F0xx_HAL_Driver/Src/stm32f0xx_hal_rtc_ex.c ****         hrtc->State = HAL_RTC_STATE_TIMEOUT;
 1408              		.loc 1 697 9 is_stmt 1 view .LVU436
 1409              		.loc 1 697 21 is_stmt 0 view .LVU437
 1410 0026 0323     		movs	r3, #3
 1411 0028 6377     		strb	r3, [r4, #29]
 698:Drivers/STM32F0xx_HAL_Driver/Src/stm32f0xx_hal_rtc_ex.c ****         return HAL_TIMEOUT;
 1412              		.loc 1 698 9 is_stmt 1 view .LVU438
 1413              		.loc 1 698 16 is_stmt 0 view .LVU439
 1414 002a 0320     		movs	r0, #3
 1415 002c 08E0     		b	.L72
 1416              	.L74:
 699:Drivers/STM32F0xx_HAL_Driver/Src/stm32f0xx_hal_rtc_ex.c ****       }
 700:Drivers/STM32F0xx_HAL_Driver/Src/stm32f0xx_hal_rtc_ex.c ****     }
 701:Drivers/STM32F0xx_HAL_Driver/Src/stm32f0xx_hal_rtc_ex.c ****   }
 702:Drivers/STM32F0xx_HAL_Driver/Src/stm32f0xx_hal_rtc_ex.c **** 
 703:Drivers/STM32F0xx_HAL_Driver/Src/stm32f0xx_hal_rtc_ex.c ****   /* Clear the Tamper Flag */
 704:Drivers/STM32F0xx_HAL_Driver/Src/stm32f0xx_hal_rtc_ex.c ****   __HAL_RTC_TAMPER_CLEAR_FLAG(hrtc, RTC_FLAG_TAMP2F);
 1417              		.loc 1 704 3 is_stmt 1 view .LVU440
 1418 002e D968     		ldr	r1, [r3, #12]
 1419 0030 FF22     		movs	r2, #255
ARM GAS  /tmp/ccJbOwNd.s 			page 39


 1420 0032 1140     		ands	r1, r2
 1421 0034 034A     		ldr	r2, .L75
 1422 0036 0A43     		orrs	r2, r1
 1423 0038 DA60     		str	r2, [r3, #12]
 705:Drivers/STM32F0xx_HAL_Driver/Src/stm32f0xx_hal_rtc_ex.c **** 
 706:Drivers/STM32F0xx_HAL_Driver/Src/stm32f0xx_hal_rtc_ex.c ****   /* Change RTC state */
 707:Drivers/STM32F0xx_HAL_Driver/Src/stm32f0xx_hal_rtc_ex.c ****   hrtc->State = HAL_RTC_STATE_READY;
 1424              		.loc 1 707 3 view .LVU441
 1425              		.loc 1 707 15 is_stmt 0 view .LVU442
 1426 003a 0123     		movs	r3, #1
 1427 003c 6377     		strb	r3, [r4, #29]
 708:Drivers/STM32F0xx_HAL_Driver/Src/stm32f0xx_hal_rtc_ex.c **** 
 709:Drivers/STM32F0xx_HAL_Driver/Src/stm32f0xx_hal_rtc_ex.c ****   return HAL_OK;
 1428              		.loc 1 709 3 is_stmt 1 view .LVU443
 1429              		.loc 1 709 10 is_stmt 0 view .LVU444
 1430 003e 0020     		movs	r0, #0
 1431              	.L72:
 710:Drivers/STM32F0xx_HAL_Driver/Src/stm32f0xx_hal_rtc_ex.c **** }
 1432              		.loc 1 710 1 view .LVU445
 1433              		@ sp needed
 1434              	.LVL101:
 1435              	.LVL102:
 1436              	.LVL103:
 1437              		.loc 1 710 1 view .LVU446
 1438 0040 70BD     		pop	{r4, r5, r6, pc}
 1439              	.L76:
 1440 0042 C046     		.align	2
 1441              	.L75:
 1442 0044 7FBFFFFF 		.word	-16513
 1443              		.cfi_endproc
 1444              	.LFE53:
 1446              		.section	.text.HAL_RTCEx_BKUPWrite,"ax",%progbits
 1447              		.align	1
 1448              		.global	HAL_RTCEx_BKUPWrite
 1449              		.syntax unified
 1450              		.code	16
 1451              		.thumb_func
 1452              		.fpu softvfp
 1454              	HAL_RTCEx_BKUPWrite:
 1455              	.LVL104:
 1456              	.LFB54:
 711:Drivers/STM32F0xx_HAL_Driver/Src/stm32f0xx_hal_rtc_ex.c **** 
 712:Drivers/STM32F0xx_HAL_Driver/Src/stm32f0xx_hal_rtc_ex.c **** #if defined(STM32F071xB) || defined(STM32F072xB) || defined(STM32F078xx) || defined(STM32F091xC) ||
 713:Drivers/STM32F0xx_HAL_Driver/Src/stm32f0xx_hal_rtc_ex.c **** /**
 714:Drivers/STM32F0xx_HAL_Driver/Src/stm32f0xx_hal_rtc_ex.c ****   * @brief  Handle Tamper 3 Polling.
 715:Drivers/STM32F0xx_HAL_Driver/Src/stm32f0xx_hal_rtc_ex.c ****   * @param  hrtc RTC handle
 716:Drivers/STM32F0xx_HAL_Driver/Src/stm32f0xx_hal_rtc_ex.c ****   * @param  Timeout Timeout duration
 717:Drivers/STM32F0xx_HAL_Driver/Src/stm32f0xx_hal_rtc_ex.c ****   * @retval HAL status
 718:Drivers/STM32F0xx_HAL_Driver/Src/stm32f0xx_hal_rtc_ex.c ****   */
 719:Drivers/STM32F0xx_HAL_Driver/Src/stm32f0xx_hal_rtc_ex.c **** HAL_StatusTypeDef HAL_RTCEx_PollForTamper3Event(RTC_HandleTypeDef *hrtc, uint32_t Timeout)
 720:Drivers/STM32F0xx_HAL_Driver/Src/stm32f0xx_hal_rtc_ex.c **** {
 721:Drivers/STM32F0xx_HAL_Driver/Src/stm32f0xx_hal_rtc_ex.c ****   uint32_t tickstart = HAL_GetTick();
 722:Drivers/STM32F0xx_HAL_Driver/Src/stm32f0xx_hal_rtc_ex.c **** 
 723:Drivers/STM32F0xx_HAL_Driver/Src/stm32f0xx_hal_rtc_ex.c ****   /* Get the status of the Interrupt */
 724:Drivers/STM32F0xx_HAL_Driver/Src/stm32f0xx_hal_rtc_ex.c ****   while (__HAL_RTC_TAMPER_GET_FLAG(hrtc, RTC_FLAG_TAMP3F) == RESET)
 725:Drivers/STM32F0xx_HAL_Driver/Src/stm32f0xx_hal_rtc_ex.c ****   {
 726:Drivers/STM32F0xx_HAL_Driver/Src/stm32f0xx_hal_rtc_ex.c ****     if (Timeout != HAL_MAX_DELAY)
ARM GAS  /tmp/ccJbOwNd.s 			page 40


 727:Drivers/STM32F0xx_HAL_Driver/Src/stm32f0xx_hal_rtc_ex.c ****     {
 728:Drivers/STM32F0xx_HAL_Driver/Src/stm32f0xx_hal_rtc_ex.c ****       if ((Timeout == 0U) || ((HAL_GetTick() - tickstart) > Timeout))
 729:Drivers/STM32F0xx_HAL_Driver/Src/stm32f0xx_hal_rtc_ex.c ****       {
 730:Drivers/STM32F0xx_HAL_Driver/Src/stm32f0xx_hal_rtc_ex.c ****         hrtc->State = HAL_RTC_STATE_TIMEOUT;
 731:Drivers/STM32F0xx_HAL_Driver/Src/stm32f0xx_hal_rtc_ex.c ****         return HAL_TIMEOUT;
 732:Drivers/STM32F0xx_HAL_Driver/Src/stm32f0xx_hal_rtc_ex.c ****       }
 733:Drivers/STM32F0xx_HAL_Driver/Src/stm32f0xx_hal_rtc_ex.c ****     }
 734:Drivers/STM32F0xx_HAL_Driver/Src/stm32f0xx_hal_rtc_ex.c ****   }
 735:Drivers/STM32F0xx_HAL_Driver/Src/stm32f0xx_hal_rtc_ex.c **** 
 736:Drivers/STM32F0xx_HAL_Driver/Src/stm32f0xx_hal_rtc_ex.c ****   /* Clear the Tamper Flag */
 737:Drivers/STM32F0xx_HAL_Driver/Src/stm32f0xx_hal_rtc_ex.c ****   __HAL_RTC_TAMPER_CLEAR_FLAG(hrtc, RTC_FLAG_TAMP3F);
 738:Drivers/STM32F0xx_HAL_Driver/Src/stm32f0xx_hal_rtc_ex.c **** 
 739:Drivers/STM32F0xx_HAL_Driver/Src/stm32f0xx_hal_rtc_ex.c ****   /* Change RTC state */
 740:Drivers/STM32F0xx_HAL_Driver/Src/stm32f0xx_hal_rtc_ex.c ****   hrtc->State = HAL_RTC_STATE_READY;
 741:Drivers/STM32F0xx_HAL_Driver/Src/stm32f0xx_hal_rtc_ex.c **** 
 742:Drivers/STM32F0xx_HAL_Driver/Src/stm32f0xx_hal_rtc_ex.c ****   return HAL_OK;
 743:Drivers/STM32F0xx_HAL_Driver/Src/stm32f0xx_hal_rtc_ex.c **** }
 744:Drivers/STM32F0xx_HAL_Driver/Src/stm32f0xx_hal_rtc_ex.c **** #endif
 745:Drivers/STM32F0xx_HAL_Driver/Src/stm32f0xx_hal_rtc_ex.c **** 
 746:Drivers/STM32F0xx_HAL_Driver/Src/stm32f0xx_hal_rtc_ex.c **** /**
 747:Drivers/STM32F0xx_HAL_Driver/Src/stm32f0xx_hal_rtc_ex.c ****   * @}
 748:Drivers/STM32F0xx_HAL_Driver/Src/stm32f0xx_hal_rtc_ex.c ****   */
 749:Drivers/STM32F0xx_HAL_Driver/Src/stm32f0xx_hal_rtc_ex.c **** 
 750:Drivers/STM32F0xx_HAL_Driver/Src/stm32f0xx_hal_rtc_ex.c **** #if defined(STM32F070xB) || defined(STM32F071xB) || defined(STM32F072xB) || defined(STM32F078xx) ||
 751:Drivers/STM32F0xx_HAL_Driver/Src/stm32f0xx_hal_rtc_ex.c **** /** @addtogroup RTCEx_Exported_Functions_Group2
 752:Drivers/STM32F0xx_HAL_Driver/Src/stm32f0xx_hal_rtc_ex.c ****   * @brief    RTC Wake-up functions
 753:Drivers/STM32F0xx_HAL_Driver/Src/stm32f0xx_hal_rtc_ex.c ****   *
 754:Drivers/STM32F0xx_HAL_Driver/Src/stm32f0xx_hal_rtc_ex.c **** @verbatim
 755:Drivers/STM32F0xx_HAL_Driver/Src/stm32f0xx_hal_rtc_ex.c ****  ===============================================================================
 756:Drivers/STM32F0xx_HAL_Driver/Src/stm32f0xx_hal_rtc_ex.c ****                         ##### RTC Wake-up functions #####
 757:Drivers/STM32F0xx_HAL_Driver/Src/stm32f0xx_hal_rtc_ex.c ****  ===============================================================================
 758:Drivers/STM32F0xx_HAL_Driver/Src/stm32f0xx_hal_rtc_ex.c **** 
 759:Drivers/STM32F0xx_HAL_Driver/Src/stm32f0xx_hal_rtc_ex.c ****  [..] This section provides functions allowing to configure Wake-up feature
 760:Drivers/STM32F0xx_HAL_Driver/Src/stm32f0xx_hal_rtc_ex.c **** 
 761:Drivers/STM32F0xx_HAL_Driver/Src/stm32f0xx_hal_rtc_ex.c **** @endverbatim
 762:Drivers/STM32F0xx_HAL_Driver/Src/stm32f0xx_hal_rtc_ex.c ****   * @{
 763:Drivers/STM32F0xx_HAL_Driver/Src/stm32f0xx_hal_rtc_ex.c ****   */
 764:Drivers/STM32F0xx_HAL_Driver/Src/stm32f0xx_hal_rtc_ex.c **** 
 765:Drivers/STM32F0xx_HAL_Driver/Src/stm32f0xx_hal_rtc_ex.c **** /**
 766:Drivers/STM32F0xx_HAL_Driver/Src/stm32f0xx_hal_rtc_ex.c ****   * @brief  Set wake up timer.
 767:Drivers/STM32F0xx_HAL_Driver/Src/stm32f0xx_hal_rtc_ex.c ****   * @param  hrtc RTC handle
 768:Drivers/STM32F0xx_HAL_Driver/Src/stm32f0xx_hal_rtc_ex.c ****   * @param  WakeUpCounter Wake up counter
 769:Drivers/STM32F0xx_HAL_Driver/Src/stm32f0xx_hal_rtc_ex.c ****   * @param  WakeUpClock Wake up clock
 770:Drivers/STM32F0xx_HAL_Driver/Src/stm32f0xx_hal_rtc_ex.c ****   * @retval HAL status
 771:Drivers/STM32F0xx_HAL_Driver/Src/stm32f0xx_hal_rtc_ex.c ****   */
 772:Drivers/STM32F0xx_HAL_Driver/Src/stm32f0xx_hal_rtc_ex.c **** HAL_StatusTypeDef HAL_RTCEx_SetWakeUpTimer(RTC_HandleTypeDef *hrtc, uint32_t WakeUpCounter, uint32_
 773:Drivers/STM32F0xx_HAL_Driver/Src/stm32f0xx_hal_rtc_ex.c **** {
 774:Drivers/STM32F0xx_HAL_Driver/Src/stm32f0xx_hal_rtc_ex.c ****   uint32_t tickstart = 0U;
 775:Drivers/STM32F0xx_HAL_Driver/Src/stm32f0xx_hal_rtc_ex.c **** 
 776:Drivers/STM32F0xx_HAL_Driver/Src/stm32f0xx_hal_rtc_ex.c ****   /* Check the parameters */
 777:Drivers/STM32F0xx_HAL_Driver/Src/stm32f0xx_hal_rtc_ex.c ****   assert_param(IS_RTC_WAKEUP_CLOCK(WakeUpClock));
 778:Drivers/STM32F0xx_HAL_Driver/Src/stm32f0xx_hal_rtc_ex.c ****   assert_param(IS_RTC_WAKEUP_COUNTER(WakeUpCounter));
 779:Drivers/STM32F0xx_HAL_Driver/Src/stm32f0xx_hal_rtc_ex.c **** 
 780:Drivers/STM32F0xx_HAL_Driver/Src/stm32f0xx_hal_rtc_ex.c ****   /* Process Locked */
 781:Drivers/STM32F0xx_HAL_Driver/Src/stm32f0xx_hal_rtc_ex.c ****   __HAL_LOCK(hrtc);
 782:Drivers/STM32F0xx_HAL_Driver/Src/stm32f0xx_hal_rtc_ex.c **** 
 783:Drivers/STM32F0xx_HAL_Driver/Src/stm32f0xx_hal_rtc_ex.c ****   hrtc->State = HAL_RTC_STATE_BUSY;
ARM GAS  /tmp/ccJbOwNd.s 			page 41


 784:Drivers/STM32F0xx_HAL_Driver/Src/stm32f0xx_hal_rtc_ex.c **** 
 785:Drivers/STM32F0xx_HAL_Driver/Src/stm32f0xx_hal_rtc_ex.c ****   /* Disable the write protection for RTC registers */
 786:Drivers/STM32F0xx_HAL_Driver/Src/stm32f0xx_hal_rtc_ex.c ****   __HAL_RTC_WRITEPROTECTION_DISABLE(hrtc);
 787:Drivers/STM32F0xx_HAL_Driver/Src/stm32f0xx_hal_rtc_ex.c **** 
 788:Drivers/STM32F0xx_HAL_Driver/Src/stm32f0xx_hal_rtc_ex.c ****   /*Check RTC WUTWF flag is reset only when wake up timer enabled*/
 789:Drivers/STM32F0xx_HAL_Driver/Src/stm32f0xx_hal_rtc_ex.c ****   if ((hrtc->Instance->CR & RTC_CR_WUTE) != RESET)
 790:Drivers/STM32F0xx_HAL_Driver/Src/stm32f0xx_hal_rtc_ex.c ****   {
 791:Drivers/STM32F0xx_HAL_Driver/Src/stm32f0xx_hal_rtc_ex.c ****     tickstart = HAL_GetTick();
 792:Drivers/STM32F0xx_HAL_Driver/Src/stm32f0xx_hal_rtc_ex.c **** 
 793:Drivers/STM32F0xx_HAL_Driver/Src/stm32f0xx_hal_rtc_ex.c ****     /* Wait till RTC WUTWF flag is reset and if Time out is reached exit */
 794:Drivers/STM32F0xx_HAL_Driver/Src/stm32f0xx_hal_rtc_ex.c ****     while (__HAL_RTC_WAKEUPTIMER_GET_FLAG(hrtc, RTC_FLAG_WUTWF) == SET)
 795:Drivers/STM32F0xx_HAL_Driver/Src/stm32f0xx_hal_rtc_ex.c ****     {
 796:Drivers/STM32F0xx_HAL_Driver/Src/stm32f0xx_hal_rtc_ex.c ****       if ((HAL_GetTick() - tickstart) > RTC_TIMEOUT_VALUE)
 797:Drivers/STM32F0xx_HAL_Driver/Src/stm32f0xx_hal_rtc_ex.c ****       {
 798:Drivers/STM32F0xx_HAL_Driver/Src/stm32f0xx_hal_rtc_ex.c ****         /* Enable the write protection for RTC registers */
 799:Drivers/STM32F0xx_HAL_Driver/Src/stm32f0xx_hal_rtc_ex.c ****         __HAL_RTC_WRITEPROTECTION_ENABLE(hrtc);
 800:Drivers/STM32F0xx_HAL_Driver/Src/stm32f0xx_hal_rtc_ex.c **** 
 801:Drivers/STM32F0xx_HAL_Driver/Src/stm32f0xx_hal_rtc_ex.c ****         hrtc->State = HAL_RTC_STATE_TIMEOUT;
 802:Drivers/STM32F0xx_HAL_Driver/Src/stm32f0xx_hal_rtc_ex.c **** 
 803:Drivers/STM32F0xx_HAL_Driver/Src/stm32f0xx_hal_rtc_ex.c ****         /* Process Unlocked */
 804:Drivers/STM32F0xx_HAL_Driver/Src/stm32f0xx_hal_rtc_ex.c ****         __HAL_UNLOCK(hrtc);
 805:Drivers/STM32F0xx_HAL_Driver/Src/stm32f0xx_hal_rtc_ex.c **** 
 806:Drivers/STM32F0xx_HAL_Driver/Src/stm32f0xx_hal_rtc_ex.c ****         return HAL_TIMEOUT;
 807:Drivers/STM32F0xx_HAL_Driver/Src/stm32f0xx_hal_rtc_ex.c ****       }
 808:Drivers/STM32F0xx_HAL_Driver/Src/stm32f0xx_hal_rtc_ex.c ****     }
 809:Drivers/STM32F0xx_HAL_Driver/Src/stm32f0xx_hal_rtc_ex.c ****   }
 810:Drivers/STM32F0xx_HAL_Driver/Src/stm32f0xx_hal_rtc_ex.c **** 
 811:Drivers/STM32F0xx_HAL_Driver/Src/stm32f0xx_hal_rtc_ex.c ****   __HAL_RTC_WAKEUPTIMER_DISABLE(hrtc);
 812:Drivers/STM32F0xx_HAL_Driver/Src/stm32f0xx_hal_rtc_ex.c **** 
 813:Drivers/STM32F0xx_HAL_Driver/Src/stm32f0xx_hal_rtc_ex.c ****   tickstart = HAL_GetTick();
 814:Drivers/STM32F0xx_HAL_Driver/Src/stm32f0xx_hal_rtc_ex.c **** 
 815:Drivers/STM32F0xx_HAL_Driver/Src/stm32f0xx_hal_rtc_ex.c ****   /* Wait till RTC WUTWF flag is set and if Time out is reached exit */
 816:Drivers/STM32F0xx_HAL_Driver/Src/stm32f0xx_hal_rtc_ex.c ****   while (__HAL_RTC_WAKEUPTIMER_GET_FLAG(hrtc, RTC_FLAG_WUTWF) == RESET)
 817:Drivers/STM32F0xx_HAL_Driver/Src/stm32f0xx_hal_rtc_ex.c ****   {
 818:Drivers/STM32F0xx_HAL_Driver/Src/stm32f0xx_hal_rtc_ex.c ****     if ((HAL_GetTick() - tickstart) > RTC_TIMEOUT_VALUE)
 819:Drivers/STM32F0xx_HAL_Driver/Src/stm32f0xx_hal_rtc_ex.c ****     {
 820:Drivers/STM32F0xx_HAL_Driver/Src/stm32f0xx_hal_rtc_ex.c ****       /* Enable the write protection for RTC registers */
 821:Drivers/STM32F0xx_HAL_Driver/Src/stm32f0xx_hal_rtc_ex.c ****       __HAL_RTC_WRITEPROTECTION_ENABLE(hrtc);
 822:Drivers/STM32F0xx_HAL_Driver/Src/stm32f0xx_hal_rtc_ex.c **** 
 823:Drivers/STM32F0xx_HAL_Driver/Src/stm32f0xx_hal_rtc_ex.c ****       hrtc->State = HAL_RTC_STATE_TIMEOUT;
 824:Drivers/STM32F0xx_HAL_Driver/Src/stm32f0xx_hal_rtc_ex.c **** 
 825:Drivers/STM32F0xx_HAL_Driver/Src/stm32f0xx_hal_rtc_ex.c ****       /* Process Unlocked */
 826:Drivers/STM32F0xx_HAL_Driver/Src/stm32f0xx_hal_rtc_ex.c ****       __HAL_UNLOCK(hrtc);
 827:Drivers/STM32F0xx_HAL_Driver/Src/stm32f0xx_hal_rtc_ex.c **** 
 828:Drivers/STM32F0xx_HAL_Driver/Src/stm32f0xx_hal_rtc_ex.c ****       return HAL_TIMEOUT;
 829:Drivers/STM32F0xx_HAL_Driver/Src/stm32f0xx_hal_rtc_ex.c ****     }
 830:Drivers/STM32F0xx_HAL_Driver/Src/stm32f0xx_hal_rtc_ex.c ****   }
 831:Drivers/STM32F0xx_HAL_Driver/Src/stm32f0xx_hal_rtc_ex.c **** 
 832:Drivers/STM32F0xx_HAL_Driver/Src/stm32f0xx_hal_rtc_ex.c ****   /* Clear the Wakeup Timer clock source bits in CR register */
 833:Drivers/STM32F0xx_HAL_Driver/Src/stm32f0xx_hal_rtc_ex.c ****   hrtc->Instance->CR &= (uint32_t)~RTC_CR_WUCKSEL;
 834:Drivers/STM32F0xx_HAL_Driver/Src/stm32f0xx_hal_rtc_ex.c **** 
 835:Drivers/STM32F0xx_HAL_Driver/Src/stm32f0xx_hal_rtc_ex.c ****   /* Configure the clock source */
 836:Drivers/STM32F0xx_HAL_Driver/Src/stm32f0xx_hal_rtc_ex.c ****   hrtc->Instance->CR |= (uint32_t)WakeUpClock;
 837:Drivers/STM32F0xx_HAL_Driver/Src/stm32f0xx_hal_rtc_ex.c **** 
 838:Drivers/STM32F0xx_HAL_Driver/Src/stm32f0xx_hal_rtc_ex.c ****   /* Configure the Wakeup Timer counter */
 839:Drivers/STM32F0xx_HAL_Driver/Src/stm32f0xx_hal_rtc_ex.c ****   hrtc->Instance->WUTR = (uint32_t)WakeUpCounter;
 840:Drivers/STM32F0xx_HAL_Driver/Src/stm32f0xx_hal_rtc_ex.c **** 
ARM GAS  /tmp/ccJbOwNd.s 			page 42


 841:Drivers/STM32F0xx_HAL_Driver/Src/stm32f0xx_hal_rtc_ex.c ****   /* Enable the Wakeup Timer */
 842:Drivers/STM32F0xx_HAL_Driver/Src/stm32f0xx_hal_rtc_ex.c ****   __HAL_RTC_WAKEUPTIMER_ENABLE(hrtc);
 843:Drivers/STM32F0xx_HAL_Driver/Src/stm32f0xx_hal_rtc_ex.c **** 
 844:Drivers/STM32F0xx_HAL_Driver/Src/stm32f0xx_hal_rtc_ex.c ****   /* Enable the write protection for RTC registers */
 845:Drivers/STM32F0xx_HAL_Driver/Src/stm32f0xx_hal_rtc_ex.c ****   __HAL_RTC_WRITEPROTECTION_ENABLE(hrtc);
 846:Drivers/STM32F0xx_HAL_Driver/Src/stm32f0xx_hal_rtc_ex.c **** 
 847:Drivers/STM32F0xx_HAL_Driver/Src/stm32f0xx_hal_rtc_ex.c ****   hrtc->State = HAL_RTC_STATE_READY;
 848:Drivers/STM32F0xx_HAL_Driver/Src/stm32f0xx_hal_rtc_ex.c **** 
 849:Drivers/STM32F0xx_HAL_Driver/Src/stm32f0xx_hal_rtc_ex.c ****   /* Process Unlocked */
 850:Drivers/STM32F0xx_HAL_Driver/Src/stm32f0xx_hal_rtc_ex.c ****   __HAL_UNLOCK(hrtc);
 851:Drivers/STM32F0xx_HAL_Driver/Src/stm32f0xx_hal_rtc_ex.c **** 
 852:Drivers/STM32F0xx_HAL_Driver/Src/stm32f0xx_hal_rtc_ex.c ****   return HAL_OK;
 853:Drivers/STM32F0xx_HAL_Driver/Src/stm32f0xx_hal_rtc_ex.c **** }
 854:Drivers/STM32F0xx_HAL_Driver/Src/stm32f0xx_hal_rtc_ex.c **** 
 855:Drivers/STM32F0xx_HAL_Driver/Src/stm32f0xx_hal_rtc_ex.c **** /**
 856:Drivers/STM32F0xx_HAL_Driver/Src/stm32f0xx_hal_rtc_ex.c ****   * @brief  Set wake up timer with interrupt.
 857:Drivers/STM32F0xx_HAL_Driver/Src/stm32f0xx_hal_rtc_ex.c ****   * @param  hrtc RTC handle
 858:Drivers/STM32F0xx_HAL_Driver/Src/stm32f0xx_hal_rtc_ex.c ****   * @param  WakeUpCounter Wake up counter
 859:Drivers/STM32F0xx_HAL_Driver/Src/stm32f0xx_hal_rtc_ex.c ****   * @param  WakeUpClock Wake up clock
 860:Drivers/STM32F0xx_HAL_Driver/Src/stm32f0xx_hal_rtc_ex.c ****   * @retval HAL status
 861:Drivers/STM32F0xx_HAL_Driver/Src/stm32f0xx_hal_rtc_ex.c ****   */
 862:Drivers/STM32F0xx_HAL_Driver/Src/stm32f0xx_hal_rtc_ex.c **** HAL_StatusTypeDef HAL_RTCEx_SetWakeUpTimer_IT(RTC_HandleTypeDef *hrtc, uint32_t WakeUpCounter, uint
 863:Drivers/STM32F0xx_HAL_Driver/Src/stm32f0xx_hal_rtc_ex.c **** {
 864:Drivers/STM32F0xx_HAL_Driver/Src/stm32f0xx_hal_rtc_ex.c ****   uint32_t tickstart = 0U;
 865:Drivers/STM32F0xx_HAL_Driver/Src/stm32f0xx_hal_rtc_ex.c **** 
 866:Drivers/STM32F0xx_HAL_Driver/Src/stm32f0xx_hal_rtc_ex.c ****   /* Check the parameters */
 867:Drivers/STM32F0xx_HAL_Driver/Src/stm32f0xx_hal_rtc_ex.c ****   assert_param(IS_RTC_WAKEUP_CLOCK(WakeUpClock));
 868:Drivers/STM32F0xx_HAL_Driver/Src/stm32f0xx_hal_rtc_ex.c ****   assert_param(IS_RTC_WAKEUP_COUNTER(WakeUpCounter));
 869:Drivers/STM32F0xx_HAL_Driver/Src/stm32f0xx_hal_rtc_ex.c **** 
 870:Drivers/STM32F0xx_HAL_Driver/Src/stm32f0xx_hal_rtc_ex.c ****   /* Process Locked */
 871:Drivers/STM32F0xx_HAL_Driver/Src/stm32f0xx_hal_rtc_ex.c ****   __HAL_LOCK(hrtc);
 872:Drivers/STM32F0xx_HAL_Driver/Src/stm32f0xx_hal_rtc_ex.c **** 
 873:Drivers/STM32F0xx_HAL_Driver/Src/stm32f0xx_hal_rtc_ex.c ****   hrtc->State = HAL_RTC_STATE_BUSY;
 874:Drivers/STM32F0xx_HAL_Driver/Src/stm32f0xx_hal_rtc_ex.c **** 
 875:Drivers/STM32F0xx_HAL_Driver/Src/stm32f0xx_hal_rtc_ex.c ****   /* Disable the write protection for RTC registers */
 876:Drivers/STM32F0xx_HAL_Driver/Src/stm32f0xx_hal_rtc_ex.c ****   __HAL_RTC_WRITEPROTECTION_DISABLE(hrtc);
 877:Drivers/STM32F0xx_HAL_Driver/Src/stm32f0xx_hal_rtc_ex.c **** 
 878:Drivers/STM32F0xx_HAL_Driver/Src/stm32f0xx_hal_rtc_ex.c ****   /*Check RTC WUTWF flag is reset only when wake up timer enabled*/
 879:Drivers/STM32F0xx_HAL_Driver/Src/stm32f0xx_hal_rtc_ex.c ****   if ((hrtc->Instance->CR & RTC_CR_WUTE) != RESET)
 880:Drivers/STM32F0xx_HAL_Driver/Src/stm32f0xx_hal_rtc_ex.c ****   {
 881:Drivers/STM32F0xx_HAL_Driver/Src/stm32f0xx_hal_rtc_ex.c ****     tickstart = HAL_GetTick();
 882:Drivers/STM32F0xx_HAL_Driver/Src/stm32f0xx_hal_rtc_ex.c **** 
 883:Drivers/STM32F0xx_HAL_Driver/Src/stm32f0xx_hal_rtc_ex.c ****     /* Wait till RTC WUTWF flag is reset and if Time out is reached exit */
 884:Drivers/STM32F0xx_HAL_Driver/Src/stm32f0xx_hal_rtc_ex.c ****     while (__HAL_RTC_WAKEUPTIMER_GET_FLAG(hrtc, RTC_FLAG_WUTWF) == SET)
 885:Drivers/STM32F0xx_HAL_Driver/Src/stm32f0xx_hal_rtc_ex.c ****     {
 886:Drivers/STM32F0xx_HAL_Driver/Src/stm32f0xx_hal_rtc_ex.c ****       if ((HAL_GetTick() - tickstart) > RTC_TIMEOUT_VALUE)
 887:Drivers/STM32F0xx_HAL_Driver/Src/stm32f0xx_hal_rtc_ex.c ****       {
 888:Drivers/STM32F0xx_HAL_Driver/Src/stm32f0xx_hal_rtc_ex.c ****         /* Enable the write protection for RTC registers */
 889:Drivers/STM32F0xx_HAL_Driver/Src/stm32f0xx_hal_rtc_ex.c ****         __HAL_RTC_WRITEPROTECTION_ENABLE(hrtc);
 890:Drivers/STM32F0xx_HAL_Driver/Src/stm32f0xx_hal_rtc_ex.c **** 
 891:Drivers/STM32F0xx_HAL_Driver/Src/stm32f0xx_hal_rtc_ex.c ****         hrtc->State = HAL_RTC_STATE_TIMEOUT;
 892:Drivers/STM32F0xx_HAL_Driver/Src/stm32f0xx_hal_rtc_ex.c **** 
 893:Drivers/STM32F0xx_HAL_Driver/Src/stm32f0xx_hal_rtc_ex.c ****         /* Process Unlocked */
 894:Drivers/STM32F0xx_HAL_Driver/Src/stm32f0xx_hal_rtc_ex.c ****         __HAL_UNLOCK(hrtc);
 895:Drivers/STM32F0xx_HAL_Driver/Src/stm32f0xx_hal_rtc_ex.c **** 
 896:Drivers/STM32F0xx_HAL_Driver/Src/stm32f0xx_hal_rtc_ex.c ****         return HAL_TIMEOUT;
 897:Drivers/STM32F0xx_HAL_Driver/Src/stm32f0xx_hal_rtc_ex.c ****       }
ARM GAS  /tmp/ccJbOwNd.s 			page 43


 898:Drivers/STM32F0xx_HAL_Driver/Src/stm32f0xx_hal_rtc_ex.c ****     }
 899:Drivers/STM32F0xx_HAL_Driver/Src/stm32f0xx_hal_rtc_ex.c ****   }
 900:Drivers/STM32F0xx_HAL_Driver/Src/stm32f0xx_hal_rtc_ex.c **** 
 901:Drivers/STM32F0xx_HAL_Driver/Src/stm32f0xx_hal_rtc_ex.c ****   /* Disable the Wake-Up timer */
 902:Drivers/STM32F0xx_HAL_Driver/Src/stm32f0xx_hal_rtc_ex.c ****   __HAL_RTC_WAKEUPTIMER_DISABLE(hrtc);
 903:Drivers/STM32F0xx_HAL_Driver/Src/stm32f0xx_hal_rtc_ex.c **** 
 904:Drivers/STM32F0xx_HAL_Driver/Src/stm32f0xx_hal_rtc_ex.c ****   /* Clear flag Wake-Up */
 905:Drivers/STM32F0xx_HAL_Driver/Src/stm32f0xx_hal_rtc_ex.c ****   __HAL_RTC_WAKEUPTIMER_CLEAR_FLAG(hrtc, RTC_FLAG_WUTF);
 906:Drivers/STM32F0xx_HAL_Driver/Src/stm32f0xx_hal_rtc_ex.c **** 
 907:Drivers/STM32F0xx_HAL_Driver/Src/stm32f0xx_hal_rtc_ex.c ****   tickstart = HAL_GetTick();
 908:Drivers/STM32F0xx_HAL_Driver/Src/stm32f0xx_hal_rtc_ex.c **** 
 909:Drivers/STM32F0xx_HAL_Driver/Src/stm32f0xx_hal_rtc_ex.c ****   /* Wait till RTC WUTWF flag is set and if Time out is reached exit */
 910:Drivers/STM32F0xx_HAL_Driver/Src/stm32f0xx_hal_rtc_ex.c ****   while (__HAL_RTC_WAKEUPTIMER_GET_FLAG(hrtc, RTC_FLAG_WUTWF) == RESET)
 911:Drivers/STM32F0xx_HAL_Driver/Src/stm32f0xx_hal_rtc_ex.c ****   {
 912:Drivers/STM32F0xx_HAL_Driver/Src/stm32f0xx_hal_rtc_ex.c ****     if ((HAL_GetTick() - tickstart) > RTC_TIMEOUT_VALUE)
 913:Drivers/STM32F0xx_HAL_Driver/Src/stm32f0xx_hal_rtc_ex.c ****     {
 914:Drivers/STM32F0xx_HAL_Driver/Src/stm32f0xx_hal_rtc_ex.c ****       /* Enable the write protection for RTC registers */
 915:Drivers/STM32F0xx_HAL_Driver/Src/stm32f0xx_hal_rtc_ex.c ****       __HAL_RTC_WRITEPROTECTION_ENABLE(hrtc);
 916:Drivers/STM32F0xx_HAL_Driver/Src/stm32f0xx_hal_rtc_ex.c **** 
 917:Drivers/STM32F0xx_HAL_Driver/Src/stm32f0xx_hal_rtc_ex.c ****       hrtc->State = HAL_RTC_STATE_TIMEOUT;
 918:Drivers/STM32F0xx_HAL_Driver/Src/stm32f0xx_hal_rtc_ex.c **** 
 919:Drivers/STM32F0xx_HAL_Driver/Src/stm32f0xx_hal_rtc_ex.c ****       /* Process Unlocked */
 920:Drivers/STM32F0xx_HAL_Driver/Src/stm32f0xx_hal_rtc_ex.c ****       __HAL_UNLOCK(hrtc);
 921:Drivers/STM32F0xx_HAL_Driver/Src/stm32f0xx_hal_rtc_ex.c **** 
 922:Drivers/STM32F0xx_HAL_Driver/Src/stm32f0xx_hal_rtc_ex.c ****       return HAL_TIMEOUT;
 923:Drivers/STM32F0xx_HAL_Driver/Src/stm32f0xx_hal_rtc_ex.c ****     }
 924:Drivers/STM32F0xx_HAL_Driver/Src/stm32f0xx_hal_rtc_ex.c ****   }
 925:Drivers/STM32F0xx_HAL_Driver/Src/stm32f0xx_hal_rtc_ex.c **** 
 926:Drivers/STM32F0xx_HAL_Driver/Src/stm32f0xx_hal_rtc_ex.c ****   /* Configure the Wakeup Timer counter */
 927:Drivers/STM32F0xx_HAL_Driver/Src/stm32f0xx_hal_rtc_ex.c ****   hrtc->Instance->WUTR = (uint32_t)WakeUpCounter;
 928:Drivers/STM32F0xx_HAL_Driver/Src/stm32f0xx_hal_rtc_ex.c **** 
 929:Drivers/STM32F0xx_HAL_Driver/Src/stm32f0xx_hal_rtc_ex.c ****   /* Clear the Wakeup Timer clock source bits in CR register */
 930:Drivers/STM32F0xx_HAL_Driver/Src/stm32f0xx_hal_rtc_ex.c ****   hrtc->Instance->CR &= (uint32_t)~RTC_CR_WUCKSEL;
 931:Drivers/STM32F0xx_HAL_Driver/Src/stm32f0xx_hal_rtc_ex.c **** 
 932:Drivers/STM32F0xx_HAL_Driver/Src/stm32f0xx_hal_rtc_ex.c ****   /* Configure the clock source */
 933:Drivers/STM32F0xx_HAL_Driver/Src/stm32f0xx_hal_rtc_ex.c ****   hrtc->Instance->CR |= (uint32_t)WakeUpClock;
 934:Drivers/STM32F0xx_HAL_Driver/Src/stm32f0xx_hal_rtc_ex.c **** 
 935:Drivers/STM32F0xx_HAL_Driver/Src/stm32f0xx_hal_rtc_ex.c ****   /* RTC WakeUpTimer Interrupt Configuration: EXTI configuration */
 936:Drivers/STM32F0xx_HAL_Driver/Src/stm32f0xx_hal_rtc_ex.c ****   __HAL_RTC_WAKEUPTIMER_EXTI_ENABLE_IT();
 937:Drivers/STM32F0xx_HAL_Driver/Src/stm32f0xx_hal_rtc_ex.c **** 
 938:Drivers/STM32F0xx_HAL_Driver/Src/stm32f0xx_hal_rtc_ex.c ****   __HAL_RTC_WAKEUPTIMER_EXTI_ENABLE_RISING_EDGE();
 939:Drivers/STM32F0xx_HAL_Driver/Src/stm32f0xx_hal_rtc_ex.c **** 
 940:Drivers/STM32F0xx_HAL_Driver/Src/stm32f0xx_hal_rtc_ex.c ****   /* Configure the Interrupt in the RTC_CR register */
 941:Drivers/STM32F0xx_HAL_Driver/Src/stm32f0xx_hal_rtc_ex.c ****   __HAL_RTC_WAKEUPTIMER_ENABLE_IT(hrtc, RTC_IT_WUT);
 942:Drivers/STM32F0xx_HAL_Driver/Src/stm32f0xx_hal_rtc_ex.c **** 
 943:Drivers/STM32F0xx_HAL_Driver/Src/stm32f0xx_hal_rtc_ex.c ****   /* Enable the Wakeup Timer */
 944:Drivers/STM32F0xx_HAL_Driver/Src/stm32f0xx_hal_rtc_ex.c ****   __HAL_RTC_WAKEUPTIMER_ENABLE(hrtc);
 945:Drivers/STM32F0xx_HAL_Driver/Src/stm32f0xx_hal_rtc_ex.c **** 
 946:Drivers/STM32F0xx_HAL_Driver/Src/stm32f0xx_hal_rtc_ex.c ****   /* Enable the write protection for RTC registers */
 947:Drivers/STM32F0xx_HAL_Driver/Src/stm32f0xx_hal_rtc_ex.c ****   __HAL_RTC_WRITEPROTECTION_ENABLE(hrtc);
 948:Drivers/STM32F0xx_HAL_Driver/Src/stm32f0xx_hal_rtc_ex.c **** 
 949:Drivers/STM32F0xx_HAL_Driver/Src/stm32f0xx_hal_rtc_ex.c ****   hrtc->State = HAL_RTC_STATE_READY;
 950:Drivers/STM32F0xx_HAL_Driver/Src/stm32f0xx_hal_rtc_ex.c **** 
 951:Drivers/STM32F0xx_HAL_Driver/Src/stm32f0xx_hal_rtc_ex.c ****   /* Process Unlocked */
 952:Drivers/STM32F0xx_HAL_Driver/Src/stm32f0xx_hal_rtc_ex.c ****   __HAL_UNLOCK(hrtc);
 953:Drivers/STM32F0xx_HAL_Driver/Src/stm32f0xx_hal_rtc_ex.c **** 
 954:Drivers/STM32F0xx_HAL_Driver/Src/stm32f0xx_hal_rtc_ex.c ****   return HAL_OK;
ARM GAS  /tmp/ccJbOwNd.s 			page 44


 955:Drivers/STM32F0xx_HAL_Driver/Src/stm32f0xx_hal_rtc_ex.c **** }
 956:Drivers/STM32F0xx_HAL_Driver/Src/stm32f0xx_hal_rtc_ex.c **** 
 957:Drivers/STM32F0xx_HAL_Driver/Src/stm32f0xx_hal_rtc_ex.c **** /**
 958:Drivers/STM32F0xx_HAL_Driver/Src/stm32f0xx_hal_rtc_ex.c ****   * @brief  Deactivate wake up timer counter.
 959:Drivers/STM32F0xx_HAL_Driver/Src/stm32f0xx_hal_rtc_ex.c ****   * @param  hrtc RTC handle
 960:Drivers/STM32F0xx_HAL_Driver/Src/stm32f0xx_hal_rtc_ex.c ****   * @retval HAL status
 961:Drivers/STM32F0xx_HAL_Driver/Src/stm32f0xx_hal_rtc_ex.c ****   */
 962:Drivers/STM32F0xx_HAL_Driver/Src/stm32f0xx_hal_rtc_ex.c **** uint32_t HAL_RTCEx_DeactivateWakeUpTimer(RTC_HandleTypeDef *hrtc)
 963:Drivers/STM32F0xx_HAL_Driver/Src/stm32f0xx_hal_rtc_ex.c **** {
 964:Drivers/STM32F0xx_HAL_Driver/Src/stm32f0xx_hal_rtc_ex.c ****   uint32_t tickstart = 0U;
 965:Drivers/STM32F0xx_HAL_Driver/Src/stm32f0xx_hal_rtc_ex.c **** 
 966:Drivers/STM32F0xx_HAL_Driver/Src/stm32f0xx_hal_rtc_ex.c ****   /* Process Locked */
 967:Drivers/STM32F0xx_HAL_Driver/Src/stm32f0xx_hal_rtc_ex.c ****   __HAL_LOCK(hrtc);
 968:Drivers/STM32F0xx_HAL_Driver/Src/stm32f0xx_hal_rtc_ex.c **** 
 969:Drivers/STM32F0xx_HAL_Driver/Src/stm32f0xx_hal_rtc_ex.c ****   hrtc->State = HAL_RTC_STATE_BUSY;
 970:Drivers/STM32F0xx_HAL_Driver/Src/stm32f0xx_hal_rtc_ex.c **** 
 971:Drivers/STM32F0xx_HAL_Driver/Src/stm32f0xx_hal_rtc_ex.c ****   /* Disable the write protection for RTC registers */
 972:Drivers/STM32F0xx_HAL_Driver/Src/stm32f0xx_hal_rtc_ex.c ****   __HAL_RTC_WRITEPROTECTION_DISABLE(hrtc);
 973:Drivers/STM32F0xx_HAL_Driver/Src/stm32f0xx_hal_rtc_ex.c **** 
 974:Drivers/STM32F0xx_HAL_Driver/Src/stm32f0xx_hal_rtc_ex.c ****   /* Disable the Wakeup Timer */
 975:Drivers/STM32F0xx_HAL_Driver/Src/stm32f0xx_hal_rtc_ex.c ****   __HAL_RTC_WAKEUPTIMER_DISABLE(hrtc);
 976:Drivers/STM32F0xx_HAL_Driver/Src/stm32f0xx_hal_rtc_ex.c **** 
 977:Drivers/STM32F0xx_HAL_Driver/Src/stm32f0xx_hal_rtc_ex.c ****   /* In case of interrupt mode is used, the interrupt source must disabled */
 978:Drivers/STM32F0xx_HAL_Driver/Src/stm32f0xx_hal_rtc_ex.c ****   __HAL_RTC_WAKEUPTIMER_DISABLE_IT(hrtc, RTC_IT_WUT);
 979:Drivers/STM32F0xx_HAL_Driver/Src/stm32f0xx_hal_rtc_ex.c **** 
 980:Drivers/STM32F0xx_HAL_Driver/Src/stm32f0xx_hal_rtc_ex.c ****   tickstart = HAL_GetTick();
 981:Drivers/STM32F0xx_HAL_Driver/Src/stm32f0xx_hal_rtc_ex.c ****   /* Wait till RTC WUTWF flag is set and if Time out is reached exit */
 982:Drivers/STM32F0xx_HAL_Driver/Src/stm32f0xx_hal_rtc_ex.c ****   while (__HAL_RTC_WAKEUPTIMER_GET_FLAG(hrtc, RTC_FLAG_WUTWF) == RESET)
 983:Drivers/STM32F0xx_HAL_Driver/Src/stm32f0xx_hal_rtc_ex.c ****   {
 984:Drivers/STM32F0xx_HAL_Driver/Src/stm32f0xx_hal_rtc_ex.c ****     if ((HAL_GetTick() - tickstart) > RTC_TIMEOUT_VALUE)
 985:Drivers/STM32F0xx_HAL_Driver/Src/stm32f0xx_hal_rtc_ex.c ****     {
 986:Drivers/STM32F0xx_HAL_Driver/Src/stm32f0xx_hal_rtc_ex.c ****       /* Enable the write protection for RTC registers */
 987:Drivers/STM32F0xx_HAL_Driver/Src/stm32f0xx_hal_rtc_ex.c ****       __HAL_RTC_WRITEPROTECTION_ENABLE(hrtc);
 988:Drivers/STM32F0xx_HAL_Driver/Src/stm32f0xx_hal_rtc_ex.c **** 
 989:Drivers/STM32F0xx_HAL_Driver/Src/stm32f0xx_hal_rtc_ex.c ****       hrtc->State = HAL_RTC_STATE_TIMEOUT;
 990:Drivers/STM32F0xx_HAL_Driver/Src/stm32f0xx_hal_rtc_ex.c **** 
 991:Drivers/STM32F0xx_HAL_Driver/Src/stm32f0xx_hal_rtc_ex.c ****       /* Process Unlocked */
 992:Drivers/STM32F0xx_HAL_Driver/Src/stm32f0xx_hal_rtc_ex.c ****       __HAL_UNLOCK(hrtc);
 993:Drivers/STM32F0xx_HAL_Driver/Src/stm32f0xx_hal_rtc_ex.c **** 
 994:Drivers/STM32F0xx_HAL_Driver/Src/stm32f0xx_hal_rtc_ex.c ****       return HAL_TIMEOUT;
 995:Drivers/STM32F0xx_HAL_Driver/Src/stm32f0xx_hal_rtc_ex.c ****     }
 996:Drivers/STM32F0xx_HAL_Driver/Src/stm32f0xx_hal_rtc_ex.c ****   }
 997:Drivers/STM32F0xx_HAL_Driver/Src/stm32f0xx_hal_rtc_ex.c **** 
 998:Drivers/STM32F0xx_HAL_Driver/Src/stm32f0xx_hal_rtc_ex.c ****   /* Enable the write protection for RTC registers */
 999:Drivers/STM32F0xx_HAL_Driver/Src/stm32f0xx_hal_rtc_ex.c ****   __HAL_RTC_WRITEPROTECTION_ENABLE(hrtc);
1000:Drivers/STM32F0xx_HAL_Driver/Src/stm32f0xx_hal_rtc_ex.c **** 
1001:Drivers/STM32F0xx_HAL_Driver/Src/stm32f0xx_hal_rtc_ex.c ****   hrtc->State = HAL_RTC_STATE_READY;
1002:Drivers/STM32F0xx_HAL_Driver/Src/stm32f0xx_hal_rtc_ex.c **** 
1003:Drivers/STM32F0xx_HAL_Driver/Src/stm32f0xx_hal_rtc_ex.c ****   /* Process Unlocked */
1004:Drivers/STM32F0xx_HAL_Driver/Src/stm32f0xx_hal_rtc_ex.c ****   __HAL_UNLOCK(hrtc);
1005:Drivers/STM32F0xx_HAL_Driver/Src/stm32f0xx_hal_rtc_ex.c **** 
1006:Drivers/STM32F0xx_HAL_Driver/Src/stm32f0xx_hal_rtc_ex.c ****   return HAL_OK;
1007:Drivers/STM32F0xx_HAL_Driver/Src/stm32f0xx_hal_rtc_ex.c **** }
1008:Drivers/STM32F0xx_HAL_Driver/Src/stm32f0xx_hal_rtc_ex.c **** 
1009:Drivers/STM32F0xx_HAL_Driver/Src/stm32f0xx_hal_rtc_ex.c **** /**
1010:Drivers/STM32F0xx_HAL_Driver/Src/stm32f0xx_hal_rtc_ex.c ****   * @brief  Get wake up timer counter.
1011:Drivers/STM32F0xx_HAL_Driver/Src/stm32f0xx_hal_rtc_ex.c ****   * @param  hrtc RTC handle
ARM GAS  /tmp/ccJbOwNd.s 			page 45


1012:Drivers/STM32F0xx_HAL_Driver/Src/stm32f0xx_hal_rtc_ex.c ****   * @retval Counter value
1013:Drivers/STM32F0xx_HAL_Driver/Src/stm32f0xx_hal_rtc_ex.c ****   */
1014:Drivers/STM32F0xx_HAL_Driver/Src/stm32f0xx_hal_rtc_ex.c **** uint32_t HAL_RTCEx_GetWakeUpTimer(RTC_HandleTypeDef *hrtc)
1015:Drivers/STM32F0xx_HAL_Driver/Src/stm32f0xx_hal_rtc_ex.c **** {
1016:Drivers/STM32F0xx_HAL_Driver/Src/stm32f0xx_hal_rtc_ex.c ****   /* Get the counter value */
1017:Drivers/STM32F0xx_HAL_Driver/Src/stm32f0xx_hal_rtc_ex.c ****   return ((uint32_t)(hrtc->Instance->WUTR & RTC_WUTR_WUT));
1018:Drivers/STM32F0xx_HAL_Driver/Src/stm32f0xx_hal_rtc_ex.c **** }
1019:Drivers/STM32F0xx_HAL_Driver/Src/stm32f0xx_hal_rtc_ex.c **** 
1020:Drivers/STM32F0xx_HAL_Driver/Src/stm32f0xx_hal_rtc_ex.c **** /**
1021:Drivers/STM32F0xx_HAL_Driver/Src/stm32f0xx_hal_rtc_ex.c ****   * @brief  Handle Wake Up Timer interrupt request.
1022:Drivers/STM32F0xx_HAL_Driver/Src/stm32f0xx_hal_rtc_ex.c ****   * @param  hrtc RTC handle
1023:Drivers/STM32F0xx_HAL_Driver/Src/stm32f0xx_hal_rtc_ex.c ****   * @retval None
1024:Drivers/STM32F0xx_HAL_Driver/Src/stm32f0xx_hal_rtc_ex.c ****   */
1025:Drivers/STM32F0xx_HAL_Driver/Src/stm32f0xx_hal_rtc_ex.c **** void HAL_RTCEx_WakeUpTimerIRQHandler(RTC_HandleTypeDef *hrtc)
1026:Drivers/STM32F0xx_HAL_Driver/Src/stm32f0xx_hal_rtc_ex.c **** {
1027:Drivers/STM32F0xx_HAL_Driver/Src/stm32f0xx_hal_rtc_ex.c ****   /* Get the WAKEUPTIMER interrupt source enable status */
1028:Drivers/STM32F0xx_HAL_Driver/Src/stm32f0xx_hal_rtc_ex.c ****   if (__HAL_RTC_WAKEUPTIMER_GET_IT_SOURCE(hrtc, RTC_IT_WUT) != RESET)
1029:Drivers/STM32F0xx_HAL_Driver/Src/stm32f0xx_hal_rtc_ex.c ****   {
1030:Drivers/STM32F0xx_HAL_Driver/Src/stm32f0xx_hal_rtc_ex.c ****     /* Get the pending status of the WAKEUPTIMER Interrupt */
1031:Drivers/STM32F0xx_HAL_Driver/Src/stm32f0xx_hal_rtc_ex.c ****     if (__HAL_RTC_WAKEUPTIMER_GET_FLAG(hrtc, RTC_FLAG_WUTF) != RESET)
1032:Drivers/STM32F0xx_HAL_Driver/Src/stm32f0xx_hal_rtc_ex.c ****     {
1033:Drivers/STM32F0xx_HAL_Driver/Src/stm32f0xx_hal_rtc_ex.c ****       /* WAKEUPTIMER callback */
1034:Drivers/STM32F0xx_HAL_Driver/Src/stm32f0xx_hal_rtc_ex.c **** #if (USE_HAL_RTC_REGISTER_CALLBACKS == 1)
1035:Drivers/STM32F0xx_HAL_Driver/Src/stm32f0xx_hal_rtc_ex.c ****       hrtc->WakeUpTimerEventCallback(hrtc);
1036:Drivers/STM32F0xx_HAL_Driver/Src/stm32f0xx_hal_rtc_ex.c **** #else
1037:Drivers/STM32F0xx_HAL_Driver/Src/stm32f0xx_hal_rtc_ex.c ****       HAL_RTCEx_WakeUpTimerEventCallback(hrtc);
1038:Drivers/STM32F0xx_HAL_Driver/Src/stm32f0xx_hal_rtc_ex.c **** #endif /* USE_HAL_RTC_REGISTER_CALLBACKS */
1039:Drivers/STM32F0xx_HAL_Driver/Src/stm32f0xx_hal_rtc_ex.c **** 
1040:Drivers/STM32F0xx_HAL_Driver/Src/stm32f0xx_hal_rtc_ex.c ****       /* Clear the WAKEUPTIMER interrupt pending bit */
1041:Drivers/STM32F0xx_HAL_Driver/Src/stm32f0xx_hal_rtc_ex.c ****       __HAL_RTC_WAKEUPTIMER_CLEAR_FLAG(hrtc, RTC_FLAG_WUTF);
1042:Drivers/STM32F0xx_HAL_Driver/Src/stm32f0xx_hal_rtc_ex.c ****     }
1043:Drivers/STM32F0xx_HAL_Driver/Src/stm32f0xx_hal_rtc_ex.c ****   }
1044:Drivers/STM32F0xx_HAL_Driver/Src/stm32f0xx_hal_rtc_ex.c **** 
1045:Drivers/STM32F0xx_HAL_Driver/Src/stm32f0xx_hal_rtc_ex.c ****   /* Clear the EXTI's line Flag for RTC WakeUpTimer */
1046:Drivers/STM32F0xx_HAL_Driver/Src/stm32f0xx_hal_rtc_ex.c ****   __HAL_RTC_WAKEUPTIMER_EXTI_CLEAR_FLAG();
1047:Drivers/STM32F0xx_HAL_Driver/Src/stm32f0xx_hal_rtc_ex.c **** 
1048:Drivers/STM32F0xx_HAL_Driver/Src/stm32f0xx_hal_rtc_ex.c ****   /* Change RTC state */
1049:Drivers/STM32F0xx_HAL_Driver/Src/stm32f0xx_hal_rtc_ex.c ****   hrtc->State = HAL_RTC_STATE_READY;
1050:Drivers/STM32F0xx_HAL_Driver/Src/stm32f0xx_hal_rtc_ex.c **** }
1051:Drivers/STM32F0xx_HAL_Driver/Src/stm32f0xx_hal_rtc_ex.c **** 
1052:Drivers/STM32F0xx_HAL_Driver/Src/stm32f0xx_hal_rtc_ex.c **** /**
1053:Drivers/STM32F0xx_HAL_Driver/Src/stm32f0xx_hal_rtc_ex.c ****   * @brief  Wake Up Timer callback.
1054:Drivers/STM32F0xx_HAL_Driver/Src/stm32f0xx_hal_rtc_ex.c ****   * @param  hrtc RTC handle
1055:Drivers/STM32F0xx_HAL_Driver/Src/stm32f0xx_hal_rtc_ex.c ****   * @retval None
1056:Drivers/STM32F0xx_HAL_Driver/Src/stm32f0xx_hal_rtc_ex.c ****   */
1057:Drivers/STM32F0xx_HAL_Driver/Src/stm32f0xx_hal_rtc_ex.c **** __weak void HAL_RTCEx_WakeUpTimerEventCallback(RTC_HandleTypeDef *hrtc)
1058:Drivers/STM32F0xx_HAL_Driver/Src/stm32f0xx_hal_rtc_ex.c **** {
1059:Drivers/STM32F0xx_HAL_Driver/Src/stm32f0xx_hal_rtc_ex.c ****   /* Prevent unused argument(s) compilation warning */
1060:Drivers/STM32F0xx_HAL_Driver/Src/stm32f0xx_hal_rtc_ex.c ****   UNUSED(hrtc);
1061:Drivers/STM32F0xx_HAL_Driver/Src/stm32f0xx_hal_rtc_ex.c **** 
1062:Drivers/STM32F0xx_HAL_Driver/Src/stm32f0xx_hal_rtc_ex.c ****   /* NOTE : This function should not be modified, when the callback is needed,
1063:Drivers/STM32F0xx_HAL_Driver/Src/stm32f0xx_hal_rtc_ex.c ****             the HAL_RTCEx_WakeUpTimerEventCallback could be implemented in the user file
1064:Drivers/STM32F0xx_HAL_Driver/Src/stm32f0xx_hal_rtc_ex.c ****    */
1065:Drivers/STM32F0xx_HAL_Driver/Src/stm32f0xx_hal_rtc_ex.c **** }
1066:Drivers/STM32F0xx_HAL_Driver/Src/stm32f0xx_hal_rtc_ex.c **** 
1067:Drivers/STM32F0xx_HAL_Driver/Src/stm32f0xx_hal_rtc_ex.c **** 
1068:Drivers/STM32F0xx_HAL_Driver/Src/stm32f0xx_hal_rtc_ex.c **** /**
ARM GAS  /tmp/ccJbOwNd.s 			page 46


1069:Drivers/STM32F0xx_HAL_Driver/Src/stm32f0xx_hal_rtc_ex.c ****   * @brief  Handle Wake Up Timer Polling.
1070:Drivers/STM32F0xx_HAL_Driver/Src/stm32f0xx_hal_rtc_ex.c ****   * @param  hrtc RTC handle
1071:Drivers/STM32F0xx_HAL_Driver/Src/stm32f0xx_hal_rtc_ex.c ****   * @param  Timeout Timeout duration
1072:Drivers/STM32F0xx_HAL_Driver/Src/stm32f0xx_hal_rtc_ex.c ****   * @retval HAL status
1073:Drivers/STM32F0xx_HAL_Driver/Src/stm32f0xx_hal_rtc_ex.c ****   */
1074:Drivers/STM32F0xx_HAL_Driver/Src/stm32f0xx_hal_rtc_ex.c **** HAL_StatusTypeDef HAL_RTCEx_PollForWakeUpTimerEvent(RTC_HandleTypeDef *hrtc, uint32_t Timeout)
1075:Drivers/STM32F0xx_HAL_Driver/Src/stm32f0xx_hal_rtc_ex.c **** {
1076:Drivers/STM32F0xx_HAL_Driver/Src/stm32f0xx_hal_rtc_ex.c ****   uint32_t tickstart = HAL_GetTick();
1077:Drivers/STM32F0xx_HAL_Driver/Src/stm32f0xx_hal_rtc_ex.c **** 
1078:Drivers/STM32F0xx_HAL_Driver/Src/stm32f0xx_hal_rtc_ex.c ****   while (__HAL_RTC_WAKEUPTIMER_GET_FLAG(hrtc, RTC_FLAG_WUTF) == RESET)
1079:Drivers/STM32F0xx_HAL_Driver/Src/stm32f0xx_hal_rtc_ex.c ****   {
1080:Drivers/STM32F0xx_HAL_Driver/Src/stm32f0xx_hal_rtc_ex.c ****     if (Timeout != HAL_MAX_DELAY)
1081:Drivers/STM32F0xx_HAL_Driver/Src/stm32f0xx_hal_rtc_ex.c ****     {
1082:Drivers/STM32F0xx_HAL_Driver/Src/stm32f0xx_hal_rtc_ex.c ****       if ((Timeout == 0U) || ((HAL_GetTick() - tickstart) > Timeout))
1083:Drivers/STM32F0xx_HAL_Driver/Src/stm32f0xx_hal_rtc_ex.c ****       {
1084:Drivers/STM32F0xx_HAL_Driver/Src/stm32f0xx_hal_rtc_ex.c ****         hrtc->State = HAL_RTC_STATE_TIMEOUT;
1085:Drivers/STM32F0xx_HAL_Driver/Src/stm32f0xx_hal_rtc_ex.c **** 
1086:Drivers/STM32F0xx_HAL_Driver/Src/stm32f0xx_hal_rtc_ex.c ****         return HAL_TIMEOUT;
1087:Drivers/STM32F0xx_HAL_Driver/Src/stm32f0xx_hal_rtc_ex.c ****       }
1088:Drivers/STM32F0xx_HAL_Driver/Src/stm32f0xx_hal_rtc_ex.c ****     }
1089:Drivers/STM32F0xx_HAL_Driver/Src/stm32f0xx_hal_rtc_ex.c ****   }
1090:Drivers/STM32F0xx_HAL_Driver/Src/stm32f0xx_hal_rtc_ex.c **** 
1091:Drivers/STM32F0xx_HAL_Driver/Src/stm32f0xx_hal_rtc_ex.c ****   /* Clear the WAKEUPTIMER Flag */
1092:Drivers/STM32F0xx_HAL_Driver/Src/stm32f0xx_hal_rtc_ex.c ****   __HAL_RTC_WAKEUPTIMER_CLEAR_FLAG(hrtc, RTC_FLAG_WUTF);
1093:Drivers/STM32F0xx_HAL_Driver/Src/stm32f0xx_hal_rtc_ex.c **** 
1094:Drivers/STM32F0xx_HAL_Driver/Src/stm32f0xx_hal_rtc_ex.c ****   /* Change RTC state */
1095:Drivers/STM32F0xx_HAL_Driver/Src/stm32f0xx_hal_rtc_ex.c ****   hrtc->State = HAL_RTC_STATE_READY;
1096:Drivers/STM32F0xx_HAL_Driver/Src/stm32f0xx_hal_rtc_ex.c **** 
1097:Drivers/STM32F0xx_HAL_Driver/Src/stm32f0xx_hal_rtc_ex.c ****   return HAL_OK;
1098:Drivers/STM32F0xx_HAL_Driver/Src/stm32f0xx_hal_rtc_ex.c **** }
1099:Drivers/STM32F0xx_HAL_Driver/Src/stm32f0xx_hal_rtc_ex.c **** 
1100:Drivers/STM32F0xx_HAL_Driver/Src/stm32f0xx_hal_rtc_ex.c **** /**
1101:Drivers/STM32F0xx_HAL_Driver/Src/stm32f0xx_hal_rtc_ex.c ****   * @}
1102:Drivers/STM32F0xx_HAL_Driver/Src/stm32f0xx_hal_rtc_ex.c ****   */
1103:Drivers/STM32F0xx_HAL_Driver/Src/stm32f0xx_hal_rtc_ex.c **** #endif /* defined(STM32F070xB) || defined(STM32F071xB) || defined(STM32F072xB) || defined(STM32F078
1104:Drivers/STM32F0xx_HAL_Driver/Src/stm32f0xx_hal_rtc_ex.c **** 
1105:Drivers/STM32F0xx_HAL_Driver/Src/stm32f0xx_hal_rtc_ex.c **** /** @addtogroup RTCEx_Exported_Functions_Group3
1106:Drivers/STM32F0xx_HAL_Driver/Src/stm32f0xx_hal_rtc_ex.c ****   * @brief    Extended Peripheral Control functions
1107:Drivers/STM32F0xx_HAL_Driver/Src/stm32f0xx_hal_rtc_ex.c ****   *
1108:Drivers/STM32F0xx_HAL_Driver/Src/stm32f0xx_hal_rtc_ex.c **** @verbatim
1109:Drivers/STM32F0xx_HAL_Driver/Src/stm32f0xx_hal_rtc_ex.c ****  ===============================================================================
1110:Drivers/STM32F0xx_HAL_Driver/Src/stm32f0xx_hal_rtc_ex.c ****               ##### Extended Peripheral Control functions #####
1111:Drivers/STM32F0xx_HAL_Driver/Src/stm32f0xx_hal_rtc_ex.c ****  ===============================================================================
1112:Drivers/STM32F0xx_HAL_Driver/Src/stm32f0xx_hal_rtc_ex.c ****     [..]
1113:Drivers/STM32F0xx_HAL_Driver/Src/stm32f0xx_hal_rtc_ex.c ****     This subsection provides functions allowing to
1114:Drivers/STM32F0xx_HAL_Driver/Src/stm32f0xx_hal_rtc_ex.c ****       (+) Write a data in a specified RTC Backup data register
1115:Drivers/STM32F0xx_HAL_Driver/Src/stm32f0xx_hal_rtc_ex.c ****       (+) Read a data in a specified RTC Backup data register
1116:Drivers/STM32F0xx_HAL_Driver/Src/stm32f0xx_hal_rtc_ex.c ****       (+) Set the Coarse calibration parameters.
1117:Drivers/STM32F0xx_HAL_Driver/Src/stm32f0xx_hal_rtc_ex.c ****       (+) Deactivate the Coarse calibration parameters
1118:Drivers/STM32F0xx_HAL_Driver/Src/stm32f0xx_hal_rtc_ex.c ****       (+) Set the Smooth calibration parameters.
1119:Drivers/STM32F0xx_HAL_Driver/Src/stm32f0xx_hal_rtc_ex.c ****       (+) Configure the Synchronization Shift Control Settings.
1120:Drivers/STM32F0xx_HAL_Driver/Src/stm32f0xx_hal_rtc_ex.c ****       (+) Configure the Calibration Pinout (RTC_CALIB) Selection (1Hz or 512Hz).
1121:Drivers/STM32F0xx_HAL_Driver/Src/stm32f0xx_hal_rtc_ex.c ****       (+) Deactivate the Calibration Pinout (RTC_CALIB) Selection (1Hz or 512Hz).
1122:Drivers/STM32F0xx_HAL_Driver/Src/stm32f0xx_hal_rtc_ex.c ****       (+) Enable the RTC reference clock detection.
1123:Drivers/STM32F0xx_HAL_Driver/Src/stm32f0xx_hal_rtc_ex.c ****       (+) Disable the RTC reference clock detection.
1124:Drivers/STM32F0xx_HAL_Driver/Src/stm32f0xx_hal_rtc_ex.c ****       (+) Enable the Bypass Shadow feature.
1125:Drivers/STM32F0xx_HAL_Driver/Src/stm32f0xx_hal_rtc_ex.c ****       (+) Disable the Bypass Shadow feature.
ARM GAS  /tmp/ccJbOwNd.s 			page 47


1126:Drivers/STM32F0xx_HAL_Driver/Src/stm32f0xx_hal_rtc_ex.c **** 
1127:Drivers/STM32F0xx_HAL_Driver/Src/stm32f0xx_hal_rtc_ex.c **** @endverbatim
1128:Drivers/STM32F0xx_HAL_Driver/Src/stm32f0xx_hal_rtc_ex.c ****   * @{
1129:Drivers/STM32F0xx_HAL_Driver/Src/stm32f0xx_hal_rtc_ex.c ****   */
1130:Drivers/STM32F0xx_HAL_Driver/Src/stm32f0xx_hal_rtc_ex.c **** 
1131:Drivers/STM32F0xx_HAL_Driver/Src/stm32f0xx_hal_rtc_ex.c **** #if !defined(STM32F030x6) && !defined(STM32F030x8) && !defined(STM32F070x6) && !defined(STM32F070xB
1132:Drivers/STM32F0xx_HAL_Driver/Src/stm32f0xx_hal_rtc_ex.c **** /**
1133:Drivers/STM32F0xx_HAL_Driver/Src/stm32f0xx_hal_rtc_ex.c ****   * @brief  Write a data in a specified RTC Backup data register.
1134:Drivers/STM32F0xx_HAL_Driver/Src/stm32f0xx_hal_rtc_ex.c ****   * @param  hrtc RTC handle
1135:Drivers/STM32F0xx_HAL_Driver/Src/stm32f0xx_hal_rtc_ex.c ****   * @param  BackupRegister RTC Backup data Register number.
1136:Drivers/STM32F0xx_HAL_Driver/Src/stm32f0xx_hal_rtc_ex.c ****   *          This parameter can be: RTC_BKP_DRx where x can be from 0 to 4 to
1137:Drivers/STM32F0xx_HAL_Driver/Src/stm32f0xx_hal_rtc_ex.c ****   *                                 specify the register.
1138:Drivers/STM32F0xx_HAL_Driver/Src/stm32f0xx_hal_rtc_ex.c ****   * @param  Data Data to be written in the specified RTC Backup data register.
1139:Drivers/STM32F0xx_HAL_Driver/Src/stm32f0xx_hal_rtc_ex.c ****   * @retval None
1140:Drivers/STM32F0xx_HAL_Driver/Src/stm32f0xx_hal_rtc_ex.c ****   */
1141:Drivers/STM32F0xx_HAL_Driver/Src/stm32f0xx_hal_rtc_ex.c **** void HAL_RTCEx_BKUPWrite(RTC_HandleTypeDef *hrtc, uint32_t BackupRegister, uint32_t Data)
1142:Drivers/STM32F0xx_HAL_Driver/Src/stm32f0xx_hal_rtc_ex.c **** {
 1457              		.loc 1 1142 1 is_stmt 1 view -0
 1458              		.cfi_startproc
 1459              		@ args = 0, pretend = 0, frame = 0
 1460              		@ frame_needed = 0, uses_anonymous_args = 0
 1461              		@ link register save eliminated.
1143:Drivers/STM32F0xx_HAL_Driver/Src/stm32f0xx_hal_rtc_ex.c ****   uint32_t tmp = 0U;
 1462              		.loc 1 1143 3 view .LVU448
1144:Drivers/STM32F0xx_HAL_Driver/Src/stm32f0xx_hal_rtc_ex.c **** 
1145:Drivers/STM32F0xx_HAL_Driver/Src/stm32f0xx_hal_rtc_ex.c ****   /* Check the parameters */
1146:Drivers/STM32F0xx_HAL_Driver/Src/stm32f0xx_hal_rtc_ex.c ****   assert_param(IS_RTC_BKP(BackupRegister));
 1463              		.loc 1 1146 3 view .LVU449
1147:Drivers/STM32F0xx_HAL_Driver/Src/stm32f0xx_hal_rtc_ex.c **** 
1148:Drivers/STM32F0xx_HAL_Driver/Src/stm32f0xx_hal_rtc_ex.c ****   tmp = (uint32_t) & (hrtc->Instance->BKP0R);
 1464              		.loc 1 1148 3 view .LVU450
 1465              		.loc 1 1148 27 is_stmt 0 view .LVU451
 1466 0000 0368     		ldr	r3, [r0]
 1467              		.loc 1 1148 20 view .LVU452
 1468 0002 5033     		adds	r3, r3, #80
 1469              	.LVL105:
1149:Drivers/STM32F0xx_HAL_Driver/Src/stm32f0xx_hal_rtc_ex.c ****   tmp += (BackupRegister * 4U);
 1470              		.loc 1 1149 3 is_stmt 1 view .LVU453
 1471              		.loc 1 1149 26 is_stmt 0 view .LVU454
 1472 0004 8900     		lsls	r1, r1, #2
 1473              	.LVL106:
 1474              		.loc 1 1149 7 view .LVU455
 1475 0006 C918     		adds	r1, r1, r3
 1476              	.LVL107:
1150:Drivers/STM32F0xx_HAL_Driver/Src/stm32f0xx_hal_rtc_ex.c **** 
1151:Drivers/STM32F0xx_HAL_Driver/Src/stm32f0xx_hal_rtc_ex.c ****   /* Write the specified register */
1152:Drivers/STM32F0xx_HAL_Driver/Src/stm32f0xx_hal_rtc_ex.c ****   *(__IO uint32_t *)tmp = (uint32_t)Data;
 1477              		.loc 1 1152 3 is_stmt 1 view .LVU456
 1478              		.loc 1 1152 25 is_stmt 0 view .LVU457
 1479 0008 0A60     		str	r2, [r1]
1153:Drivers/STM32F0xx_HAL_Driver/Src/stm32f0xx_hal_rtc_ex.c **** }
 1480              		.loc 1 1153 1 view .LVU458
 1481              		@ sp needed
 1482 000a 7047     		bx	lr
 1483              		.cfi_endproc
 1484              	.LFE54:
 1486              		.section	.text.HAL_RTCEx_BKUPRead,"ax",%progbits
ARM GAS  /tmp/ccJbOwNd.s 			page 48


 1487              		.align	1
 1488              		.global	HAL_RTCEx_BKUPRead
 1489              		.syntax unified
 1490              		.code	16
 1491              		.thumb_func
 1492              		.fpu softvfp
 1494              	HAL_RTCEx_BKUPRead:
 1495              	.LVL108:
 1496              	.LFB55:
1154:Drivers/STM32F0xx_HAL_Driver/Src/stm32f0xx_hal_rtc_ex.c **** 
1155:Drivers/STM32F0xx_HAL_Driver/Src/stm32f0xx_hal_rtc_ex.c **** /**
1156:Drivers/STM32F0xx_HAL_Driver/Src/stm32f0xx_hal_rtc_ex.c ****   * @brief  Reads data from the specified RTC Backup data Register.
1157:Drivers/STM32F0xx_HAL_Driver/Src/stm32f0xx_hal_rtc_ex.c ****   * @param  hrtc RTC handle
1158:Drivers/STM32F0xx_HAL_Driver/Src/stm32f0xx_hal_rtc_ex.c ****   * @param  BackupRegister RTC Backup data Register number.
1159:Drivers/STM32F0xx_HAL_Driver/Src/stm32f0xx_hal_rtc_ex.c ****   *          This parameter can be: RTC_BKP_DRx where x can be from 0 to 4 to
1160:Drivers/STM32F0xx_HAL_Driver/Src/stm32f0xx_hal_rtc_ex.c ****   *                                 specify the register.
1161:Drivers/STM32F0xx_HAL_Driver/Src/stm32f0xx_hal_rtc_ex.c ****   * @retval Read value
1162:Drivers/STM32F0xx_HAL_Driver/Src/stm32f0xx_hal_rtc_ex.c ****   */
1163:Drivers/STM32F0xx_HAL_Driver/Src/stm32f0xx_hal_rtc_ex.c **** uint32_t HAL_RTCEx_BKUPRead(RTC_HandleTypeDef *hrtc, uint32_t BackupRegister)
1164:Drivers/STM32F0xx_HAL_Driver/Src/stm32f0xx_hal_rtc_ex.c **** {
 1497              		.loc 1 1164 1 is_stmt 1 view -0
 1498              		.cfi_startproc
 1499              		@ args = 0, pretend = 0, frame = 0
 1500              		@ frame_needed = 0, uses_anonymous_args = 0
 1501              		@ link register save eliminated.
1165:Drivers/STM32F0xx_HAL_Driver/Src/stm32f0xx_hal_rtc_ex.c ****   uint32_t tmp = 0U;
 1502              		.loc 1 1165 3 view .LVU460
1166:Drivers/STM32F0xx_HAL_Driver/Src/stm32f0xx_hal_rtc_ex.c **** 
1167:Drivers/STM32F0xx_HAL_Driver/Src/stm32f0xx_hal_rtc_ex.c ****   /* Check the parameters */
1168:Drivers/STM32F0xx_HAL_Driver/Src/stm32f0xx_hal_rtc_ex.c ****   assert_param(IS_RTC_BKP(BackupRegister));
 1503              		.loc 1 1168 3 view .LVU461
1169:Drivers/STM32F0xx_HAL_Driver/Src/stm32f0xx_hal_rtc_ex.c **** 
1170:Drivers/STM32F0xx_HAL_Driver/Src/stm32f0xx_hal_rtc_ex.c ****   tmp = (uint32_t) & (hrtc->Instance->BKP0R);
 1504              		.loc 1 1170 3 view .LVU462
 1505              		.loc 1 1170 27 is_stmt 0 view .LVU463
 1506 0000 0368     		ldr	r3, [r0]
 1507              		.loc 1 1170 20 view .LVU464
 1508 0002 5033     		adds	r3, r3, #80
 1509              	.LVL109:
1171:Drivers/STM32F0xx_HAL_Driver/Src/stm32f0xx_hal_rtc_ex.c ****   tmp += (BackupRegister * 4U);
 1510              		.loc 1 1171 3 is_stmt 1 view .LVU465
 1511              		.loc 1 1171 26 is_stmt 0 view .LVU466
 1512 0004 8900     		lsls	r1, r1, #2
 1513              	.LVL110:
 1514              		.loc 1 1171 7 view .LVU467
 1515 0006 C918     		adds	r1, r1, r3
 1516              	.LVL111:
1172:Drivers/STM32F0xx_HAL_Driver/Src/stm32f0xx_hal_rtc_ex.c **** 
1173:Drivers/STM32F0xx_HAL_Driver/Src/stm32f0xx_hal_rtc_ex.c ****   /* Read the specified register */
1174:Drivers/STM32F0xx_HAL_Driver/Src/stm32f0xx_hal_rtc_ex.c ****   return (*(__IO uint32_t *)tmp);
 1517              		.loc 1 1174 3 is_stmt 1 view .LVU468
 1518              		.loc 1 1174 11 is_stmt 0 view .LVU469
 1519 0008 0868     		ldr	r0, [r1]
 1520              	.LVL112:
1175:Drivers/STM32F0xx_HAL_Driver/Src/stm32f0xx_hal_rtc_ex.c **** }
 1521              		.loc 1 1175 1 view .LVU470
 1522              		@ sp needed
ARM GAS  /tmp/ccJbOwNd.s 			page 49


 1523 000a 7047     		bx	lr
 1524              		.cfi_endproc
 1525              	.LFE55:
 1527              		.section	.text.HAL_RTCEx_SetSmoothCalib,"ax",%progbits
 1528              		.align	1
 1529              		.global	HAL_RTCEx_SetSmoothCalib
 1530              		.syntax unified
 1531              		.code	16
 1532              		.thumb_func
 1533              		.fpu softvfp
 1535              	HAL_RTCEx_SetSmoothCalib:
 1536              	.LVL113:
 1537              	.LFB56:
1176:Drivers/STM32F0xx_HAL_Driver/Src/stm32f0xx_hal_rtc_ex.c **** #endif /* !defined(STM32F030x6) && !defined(STM32F030x8) && !defined(STM32F070x6) && !defined(STM32
1177:Drivers/STM32F0xx_HAL_Driver/Src/stm32f0xx_hal_rtc_ex.c **** 
1178:Drivers/STM32F0xx_HAL_Driver/Src/stm32f0xx_hal_rtc_ex.c **** /**
1179:Drivers/STM32F0xx_HAL_Driver/Src/stm32f0xx_hal_rtc_ex.c ****   * @brief  Set the Smooth calibration parameters.
1180:Drivers/STM32F0xx_HAL_Driver/Src/stm32f0xx_hal_rtc_ex.c ****   * @param  hrtc RTC handle
1181:Drivers/STM32F0xx_HAL_Driver/Src/stm32f0xx_hal_rtc_ex.c ****   * @param  SmoothCalibPeriod Select the Smooth Calibration Period.
1182:Drivers/STM32F0xx_HAL_Driver/Src/stm32f0xx_hal_rtc_ex.c ****   *          This parameter can be can be one of the following values :
1183:Drivers/STM32F0xx_HAL_Driver/Src/stm32f0xx_hal_rtc_ex.c ****   *             @arg RTC_SMOOTHCALIB_PERIOD_32SEC: The smooth calibration period is 32s.
1184:Drivers/STM32F0xx_HAL_Driver/Src/stm32f0xx_hal_rtc_ex.c ****   *             @arg RTC_SMOOTHCALIB_PERIOD_16SEC: The smooth calibration period is 16s.
1185:Drivers/STM32F0xx_HAL_Driver/Src/stm32f0xx_hal_rtc_ex.c ****   *             @arg RTC_SMOOTHCALIB_PERIOD_8SEC: The smooth calibration period is 8s.
1186:Drivers/STM32F0xx_HAL_Driver/Src/stm32f0xx_hal_rtc_ex.c ****   * @param  SmoothCalibPlusPulses Select to Set or reset the CALP bit.
1187:Drivers/STM32F0xx_HAL_Driver/Src/stm32f0xx_hal_rtc_ex.c ****   *          This parameter can be one of the following values:
1188:Drivers/STM32F0xx_HAL_Driver/Src/stm32f0xx_hal_rtc_ex.c ****   *             @arg RTC_SMOOTHCALIB_PLUSPULSES_SET: Add one RTCCLK pulse every 2*11 pulses.
1189:Drivers/STM32F0xx_HAL_Driver/Src/stm32f0xx_hal_rtc_ex.c ****   *             @arg RTC_SMOOTHCALIB_PLUSPULSES_RESET: No RTCCLK pulses are added.
1190:Drivers/STM32F0xx_HAL_Driver/Src/stm32f0xx_hal_rtc_ex.c ****   * @param  SmoothCalibMinusPulsesValue Select the value of CALM[8:0] bits.
1191:Drivers/STM32F0xx_HAL_Driver/Src/stm32f0xx_hal_rtc_ex.c ****   *          This parameter can be one any value from 0 to 0x000001FF.
1192:Drivers/STM32F0xx_HAL_Driver/Src/stm32f0xx_hal_rtc_ex.c ****   * @note   To deactivate the smooth calibration, the field SmoothCalibPlusPulses
1193:Drivers/STM32F0xx_HAL_Driver/Src/stm32f0xx_hal_rtc_ex.c ****   *         must be equal to SMOOTHCALIB_PLUSPULSES_RESET and the field
1194:Drivers/STM32F0xx_HAL_Driver/Src/stm32f0xx_hal_rtc_ex.c ****   *         SmoothCalibMinusPulsesValue mut be equal to 0.
1195:Drivers/STM32F0xx_HAL_Driver/Src/stm32f0xx_hal_rtc_ex.c ****   * @retval HAL status
1196:Drivers/STM32F0xx_HAL_Driver/Src/stm32f0xx_hal_rtc_ex.c ****   */
1197:Drivers/STM32F0xx_HAL_Driver/Src/stm32f0xx_hal_rtc_ex.c **** HAL_StatusTypeDef HAL_RTCEx_SetSmoothCalib(RTC_HandleTypeDef *hrtc, uint32_t SmoothCalibPeriod, uin
1198:Drivers/STM32F0xx_HAL_Driver/Src/stm32f0xx_hal_rtc_ex.c **** {
 1538              		.loc 1 1198 1 is_stmt 1 view -0
 1539              		.cfi_startproc
 1540              		@ args = 0, pretend = 0, frame = 8
 1541              		@ frame_needed = 0, uses_anonymous_args = 0
 1542              		.loc 1 1198 1 is_stmt 0 view .LVU472
 1543 0000 F0B5     		push	{r4, r5, r6, r7, lr}
 1544              	.LCFI12:
 1545              		.cfi_def_cfa_offset 20
 1546              		.cfi_offset 4, -20
 1547              		.cfi_offset 5, -16
 1548              		.cfi_offset 6, -12
 1549              		.cfi_offset 7, -8
 1550              		.cfi_offset 14, -4
 1551 0002 83B0     		sub	sp, sp, #12
 1552              	.LCFI13:
 1553              		.cfi_def_cfa_offset 32
 1554 0004 0400     		movs	r4, r0
 1555 0006 0D00     		movs	r5, r1
 1556 0008 0192     		str	r2, [sp, #4]
 1557 000a 1E00     		movs	r6, r3
1199:Drivers/STM32F0xx_HAL_Driver/Src/stm32f0xx_hal_rtc_ex.c ****   uint32_t tickstart = 0U;
ARM GAS  /tmp/ccJbOwNd.s 			page 50


 1558              		.loc 1 1199 3 is_stmt 1 view .LVU473
 1559              	.LVL114:
1200:Drivers/STM32F0xx_HAL_Driver/Src/stm32f0xx_hal_rtc_ex.c **** 
1201:Drivers/STM32F0xx_HAL_Driver/Src/stm32f0xx_hal_rtc_ex.c ****   /* Check the parameters */
1202:Drivers/STM32F0xx_HAL_Driver/Src/stm32f0xx_hal_rtc_ex.c ****   assert_param(IS_RTC_SMOOTH_CALIB_PERIOD(SmoothCalibPeriod));
 1560              		.loc 1 1202 3 view .LVU474
1203:Drivers/STM32F0xx_HAL_Driver/Src/stm32f0xx_hal_rtc_ex.c ****   assert_param(IS_RTC_SMOOTH_CALIB_PLUS(SmoothCalibPlusPulses));
 1561              		.loc 1 1203 3 view .LVU475
1204:Drivers/STM32F0xx_HAL_Driver/Src/stm32f0xx_hal_rtc_ex.c ****   assert_param(IS_RTC_SMOOTH_CALIB_MINUS(SmoothCalibMinusPulsesValue));
 1562              		.loc 1 1204 3 view .LVU476
1205:Drivers/STM32F0xx_HAL_Driver/Src/stm32f0xx_hal_rtc_ex.c **** 
1206:Drivers/STM32F0xx_HAL_Driver/Src/stm32f0xx_hal_rtc_ex.c ****   /* Process Locked */
1207:Drivers/STM32F0xx_HAL_Driver/Src/stm32f0xx_hal_rtc_ex.c ****   __HAL_LOCK(hrtc);
 1563              		.loc 1 1207 3 view .LVU477
 1564              		.loc 1 1207 3 view .LVU478
 1565 000c 037F     		ldrb	r3, [r0, #28]
 1566              	.LVL115:
 1567              		.loc 1 1207 3 is_stmt 0 view .LVU479
 1568 000e 012B     		cmp	r3, #1
 1569 0010 33D0     		beq	.L84
 1570              		.loc 1 1207 3 is_stmt 1 discriminator 2 view .LVU480
 1571 0012 0123     		movs	r3, #1
 1572 0014 0377     		strb	r3, [r0, #28]
 1573              		.loc 1 1207 3 discriminator 2 view .LVU481
1208:Drivers/STM32F0xx_HAL_Driver/Src/stm32f0xx_hal_rtc_ex.c **** 
1209:Drivers/STM32F0xx_HAL_Driver/Src/stm32f0xx_hal_rtc_ex.c ****   hrtc->State = HAL_RTC_STATE_BUSY;
 1574              		.loc 1 1209 3 discriminator 2 view .LVU482
 1575              		.loc 1 1209 15 is_stmt 0 discriminator 2 view .LVU483
 1576 0016 0133     		adds	r3, r3, #1
 1577 0018 4377     		strb	r3, [r0, #29]
1210:Drivers/STM32F0xx_HAL_Driver/Src/stm32f0xx_hal_rtc_ex.c **** 
1211:Drivers/STM32F0xx_HAL_Driver/Src/stm32f0xx_hal_rtc_ex.c ****   /* Disable the write protection for RTC registers */
1212:Drivers/STM32F0xx_HAL_Driver/Src/stm32f0xx_hal_rtc_ex.c ****   __HAL_RTC_WRITEPROTECTION_DISABLE(hrtc);
 1578              		.loc 1 1212 3 is_stmt 1 discriminator 2 view .LVU484
 1579              		.loc 1 1212 3 discriminator 2 view .LVU485
 1580 001a 0368     		ldr	r3, [r0]
 1581 001c CA22     		movs	r2, #202
 1582              	.LVL116:
 1583              		.loc 1 1212 3 is_stmt 0 discriminator 2 view .LVU486
 1584 001e 5A62     		str	r2, [r3, #36]
 1585              		.loc 1 1212 3 is_stmt 1 discriminator 2 view .LVU487
 1586 0020 0368     		ldr	r3, [r0]
 1587 0022 773A     		subs	r2, r2, #119
 1588 0024 5A62     		str	r2, [r3, #36]
 1589              		.loc 1 1212 3 discriminator 2 view .LVU488
1213:Drivers/STM32F0xx_HAL_Driver/Src/stm32f0xx_hal_rtc_ex.c **** 
1214:Drivers/STM32F0xx_HAL_Driver/Src/stm32f0xx_hal_rtc_ex.c ****   /* check if a calibration is pending*/
1215:Drivers/STM32F0xx_HAL_Driver/Src/stm32f0xx_hal_rtc_ex.c ****   if ((hrtc->Instance->ISR & RTC_ISR_RECALPF) != RESET)
 1590              		.loc 1 1215 3 discriminator 2 view .LVU489
 1591              		.loc 1 1215 12 is_stmt 0 discriminator 2 view .LVU490
 1592 0026 0368     		ldr	r3, [r0]
 1593              		.loc 1 1215 22 discriminator 2 view .LVU491
 1594 0028 DB68     		ldr	r3, [r3, #12]
 1595              		.loc 1 1215 6 discriminator 2 view .LVU492
 1596 002a DB03     		lsls	r3, r3, #15
 1597 002c 0ED4     		bmi	.L85
 1598              	.LVL117:
ARM GAS  /tmp/ccJbOwNd.s 			page 51


 1599              	.L81:
1216:Drivers/STM32F0xx_HAL_Driver/Src/stm32f0xx_hal_rtc_ex.c ****   {
1217:Drivers/STM32F0xx_HAL_Driver/Src/stm32f0xx_hal_rtc_ex.c ****     tickstart = HAL_GetTick();
1218:Drivers/STM32F0xx_HAL_Driver/Src/stm32f0xx_hal_rtc_ex.c **** 
1219:Drivers/STM32F0xx_HAL_Driver/Src/stm32f0xx_hal_rtc_ex.c ****     /* check if a calibration is pending*/
1220:Drivers/STM32F0xx_HAL_Driver/Src/stm32f0xx_hal_rtc_ex.c ****     while ((hrtc->Instance->ISR & RTC_ISR_RECALPF) != RESET)
1221:Drivers/STM32F0xx_HAL_Driver/Src/stm32f0xx_hal_rtc_ex.c ****     {
1222:Drivers/STM32F0xx_HAL_Driver/Src/stm32f0xx_hal_rtc_ex.c ****       if ((HAL_GetTick() - tickstart) > RTC_TIMEOUT_VALUE)
1223:Drivers/STM32F0xx_HAL_Driver/Src/stm32f0xx_hal_rtc_ex.c ****       {
1224:Drivers/STM32F0xx_HAL_Driver/Src/stm32f0xx_hal_rtc_ex.c ****         /* Enable the write protection for RTC registers */
1225:Drivers/STM32F0xx_HAL_Driver/Src/stm32f0xx_hal_rtc_ex.c ****         __HAL_RTC_WRITEPROTECTION_ENABLE(hrtc);
1226:Drivers/STM32F0xx_HAL_Driver/Src/stm32f0xx_hal_rtc_ex.c **** 
1227:Drivers/STM32F0xx_HAL_Driver/Src/stm32f0xx_hal_rtc_ex.c ****         /* Change RTC state */
1228:Drivers/STM32F0xx_HAL_Driver/Src/stm32f0xx_hal_rtc_ex.c ****         hrtc->State = HAL_RTC_STATE_TIMEOUT;
1229:Drivers/STM32F0xx_HAL_Driver/Src/stm32f0xx_hal_rtc_ex.c **** 
1230:Drivers/STM32F0xx_HAL_Driver/Src/stm32f0xx_hal_rtc_ex.c ****         /* Process Unlocked */
1231:Drivers/STM32F0xx_HAL_Driver/Src/stm32f0xx_hal_rtc_ex.c ****         __HAL_UNLOCK(hrtc);
1232:Drivers/STM32F0xx_HAL_Driver/Src/stm32f0xx_hal_rtc_ex.c **** 
1233:Drivers/STM32F0xx_HAL_Driver/Src/stm32f0xx_hal_rtc_ex.c ****         return HAL_TIMEOUT;
1234:Drivers/STM32F0xx_HAL_Driver/Src/stm32f0xx_hal_rtc_ex.c ****       }
1235:Drivers/STM32F0xx_HAL_Driver/Src/stm32f0xx_hal_rtc_ex.c ****     }
1236:Drivers/STM32F0xx_HAL_Driver/Src/stm32f0xx_hal_rtc_ex.c ****   }
1237:Drivers/STM32F0xx_HAL_Driver/Src/stm32f0xx_hal_rtc_ex.c **** 
1238:Drivers/STM32F0xx_HAL_Driver/Src/stm32f0xx_hal_rtc_ex.c ****   /* Configure the Smooth calibration settings */
1239:Drivers/STM32F0xx_HAL_Driver/Src/stm32f0xx_hal_rtc_ex.c ****   hrtc->Instance->CALR = (uint32_t)((uint32_t)SmoothCalibPeriod | (uint32_t)SmoothCalibPlusPulses |
 1600              		.loc 1 1239 3 is_stmt 1 view .LVU493
 1601              		.loc 1 1239 65 is_stmt 0 view .LVU494
 1602 002e 019B     		ldr	r3, [sp, #4]
 1603 0030 1D43     		orrs	r5, r3
 1604              	.LVL118:
 1605              		.loc 1 1239 7 view .LVU495
 1606 0032 2368     		ldr	r3, [r4]
 1607              		.loc 1 1239 26 view .LVU496
 1608 0034 2E43     		orrs	r6, r5
 1609              	.LVL119:
 1610              		.loc 1 1239 24 view .LVU497
 1611 0036 DE63     		str	r6, [r3, #60]
1240:Drivers/STM32F0xx_HAL_Driver/Src/stm32f0xx_hal_rtc_ex.c **** 
1241:Drivers/STM32F0xx_HAL_Driver/Src/stm32f0xx_hal_rtc_ex.c ****   /* Enable the write protection for RTC registers */
1242:Drivers/STM32F0xx_HAL_Driver/Src/stm32f0xx_hal_rtc_ex.c ****   __HAL_RTC_WRITEPROTECTION_ENABLE(hrtc);
 1612              		.loc 1 1242 3 is_stmt 1 view .LVU498
 1613              		.loc 1 1242 3 view .LVU499
 1614 0038 2368     		ldr	r3, [r4]
 1615 003a FF22     		movs	r2, #255
 1616 003c 5A62     		str	r2, [r3, #36]
 1617              		.loc 1 1242 3 view .LVU500
1243:Drivers/STM32F0xx_HAL_Driver/Src/stm32f0xx_hal_rtc_ex.c **** 
1244:Drivers/STM32F0xx_HAL_Driver/Src/stm32f0xx_hal_rtc_ex.c ****   /* Change RTC state */
1245:Drivers/STM32F0xx_HAL_Driver/Src/stm32f0xx_hal_rtc_ex.c ****   hrtc->State = HAL_RTC_STATE_READY;
 1618              		.loc 1 1245 3 view .LVU501
 1619              		.loc 1 1245 15 is_stmt 0 view .LVU502
 1620 003e 0123     		movs	r3, #1
 1621 0040 6377     		strb	r3, [r4, #29]
1246:Drivers/STM32F0xx_HAL_Driver/Src/stm32f0xx_hal_rtc_ex.c **** 
1247:Drivers/STM32F0xx_HAL_Driver/Src/stm32f0xx_hal_rtc_ex.c ****   /* Process Unlocked */
1248:Drivers/STM32F0xx_HAL_Driver/Src/stm32f0xx_hal_rtc_ex.c ****   __HAL_UNLOCK(hrtc);
 1622              		.loc 1 1248 3 is_stmt 1 view .LVU503
ARM GAS  /tmp/ccJbOwNd.s 			page 52


 1623              		.loc 1 1248 3 view .LVU504
 1624 0042 0023     		movs	r3, #0
 1625 0044 2377     		strb	r3, [r4, #28]
 1626              		.loc 1 1248 3 view .LVU505
1249:Drivers/STM32F0xx_HAL_Driver/Src/stm32f0xx_hal_rtc_ex.c **** 
1250:Drivers/STM32F0xx_HAL_Driver/Src/stm32f0xx_hal_rtc_ex.c ****   return HAL_OK;
 1627              		.loc 1 1250 3 view .LVU506
 1628              		.loc 1 1250 10 is_stmt 0 view .LVU507
 1629 0046 0020     		movs	r0, #0
 1630              	.L80:
1251:Drivers/STM32F0xx_HAL_Driver/Src/stm32f0xx_hal_rtc_ex.c **** }
 1631              		.loc 1 1251 1 view .LVU508
 1632 0048 03B0     		add	sp, sp, #12
 1633              		@ sp needed
 1634              	.LVL120:
 1635              		.loc 1 1251 1 view .LVU509
 1636 004a F0BD     		pop	{r4, r5, r6, r7, pc}
 1637              	.LVL121:
 1638              	.L85:
1217:Drivers/STM32F0xx_HAL_Driver/Src/stm32f0xx_hal_rtc_ex.c **** 
 1639              		.loc 1 1217 5 is_stmt 1 view .LVU510
1217:Drivers/STM32F0xx_HAL_Driver/Src/stm32f0xx_hal_rtc_ex.c **** 
 1640              		.loc 1 1217 17 is_stmt 0 view .LVU511
 1641 004c FFF7FEFF 		bl	HAL_GetTick
 1642              	.LVL122:
1217:Drivers/STM32F0xx_HAL_Driver/Src/stm32f0xx_hal_rtc_ex.c **** 
 1643              		.loc 1 1217 17 view .LVU512
 1644 0050 0700     		movs	r7, r0
 1645              	.LVL123:
1220:Drivers/STM32F0xx_HAL_Driver/Src/stm32f0xx_hal_rtc_ex.c ****     {
 1646              		.loc 1 1220 5 is_stmt 1 view .LVU513
 1647              	.L82:
1220:Drivers/STM32F0xx_HAL_Driver/Src/stm32f0xx_hal_rtc_ex.c ****     {
 1648              		.loc 1 1220 11 view .LVU514
1220:Drivers/STM32F0xx_HAL_Driver/Src/stm32f0xx_hal_rtc_ex.c ****     {
 1649              		.loc 1 1220 17 is_stmt 0 view .LVU515
 1650 0052 2368     		ldr	r3, [r4]
1220:Drivers/STM32F0xx_HAL_Driver/Src/stm32f0xx_hal_rtc_ex.c ****     {
 1651              		.loc 1 1220 27 view .LVU516
 1652 0054 DB68     		ldr	r3, [r3, #12]
1220:Drivers/STM32F0xx_HAL_Driver/Src/stm32f0xx_hal_rtc_ex.c ****     {
 1653              		.loc 1 1220 11 view .LVU517
 1654 0056 DB03     		lsls	r3, r3, #15
 1655 0058 E9D5     		bpl	.L81
1222:Drivers/STM32F0xx_HAL_Driver/Src/stm32f0xx_hal_rtc_ex.c ****       {
 1656              		.loc 1 1222 7 is_stmt 1 view .LVU518
1222:Drivers/STM32F0xx_HAL_Driver/Src/stm32f0xx_hal_rtc_ex.c ****       {
 1657              		.loc 1 1222 12 is_stmt 0 view .LVU519
 1658 005a FFF7FEFF 		bl	HAL_GetTick
 1659              	.LVL124:
1222:Drivers/STM32F0xx_HAL_Driver/Src/stm32f0xx_hal_rtc_ex.c ****       {
 1660              		.loc 1 1222 26 view .LVU520
 1661 005e C01B     		subs	r0, r0, r7
1222:Drivers/STM32F0xx_HAL_Driver/Src/stm32f0xx_hal_rtc_ex.c ****       {
 1662              		.loc 1 1222 10 view .LVU521
 1663 0060 FA23     		movs	r3, #250
 1664 0062 9B00     		lsls	r3, r3, #2
ARM GAS  /tmp/ccJbOwNd.s 			page 53


 1665 0064 9842     		cmp	r0, r3
 1666 0066 F4D9     		bls	.L82
1225:Drivers/STM32F0xx_HAL_Driver/Src/stm32f0xx_hal_rtc_ex.c **** 
 1667              		.loc 1 1225 9 is_stmt 1 view .LVU522
1225:Drivers/STM32F0xx_HAL_Driver/Src/stm32f0xx_hal_rtc_ex.c **** 
 1668              		.loc 1 1225 9 view .LVU523
 1669 0068 2368     		ldr	r3, [r4]
 1670 006a FF22     		movs	r2, #255
 1671 006c 5A62     		str	r2, [r3, #36]
1225:Drivers/STM32F0xx_HAL_Driver/Src/stm32f0xx_hal_rtc_ex.c **** 
 1672              		.loc 1 1225 9 view .LVU524
1228:Drivers/STM32F0xx_HAL_Driver/Src/stm32f0xx_hal_rtc_ex.c **** 
 1673              		.loc 1 1228 9 view .LVU525
1228:Drivers/STM32F0xx_HAL_Driver/Src/stm32f0xx_hal_rtc_ex.c **** 
 1674              		.loc 1 1228 21 is_stmt 0 view .LVU526
 1675 006e 0323     		movs	r3, #3
 1676 0070 6377     		strb	r3, [r4, #29]
1231:Drivers/STM32F0xx_HAL_Driver/Src/stm32f0xx_hal_rtc_ex.c **** 
 1677              		.loc 1 1231 9 is_stmt 1 view .LVU527
1231:Drivers/STM32F0xx_HAL_Driver/Src/stm32f0xx_hal_rtc_ex.c **** 
 1678              		.loc 1 1231 9 view .LVU528
 1679 0072 0023     		movs	r3, #0
 1680 0074 2377     		strb	r3, [r4, #28]
1231:Drivers/STM32F0xx_HAL_Driver/Src/stm32f0xx_hal_rtc_ex.c **** 
 1681              		.loc 1 1231 9 view .LVU529
1233:Drivers/STM32F0xx_HAL_Driver/Src/stm32f0xx_hal_rtc_ex.c ****       }
 1682              		.loc 1 1233 9 view .LVU530
1233:Drivers/STM32F0xx_HAL_Driver/Src/stm32f0xx_hal_rtc_ex.c ****       }
 1683              		.loc 1 1233 16 is_stmt 0 view .LVU531
 1684 0076 0320     		movs	r0, #3
 1685 0078 E6E7     		b	.L80
 1686              	.LVL125:
 1687              	.L84:
1207:Drivers/STM32F0xx_HAL_Driver/Src/stm32f0xx_hal_rtc_ex.c **** 
 1688              		.loc 1 1207 3 view .LVU532
 1689 007a 0220     		movs	r0, #2
 1690              	.LVL126:
1207:Drivers/STM32F0xx_HAL_Driver/Src/stm32f0xx_hal_rtc_ex.c **** 
 1691              		.loc 1 1207 3 view .LVU533
 1692 007c E4E7     		b	.L80
 1693              		.cfi_endproc
 1694              	.LFE56:
 1696              		.section	.text.HAL_RTCEx_SetSynchroShift,"ax",%progbits
 1697              		.align	1
 1698              		.global	HAL_RTCEx_SetSynchroShift
 1699              		.syntax unified
 1700              		.code	16
 1701              		.thumb_func
 1702              		.fpu softvfp
 1704              	HAL_RTCEx_SetSynchroShift:
 1705              	.LVL127:
 1706              	.LFB57:
1252:Drivers/STM32F0xx_HAL_Driver/Src/stm32f0xx_hal_rtc_ex.c **** 
1253:Drivers/STM32F0xx_HAL_Driver/Src/stm32f0xx_hal_rtc_ex.c **** /**
1254:Drivers/STM32F0xx_HAL_Driver/Src/stm32f0xx_hal_rtc_ex.c ****   * @brief  Configure the Synchronization Shift Control Settings.
1255:Drivers/STM32F0xx_HAL_Driver/Src/stm32f0xx_hal_rtc_ex.c ****   * @note   When REFCKON is set, firmware must not write to Shift control register.
1256:Drivers/STM32F0xx_HAL_Driver/Src/stm32f0xx_hal_rtc_ex.c ****   * @param  hrtc RTC handle
ARM GAS  /tmp/ccJbOwNd.s 			page 54


1257:Drivers/STM32F0xx_HAL_Driver/Src/stm32f0xx_hal_rtc_ex.c ****   * @param  ShiftAdd1S Select to add or not 1 second to the time calendar.
1258:Drivers/STM32F0xx_HAL_Driver/Src/stm32f0xx_hal_rtc_ex.c ****   *          This parameter can be one of the following values :
1259:Drivers/STM32F0xx_HAL_Driver/Src/stm32f0xx_hal_rtc_ex.c ****   *             @arg RTC_SHIFTADD1S_SET: Add one second to the clock calendar.
1260:Drivers/STM32F0xx_HAL_Driver/Src/stm32f0xx_hal_rtc_ex.c ****   *             @arg RTC_SHIFTADD1S_RESET: No effect.
1261:Drivers/STM32F0xx_HAL_Driver/Src/stm32f0xx_hal_rtc_ex.c ****   * @param  ShiftSubFS Select the number of Second Fractions to substitute.
1262:Drivers/STM32F0xx_HAL_Driver/Src/stm32f0xx_hal_rtc_ex.c ****   *          This parameter can be one any value from 0 to 0x7FFF.
1263:Drivers/STM32F0xx_HAL_Driver/Src/stm32f0xx_hal_rtc_ex.c ****   * @retval HAL status
1264:Drivers/STM32F0xx_HAL_Driver/Src/stm32f0xx_hal_rtc_ex.c ****   */
1265:Drivers/STM32F0xx_HAL_Driver/Src/stm32f0xx_hal_rtc_ex.c **** HAL_StatusTypeDef HAL_RTCEx_SetSynchroShift(RTC_HandleTypeDef *hrtc, uint32_t ShiftAdd1S, uint32_t 
1266:Drivers/STM32F0xx_HAL_Driver/Src/stm32f0xx_hal_rtc_ex.c **** {
 1707              		.loc 1 1266 1 is_stmt 1 view -0
 1708              		.cfi_startproc
 1709              		@ args = 0, pretend = 0, frame = 0
 1710              		@ frame_needed = 0, uses_anonymous_args = 0
 1711              		.loc 1 1266 1 is_stmt 0 view .LVU535
 1712 0000 F8B5     		push	{r3, r4, r5, r6, r7, lr}
 1713              	.LCFI14:
 1714              		.cfi_def_cfa_offset 24
 1715              		.cfi_offset 3, -24
 1716              		.cfi_offset 4, -20
 1717              		.cfi_offset 5, -16
 1718              		.cfi_offset 6, -12
 1719              		.cfi_offset 7, -8
 1720              		.cfi_offset 14, -4
 1721 0002 0600     		movs	r6, r0
 1722 0004 0D00     		movs	r5, r1
 1723 0006 1400     		movs	r4, r2
1267:Drivers/STM32F0xx_HAL_Driver/Src/stm32f0xx_hal_rtc_ex.c ****   uint32_t tickstart = 0U;
 1724              		.loc 1 1267 3 is_stmt 1 view .LVU536
 1725              	.LVL128:
1268:Drivers/STM32F0xx_HAL_Driver/Src/stm32f0xx_hal_rtc_ex.c **** 
1269:Drivers/STM32F0xx_HAL_Driver/Src/stm32f0xx_hal_rtc_ex.c ****   /* Check the parameters */
1270:Drivers/STM32F0xx_HAL_Driver/Src/stm32f0xx_hal_rtc_ex.c ****   assert_param(IS_RTC_SHIFT_ADD1S(ShiftAdd1S));
 1726              		.loc 1 1270 3 view .LVU537
1271:Drivers/STM32F0xx_HAL_Driver/Src/stm32f0xx_hal_rtc_ex.c ****   assert_param(IS_RTC_SHIFT_SUBFS(ShiftSubFS));
 1727              		.loc 1 1271 3 view .LVU538
1272:Drivers/STM32F0xx_HAL_Driver/Src/stm32f0xx_hal_rtc_ex.c **** 
1273:Drivers/STM32F0xx_HAL_Driver/Src/stm32f0xx_hal_rtc_ex.c ****   /* Process Locked */
1274:Drivers/STM32F0xx_HAL_Driver/Src/stm32f0xx_hal_rtc_ex.c ****   __HAL_LOCK(hrtc);
 1728              		.loc 1 1274 3 view .LVU539
 1729              		.loc 1 1274 3 view .LVU540
 1730 0008 037F     		ldrb	r3, [r0, #28]
 1731 000a 012B     		cmp	r3, #1
 1732 000c 48D0     		beq	.L92
 1733              		.loc 1 1274 3 discriminator 2 view .LVU541
 1734 000e 0123     		movs	r3, #1
 1735 0010 0377     		strb	r3, [r0, #28]
 1736              		.loc 1 1274 3 discriminator 2 view .LVU542
1275:Drivers/STM32F0xx_HAL_Driver/Src/stm32f0xx_hal_rtc_ex.c **** 
1276:Drivers/STM32F0xx_HAL_Driver/Src/stm32f0xx_hal_rtc_ex.c ****   hrtc->State = HAL_RTC_STATE_BUSY;
 1737              		.loc 1 1276 3 discriminator 2 view .LVU543
 1738              		.loc 1 1276 15 is_stmt 0 discriminator 2 view .LVU544
 1739 0012 0133     		adds	r3, r3, #1
 1740 0014 4377     		strb	r3, [r0, #29]
1277:Drivers/STM32F0xx_HAL_Driver/Src/stm32f0xx_hal_rtc_ex.c **** 
1278:Drivers/STM32F0xx_HAL_Driver/Src/stm32f0xx_hal_rtc_ex.c ****   /* Disable the write protection for RTC registers */
1279:Drivers/STM32F0xx_HAL_Driver/Src/stm32f0xx_hal_rtc_ex.c ****   __HAL_RTC_WRITEPROTECTION_DISABLE(hrtc);
ARM GAS  /tmp/ccJbOwNd.s 			page 55


 1741              		.loc 1 1279 3 is_stmt 1 discriminator 2 view .LVU545
 1742              		.loc 1 1279 3 discriminator 2 view .LVU546
 1743 0016 0368     		ldr	r3, [r0]
 1744 0018 CA22     		movs	r2, #202
 1745              	.LVL129:
 1746              		.loc 1 1279 3 is_stmt 0 discriminator 2 view .LVU547
 1747 001a 5A62     		str	r2, [r3, #36]
 1748              		.loc 1 1279 3 is_stmt 1 discriminator 2 view .LVU548
 1749 001c 0368     		ldr	r3, [r0]
 1750 001e 773A     		subs	r2, r2, #119
 1751 0020 5A62     		str	r2, [r3, #36]
 1752              		.loc 1 1279 3 discriminator 2 view .LVU549
1280:Drivers/STM32F0xx_HAL_Driver/Src/stm32f0xx_hal_rtc_ex.c **** 
1281:Drivers/STM32F0xx_HAL_Driver/Src/stm32f0xx_hal_rtc_ex.c ****   tickstart = HAL_GetTick();
 1753              		.loc 1 1281 3 discriminator 2 view .LVU550
 1754              		.loc 1 1281 15 is_stmt 0 discriminator 2 view .LVU551
 1755 0022 FFF7FEFF 		bl	HAL_GetTick
 1756              	.LVL130:
 1757              		.loc 1 1281 15 discriminator 2 view .LVU552
 1758 0026 0700     		movs	r7, r0
 1759              	.LVL131:
1282:Drivers/STM32F0xx_HAL_Driver/Src/stm32f0xx_hal_rtc_ex.c **** 
1283:Drivers/STM32F0xx_HAL_Driver/Src/stm32f0xx_hal_rtc_ex.c ****   /* Wait until the shift is completed*/
1284:Drivers/STM32F0xx_HAL_Driver/Src/stm32f0xx_hal_rtc_ex.c ****   while ((hrtc->Instance->ISR & RTC_ISR_SHPF) != RESET)
 1760              		.loc 1 1284 3 is_stmt 1 discriminator 2 view .LVU553
 1761              	.L88:
 1762              		.loc 1 1284 9 view .LVU554
 1763              		.loc 1 1284 15 is_stmt 0 view .LVU555
 1764 0028 3368     		ldr	r3, [r6]
 1765              		.loc 1 1284 25 view .LVU556
 1766 002a DA68     		ldr	r2, [r3, #12]
 1767              		.loc 1 1284 9 view .LVU557
 1768 002c 1207     		lsls	r2, r2, #28
 1769 002e 0FD5     		bpl	.L93
1285:Drivers/STM32F0xx_HAL_Driver/Src/stm32f0xx_hal_rtc_ex.c ****   {
1286:Drivers/STM32F0xx_HAL_Driver/Src/stm32f0xx_hal_rtc_ex.c ****     if ((HAL_GetTick() - tickstart) > RTC_TIMEOUT_VALUE)
 1770              		.loc 1 1286 5 is_stmt 1 view .LVU558
 1771              		.loc 1 1286 10 is_stmt 0 view .LVU559
 1772 0030 FFF7FEFF 		bl	HAL_GetTick
 1773              	.LVL132:
 1774              		.loc 1 1286 24 view .LVU560
 1775 0034 C01B     		subs	r0, r0, r7
 1776              		.loc 1 1286 8 view .LVU561
 1777 0036 FA22     		movs	r2, #250
 1778 0038 9200     		lsls	r2, r2, #2
 1779 003a 9042     		cmp	r0, r2
 1780 003c F4D9     		bls	.L88
1287:Drivers/STM32F0xx_HAL_Driver/Src/stm32f0xx_hal_rtc_ex.c ****     {
1288:Drivers/STM32F0xx_HAL_Driver/Src/stm32f0xx_hal_rtc_ex.c ****       /* Enable the write protection for RTC registers */
1289:Drivers/STM32F0xx_HAL_Driver/Src/stm32f0xx_hal_rtc_ex.c ****       __HAL_RTC_WRITEPROTECTION_ENABLE(hrtc);
 1781              		.loc 1 1289 7 is_stmt 1 view .LVU562
 1782              		.loc 1 1289 7 view .LVU563
 1783 003e 3368     		ldr	r3, [r6]
 1784 0040 FF22     		movs	r2, #255
 1785 0042 5A62     		str	r2, [r3, #36]
 1786              		.loc 1 1289 7 view .LVU564
1290:Drivers/STM32F0xx_HAL_Driver/Src/stm32f0xx_hal_rtc_ex.c **** 
ARM GAS  /tmp/ccJbOwNd.s 			page 56


1291:Drivers/STM32F0xx_HAL_Driver/Src/stm32f0xx_hal_rtc_ex.c ****       hrtc->State = HAL_RTC_STATE_TIMEOUT;
 1787              		.loc 1 1291 7 view .LVU565
 1788              		.loc 1 1291 19 is_stmt 0 view .LVU566
 1789 0044 0323     		movs	r3, #3
 1790 0046 7377     		strb	r3, [r6, #29]
1292:Drivers/STM32F0xx_HAL_Driver/Src/stm32f0xx_hal_rtc_ex.c **** 
1293:Drivers/STM32F0xx_HAL_Driver/Src/stm32f0xx_hal_rtc_ex.c ****       /* Process Unlocked */
1294:Drivers/STM32F0xx_HAL_Driver/Src/stm32f0xx_hal_rtc_ex.c ****       __HAL_UNLOCK(hrtc);
 1791              		.loc 1 1294 7 is_stmt 1 view .LVU567
 1792              		.loc 1 1294 7 view .LVU568
 1793 0048 0023     		movs	r3, #0
 1794 004a 3377     		strb	r3, [r6, #28]
 1795              		.loc 1 1294 7 view .LVU569
1295:Drivers/STM32F0xx_HAL_Driver/Src/stm32f0xx_hal_rtc_ex.c **** 
1296:Drivers/STM32F0xx_HAL_Driver/Src/stm32f0xx_hal_rtc_ex.c ****       return HAL_TIMEOUT;
 1796              		.loc 1 1296 7 view .LVU570
 1797              		.loc 1 1296 14 is_stmt 0 view .LVU571
 1798 004c 0320     		movs	r0, #3
 1799              	.LVL133:
 1800              	.L87:
1297:Drivers/STM32F0xx_HAL_Driver/Src/stm32f0xx_hal_rtc_ex.c ****     }
1298:Drivers/STM32F0xx_HAL_Driver/Src/stm32f0xx_hal_rtc_ex.c ****   }
1299:Drivers/STM32F0xx_HAL_Driver/Src/stm32f0xx_hal_rtc_ex.c **** 
1300:Drivers/STM32F0xx_HAL_Driver/Src/stm32f0xx_hal_rtc_ex.c ****   /* Check if the reference clock detection is disabled */
1301:Drivers/STM32F0xx_HAL_Driver/Src/stm32f0xx_hal_rtc_ex.c ****   if ((hrtc->Instance->CR & RTC_CR_REFCKON) == RESET)
1302:Drivers/STM32F0xx_HAL_Driver/Src/stm32f0xx_hal_rtc_ex.c ****   {
1303:Drivers/STM32F0xx_HAL_Driver/Src/stm32f0xx_hal_rtc_ex.c ****     /* Configure the Shift settings */
1304:Drivers/STM32F0xx_HAL_Driver/Src/stm32f0xx_hal_rtc_ex.c ****     hrtc->Instance->SHIFTR = (uint32_t)(uint32_t)(ShiftSubFS) | (uint32_t)(ShiftAdd1S);
1305:Drivers/STM32F0xx_HAL_Driver/Src/stm32f0xx_hal_rtc_ex.c **** 
1306:Drivers/STM32F0xx_HAL_Driver/Src/stm32f0xx_hal_rtc_ex.c ****     /* If  RTC_CR_BYPSHAD bit = 0, wait for synchro else this check is not needed */
1307:Drivers/STM32F0xx_HAL_Driver/Src/stm32f0xx_hal_rtc_ex.c ****     if ((hrtc->Instance->CR & RTC_CR_BYPSHAD) == RESET)
1308:Drivers/STM32F0xx_HAL_Driver/Src/stm32f0xx_hal_rtc_ex.c ****     {
1309:Drivers/STM32F0xx_HAL_Driver/Src/stm32f0xx_hal_rtc_ex.c ****       if (HAL_RTC_WaitForSynchro(hrtc) != HAL_OK)
1310:Drivers/STM32F0xx_HAL_Driver/Src/stm32f0xx_hal_rtc_ex.c ****       {
1311:Drivers/STM32F0xx_HAL_Driver/Src/stm32f0xx_hal_rtc_ex.c ****         /* Enable the write protection for RTC registers */
1312:Drivers/STM32F0xx_HAL_Driver/Src/stm32f0xx_hal_rtc_ex.c ****         __HAL_RTC_WRITEPROTECTION_ENABLE(hrtc);
1313:Drivers/STM32F0xx_HAL_Driver/Src/stm32f0xx_hal_rtc_ex.c **** 
1314:Drivers/STM32F0xx_HAL_Driver/Src/stm32f0xx_hal_rtc_ex.c ****         hrtc->State = HAL_RTC_STATE_ERROR;
1315:Drivers/STM32F0xx_HAL_Driver/Src/stm32f0xx_hal_rtc_ex.c **** 
1316:Drivers/STM32F0xx_HAL_Driver/Src/stm32f0xx_hal_rtc_ex.c ****         /* Process Unlocked */
1317:Drivers/STM32F0xx_HAL_Driver/Src/stm32f0xx_hal_rtc_ex.c ****         __HAL_UNLOCK(hrtc);
1318:Drivers/STM32F0xx_HAL_Driver/Src/stm32f0xx_hal_rtc_ex.c **** 
1319:Drivers/STM32F0xx_HAL_Driver/Src/stm32f0xx_hal_rtc_ex.c ****         return HAL_ERROR;
1320:Drivers/STM32F0xx_HAL_Driver/Src/stm32f0xx_hal_rtc_ex.c ****       }
1321:Drivers/STM32F0xx_HAL_Driver/Src/stm32f0xx_hal_rtc_ex.c ****     }
1322:Drivers/STM32F0xx_HAL_Driver/Src/stm32f0xx_hal_rtc_ex.c ****   }
1323:Drivers/STM32F0xx_HAL_Driver/Src/stm32f0xx_hal_rtc_ex.c ****   else
1324:Drivers/STM32F0xx_HAL_Driver/Src/stm32f0xx_hal_rtc_ex.c ****   {
1325:Drivers/STM32F0xx_HAL_Driver/Src/stm32f0xx_hal_rtc_ex.c ****     /* Enable the write protection for RTC registers */
1326:Drivers/STM32F0xx_HAL_Driver/Src/stm32f0xx_hal_rtc_ex.c ****     __HAL_RTC_WRITEPROTECTION_ENABLE(hrtc);
1327:Drivers/STM32F0xx_HAL_Driver/Src/stm32f0xx_hal_rtc_ex.c **** 
1328:Drivers/STM32F0xx_HAL_Driver/Src/stm32f0xx_hal_rtc_ex.c ****     /* Change RTC state */
1329:Drivers/STM32F0xx_HAL_Driver/Src/stm32f0xx_hal_rtc_ex.c ****     hrtc->State = HAL_RTC_STATE_ERROR;
1330:Drivers/STM32F0xx_HAL_Driver/Src/stm32f0xx_hal_rtc_ex.c **** 
1331:Drivers/STM32F0xx_HAL_Driver/Src/stm32f0xx_hal_rtc_ex.c ****     /* Process Unlocked */
1332:Drivers/STM32F0xx_HAL_Driver/Src/stm32f0xx_hal_rtc_ex.c ****     __HAL_UNLOCK(hrtc);
1333:Drivers/STM32F0xx_HAL_Driver/Src/stm32f0xx_hal_rtc_ex.c **** 
ARM GAS  /tmp/ccJbOwNd.s 			page 57


1334:Drivers/STM32F0xx_HAL_Driver/Src/stm32f0xx_hal_rtc_ex.c ****     return HAL_ERROR;
1335:Drivers/STM32F0xx_HAL_Driver/Src/stm32f0xx_hal_rtc_ex.c ****   }
1336:Drivers/STM32F0xx_HAL_Driver/Src/stm32f0xx_hal_rtc_ex.c **** 
1337:Drivers/STM32F0xx_HAL_Driver/Src/stm32f0xx_hal_rtc_ex.c ****   /* Enable the write protection for RTC registers */
1338:Drivers/STM32F0xx_HAL_Driver/Src/stm32f0xx_hal_rtc_ex.c ****   __HAL_RTC_WRITEPROTECTION_ENABLE(hrtc);
1339:Drivers/STM32F0xx_HAL_Driver/Src/stm32f0xx_hal_rtc_ex.c **** 
1340:Drivers/STM32F0xx_HAL_Driver/Src/stm32f0xx_hal_rtc_ex.c ****   /* Change RTC state */
1341:Drivers/STM32F0xx_HAL_Driver/Src/stm32f0xx_hal_rtc_ex.c ****   hrtc->State = HAL_RTC_STATE_READY;
1342:Drivers/STM32F0xx_HAL_Driver/Src/stm32f0xx_hal_rtc_ex.c **** 
1343:Drivers/STM32F0xx_HAL_Driver/Src/stm32f0xx_hal_rtc_ex.c ****   /* Process Unlocked */
1344:Drivers/STM32F0xx_HAL_Driver/Src/stm32f0xx_hal_rtc_ex.c ****   __HAL_UNLOCK(hrtc);
1345:Drivers/STM32F0xx_HAL_Driver/Src/stm32f0xx_hal_rtc_ex.c **** 
1346:Drivers/STM32F0xx_HAL_Driver/Src/stm32f0xx_hal_rtc_ex.c ****   return HAL_OK;
1347:Drivers/STM32F0xx_HAL_Driver/Src/stm32f0xx_hal_rtc_ex.c **** }
 1801              		.loc 1 1347 1 view .LVU572
 1802              		@ sp needed
 1803              	.LVL134:
 1804              	.LVL135:
 1805              		.loc 1 1347 1 view .LVU573
 1806 004e F8BD     		pop	{r3, r4, r5, r6, r7, pc}
 1807              	.LVL136:
 1808              	.L93:
1301:Drivers/STM32F0xx_HAL_Driver/Src/stm32f0xx_hal_rtc_ex.c ****   {
 1809              		.loc 1 1301 3 is_stmt 1 view .LVU574
1301:Drivers/STM32F0xx_HAL_Driver/Src/stm32f0xx_hal_rtc_ex.c ****   {
 1810              		.loc 1 1301 22 is_stmt 0 view .LVU575
 1811 0050 9A68     		ldr	r2, [r3, #8]
1301:Drivers/STM32F0xx_HAL_Driver/Src/stm32f0xx_hal_rtc_ex.c ****   {
 1812              		.loc 1 1301 6 view .LVU576
 1813 0052 D206     		lsls	r2, r2, #27
 1814 0054 1CD4     		bmi	.L90
1304:Drivers/STM32F0xx_HAL_Driver/Src/stm32f0xx_hal_rtc_ex.c **** 
 1815              		.loc 1 1304 5 is_stmt 1 view .LVU577
1304:Drivers/STM32F0xx_HAL_Driver/Src/stm32f0xx_hal_rtc_ex.c **** 
 1816              		.loc 1 1304 63 is_stmt 0 view .LVU578
 1817 0056 2C43     		orrs	r4, r5
 1818              	.LVL137:
1304:Drivers/STM32F0xx_HAL_Driver/Src/stm32f0xx_hal_rtc_ex.c **** 
 1819              		.loc 1 1304 28 view .LVU579
 1820 0058 DC62     		str	r4, [r3, #44]
1307:Drivers/STM32F0xx_HAL_Driver/Src/stm32f0xx_hal_rtc_ex.c ****     {
 1821              		.loc 1 1307 5 is_stmt 1 view .LVU580
1307:Drivers/STM32F0xx_HAL_Driver/Src/stm32f0xx_hal_rtc_ex.c ****     {
 1822              		.loc 1 1307 14 is_stmt 0 view .LVU581
 1823 005a 3368     		ldr	r3, [r6]
1307:Drivers/STM32F0xx_HAL_Driver/Src/stm32f0xx_hal_rtc_ex.c ****     {
 1824              		.loc 1 1307 24 view .LVU582
 1825 005c 9B68     		ldr	r3, [r3, #8]
1307:Drivers/STM32F0xx_HAL_Driver/Src/stm32f0xx_hal_rtc_ex.c ****     {
 1826              		.loc 1 1307 8 view .LVU583
 1827 005e 9B06     		lsls	r3, r3, #26
 1828 0060 08D5     		bpl	.L94
 1829              	.L91:
1338:Drivers/STM32F0xx_HAL_Driver/Src/stm32f0xx_hal_rtc_ex.c **** 
 1830              		.loc 1 1338 3 is_stmt 1 view .LVU584
1338:Drivers/STM32F0xx_HAL_Driver/Src/stm32f0xx_hal_rtc_ex.c **** 
 1831              		.loc 1 1338 3 view .LVU585
ARM GAS  /tmp/ccJbOwNd.s 			page 58


 1832 0062 3368     		ldr	r3, [r6]
 1833 0064 FF22     		movs	r2, #255
 1834 0066 5A62     		str	r2, [r3, #36]
1338:Drivers/STM32F0xx_HAL_Driver/Src/stm32f0xx_hal_rtc_ex.c **** 
 1835              		.loc 1 1338 3 view .LVU586
1341:Drivers/STM32F0xx_HAL_Driver/Src/stm32f0xx_hal_rtc_ex.c **** 
 1836              		.loc 1 1341 3 view .LVU587
1341:Drivers/STM32F0xx_HAL_Driver/Src/stm32f0xx_hal_rtc_ex.c **** 
 1837              		.loc 1 1341 15 is_stmt 0 view .LVU588
 1838 0068 0123     		movs	r3, #1
 1839 006a 7377     		strb	r3, [r6, #29]
1344:Drivers/STM32F0xx_HAL_Driver/Src/stm32f0xx_hal_rtc_ex.c **** 
 1840              		.loc 1 1344 3 is_stmt 1 view .LVU589
1344:Drivers/STM32F0xx_HAL_Driver/Src/stm32f0xx_hal_rtc_ex.c **** 
 1841              		.loc 1 1344 3 view .LVU590
 1842 006c 0023     		movs	r3, #0
 1843 006e 3377     		strb	r3, [r6, #28]
1344:Drivers/STM32F0xx_HAL_Driver/Src/stm32f0xx_hal_rtc_ex.c **** 
 1844              		.loc 1 1344 3 view .LVU591
1346:Drivers/STM32F0xx_HAL_Driver/Src/stm32f0xx_hal_rtc_ex.c **** }
 1845              		.loc 1 1346 3 view .LVU592
1346:Drivers/STM32F0xx_HAL_Driver/Src/stm32f0xx_hal_rtc_ex.c **** }
 1846              		.loc 1 1346 10 is_stmt 0 view .LVU593
 1847 0070 0020     		movs	r0, #0
 1848 0072 ECE7     		b	.L87
 1849              	.L94:
1309:Drivers/STM32F0xx_HAL_Driver/Src/stm32f0xx_hal_rtc_ex.c ****       {
 1850              		.loc 1 1309 7 is_stmt 1 view .LVU594
1309:Drivers/STM32F0xx_HAL_Driver/Src/stm32f0xx_hal_rtc_ex.c ****       {
 1851              		.loc 1 1309 11 is_stmt 0 view .LVU595
 1852 0074 3000     		movs	r0, r6
 1853 0076 FFF7FEFF 		bl	HAL_RTC_WaitForSynchro
 1854              	.LVL138:
1309:Drivers/STM32F0xx_HAL_Driver/Src/stm32f0xx_hal_rtc_ex.c ****       {
 1855              		.loc 1 1309 10 view .LVU596
 1856 007a 0028     		cmp	r0, #0
 1857 007c F1D0     		beq	.L91
1312:Drivers/STM32F0xx_HAL_Driver/Src/stm32f0xx_hal_rtc_ex.c **** 
 1858              		.loc 1 1312 9 is_stmt 1 view .LVU597
1312:Drivers/STM32F0xx_HAL_Driver/Src/stm32f0xx_hal_rtc_ex.c **** 
 1859              		.loc 1 1312 9 view .LVU598
 1860 007e 3368     		ldr	r3, [r6]
 1861 0080 FF22     		movs	r2, #255
 1862 0082 5A62     		str	r2, [r3, #36]
1312:Drivers/STM32F0xx_HAL_Driver/Src/stm32f0xx_hal_rtc_ex.c **** 
 1863              		.loc 1 1312 9 view .LVU599
1314:Drivers/STM32F0xx_HAL_Driver/Src/stm32f0xx_hal_rtc_ex.c **** 
 1864              		.loc 1 1314 9 view .LVU600
1314:Drivers/STM32F0xx_HAL_Driver/Src/stm32f0xx_hal_rtc_ex.c **** 
 1865              		.loc 1 1314 21 is_stmt 0 view .LVU601
 1866 0084 0423     		movs	r3, #4
 1867 0086 7377     		strb	r3, [r6, #29]
1317:Drivers/STM32F0xx_HAL_Driver/Src/stm32f0xx_hal_rtc_ex.c **** 
 1868              		.loc 1 1317 9 is_stmt 1 view .LVU602
1317:Drivers/STM32F0xx_HAL_Driver/Src/stm32f0xx_hal_rtc_ex.c **** 
 1869              		.loc 1 1317 9 view .LVU603
 1870 0088 0023     		movs	r3, #0
ARM GAS  /tmp/ccJbOwNd.s 			page 59


 1871 008a 3377     		strb	r3, [r6, #28]
1317:Drivers/STM32F0xx_HAL_Driver/Src/stm32f0xx_hal_rtc_ex.c **** 
 1872              		.loc 1 1317 9 view .LVU604
1319:Drivers/STM32F0xx_HAL_Driver/Src/stm32f0xx_hal_rtc_ex.c ****       }
 1873              		.loc 1 1319 9 view .LVU605
1319:Drivers/STM32F0xx_HAL_Driver/Src/stm32f0xx_hal_rtc_ex.c ****       }
 1874              		.loc 1 1319 16 is_stmt 0 view .LVU606
 1875 008c 0120     		movs	r0, #1
 1876 008e DEE7     		b	.L87
 1877              	.LVL139:
 1878              	.L90:
1326:Drivers/STM32F0xx_HAL_Driver/Src/stm32f0xx_hal_rtc_ex.c **** 
 1879              		.loc 1 1326 5 is_stmt 1 view .LVU607
1326:Drivers/STM32F0xx_HAL_Driver/Src/stm32f0xx_hal_rtc_ex.c **** 
 1880              		.loc 1 1326 5 view .LVU608
 1881 0090 FF22     		movs	r2, #255
 1882 0092 5A62     		str	r2, [r3, #36]
1326:Drivers/STM32F0xx_HAL_Driver/Src/stm32f0xx_hal_rtc_ex.c **** 
 1883              		.loc 1 1326 5 view .LVU609
1329:Drivers/STM32F0xx_HAL_Driver/Src/stm32f0xx_hal_rtc_ex.c **** 
 1884              		.loc 1 1329 5 view .LVU610
1329:Drivers/STM32F0xx_HAL_Driver/Src/stm32f0xx_hal_rtc_ex.c **** 
 1885              		.loc 1 1329 17 is_stmt 0 view .LVU611
 1886 0094 0423     		movs	r3, #4
 1887 0096 7377     		strb	r3, [r6, #29]
1332:Drivers/STM32F0xx_HAL_Driver/Src/stm32f0xx_hal_rtc_ex.c **** 
 1888              		.loc 1 1332 5 is_stmt 1 view .LVU612
1332:Drivers/STM32F0xx_HAL_Driver/Src/stm32f0xx_hal_rtc_ex.c **** 
 1889              		.loc 1 1332 5 view .LVU613
 1890 0098 0023     		movs	r3, #0
 1891 009a 3377     		strb	r3, [r6, #28]
1332:Drivers/STM32F0xx_HAL_Driver/Src/stm32f0xx_hal_rtc_ex.c **** 
 1892              		.loc 1 1332 5 view .LVU614
1334:Drivers/STM32F0xx_HAL_Driver/Src/stm32f0xx_hal_rtc_ex.c ****   }
 1893              		.loc 1 1334 5 view .LVU615
1334:Drivers/STM32F0xx_HAL_Driver/Src/stm32f0xx_hal_rtc_ex.c ****   }
 1894              		.loc 1 1334 12 is_stmt 0 view .LVU616
 1895 009c 0120     		movs	r0, #1
 1896 009e D6E7     		b	.L87
 1897              	.LVL140:
 1898              	.L92:
1274:Drivers/STM32F0xx_HAL_Driver/Src/stm32f0xx_hal_rtc_ex.c **** 
 1899              		.loc 1 1274 3 view .LVU617
 1900 00a0 0220     		movs	r0, #2
 1901              	.LVL141:
1274:Drivers/STM32F0xx_HAL_Driver/Src/stm32f0xx_hal_rtc_ex.c **** 
 1902              		.loc 1 1274 3 view .LVU618
 1903 00a2 D4E7     		b	.L87
 1904              		.cfi_endproc
 1905              	.LFE57:
 1907              		.section	.text.HAL_RTCEx_SetCalibrationOutPut,"ax",%progbits
 1908              		.align	1
 1909              		.global	HAL_RTCEx_SetCalibrationOutPut
 1910              		.syntax unified
 1911              		.code	16
 1912              		.thumb_func
 1913              		.fpu softvfp
ARM GAS  /tmp/ccJbOwNd.s 			page 60


 1915              	HAL_RTCEx_SetCalibrationOutPut:
 1916              	.LVL142:
 1917              	.LFB58:
1348:Drivers/STM32F0xx_HAL_Driver/Src/stm32f0xx_hal_rtc_ex.c **** 
1349:Drivers/STM32F0xx_HAL_Driver/Src/stm32f0xx_hal_rtc_ex.c **** /**
1350:Drivers/STM32F0xx_HAL_Driver/Src/stm32f0xx_hal_rtc_ex.c ****   * @brief  Configure the Calibration Pinout (RTC_CALIB) Selection (1Hz or 512Hz).
1351:Drivers/STM32F0xx_HAL_Driver/Src/stm32f0xx_hal_rtc_ex.c ****   * @param  hrtc RTC handle
1352:Drivers/STM32F0xx_HAL_Driver/Src/stm32f0xx_hal_rtc_ex.c ****   * @param  CalibOutput Select the Calibration output Selection .
1353:Drivers/STM32F0xx_HAL_Driver/Src/stm32f0xx_hal_rtc_ex.c ****   *          This parameter can be one of the following values:
1354:Drivers/STM32F0xx_HAL_Driver/Src/stm32f0xx_hal_rtc_ex.c ****   *             @arg RTC_CALIBOUTPUT_512HZ: A signal has a regular waveform at 512Hz.
1355:Drivers/STM32F0xx_HAL_Driver/Src/stm32f0xx_hal_rtc_ex.c ****   *             @arg RTC_CALIBOUTPUT_1HZ: A signal has a regular waveform at 1Hz.
1356:Drivers/STM32F0xx_HAL_Driver/Src/stm32f0xx_hal_rtc_ex.c ****   * @retval HAL status
1357:Drivers/STM32F0xx_HAL_Driver/Src/stm32f0xx_hal_rtc_ex.c ****   */
1358:Drivers/STM32F0xx_HAL_Driver/Src/stm32f0xx_hal_rtc_ex.c **** HAL_StatusTypeDef HAL_RTCEx_SetCalibrationOutPut(RTC_HandleTypeDef *hrtc, uint32_t CalibOutput)
1359:Drivers/STM32F0xx_HAL_Driver/Src/stm32f0xx_hal_rtc_ex.c **** {
 1918              		.loc 1 1359 1 is_stmt 1 view -0
 1919              		.cfi_startproc
 1920              		@ args = 0, pretend = 0, frame = 0
 1921              		@ frame_needed = 0, uses_anonymous_args = 0
 1922              		.loc 1 1359 1 is_stmt 0 view .LVU620
 1923 0000 30B5     		push	{r4, r5, lr}
 1924              	.LCFI15:
 1925              		.cfi_def_cfa_offset 12
 1926              		.cfi_offset 4, -12
 1927              		.cfi_offset 5, -8
 1928              		.cfi_offset 14, -4
 1929 0002 0C00     		movs	r4, r1
1360:Drivers/STM32F0xx_HAL_Driver/Src/stm32f0xx_hal_rtc_ex.c ****   /* Check the parameters */
1361:Drivers/STM32F0xx_HAL_Driver/Src/stm32f0xx_hal_rtc_ex.c ****   assert_param(IS_RTC_CALIB_OUTPUT(CalibOutput));
 1930              		.loc 1 1361 3 is_stmt 1 view .LVU621
1362:Drivers/STM32F0xx_HAL_Driver/Src/stm32f0xx_hal_rtc_ex.c **** 
1363:Drivers/STM32F0xx_HAL_Driver/Src/stm32f0xx_hal_rtc_ex.c ****   /* Process Locked */
1364:Drivers/STM32F0xx_HAL_Driver/Src/stm32f0xx_hal_rtc_ex.c ****   __HAL_LOCK(hrtc);
 1931              		.loc 1 1364 3 view .LVU622
 1932              		.loc 1 1364 3 view .LVU623
 1933 0004 037F     		ldrb	r3, [r0, #28]
 1934 0006 012B     		cmp	r3, #1
 1935 0008 20D0     		beq	.L97
 1936              		.loc 1 1364 3 discriminator 2 view .LVU624
 1937 000a 0125     		movs	r5, #1
 1938 000c 0577     		strb	r5, [r0, #28]
 1939              		.loc 1 1364 3 discriminator 2 view .LVU625
1365:Drivers/STM32F0xx_HAL_Driver/Src/stm32f0xx_hal_rtc_ex.c **** 
1366:Drivers/STM32F0xx_HAL_Driver/Src/stm32f0xx_hal_rtc_ex.c ****   hrtc->State = HAL_RTC_STATE_BUSY;
 1940              		.loc 1 1366 3 discriminator 2 view .LVU626
 1941              		.loc 1 1366 15 is_stmt 0 discriminator 2 view .LVU627
 1942 000e 0223     		movs	r3, #2
 1943 0010 4377     		strb	r3, [r0, #29]
1367:Drivers/STM32F0xx_HAL_Driver/Src/stm32f0xx_hal_rtc_ex.c **** 
1368:Drivers/STM32F0xx_HAL_Driver/Src/stm32f0xx_hal_rtc_ex.c ****   /* Disable the write protection for RTC registers */
1369:Drivers/STM32F0xx_HAL_Driver/Src/stm32f0xx_hal_rtc_ex.c ****   __HAL_RTC_WRITEPROTECTION_DISABLE(hrtc);
 1944              		.loc 1 1369 3 is_stmt 1 discriminator 2 view .LVU628
 1945              		.loc 1 1369 3 discriminator 2 view .LVU629
 1946 0012 0368     		ldr	r3, [r0]
 1947 0014 CA22     		movs	r2, #202
 1948 0016 5A62     		str	r2, [r3, #36]
 1949              		.loc 1 1369 3 discriminator 2 view .LVU630
ARM GAS  /tmp/ccJbOwNd.s 			page 61


 1950 0018 0368     		ldr	r3, [r0]
 1951 001a 773A     		subs	r2, r2, #119
 1952 001c 5A62     		str	r2, [r3, #36]
 1953              		.loc 1 1369 3 discriminator 2 view .LVU631
1370:Drivers/STM32F0xx_HAL_Driver/Src/stm32f0xx_hal_rtc_ex.c **** 
1371:Drivers/STM32F0xx_HAL_Driver/Src/stm32f0xx_hal_rtc_ex.c ****   /* Clear flags before config */
1372:Drivers/STM32F0xx_HAL_Driver/Src/stm32f0xx_hal_rtc_ex.c ****   hrtc->Instance->CR &= (uint32_t)~RTC_CR_COSEL;
 1954              		.loc 1 1372 3 discriminator 2 view .LVU632
 1955              		.loc 1 1372 7 is_stmt 0 discriminator 2 view .LVU633
 1956 001e 0268     		ldr	r2, [r0]
 1957              		.loc 1 1372 22 discriminator 2 view .LVU634
 1958 0020 9368     		ldr	r3, [r2, #8]
 1959 0022 0B49     		ldr	r1, .L98
 1960              	.LVL143:
 1961              		.loc 1 1372 22 discriminator 2 view .LVU635
 1962 0024 0B40     		ands	r3, r1
 1963 0026 9360     		str	r3, [r2, #8]
1373:Drivers/STM32F0xx_HAL_Driver/Src/stm32f0xx_hal_rtc_ex.c **** 
1374:Drivers/STM32F0xx_HAL_Driver/Src/stm32f0xx_hal_rtc_ex.c ****   /* Configure the RTC_CR register */
1375:Drivers/STM32F0xx_HAL_Driver/Src/stm32f0xx_hal_rtc_ex.c ****   hrtc->Instance->CR |= (uint32_t)CalibOutput;
 1964              		.loc 1 1375 3 is_stmt 1 discriminator 2 view .LVU636
 1965              		.loc 1 1375 7 is_stmt 0 discriminator 2 view .LVU637
 1966 0028 0368     		ldr	r3, [r0]
 1967              		.loc 1 1375 22 discriminator 2 view .LVU638
 1968 002a 9968     		ldr	r1, [r3, #8]
 1969 002c 2143     		orrs	r1, r4
 1970 002e 9960     		str	r1, [r3, #8]
1376:Drivers/STM32F0xx_HAL_Driver/Src/stm32f0xx_hal_rtc_ex.c **** 
1377:Drivers/STM32F0xx_HAL_Driver/Src/stm32f0xx_hal_rtc_ex.c ****   __HAL_RTC_CALIBRATION_OUTPUT_ENABLE(hrtc);
 1971              		.loc 1 1377 3 is_stmt 1 discriminator 2 view .LVU639
 1972 0030 0268     		ldr	r2, [r0]
 1973 0032 9168     		ldr	r1, [r2, #8]
 1974 0034 8023     		movs	r3, #128
 1975 0036 1B04     		lsls	r3, r3, #16
 1976 0038 0B43     		orrs	r3, r1
 1977 003a 9360     		str	r3, [r2, #8]
1378:Drivers/STM32F0xx_HAL_Driver/Src/stm32f0xx_hal_rtc_ex.c **** 
1379:Drivers/STM32F0xx_HAL_Driver/Src/stm32f0xx_hal_rtc_ex.c ****   /* Enable the write protection for RTC registers */
1380:Drivers/STM32F0xx_HAL_Driver/Src/stm32f0xx_hal_rtc_ex.c ****   __HAL_RTC_WRITEPROTECTION_ENABLE(hrtc);
 1978              		.loc 1 1380 3 discriminator 2 view .LVU640
 1979              		.loc 1 1380 3 discriminator 2 view .LVU641
 1980 003c 0368     		ldr	r3, [r0]
 1981 003e FF22     		movs	r2, #255
 1982 0040 5A62     		str	r2, [r3, #36]
 1983              		.loc 1 1380 3 discriminator 2 view .LVU642
1381:Drivers/STM32F0xx_HAL_Driver/Src/stm32f0xx_hal_rtc_ex.c **** 
1382:Drivers/STM32F0xx_HAL_Driver/Src/stm32f0xx_hal_rtc_ex.c ****   /* Change RTC state */
1383:Drivers/STM32F0xx_HAL_Driver/Src/stm32f0xx_hal_rtc_ex.c ****   hrtc->State = HAL_RTC_STATE_READY;
 1984              		.loc 1 1383 3 discriminator 2 view .LVU643
 1985              		.loc 1 1383 15 is_stmt 0 discriminator 2 view .LVU644
 1986 0042 4577     		strb	r5, [r0, #29]
1384:Drivers/STM32F0xx_HAL_Driver/Src/stm32f0xx_hal_rtc_ex.c **** 
1385:Drivers/STM32F0xx_HAL_Driver/Src/stm32f0xx_hal_rtc_ex.c ****   /* Process Unlocked */
1386:Drivers/STM32F0xx_HAL_Driver/Src/stm32f0xx_hal_rtc_ex.c ****   __HAL_UNLOCK(hrtc);
 1987              		.loc 1 1386 3 is_stmt 1 discriminator 2 view .LVU645
 1988              		.loc 1 1386 3 discriminator 2 view .LVU646
 1989 0044 0023     		movs	r3, #0
ARM GAS  /tmp/ccJbOwNd.s 			page 62


 1990 0046 0377     		strb	r3, [r0, #28]
 1991              		.loc 1 1386 3 discriminator 2 view .LVU647
1387:Drivers/STM32F0xx_HAL_Driver/Src/stm32f0xx_hal_rtc_ex.c **** 
1388:Drivers/STM32F0xx_HAL_Driver/Src/stm32f0xx_hal_rtc_ex.c ****   return HAL_OK;
 1992              		.loc 1 1388 3 discriminator 2 view .LVU648
 1993              		.loc 1 1388 10 is_stmt 0 discriminator 2 view .LVU649
 1994 0048 0020     		movs	r0, #0
 1995              	.LVL144:
 1996              	.L96:
1389:Drivers/STM32F0xx_HAL_Driver/Src/stm32f0xx_hal_rtc_ex.c **** }
 1997              		.loc 1 1389 1 view .LVU650
 1998              		@ sp needed
 1999              	.LVL145:
 2000              		.loc 1 1389 1 view .LVU651
 2001 004a 30BD     		pop	{r4, r5, pc}
 2002              	.LVL146:
 2003              	.L97:
1364:Drivers/STM32F0xx_HAL_Driver/Src/stm32f0xx_hal_rtc_ex.c **** 
 2004              		.loc 1 1364 3 view .LVU652
 2005 004c 0220     		movs	r0, #2
 2006              	.LVL147:
1364:Drivers/STM32F0xx_HAL_Driver/Src/stm32f0xx_hal_rtc_ex.c **** 
 2007              		.loc 1 1364 3 view .LVU653
 2008 004e FCE7     		b	.L96
 2009              	.L99:
 2010              		.align	2
 2011              	.L98:
 2012 0050 FFFFF7FF 		.word	-524289
 2013              		.cfi_endproc
 2014              	.LFE58:
 2016              		.section	.text.HAL_RTCEx_DeactivateCalibrationOutPut,"ax",%progbits
 2017              		.align	1
 2018              		.global	HAL_RTCEx_DeactivateCalibrationOutPut
 2019              		.syntax unified
 2020              		.code	16
 2021              		.thumb_func
 2022              		.fpu softvfp
 2024              	HAL_RTCEx_DeactivateCalibrationOutPut:
 2025              	.LVL148:
 2026              	.LFB59:
1390:Drivers/STM32F0xx_HAL_Driver/Src/stm32f0xx_hal_rtc_ex.c **** 
1391:Drivers/STM32F0xx_HAL_Driver/Src/stm32f0xx_hal_rtc_ex.c **** /**
1392:Drivers/STM32F0xx_HAL_Driver/Src/stm32f0xx_hal_rtc_ex.c ****   * @brief  Deactivate the Calibration Pinout (RTC_CALIB) Selection (1Hz or 512Hz).
1393:Drivers/STM32F0xx_HAL_Driver/Src/stm32f0xx_hal_rtc_ex.c ****   * @param  hrtc RTC handle
1394:Drivers/STM32F0xx_HAL_Driver/Src/stm32f0xx_hal_rtc_ex.c ****   * @retval HAL status
1395:Drivers/STM32F0xx_HAL_Driver/Src/stm32f0xx_hal_rtc_ex.c ****   */
1396:Drivers/STM32F0xx_HAL_Driver/Src/stm32f0xx_hal_rtc_ex.c **** HAL_StatusTypeDef HAL_RTCEx_DeactivateCalibrationOutPut(RTC_HandleTypeDef *hrtc)
1397:Drivers/STM32F0xx_HAL_Driver/Src/stm32f0xx_hal_rtc_ex.c **** {
 2027              		.loc 1 1397 1 is_stmt 1 view -0
 2028              		.cfi_startproc
 2029              		@ args = 0, pretend = 0, frame = 0
 2030              		@ frame_needed = 0, uses_anonymous_args = 0
 2031              		.loc 1 1397 1 is_stmt 0 view .LVU655
 2032 0000 10B5     		push	{r4, lr}
 2033              	.LCFI16:
 2034              		.cfi_def_cfa_offset 8
 2035              		.cfi_offset 4, -8
ARM GAS  /tmp/ccJbOwNd.s 			page 63


 2036              		.cfi_offset 14, -4
1398:Drivers/STM32F0xx_HAL_Driver/Src/stm32f0xx_hal_rtc_ex.c ****   /* Process Locked */
1399:Drivers/STM32F0xx_HAL_Driver/Src/stm32f0xx_hal_rtc_ex.c ****   __HAL_LOCK(hrtc);
 2037              		.loc 1 1399 3 is_stmt 1 view .LVU656
 2038              		.loc 1 1399 3 view .LVU657
 2039 0002 037F     		ldrb	r3, [r0, #28]
 2040 0004 012B     		cmp	r3, #1
 2041 0006 16D0     		beq	.L102
 2042              		.loc 1 1399 3 discriminator 2 view .LVU658
 2043 0008 0122     		movs	r2, #1
 2044 000a 0277     		strb	r2, [r0, #28]
 2045              		.loc 1 1399 3 discriminator 2 view .LVU659
1400:Drivers/STM32F0xx_HAL_Driver/Src/stm32f0xx_hal_rtc_ex.c **** 
1401:Drivers/STM32F0xx_HAL_Driver/Src/stm32f0xx_hal_rtc_ex.c ****   hrtc->State = HAL_RTC_STATE_BUSY;
 2046              		.loc 1 1401 3 discriminator 2 view .LVU660
 2047              		.loc 1 1401 15 is_stmt 0 discriminator 2 view .LVU661
 2048 000c 0223     		movs	r3, #2
 2049 000e 4377     		strb	r3, [r0, #29]
1402:Drivers/STM32F0xx_HAL_Driver/Src/stm32f0xx_hal_rtc_ex.c **** 
1403:Drivers/STM32F0xx_HAL_Driver/Src/stm32f0xx_hal_rtc_ex.c ****   /* Disable the write protection for RTC registers */
1404:Drivers/STM32F0xx_HAL_Driver/Src/stm32f0xx_hal_rtc_ex.c ****   __HAL_RTC_WRITEPROTECTION_DISABLE(hrtc);
 2050              		.loc 1 1404 3 is_stmt 1 discriminator 2 view .LVU662
 2051              		.loc 1 1404 3 discriminator 2 view .LVU663
 2052 0010 0368     		ldr	r3, [r0]
 2053 0012 CA21     		movs	r1, #202
 2054 0014 5962     		str	r1, [r3, #36]
 2055              		.loc 1 1404 3 discriminator 2 view .LVU664
 2056 0016 0368     		ldr	r3, [r0]
 2057 0018 7739     		subs	r1, r1, #119
 2058 001a 5962     		str	r1, [r3, #36]
 2059              		.loc 1 1404 3 discriminator 2 view .LVU665
1405:Drivers/STM32F0xx_HAL_Driver/Src/stm32f0xx_hal_rtc_ex.c **** 
1406:Drivers/STM32F0xx_HAL_Driver/Src/stm32f0xx_hal_rtc_ex.c ****   __HAL_RTC_CALIBRATION_OUTPUT_DISABLE(hrtc);
 2060              		.loc 1 1406 3 discriminator 2 view .LVU666
 2061 001c 0168     		ldr	r1, [r0]
 2062 001e 8B68     		ldr	r3, [r1, #8]
 2063 0020 064C     		ldr	r4, .L103
 2064 0022 2340     		ands	r3, r4
 2065 0024 8B60     		str	r3, [r1, #8]
1407:Drivers/STM32F0xx_HAL_Driver/Src/stm32f0xx_hal_rtc_ex.c **** 
1408:Drivers/STM32F0xx_HAL_Driver/Src/stm32f0xx_hal_rtc_ex.c ****   /* Enable the write protection for RTC registers */
1409:Drivers/STM32F0xx_HAL_Driver/Src/stm32f0xx_hal_rtc_ex.c ****   __HAL_RTC_WRITEPROTECTION_ENABLE(hrtc);
 2066              		.loc 1 1409 3 discriminator 2 view .LVU667
 2067              		.loc 1 1409 3 discriminator 2 view .LVU668
 2068 0026 0368     		ldr	r3, [r0]
 2069 0028 FF21     		movs	r1, #255
 2070 002a 5962     		str	r1, [r3, #36]
 2071              		.loc 1 1409 3 discriminator 2 view .LVU669
1410:Drivers/STM32F0xx_HAL_Driver/Src/stm32f0xx_hal_rtc_ex.c **** 
1411:Drivers/STM32F0xx_HAL_Driver/Src/stm32f0xx_hal_rtc_ex.c ****   /* Change RTC state */
1412:Drivers/STM32F0xx_HAL_Driver/Src/stm32f0xx_hal_rtc_ex.c ****   hrtc->State = HAL_RTC_STATE_READY;
 2072              		.loc 1 1412 3 discriminator 2 view .LVU670
 2073              		.loc 1 1412 15 is_stmt 0 discriminator 2 view .LVU671
 2074 002c 4277     		strb	r2, [r0, #29]
1413:Drivers/STM32F0xx_HAL_Driver/Src/stm32f0xx_hal_rtc_ex.c **** 
1414:Drivers/STM32F0xx_HAL_Driver/Src/stm32f0xx_hal_rtc_ex.c ****   /* Process Unlocked */
1415:Drivers/STM32F0xx_HAL_Driver/Src/stm32f0xx_hal_rtc_ex.c ****   __HAL_UNLOCK(hrtc);
ARM GAS  /tmp/ccJbOwNd.s 			page 64


 2075              		.loc 1 1415 3 is_stmt 1 discriminator 2 view .LVU672
 2076              		.loc 1 1415 3 discriminator 2 view .LVU673
 2077 002e 0023     		movs	r3, #0
 2078 0030 0377     		strb	r3, [r0, #28]
 2079              		.loc 1 1415 3 discriminator 2 view .LVU674
1416:Drivers/STM32F0xx_HAL_Driver/Src/stm32f0xx_hal_rtc_ex.c **** 
1417:Drivers/STM32F0xx_HAL_Driver/Src/stm32f0xx_hal_rtc_ex.c ****   return HAL_OK;
 2080              		.loc 1 1417 3 discriminator 2 view .LVU675
 2081              		.loc 1 1417 10 is_stmt 0 discriminator 2 view .LVU676
 2082 0032 0020     		movs	r0, #0
 2083              	.LVL149:
 2084              	.L101:
1418:Drivers/STM32F0xx_HAL_Driver/Src/stm32f0xx_hal_rtc_ex.c **** }
 2085              		.loc 1 1418 1 view .LVU677
 2086              		@ sp needed
 2087 0034 10BD     		pop	{r4, pc}
 2088              	.LVL150:
 2089              	.L102:
1399:Drivers/STM32F0xx_HAL_Driver/Src/stm32f0xx_hal_rtc_ex.c **** 
 2090              		.loc 1 1399 3 view .LVU678
 2091 0036 0220     		movs	r0, #2
 2092              	.LVL151:
1399:Drivers/STM32F0xx_HAL_Driver/Src/stm32f0xx_hal_rtc_ex.c **** 
 2093              		.loc 1 1399 3 view .LVU679
 2094 0038 FCE7     		b	.L101
 2095              	.L104:
 2096 003a C046     		.align	2
 2097              	.L103:
 2098 003c FFFF7FFF 		.word	-8388609
 2099              		.cfi_endproc
 2100              	.LFE59:
 2102              		.section	.text.HAL_RTCEx_SetRefClock,"ax",%progbits
 2103              		.align	1
 2104              		.global	HAL_RTCEx_SetRefClock
 2105              		.syntax unified
 2106              		.code	16
 2107              		.thumb_func
 2108              		.fpu softvfp
 2110              	HAL_RTCEx_SetRefClock:
 2111              	.LVL152:
 2112              	.LFB60:
1419:Drivers/STM32F0xx_HAL_Driver/Src/stm32f0xx_hal_rtc_ex.c **** 
1420:Drivers/STM32F0xx_HAL_Driver/Src/stm32f0xx_hal_rtc_ex.c **** /**
1421:Drivers/STM32F0xx_HAL_Driver/Src/stm32f0xx_hal_rtc_ex.c ****   * @brief  Enable the RTC reference clock detection.
1422:Drivers/STM32F0xx_HAL_Driver/Src/stm32f0xx_hal_rtc_ex.c ****   * @param  hrtc RTC handle
1423:Drivers/STM32F0xx_HAL_Driver/Src/stm32f0xx_hal_rtc_ex.c ****   * @retval HAL status
1424:Drivers/STM32F0xx_HAL_Driver/Src/stm32f0xx_hal_rtc_ex.c ****   */
1425:Drivers/STM32F0xx_HAL_Driver/Src/stm32f0xx_hal_rtc_ex.c **** HAL_StatusTypeDef HAL_RTCEx_SetRefClock(RTC_HandleTypeDef *hrtc)
1426:Drivers/STM32F0xx_HAL_Driver/Src/stm32f0xx_hal_rtc_ex.c **** {
 2113              		.loc 1 1426 1 is_stmt 1 view -0
 2114              		.cfi_startproc
 2115              		@ args = 0, pretend = 0, frame = 0
 2116              		@ frame_needed = 0, uses_anonymous_args = 0
 2117              		.loc 1 1426 1 is_stmt 0 view .LVU681
 2118 0000 10B5     		push	{r4, lr}
 2119              	.LCFI17:
 2120              		.cfi_def_cfa_offset 8
ARM GAS  /tmp/ccJbOwNd.s 			page 65


 2121              		.cfi_offset 4, -8
 2122              		.cfi_offset 14, -4
 2123 0002 0400     		movs	r4, r0
1427:Drivers/STM32F0xx_HAL_Driver/Src/stm32f0xx_hal_rtc_ex.c ****   /* Process Locked */
1428:Drivers/STM32F0xx_HAL_Driver/Src/stm32f0xx_hal_rtc_ex.c ****   __HAL_LOCK(hrtc);
 2124              		.loc 1 1428 3 is_stmt 1 view .LVU682
 2125              		.loc 1 1428 3 view .LVU683
 2126 0004 037F     		ldrb	r3, [r0, #28]
 2127 0006 012B     		cmp	r3, #1
 2128 0008 28D0     		beq	.L108
 2129              		.loc 1 1428 3 discriminator 2 view .LVU684
 2130 000a 0123     		movs	r3, #1
 2131 000c 0377     		strb	r3, [r0, #28]
 2132              		.loc 1 1428 3 discriminator 2 view .LVU685
1429:Drivers/STM32F0xx_HAL_Driver/Src/stm32f0xx_hal_rtc_ex.c **** 
1430:Drivers/STM32F0xx_HAL_Driver/Src/stm32f0xx_hal_rtc_ex.c ****   hrtc->State = HAL_RTC_STATE_BUSY;
 2133              		.loc 1 1430 3 discriminator 2 view .LVU686
 2134              		.loc 1 1430 15 is_stmt 0 discriminator 2 view .LVU687
 2135 000e 0133     		adds	r3, r3, #1
 2136 0010 4377     		strb	r3, [r0, #29]
1431:Drivers/STM32F0xx_HAL_Driver/Src/stm32f0xx_hal_rtc_ex.c **** 
1432:Drivers/STM32F0xx_HAL_Driver/Src/stm32f0xx_hal_rtc_ex.c ****   /* Disable the write protection for RTC registers */
1433:Drivers/STM32F0xx_HAL_Driver/Src/stm32f0xx_hal_rtc_ex.c ****   __HAL_RTC_WRITEPROTECTION_DISABLE(hrtc);
 2137              		.loc 1 1433 3 is_stmt 1 discriminator 2 view .LVU688
 2138              		.loc 1 1433 3 discriminator 2 view .LVU689
 2139 0012 0368     		ldr	r3, [r0]
 2140 0014 CA22     		movs	r2, #202
 2141 0016 5A62     		str	r2, [r3, #36]
 2142              		.loc 1 1433 3 discriminator 2 view .LVU690
 2143 0018 0368     		ldr	r3, [r0]
 2144 001a 773A     		subs	r2, r2, #119
 2145 001c 5A62     		str	r2, [r3, #36]
 2146              		.loc 1 1433 3 discriminator 2 view .LVU691
1434:Drivers/STM32F0xx_HAL_Driver/Src/stm32f0xx_hal_rtc_ex.c **** 
1435:Drivers/STM32F0xx_HAL_Driver/Src/stm32f0xx_hal_rtc_ex.c ****   /* Set Initialization mode */
1436:Drivers/STM32F0xx_HAL_Driver/Src/stm32f0xx_hal_rtc_ex.c ****   if (RTC_EnterInitMode(hrtc) != HAL_OK)
 2147              		.loc 1 1436 3 discriminator 2 view .LVU692
 2148              		.loc 1 1436 7 is_stmt 0 discriminator 2 view .LVU693
 2149 001e FFF7FEFF 		bl	RTC_EnterInitMode
 2150              	.LVL153:
 2151              		.loc 1 1436 6 discriminator 2 view .LVU694
 2152 0022 0028     		cmp	r0, #0
 2153 0024 11D1     		bne	.L109
1437:Drivers/STM32F0xx_HAL_Driver/Src/stm32f0xx_hal_rtc_ex.c ****   {
1438:Drivers/STM32F0xx_HAL_Driver/Src/stm32f0xx_hal_rtc_ex.c ****     /* Enable the write protection for RTC registers */
1439:Drivers/STM32F0xx_HAL_Driver/Src/stm32f0xx_hal_rtc_ex.c ****     __HAL_RTC_WRITEPROTECTION_ENABLE(hrtc);
1440:Drivers/STM32F0xx_HAL_Driver/Src/stm32f0xx_hal_rtc_ex.c **** 
1441:Drivers/STM32F0xx_HAL_Driver/Src/stm32f0xx_hal_rtc_ex.c ****     /* Set RTC state*/
1442:Drivers/STM32F0xx_HAL_Driver/Src/stm32f0xx_hal_rtc_ex.c ****     hrtc->State = HAL_RTC_STATE_ERROR;
1443:Drivers/STM32F0xx_HAL_Driver/Src/stm32f0xx_hal_rtc_ex.c **** 
1444:Drivers/STM32F0xx_HAL_Driver/Src/stm32f0xx_hal_rtc_ex.c ****     /* Process Unlocked */
1445:Drivers/STM32F0xx_HAL_Driver/Src/stm32f0xx_hal_rtc_ex.c ****     __HAL_UNLOCK(hrtc);
1446:Drivers/STM32F0xx_HAL_Driver/Src/stm32f0xx_hal_rtc_ex.c **** 
1447:Drivers/STM32F0xx_HAL_Driver/Src/stm32f0xx_hal_rtc_ex.c ****     return HAL_ERROR;
1448:Drivers/STM32F0xx_HAL_Driver/Src/stm32f0xx_hal_rtc_ex.c ****   }
1449:Drivers/STM32F0xx_HAL_Driver/Src/stm32f0xx_hal_rtc_ex.c ****   else
1450:Drivers/STM32F0xx_HAL_Driver/Src/stm32f0xx_hal_rtc_ex.c ****   {
ARM GAS  /tmp/ccJbOwNd.s 			page 66


1451:Drivers/STM32F0xx_HAL_Driver/Src/stm32f0xx_hal_rtc_ex.c ****     __HAL_RTC_CLOCKREF_DETECTION_ENABLE(hrtc);
 2154              		.loc 1 1451 5 is_stmt 1 view .LVU695
 2155 0026 2268     		ldr	r2, [r4]
 2156 0028 9368     		ldr	r3, [r2, #8]
 2157 002a 1021     		movs	r1, #16
 2158 002c 0B43     		orrs	r3, r1
 2159 002e 9360     		str	r3, [r2, #8]
1452:Drivers/STM32F0xx_HAL_Driver/Src/stm32f0xx_hal_rtc_ex.c **** 
1453:Drivers/STM32F0xx_HAL_Driver/Src/stm32f0xx_hal_rtc_ex.c ****     /* Exit Initialization mode */
1454:Drivers/STM32F0xx_HAL_Driver/Src/stm32f0xx_hal_rtc_ex.c ****     hrtc->Instance->ISR &= (uint32_t)~RTC_ISR_INIT;
 2160              		.loc 1 1454 5 view .LVU696
 2161              		.loc 1 1454 9 is_stmt 0 view .LVU697
 2162 0030 2268     		ldr	r2, [r4]
 2163              		.loc 1 1454 25 view .LVU698
 2164 0032 D368     		ldr	r3, [r2, #12]
 2165 0034 7031     		adds	r1, r1, #112
 2166 0036 8B43     		bics	r3, r1
 2167 0038 D360     		str	r3, [r2, #12]
1455:Drivers/STM32F0xx_HAL_Driver/Src/stm32f0xx_hal_rtc_ex.c ****   }
1456:Drivers/STM32F0xx_HAL_Driver/Src/stm32f0xx_hal_rtc_ex.c **** 
1457:Drivers/STM32F0xx_HAL_Driver/Src/stm32f0xx_hal_rtc_ex.c ****   /* Enable the write protection for RTC registers */
1458:Drivers/STM32F0xx_HAL_Driver/Src/stm32f0xx_hal_rtc_ex.c ****   __HAL_RTC_WRITEPROTECTION_ENABLE(hrtc);
 2168              		.loc 1 1458 3 is_stmt 1 view .LVU699
 2169              		.loc 1 1458 3 view .LVU700
 2170 003a 2368     		ldr	r3, [r4]
 2171 003c FF22     		movs	r2, #255
 2172 003e 5A62     		str	r2, [r3, #36]
 2173              		.loc 1 1458 3 view .LVU701
1459:Drivers/STM32F0xx_HAL_Driver/Src/stm32f0xx_hal_rtc_ex.c **** 
1460:Drivers/STM32F0xx_HAL_Driver/Src/stm32f0xx_hal_rtc_ex.c ****   /* Change RTC state */
1461:Drivers/STM32F0xx_HAL_Driver/Src/stm32f0xx_hal_rtc_ex.c ****   hrtc->State = HAL_RTC_STATE_READY;
 2174              		.loc 1 1461 3 view .LVU702
 2175              		.loc 1 1461 15 is_stmt 0 view .LVU703
 2176 0040 0123     		movs	r3, #1
 2177 0042 6377     		strb	r3, [r4, #29]
1462:Drivers/STM32F0xx_HAL_Driver/Src/stm32f0xx_hal_rtc_ex.c **** 
1463:Drivers/STM32F0xx_HAL_Driver/Src/stm32f0xx_hal_rtc_ex.c ****   /* Process Unlocked */
1464:Drivers/STM32F0xx_HAL_Driver/Src/stm32f0xx_hal_rtc_ex.c ****   __HAL_UNLOCK(hrtc);
 2178              		.loc 1 1464 3 is_stmt 1 view .LVU704
 2179              		.loc 1 1464 3 view .LVU705
 2180 0044 0023     		movs	r3, #0
 2181 0046 2377     		strb	r3, [r4, #28]
 2182              		.loc 1 1464 3 view .LVU706
1465:Drivers/STM32F0xx_HAL_Driver/Src/stm32f0xx_hal_rtc_ex.c **** 
1466:Drivers/STM32F0xx_HAL_Driver/Src/stm32f0xx_hal_rtc_ex.c ****   return HAL_OK;
 2183              		.loc 1 1466 3 view .LVU707
 2184              	.L106:
1467:Drivers/STM32F0xx_HAL_Driver/Src/stm32f0xx_hal_rtc_ex.c **** }
 2185              		.loc 1 1467 1 is_stmt 0 view .LVU708
 2186              		@ sp needed
 2187              	.LVL154:
 2188              		.loc 1 1467 1 view .LVU709
 2189 0048 10BD     		pop	{r4, pc}
 2190              	.LVL155:
 2191              	.L109:
1439:Drivers/STM32F0xx_HAL_Driver/Src/stm32f0xx_hal_rtc_ex.c **** 
 2192              		.loc 1 1439 5 is_stmt 1 view .LVU710
ARM GAS  /tmp/ccJbOwNd.s 			page 67


1439:Drivers/STM32F0xx_HAL_Driver/Src/stm32f0xx_hal_rtc_ex.c **** 
 2193              		.loc 1 1439 5 view .LVU711
 2194 004a 2368     		ldr	r3, [r4]
 2195 004c FF22     		movs	r2, #255
 2196 004e 5A62     		str	r2, [r3, #36]
1439:Drivers/STM32F0xx_HAL_Driver/Src/stm32f0xx_hal_rtc_ex.c **** 
 2197              		.loc 1 1439 5 view .LVU712
1442:Drivers/STM32F0xx_HAL_Driver/Src/stm32f0xx_hal_rtc_ex.c **** 
 2198              		.loc 1 1442 5 view .LVU713
1442:Drivers/STM32F0xx_HAL_Driver/Src/stm32f0xx_hal_rtc_ex.c **** 
 2199              		.loc 1 1442 17 is_stmt 0 view .LVU714
 2200 0050 0423     		movs	r3, #4
 2201 0052 6377     		strb	r3, [r4, #29]
1445:Drivers/STM32F0xx_HAL_Driver/Src/stm32f0xx_hal_rtc_ex.c **** 
 2202              		.loc 1 1445 5 is_stmt 1 view .LVU715
1445:Drivers/STM32F0xx_HAL_Driver/Src/stm32f0xx_hal_rtc_ex.c **** 
 2203              		.loc 1 1445 5 view .LVU716
 2204 0054 0023     		movs	r3, #0
 2205 0056 2377     		strb	r3, [r4, #28]
1445:Drivers/STM32F0xx_HAL_Driver/Src/stm32f0xx_hal_rtc_ex.c **** 
 2206              		.loc 1 1445 5 view .LVU717
1447:Drivers/STM32F0xx_HAL_Driver/Src/stm32f0xx_hal_rtc_ex.c ****   }
 2207              		.loc 1 1447 5 view .LVU718
1447:Drivers/STM32F0xx_HAL_Driver/Src/stm32f0xx_hal_rtc_ex.c ****   }
 2208              		.loc 1 1447 12 is_stmt 0 view .LVU719
 2209 0058 0120     		movs	r0, #1
 2210 005a F5E7     		b	.L106
 2211              	.LVL156:
 2212              	.L108:
1428:Drivers/STM32F0xx_HAL_Driver/Src/stm32f0xx_hal_rtc_ex.c **** 
 2213              		.loc 1 1428 3 view .LVU720
 2214 005c 0220     		movs	r0, #2
 2215              	.LVL157:
1428:Drivers/STM32F0xx_HAL_Driver/Src/stm32f0xx_hal_rtc_ex.c **** 
 2216              		.loc 1 1428 3 view .LVU721
 2217 005e F3E7     		b	.L106
 2218              		.cfi_endproc
 2219              	.LFE60:
 2221              		.section	.text.HAL_RTCEx_DeactivateRefClock,"ax",%progbits
 2222              		.align	1
 2223              		.global	HAL_RTCEx_DeactivateRefClock
 2224              		.syntax unified
 2225              		.code	16
 2226              		.thumb_func
 2227              		.fpu softvfp
 2229              	HAL_RTCEx_DeactivateRefClock:
 2230              	.LVL158:
 2231              	.LFB61:
1468:Drivers/STM32F0xx_HAL_Driver/Src/stm32f0xx_hal_rtc_ex.c **** 
1469:Drivers/STM32F0xx_HAL_Driver/Src/stm32f0xx_hal_rtc_ex.c **** /**
1470:Drivers/STM32F0xx_HAL_Driver/Src/stm32f0xx_hal_rtc_ex.c ****   * @brief  Disable the RTC reference clock detection.
1471:Drivers/STM32F0xx_HAL_Driver/Src/stm32f0xx_hal_rtc_ex.c ****   * @param  hrtc RTC handle
1472:Drivers/STM32F0xx_HAL_Driver/Src/stm32f0xx_hal_rtc_ex.c ****   * @retval HAL status
