ARM GAS  /tmp/ccFvwqLO.s 			page 1


   1              		.cpu cortex-m0
   2              		.eabi_attribute 20, 1
   3              		.eabi_attribute 21, 1
   4              		.eabi_attribute 23, 3
   5              		.eabi_attribute 24, 1
   6              		.eabi_attribute 25, 1
   7              		.eabi_attribute 26, 1
   8              		.eabi_attribute 30, 1
   9              		.eabi_attribute 34, 0
  10              		.eabi_attribute 18, 4
  11              		.file	"stm32f0xx_ll_usb.c"
  12              		.text
  13              	.Ltext0:
  14              		.cfi_sections	.debug_frame
  15              		.section	.text.USB_CoreInit,"ax",%progbits
  16              		.align	1
  17              		.global	USB_CoreInit
  18              		.arch armv6s-m
  19              		.syntax unified
  20              		.code	16
  21              		.thumb_func
  22              		.fpu softvfp
  24              	USB_CoreInit:
  25              	.LVL0:
  26              	.LFB40:
  27              		.file 1 "Drivers/STM32F0xx_HAL_Driver/Src/stm32f0xx_ll_usb.c"
   1:Drivers/STM32F0xx_HAL_Driver/Src/stm32f0xx_ll_usb.c **** /**
   2:Drivers/STM32F0xx_HAL_Driver/Src/stm32f0xx_ll_usb.c ****   ******************************************************************************
   3:Drivers/STM32F0xx_HAL_Driver/Src/stm32f0xx_ll_usb.c ****   * @file    stm32f0xx_ll_usb.c
   4:Drivers/STM32F0xx_HAL_Driver/Src/stm32f0xx_ll_usb.c ****   * @author  MCD Application Team
   5:Drivers/STM32F0xx_HAL_Driver/Src/stm32f0xx_ll_usb.c ****   * @brief   USB Low Layer HAL module driver.
   6:Drivers/STM32F0xx_HAL_Driver/Src/stm32f0xx_ll_usb.c ****   *
   7:Drivers/STM32F0xx_HAL_Driver/Src/stm32f0xx_ll_usb.c ****   *          This file provides firmware functions to manage the following
   8:Drivers/STM32F0xx_HAL_Driver/Src/stm32f0xx_ll_usb.c ****   *          functionalities of the USB Peripheral Controller:
   9:Drivers/STM32F0xx_HAL_Driver/Src/stm32f0xx_ll_usb.c ****   *           + Initialization/de-initialization functions
  10:Drivers/STM32F0xx_HAL_Driver/Src/stm32f0xx_ll_usb.c ****   *           + I/O operation functions
  11:Drivers/STM32F0xx_HAL_Driver/Src/stm32f0xx_ll_usb.c ****   *           + Peripheral Control functions
  12:Drivers/STM32F0xx_HAL_Driver/Src/stm32f0xx_ll_usb.c ****   *           + Peripheral State functions
  13:Drivers/STM32F0xx_HAL_Driver/Src/stm32f0xx_ll_usb.c ****   *
  14:Drivers/STM32F0xx_HAL_Driver/Src/stm32f0xx_ll_usb.c ****   @verbatim
  15:Drivers/STM32F0xx_HAL_Driver/Src/stm32f0xx_ll_usb.c ****   ==============================================================================
  16:Drivers/STM32F0xx_HAL_Driver/Src/stm32f0xx_ll_usb.c ****                     ##### How to use this driver #####
  17:Drivers/STM32F0xx_HAL_Driver/Src/stm32f0xx_ll_usb.c ****   ==============================================================================
  18:Drivers/STM32F0xx_HAL_Driver/Src/stm32f0xx_ll_usb.c ****     [..]
  19:Drivers/STM32F0xx_HAL_Driver/Src/stm32f0xx_ll_usb.c ****       (#) Fill parameters of Init structure in USB_OTG_CfgTypeDef structure.
  20:Drivers/STM32F0xx_HAL_Driver/Src/stm32f0xx_ll_usb.c **** 
  21:Drivers/STM32F0xx_HAL_Driver/Src/stm32f0xx_ll_usb.c ****       (#) Call USB_CoreInit() API to initialize the USB Core peripheral.
  22:Drivers/STM32F0xx_HAL_Driver/Src/stm32f0xx_ll_usb.c **** 
  23:Drivers/STM32F0xx_HAL_Driver/Src/stm32f0xx_ll_usb.c ****       (#) The upper HAL HCD/PCD driver will call the right routines for its internal processes.
  24:Drivers/STM32F0xx_HAL_Driver/Src/stm32f0xx_ll_usb.c **** 
  25:Drivers/STM32F0xx_HAL_Driver/Src/stm32f0xx_ll_usb.c ****   @endverbatim
  26:Drivers/STM32F0xx_HAL_Driver/Src/stm32f0xx_ll_usb.c ****   ******************************************************************************
  27:Drivers/STM32F0xx_HAL_Driver/Src/stm32f0xx_ll_usb.c ****   * @attention
  28:Drivers/STM32F0xx_HAL_Driver/Src/stm32f0xx_ll_usb.c ****   *
  29:Drivers/STM32F0xx_HAL_Driver/Src/stm32f0xx_ll_usb.c ****   * <h2><center>&copy; Copyright (c) 2016 STMicroelectronics.
  30:Drivers/STM32F0xx_HAL_Driver/Src/stm32f0xx_ll_usb.c ****   * All rights reserved.</center></h2>
  31:Drivers/STM32F0xx_HAL_Driver/Src/stm32f0xx_ll_usb.c ****   *
ARM GAS  /tmp/ccFvwqLO.s 			page 2


  32:Drivers/STM32F0xx_HAL_Driver/Src/stm32f0xx_ll_usb.c ****   * This software component is licensed by ST under BSD 3-Clause license,
  33:Drivers/STM32F0xx_HAL_Driver/Src/stm32f0xx_ll_usb.c ****   * the "License"; You may not use this file except in compliance with the
  34:Drivers/STM32F0xx_HAL_Driver/Src/stm32f0xx_ll_usb.c ****   * License. You may obtain a copy of the License at:
  35:Drivers/STM32F0xx_HAL_Driver/Src/stm32f0xx_ll_usb.c ****   *                        opensource.org/licenses/BSD-3-Clause
  36:Drivers/STM32F0xx_HAL_Driver/Src/stm32f0xx_ll_usb.c ****   *
  37:Drivers/STM32F0xx_HAL_Driver/Src/stm32f0xx_ll_usb.c ****   ******************************************************************************
  38:Drivers/STM32F0xx_HAL_Driver/Src/stm32f0xx_ll_usb.c ****   */
  39:Drivers/STM32F0xx_HAL_Driver/Src/stm32f0xx_ll_usb.c **** 
  40:Drivers/STM32F0xx_HAL_Driver/Src/stm32f0xx_ll_usb.c **** /* Includes ------------------------------------------------------------------*/
  41:Drivers/STM32F0xx_HAL_Driver/Src/stm32f0xx_ll_usb.c **** #include "stm32f0xx_hal.h"
  42:Drivers/STM32F0xx_HAL_Driver/Src/stm32f0xx_ll_usb.c **** 
  43:Drivers/STM32F0xx_HAL_Driver/Src/stm32f0xx_ll_usb.c **** /** @addtogroup STM32F0xx_LL_USB_DRIVER
  44:Drivers/STM32F0xx_HAL_Driver/Src/stm32f0xx_ll_usb.c ****   * @{
  45:Drivers/STM32F0xx_HAL_Driver/Src/stm32f0xx_ll_usb.c ****   */
  46:Drivers/STM32F0xx_HAL_Driver/Src/stm32f0xx_ll_usb.c **** 
  47:Drivers/STM32F0xx_HAL_Driver/Src/stm32f0xx_ll_usb.c **** #if defined (HAL_PCD_MODULE_ENABLED) || defined (HAL_HCD_MODULE_ENABLED)
  48:Drivers/STM32F0xx_HAL_Driver/Src/stm32f0xx_ll_usb.c **** #if defined (USB)
  49:Drivers/STM32F0xx_HAL_Driver/Src/stm32f0xx_ll_usb.c **** /* Private typedef -----------------------------------------------------------*/
  50:Drivers/STM32F0xx_HAL_Driver/Src/stm32f0xx_ll_usb.c **** /* Private define ------------------------------------------------------------*/
  51:Drivers/STM32F0xx_HAL_Driver/Src/stm32f0xx_ll_usb.c **** /* Private macro -------------------------------------------------------------*/
  52:Drivers/STM32F0xx_HAL_Driver/Src/stm32f0xx_ll_usb.c **** /* Private variables ---------------------------------------------------------*/
  53:Drivers/STM32F0xx_HAL_Driver/Src/stm32f0xx_ll_usb.c **** /* Private function prototypes -----------------------------------------------*/
  54:Drivers/STM32F0xx_HAL_Driver/Src/stm32f0xx_ll_usb.c **** /* Private functions ---------------------------------------------------------*/
  55:Drivers/STM32F0xx_HAL_Driver/Src/stm32f0xx_ll_usb.c **** 
  56:Drivers/STM32F0xx_HAL_Driver/Src/stm32f0xx_ll_usb.c **** 
  57:Drivers/STM32F0xx_HAL_Driver/Src/stm32f0xx_ll_usb.c **** /**
  58:Drivers/STM32F0xx_HAL_Driver/Src/stm32f0xx_ll_usb.c ****   * @brief  Initializes the USB Core
  59:Drivers/STM32F0xx_HAL_Driver/Src/stm32f0xx_ll_usb.c ****   * @param  USBx: USB Instance
  60:Drivers/STM32F0xx_HAL_Driver/Src/stm32f0xx_ll_usb.c ****   * @param  cfg : pointer to a USB_CfgTypeDef structure that contains
  61:Drivers/STM32F0xx_HAL_Driver/Src/stm32f0xx_ll_usb.c ****   *         the configuration information for the specified USBx peripheral.
  62:Drivers/STM32F0xx_HAL_Driver/Src/stm32f0xx_ll_usb.c ****   * @retval HAL status
  63:Drivers/STM32F0xx_HAL_Driver/Src/stm32f0xx_ll_usb.c ****   */
  64:Drivers/STM32F0xx_HAL_Driver/Src/stm32f0xx_ll_usb.c **** HAL_StatusTypeDef USB_CoreInit(USB_TypeDef *USBx, USB_CfgTypeDef cfg)
  65:Drivers/STM32F0xx_HAL_Driver/Src/stm32f0xx_ll_usb.c **** {
  28              		.loc 1 65 1 view -0
  29              		.cfi_startproc
  30              		@ args = 36, pretend = 16, frame = 0
  31              		@ frame_needed = 0, uses_anonymous_args = 0
  32              		@ link register save eliminated.
  33              		.loc 1 65 1 is_stmt 0 view .LVU1
  34 0000 84B0     		sub	sp, sp, #16
  35              	.LCFI0:
  36              		.cfi_def_cfa_offset 16
  37 0002 0191     		str	r1, [sp, #4]
  38 0004 0292     		str	r2, [sp, #8]
  39 0006 0393     		str	r3, [sp, #12]
  66:Drivers/STM32F0xx_HAL_Driver/Src/stm32f0xx_ll_usb.c ****   /* Prevent unused argument(s) compilation warning */
  67:Drivers/STM32F0xx_HAL_Driver/Src/stm32f0xx_ll_usb.c ****   UNUSED(USBx);
  40              		.loc 1 67 3 is_stmt 1 view .LVU2
  68:Drivers/STM32F0xx_HAL_Driver/Src/stm32f0xx_ll_usb.c ****   UNUSED(cfg);
  41              		.loc 1 68 3 view .LVU3
  69:Drivers/STM32F0xx_HAL_Driver/Src/stm32f0xx_ll_usb.c **** 
  70:Drivers/STM32F0xx_HAL_Driver/Src/stm32f0xx_ll_usb.c ****   /* NOTE : - This function is not required by USB Device FS peripheral, it is used
  71:Drivers/STM32F0xx_HAL_Driver/Src/stm32f0xx_ll_usb.c ****               only by USB OTG FS peripheral.
  72:Drivers/STM32F0xx_HAL_Driver/Src/stm32f0xx_ll_usb.c ****             - This function is added to ensure compatibility across platforms.
  73:Drivers/STM32F0xx_HAL_Driver/Src/stm32f0xx_ll_usb.c ****    */
  74:Drivers/STM32F0xx_HAL_Driver/Src/stm32f0xx_ll_usb.c **** 
ARM GAS  /tmp/ccFvwqLO.s 			page 3


  75:Drivers/STM32F0xx_HAL_Driver/Src/stm32f0xx_ll_usb.c ****   return HAL_OK;
  42              		.loc 1 75 3 view .LVU4
  76:Drivers/STM32F0xx_HAL_Driver/Src/stm32f0xx_ll_usb.c **** }
  43              		.loc 1 76 1 is_stmt 0 view .LVU5
  44 0008 0020     		movs	r0, #0
  45              	.LVL1:
  46              		.loc 1 76 1 view .LVU6
  47              		@ sp needed
  48 000a 04B0     		add	sp, sp, #16
  49 000c 7047     		bx	lr
  50              		.cfi_endproc
  51              	.LFE40:
  53              		.section	.text.USB_EnableGlobalInt,"ax",%progbits
  54              		.align	1
  55              		.global	USB_EnableGlobalInt
  56              		.syntax unified
  57              		.code	16
  58              		.thumb_func
  59              		.fpu softvfp
  61              	USB_EnableGlobalInt:
  62              	.LVL2:
  63              	.LFB41:
  77:Drivers/STM32F0xx_HAL_Driver/Src/stm32f0xx_ll_usb.c **** 
  78:Drivers/STM32F0xx_HAL_Driver/Src/stm32f0xx_ll_usb.c **** /**
  79:Drivers/STM32F0xx_HAL_Driver/Src/stm32f0xx_ll_usb.c ****   * @brief  USB_EnableGlobalInt
  80:Drivers/STM32F0xx_HAL_Driver/Src/stm32f0xx_ll_usb.c ****   *         Enables the controller's Global Int in the AHB Config reg
  81:Drivers/STM32F0xx_HAL_Driver/Src/stm32f0xx_ll_usb.c ****   * @param  USBx : Selected device
  82:Drivers/STM32F0xx_HAL_Driver/Src/stm32f0xx_ll_usb.c ****   * @retval HAL status
  83:Drivers/STM32F0xx_HAL_Driver/Src/stm32f0xx_ll_usb.c ****   */
  84:Drivers/STM32F0xx_HAL_Driver/Src/stm32f0xx_ll_usb.c **** HAL_StatusTypeDef USB_EnableGlobalInt(USB_TypeDef *USBx)
  85:Drivers/STM32F0xx_HAL_Driver/Src/stm32f0xx_ll_usb.c **** {
  64              		.loc 1 85 1 is_stmt 1 view -0
  65              		.cfi_startproc
  66              		@ args = 0, pretend = 0, frame = 0
  67              		@ frame_needed = 0, uses_anonymous_args = 0
  68              		@ link register save eliminated.
  86:Drivers/STM32F0xx_HAL_Driver/Src/stm32f0xx_ll_usb.c ****   uint16_t winterruptmask;
  69              		.loc 1 86 3 view .LVU8
  87:Drivers/STM32F0xx_HAL_Driver/Src/stm32f0xx_ll_usb.c **** 
  88:Drivers/STM32F0xx_HAL_Driver/Src/stm32f0xx_ll_usb.c ****   /* Set winterruptmask variable */
  89:Drivers/STM32F0xx_HAL_Driver/Src/stm32f0xx_ll_usb.c ****   winterruptmask = USB_CNTR_CTRM  | USB_CNTR_WKUPM |
  70              		.loc 1 89 3 view .LVU9
  90:Drivers/STM32F0xx_HAL_Driver/Src/stm32f0xx_ll_usb.c ****                    USB_CNTR_SUSPM | USB_CNTR_ERRM |
  91:Drivers/STM32F0xx_HAL_Driver/Src/stm32f0xx_ll_usb.c ****                    USB_CNTR_SOFM | USB_CNTR_ESOFM |
  92:Drivers/STM32F0xx_HAL_Driver/Src/stm32f0xx_ll_usb.c ****                    USB_CNTR_RESETM | USB_CNTR_L1REQM;
  93:Drivers/STM32F0xx_HAL_Driver/Src/stm32f0xx_ll_usb.c **** 
  94:Drivers/STM32F0xx_HAL_Driver/Src/stm32f0xx_ll_usb.c ****   /* Set interrupt mask */
  95:Drivers/STM32F0xx_HAL_Driver/Src/stm32f0xx_ll_usb.c ****   USBx->CNTR |= winterruptmask;
  71              		.loc 1 95 3 view .LVU10
  72              		.loc 1 95 14 is_stmt 0 view .LVU11
  73 0000 4022     		movs	r2, #64
  74 0002 835A     		ldrh	r3, [r0, r2]
  75 0004 0249     		ldr	r1, .L3
  76 0006 0B43     		orrs	r3, r1
  77 0008 9BB2     		uxth	r3, r3
  78 000a 8352     		strh	r3, [r0, r2]
  96:Drivers/STM32F0xx_HAL_Driver/Src/stm32f0xx_ll_usb.c **** 
ARM GAS  /tmp/ccFvwqLO.s 			page 4


  97:Drivers/STM32F0xx_HAL_Driver/Src/stm32f0xx_ll_usb.c ****   return HAL_OK;
  79              		.loc 1 97 3 is_stmt 1 view .LVU12
  98:Drivers/STM32F0xx_HAL_Driver/Src/stm32f0xx_ll_usb.c **** }
  80              		.loc 1 98 1 is_stmt 0 view .LVU13
  81 000c 0020     		movs	r0, #0
  82              	.LVL3:
  83              		.loc 1 98 1 view .LVU14
  84              		@ sp needed
  85 000e 7047     		bx	lr
  86              	.L4:
  87              		.align	2
  88              	.L3:
  89 0010 80BFFFFF 		.word	-16512
  90              		.cfi_endproc
  91              	.LFE41:
  93              		.section	.text.USB_DisableGlobalInt,"ax",%progbits
  94              		.align	1
  95              		.global	USB_DisableGlobalInt
  96              		.syntax unified
  97              		.code	16
  98              		.thumb_func
  99              		.fpu softvfp
 101              	USB_DisableGlobalInt:
 102              	.LVL4:
 103              	.LFB42:
  99:Drivers/STM32F0xx_HAL_Driver/Src/stm32f0xx_ll_usb.c **** 
 100:Drivers/STM32F0xx_HAL_Driver/Src/stm32f0xx_ll_usb.c **** /**
 101:Drivers/STM32F0xx_HAL_Driver/Src/stm32f0xx_ll_usb.c ****   * @brief  USB_DisableGlobalInt
 102:Drivers/STM32F0xx_HAL_Driver/Src/stm32f0xx_ll_usb.c ****   *         Disable the controller's Global Int in the AHB Config reg
 103:Drivers/STM32F0xx_HAL_Driver/Src/stm32f0xx_ll_usb.c ****   * @param  USBx : Selected device
 104:Drivers/STM32F0xx_HAL_Driver/Src/stm32f0xx_ll_usb.c ****   * @retval HAL status
 105:Drivers/STM32F0xx_HAL_Driver/Src/stm32f0xx_ll_usb.c **** */
 106:Drivers/STM32F0xx_HAL_Driver/Src/stm32f0xx_ll_usb.c **** HAL_StatusTypeDef USB_DisableGlobalInt(USB_TypeDef *USBx)
 107:Drivers/STM32F0xx_HAL_Driver/Src/stm32f0xx_ll_usb.c **** {
 104              		.loc 1 107 1 is_stmt 1 view -0
 105              		.cfi_startproc
 106              		@ args = 0, pretend = 0, frame = 0
 107              		@ frame_needed = 0, uses_anonymous_args = 0
 108              		@ link register save eliminated.
 108:Drivers/STM32F0xx_HAL_Driver/Src/stm32f0xx_ll_usb.c ****   uint16_t winterruptmask;
 109              		.loc 1 108 3 view .LVU16
 109:Drivers/STM32F0xx_HAL_Driver/Src/stm32f0xx_ll_usb.c **** 
 110:Drivers/STM32F0xx_HAL_Driver/Src/stm32f0xx_ll_usb.c ****   /* Set winterruptmask variable */
 111:Drivers/STM32F0xx_HAL_Driver/Src/stm32f0xx_ll_usb.c ****   winterruptmask = USB_CNTR_CTRM  | USB_CNTR_WKUPM |
 110              		.loc 1 111 3 view .LVU17
 112:Drivers/STM32F0xx_HAL_Driver/Src/stm32f0xx_ll_usb.c ****                    USB_CNTR_SUSPM | USB_CNTR_ERRM |
 113:Drivers/STM32F0xx_HAL_Driver/Src/stm32f0xx_ll_usb.c ****                    USB_CNTR_SOFM | USB_CNTR_ESOFM |
 114:Drivers/STM32F0xx_HAL_Driver/Src/stm32f0xx_ll_usb.c ****                    USB_CNTR_RESETM | USB_CNTR_L1REQM;
 115:Drivers/STM32F0xx_HAL_Driver/Src/stm32f0xx_ll_usb.c **** 
 116:Drivers/STM32F0xx_HAL_Driver/Src/stm32f0xx_ll_usb.c ****   /* Clear interrupt mask */
 117:Drivers/STM32F0xx_HAL_Driver/Src/stm32f0xx_ll_usb.c ****   USBx->CNTR &= ~winterruptmask;
 111              		.loc 1 117 3 view .LVU18
 112              		.loc 1 117 14 is_stmt 0 view .LVU19
 113 0000 4022     		movs	r2, #64
 114 0002 835A     		ldrh	r3, [r0, r2]
 115 0004 0249     		ldr	r1, .L6
 116 0006 0B40     		ands	r3, r1
ARM GAS  /tmp/ccFvwqLO.s 			page 5


 117 0008 8352     		strh	r3, [r0, r2]
 118:Drivers/STM32F0xx_HAL_Driver/Src/stm32f0xx_ll_usb.c **** 
 119:Drivers/STM32F0xx_HAL_Driver/Src/stm32f0xx_ll_usb.c ****   return HAL_OK;
 118              		.loc 1 119 3 is_stmt 1 view .LVU20
 120:Drivers/STM32F0xx_HAL_Driver/Src/stm32f0xx_ll_usb.c **** }
 119              		.loc 1 120 1 is_stmt 0 view .LVU21
 120 000a 0020     		movs	r0, #0
 121              	.LVL5:
 122              		.loc 1 120 1 view .LVU22
 123              		@ sp needed
 124 000c 7047     		bx	lr
 125              	.L7:
 126 000e C046     		.align	2
 127              	.L6:
 128 0010 7F400000 		.word	16511
 129              		.cfi_endproc
 130              	.LFE42:
 132              		.section	.text.USB_SetCurrentMode,"ax",%progbits
 133              		.align	1
 134              		.global	USB_SetCurrentMode
 135              		.syntax unified
 136              		.code	16
 137              		.thumb_func
 138              		.fpu softvfp
 140              	USB_SetCurrentMode:
 141              	.LVL6:
 142              	.LFB43:
 121:Drivers/STM32F0xx_HAL_Driver/Src/stm32f0xx_ll_usb.c **** 
 122:Drivers/STM32F0xx_HAL_Driver/Src/stm32f0xx_ll_usb.c **** /**
 123:Drivers/STM32F0xx_HAL_Driver/Src/stm32f0xx_ll_usb.c ****   * @brief  USB_SetCurrentMode : Set functional mode
 124:Drivers/STM32F0xx_HAL_Driver/Src/stm32f0xx_ll_usb.c ****   * @param  USBx : Selected device
 125:Drivers/STM32F0xx_HAL_Driver/Src/stm32f0xx_ll_usb.c ****   * @param  mode :  current core mode
 126:Drivers/STM32F0xx_HAL_Driver/Src/stm32f0xx_ll_usb.c ****   *          This parameter can be one of the these values:
 127:Drivers/STM32F0xx_HAL_Driver/Src/stm32f0xx_ll_usb.c ****   *            @arg USB_DEVICE_MODE: Peripheral mode mode
 128:Drivers/STM32F0xx_HAL_Driver/Src/stm32f0xx_ll_usb.c ****   * @retval HAL status
 129:Drivers/STM32F0xx_HAL_Driver/Src/stm32f0xx_ll_usb.c ****   */
 130:Drivers/STM32F0xx_HAL_Driver/Src/stm32f0xx_ll_usb.c **** HAL_StatusTypeDef USB_SetCurrentMode(USB_TypeDef *USBx, USB_ModeTypeDef mode)
 131:Drivers/STM32F0xx_HAL_Driver/Src/stm32f0xx_ll_usb.c **** {
 143              		.loc 1 131 1 is_stmt 1 view -0
 144              		.cfi_startproc
 145              		@ args = 0, pretend = 0, frame = 0
 146              		@ frame_needed = 0, uses_anonymous_args = 0
 147              		@ link register save eliminated.
 132:Drivers/STM32F0xx_HAL_Driver/Src/stm32f0xx_ll_usb.c ****   /* Prevent unused argument(s) compilation warning */
 133:Drivers/STM32F0xx_HAL_Driver/Src/stm32f0xx_ll_usb.c ****   UNUSED(USBx);
 148              		.loc 1 133 3 view .LVU24
 134:Drivers/STM32F0xx_HAL_Driver/Src/stm32f0xx_ll_usb.c ****   UNUSED(mode);
 149              		.loc 1 134 3 view .LVU25
 135:Drivers/STM32F0xx_HAL_Driver/Src/stm32f0xx_ll_usb.c **** 
 136:Drivers/STM32F0xx_HAL_Driver/Src/stm32f0xx_ll_usb.c ****   /* NOTE : - This function is not required by USB Device FS peripheral, it is used
 137:Drivers/STM32F0xx_HAL_Driver/Src/stm32f0xx_ll_usb.c ****               only by USB OTG FS peripheral.
 138:Drivers/STM32F0xx_HAL_Driver/Src/stm32f0xx_ll_usb.c ****             - This function is added to ensure compatibility across platforms.
 139:Drivers/STM32F0xx_HAL_Driver/Src/stm32f0xx_ll_usb.c ****    */
 140:Drivers/STM32F0xx_HAL_Driver/Src/stm32f0xx_ll_usb.c ****   return HAL_OK;
 150              		.loc 1 140 3 view .LVU26
 141:Drivers/STM32F0xx_HAL_Driver/Src/stm32f0xx_ll_usb.c **** }
 151              		.loc 1 141 1 is_stmt 0 view .LVU27
ARM GAS  /tmp/ccFvwqLO.s 			page 6


 152 0000 0020     		movs	r0, #0
 153              	.LVL7:
 154              		.loc 1 141 1 view .LVU28
 155              		@ sp needed
 156 0002 7047     		bx	lr
 157              		.cfi_endproc
 158              	.LFE43:
 160              		.section	.text.USB_DevInit,"ax",%progbits
 161              		.align	1
 162              		.global	USB_DevInit
 163              		.syntax unified
 164              		.code	16
 165              		.thumb_func
 166              		.fpu softvfp
 168              	USB_DevInit:
 169              	.LVL8:
 170              	.LFB44:
 142:Drivers/STM32F0xx_HAL_Driver/Src/stm32f0xx_ll_usb.c **** 
 143:Drivers/STM32F0xx_HAL_Driver/Src/stm32f0xx_ll_usb.c **** /**
 144:Drivers/STM32F0xx_HAL_Driver/Src/stm32f0xx_ll_usb.c ****   * @brief  USB_DevInit : Initializes the USB controller registers
 145:Drivers/STM32F0xx_HAL_Driver/Src/stm32f0xx_ll_usb.c ****   *         for device mode
 146:Drivers/STM32F0xx_HAL_Driver/Src/stm32f0xx_ll_usb.c ****   * @param  USBx : Selected device
 147:Drivers/STM32F0xx_HAL_Driver/Src/stm32f0xx_ll_usb.c ****   * @param  cfg  : pointer to a USB_CfgTypeDef structure that contains
 148:Drivers/STM32F0xx_HAL_Driver/Src/stm32f0xx_ll_usb.c ****   *         the configuration information for the specified USBx peripheral.
 149:Drivers/STM32F0xx_HAL_Driver/Src/stm32f0xx_ll_usb.c ****   * @retval HAL status
 150:Drivers/STM32F0xx_HAL_Driver/Src/stm32f0xx_ll_usb.c ****   */
 151:Drivers/STM32F0xx_HAL_Driver/Src/stm32f0xx_ll_usb.c **** HAL_StatusTypeDef USB_DevInit(USB_TypeDef *USBx, USB_CfgTypeDef cfg)
 152:Drivers/STM32F0xx_HAL_Driver/Src/stm32f0xx_ll_usb.c **** {
 171              		.loc 1 152 1 is_stmt 1 view -0
 172              		.cfi_startproc
 173              		@ args = 36, pretend = 16, frame = 0
 174              		@ frame_needed = 0, uses_anonymous_args = 0
 175              		.loc 1 152 1 is_stmt 0 view .LVU30
 176 0000 84B0     		sub	sp, sp, #16
 177              	.LCFI1:
 178              		.cfi_def_cfa_offset 16
 179 0002 10B5     		push	{r4, lr}
 180              	.LCFI2:
 181              		.cfi_def_cfa_offset 24
 182              		.cfi_offset 4, -24
 183              		.cfi_offset 14, -20
 184 0004 0391     		str	r1, [sp, #12]
 185 0006 0492     		str	r2, [sp, #16]
 186 0008 0593     		str	r3, [sp, #20]
 153:Drivers/STM32F0xx_HAL_Driver/Src/stm32f0xx_ll_usb.c ****   /* Prevent unused argument(s) compilation warning */
 154:Drivers/STM32F0xx_HAL_Driver/Src/stm32f0xx_ll_usb.c ****   UNUSED(cfg);
 187              		.loc 1 154 3 is_stmt 1 view .LVU31
 155:Drivers/STM32F0xx_HAL_Driver/Src/stm32f0xx_ll_usb.c **** 
 156:Drivers/STM32F0xx_HAL_Driver/Src/stm32f0xx_ll_usb.c ****   /* Init Device */
 157:Drivers/STM32F0xx_HAL_Driver/Src/stm32f0xx_ll_usb.c ****   /*CNTR_FRES = 1*/
 158:Drivers/STM32F0xx_HAL_Driver/Src/stm32f0xx_ll_usb.c ****   USBx->CNTR = USB_CNTR_FRES;
 188              		.loc 1 158 3 view .LVU32
 189              		.loc 1 158 14 is_stmt 0 view .LVU33
 190 000a 4022     		movs	r2, #64
 191 000c 0123     		movs	r3, #1
 192 000e 8352     		strh	r3, [r0, r2]
 159:Drivers/STM32F0xx_HAL_Driver/Src/stm32f0xx_ll_usb.c **** 
ARM GAS  /tmp/ccFvwqLO.s 			page 7


 160:Drivers/STM32F0xx_HAL_Driver/Src/stm32f0xx_ll_usb.c ****   /*CNTR_FRES = 0*/
 161:Drivers/STM32F0xx_HAL_Driver/Src/stm32f0xx_ll_usb.c ****   USBx->CNTR = 0;
 193              		.loc 1 161 3 is_stmt 1 view .LVU34
 194              		.loc 1 161 14 is_stmt 0 view .LVU35
 195 0010 0023     		movs	r3, #0
 196 0012 8352     		strh	r3, [r0, r2]
 162:Drivers/STM32F0xx_HAL_Driver/Src/stm32f0xx_ll_usb.c **** 
 163:Drivers/STM32F0xx_HAL_Driver/Src/stm32f0xx_ll_usb.c ****   /*Clear pending interrupts*/
 164:Drivers/STM32F0xx_HAL_Driver/Src/stm32f0xx_ll_usb.c ****   USBx->ISTR = 0;
 197              		.loc 1 164 3 is_stmt 1 view .LVU36
 198              		.loc 1 164 14 is_stmt 0 view .LVU37
 199 0014 0432     		adds	r2, r2, #4
 200 0016 8352     		strh	r3, [r0, r2]
 165:Drivers/STM32F0xx_HAL_Driver/Src/stm32f0xx_ll_usb.c **** 
 166:Drivers/STM32F0xx_HAL_Driver/Src/stm32f0xx_ll_usb.c ****   /*Set Btable Address*/
 167:Drivers/STM32F0xx_HAL_Driver/Src/stm32f0xx_ll_usb.c ****   USBx->BTABLE = BTABLE_ADDRESS;
 201              		.loc 1 167 3 is_stmt 1 view .LVU38
 202              		.loc 1 167 16 is_stmt 0 view .LVU39
 203 0018 0C32     		adds	r2, r2, #12
 204 001a 8352     		strh	r3, [r0, r2]
 168:Drivers/STM32F0xx_HAL_Driver/Src/stm32f0xx_ll_usb.c **** 
 169:Drivers/STM32F0xx_HAL_Driver/Src/stm32f0xx_ll_usb.c ****   /* Enable USB Device Interrupt mask */
 170:Drivers/STM32F0xx_HAL_Driver/Src/stm32f0xx_ll_usb.c ****   (void)USB_EnableGlobalInt(USBx);
 205              		.loc 1 170 3 is_stmt 1 view .LVU40
 206              		.loc 1 170 9 is_stmt 0 view .LVU41
 207 001c FFF7FEFF 		bl	USB_EnableGlobalInt
 208              	.LVL9:
 171:Drivers/STM32F0xx_HAL_Driver/Src/stm32f0xx_ll_usb.c **** 
 172:Drivers/STM32F0xx_HAL_Driver/Src/stm32f0xx_ll_usb.c ****   return HAL_OK;
 209              		.loc 1 172 3 is_stmt 1 view .LVU42
 173:Drivers/STM32F0xx_HAL_Driver/Src/stm32f0xx_ll_usb.c **** }
 210              		.loc 1 173 1 is_stmt 0 view .LVU43
 211 0020 0020     		movs	r0, #0
 212              		@ sp needed
 213 0022 10BC     		pop	{r4}
 214 0024 08BC     		pop	{r3}
 215 0026 04B0     		add	sp, sp, #16
 216 0028 1847     		bx	r3
 217              		.cfi_endproc
 218              	.LFE44:
 220              		.section	.text.USB_SetDevSpeed,"ax",%progbits
 221              		.align	1
 222              		.global	USB_SetDevSpeed
 223              		.syntax unified
 224              		.code	16
 225              		.thumb_func
 226              		.fpu softvfp
 228              	USB_SetDevSpeed:
 229              	.LVL10:
 230              	.LFB45:
 174:Drivers/STM32F0xx_HAL_Driver/Src/stm32f0xx_ll_usb.c **** 
 175:Drivers/STM32F0xx_HAL_Driver/Src/stm32f0xx_ll_usb.c **** /**
 176:Drivers/STM32F0xx_HAL_Driver/Src/stm32f0xx_ll_usb.c ****   * @brief  USB_SetDevSpeed :Initializes the device speed
 177:Drivers/STM32F0xx_HAL_Driver/Src/stm32f0xx_ll_usb.c ****   *         depending on the PHY type and the enumeration speed of the device.
 178:Drivers/STM32F0xx_HAL_Driver/Src/stm32f0xx_ll_usb.c ****   * @param  USBx  Selected device
 179:Drivers/STM32F0xx_HAL_Driver/Src/stm32f0xx_ll_usb.c ****   * @param  speed  device speed
 180:Drivers/STM32F0xx_HAL_Driver/Src/stm32f0xx_ll_usb.c ****   * @retval  Hal status
ARM GAS  /tmp/ccFvwqLO.s 			page 8


 181:Drivers/STM32F0xx_HAL_Driver/Src/stm32f0xx_ll_usb.c ****   */
 182:Drivers/STM32F0xx_HAL_Driver/Src/stm32f0xx_ll_usb.c **** HAL_StatusTypeDef USB_SetDevSpeed(USB_TypeDef *USBx, uint8_t speed)
 183:Drivers/STM32F0xx_HAL_Driver/Src/stm32f0xx_ll_usb.c **** {
 231              		.loc 1 183 1 is_stmt 1 view -0
 232              		.cfi_startproc
 233              		@ args = 0, pretend = 0, frame = 0
 234              		@ frame_needed = 0, uses_anonymous_args = 0
 235              		@ link register save eliminated.
 184:Drivers/STM32F0xx_HAL_Driver/Src/stm32f0xx_ll_usb.c ****   /* Prevent unused argument(s) compilation warning */
 185:Drivers/STM32F0xx_HAL_Driver/Src/stm32f0xx_ll_usb.c ****   UNUSED(USBx);
 236              		.loc 1 185 3 view .LVU45
 186:Drivers/STM32F0xx_HAL_Driver/Src/stm32f0xx_ll_usb.c ****   UNUSED(speed);
 237              		.loc 1 186 3 view .LVU46
 187:Drivers/STM32F0xx_HAL_Driver/Src/stm32f0xx_ll_usb.c **** 
 188:Drivers/STM32F0xx_HAL_Driver/Src/stm32f0xx_ll_usb.c ****   /* NOTE : - This function is not required by USB Device FS peripheral, it is used
 189:Drivers/STM32F0xx_HAL_Driver/Src/stm32f0xx_ll_usb.c ****               only by USB OTG FS peripheral.
 190:Drivers/STM32F0xx_HAL_Driver/Src/stm32f0xx_ll_usb.c ****             - This function is added to ensure compatibility across platforms.
 191:Drivers/STM32F0xx_HAL_Driver/Src/stm32f0xx_ll_usb.c ****    */
 192:Drivers/STM32F0xx_HAL_Driver/Src/stm32f0xx_ll_usb.c **** 
 193:Drivers/STM32F0xx_HAL_Driver/Src/stm32f0xx_ll_usb.c ****   return HAL_OK;
 238              		.loc 1 193 3 view .LVU47
 194:Drivers/STM32F0xx_HAL_Driver/Src/stm32f0xx_ll_usb.c **** }
 239              		.loc 1 194 1 is_stmt 0 view .LVU48
 240 0000 0020     		movs	r0, #0
 241              	.LVL11:
 242              		.loc 1 194 1 view .LVU49
 243              		@ sp needed
 244 0002 7047     		bx	lr
 245              		.cfi_endproc
 246              	.LFE45:
 248              		.section	.text.USB_FlushTxFifo,"ax",%progbits
 249              		.align	1
 250              		.global	USB_FlushTxFifo
 251              		.syntax unified
 252              		.code	16
 253              		.thumb_func
 254              		.fpu softvfp
 256              	USB_FlushTxFifo:
 257              	.LVL12:
 258              	.LFB46:
 195:Drivers/STM32F0xx_HAL_Driver/Src/stm32f0xx_ll_usb.c **** 
 196:Drivers/STM32F0xx_HAL_Driver/Src/stm32f0xx_ll_usb.c **** /**
 197:Drivers/STM32F0xx_HAL_Driver/Src/stm32f0xx_ll_usb.c ****   * @brief  USB_FlushTxFifo : Flush a Tx FIFO
 198:Drivers/STM32F0xx_HAL_Driver/Src/stm32f0xx_ll_usb.c ****   * @param  USBx : Selected device
 199:Drivers/STM32F0xx_HAL_Driver/Src/stm32f0xx_ll_usb.c ****   * @param  num : FIFO number
 200:Drivers/STM32F0xx_HAL_Driver/Src/stm32f0xx_ll_usb.c ****   *         This parameter can be a value from 1 to 15
 201:Drivers/STM32F0xx_HAL_Driver/Src/stm32f0xx_ll_usb.c ****             15 means Flush all Tx FIFOs
 202:Drivers/STM32F0xx_HAL_Driver/Src/stm32f0xx_ll_usb.c ****   * @retval HAL status
 203:Drivers/STM32F0xx_HAL_Driver/Src/stm32f0xx_ll_usb.c ****   */
 204:Drivers/STM32F0xx_HAL_Driver/Src/stm32f0xx_ll_usb.c **** HAL_StatusTypeDef USB_FlushTxFifo(USB_TypeDef *USBx, uint32_t num)
 205:Drivers/STM32F0xx_HAL_Driver/Src/stm32f0xx_ll_usb.c **** {
 259              		.loc 1 205 1 is_stmt 1 view -0
 260              		.cfi_startproc
 261              		@ args = 0, pretend = 0, frame = 0
 262              		@ frame_needed = 0, uses_anonymous_args = 0
 263              		@ link register save eliminated.
 206:Drivers/STM32F0xx_HAL_Driver/Src/stm32f0xx_ll_usb.c ****   /* Prevent unused argument(s) compilation warning */
ARM GAS  /tmp/ccFvwqLO.s 			page 9


 207:Drivers/STM32F0xx_HAL_Driver/Src/stm32f0xx_ll_usb.c ****   UNUSED(USBx);
 264              		.loc 1 207 3 view .LVU51
 208:Drivers/STM32F0xx_HAL_Driver/Src/stm32f0xx_ll_usb.c ****   UNUSED(num);
 265              		.loc 1 208 3 view .LVU52
 209:Drivers/STM32F0xx_HAL_Driver/Src/stm32f0xx_ll_usb.c **** 
 210:Drivers/STM32F0xx_HAL_Driver/Src/stm32f0xx_ll_usb.c ****   /* NOTE : - This function is not required by USB Device FS peripheral, it is used
 211:Drivers/STM32F0xx_HAL_Driver/Src/stm32f0xx_ll_usb.c ****               only by USB OTG FS peripheral.
 212:Drivers/STM32F0xx_HAL_Driver/Src/stm32f0xx_ll_usb.c ****             - This function is added to ensure compatibility across platforms.
 213:Drivers/STM32F0xx_HAL_Driver/Src/stm32f0xx_ll_usb.c ****    */
 214:Drivers/STM32F0xx_HAL_Driver/Src/stm32f0xx_ll_usb.c **** 
 215:Drivers/STM32F0xx_HAL_Driver/Src/stm32f0xx_ll_usb.c ****   return HAL_OK;
 266              		.loc 1 215 3 view .LVU53
 216:Drivers/STM32F0xx_HAL_Driver/Src/stm32f0xx_ll_usb.c **** }
 267              		.loc 1 216 1 is_stmt 0 view .LVU54
 268 0000 0020     		movs	r0, #0
 269              	.LVL13:
 270              		.loc 1 216 1 view .LVU55
 271              		@ sp needed
 272 0002 7047     		bx	lr
 273              		.cfi_endproc
 274              	.LFE46:
 276              		.section	.text.USB_FlushRxFifo,"ax",%progbits
 277              		.align	1
 278              		.global	USB_FlushRxFifo
 279              		.syntax unified
 280              		.code	16
 281              		.thumb_func
 282              		.fpu softvfp
 284              	USB_FlushRxFifo:
 285              	.LVL14:
 286              	.LFB47:
 217:Drivers/STM32F0xx_HAL_Driver/Src/stm32f0xx_ll_usb.c **** 
 218:Drivers/STM32F0xx_HAL_Driver/Src/stm32f0xx_ll_usb.c **** /**
 219:Drivers/STM32F0xx_HAL_Driver/Src/stm32f0xx_ll_usb.c ****   * @brief  USB_FlushRxFifo : Flush Rx FIFO
 220:Drivers/STM32F0xx_HAL_Driver/Src/stm32f0xx_ll_usb.c ****   * @param  USBx : Selected device
 221:Drivers/STM32F0xx_HAL_Driver/Src/stm32f0xx_ll_usb.c ****   * @retval HAL status
 222:Drivers/STM32F0xx_HAL_Driver/Src/stm32f0xx_ll_usb.c ****   */
 223:Drivers/STM32F0xx_HAL_Driver/Src/stm32f0xx_ll_usb.c **** HAL_StatusTypeDef USB_FlushRxFifo(USB_TypeDef *USBx)
 224:Drivers/STM32F0xx_HAL_Driver/Src/stm32f0xx_ll_usb.c **** {
 287              		.loc 1 224 1 is_stmt 1 view -0
 288              		.cfi_startproc
 289              		@ args = 0, pretend = 0, frame = 0
 290              		@ frame_needed = 0, uses_anonymous_args = 0
 291              		@ link register save eliminated.
 225:Drivers/STM32F0xx_HAL_Driver/Src/stm32f0xx_ll_usb.c ****   /* Prevent unused argument(s) compilation warning */
 226:Drivers/STM32F0xx_HAL_Driver/Src/stm32f0xx_ll_usb.c ****   UNUSED(USBx);
 292              		.loc 1 226 3 view .LVU57
 227:Drivers/STM32F0xx_HAL_Driver/Src/stm32f0xx_ll_usb.c **** 
 228:Drivers/STM32F0xx_HAL_Driver/Src/stm32f0xx_ll_usb.c ****   /* NOTE : - This function is not required by USB Device FS peripheral, it is used
 229:Drivers/STM32F0xx_HAL_Driver/Src/stm32f0xx_ll_usb.c ****               only by USB OTG FS peripheral.
 230:Drivers/STM32F0xx_HAL_Driver/Src/stm32f0xx_ll_usb.c ****             - This function is added to ensure compatibility across platforms.
 231:Drivers/STM32F0xx_HAL_Driver/Src/stm32f0xx_ll_usb.c ****    */
 232:Drivers/STM32F0xx_HAL_Driver/Src/stm32f0xx_ll_usb.c **** 
 233:Drivers/STM32F0xx_HAL_Driver/Src/stm32f0xx_ll_usb.c ****   return HAL_OK;
 293              		.loc 1 233 3 view .LVU58
 234:Drivers/STM32F0xx_HAL_Driver/Src/stm32f0xx_ll_usb.c **** }
 294              		.loc 1 234 1 is_stmt 0 view .LVU59
ARM GAS  /tmp/ccFvwqLO.s 			page 10


 295 0000 0020     		movs	r0, #0
 296              	.LVL15:
 297              		.loc 1 234 1 view .LVU60
 298              		@ sp needed
 299 0002 7047     		bx	lr
 300              		.cfi_endproc
 301              	.LFE47:
 303              		.section	.text.USB_ActivateEndpoint,"ax",%progbits
 304              		.align	1
 305              		.global	USB_ActivateEndpoint
 306              		.syntax unified
 307              		.code	16
 308              		.thumb_func
 309              		.fpu softvfp
 311              	USB_ActivateEndpoint:
 312              	.LVL16:
 313              	.LFB48:
 235:Drivers/STM32F0xx_HAL_Driver/Src/stm32f0xx_ll_usb.c **** 
 236:Drivers/STM32F0xx_HAL_Driver/Src/stm32f0xx_ll_usb.c **** /**
 237:Drivers/STM32F0xx_HAL_Driver/Src/stm32f0xx_ll_usb.c ****   * @brief  Activate and configure an endpoint
 238:Drivers/STM32F0xx_HAL_Driver/Src/stm32f0xx_ll_usb.c ****   * @param  USBx : Selected device
 239:Drivers/STM32F0xx_HAL_Driver/Src/stm32f0xx_ll_usb.c ****   * @param  ep: pointer to endpoint structure
 240:Drivers/STM32F0xx_HAL_Driver/Src/stm32f0xx_ll_usb.c ****   * @retval HAL status
 241:Drivers/STM32F0xx_HAL_Driver/Src/stm32f0xx_ll_usb.c ****   */
 242:Drivers/STM32F0xx_HAL_Driver/Src/stm32f0xx_ll_usb.c **** HAL_StatusTypeDef USB_ActivateEndpoint(USB_TypeDef *USBx, USB_EPTypeDef *ep)
 243:Drivers/STM32F0xx_HAL_Driver/Src/stm32f0xx_ll_usb.c **** {
 314              		.loc 1 243 1 is_stmt 1 view -0
 315              		.cfi_startproc
 316              		@ args = 0, pretend = 0, frame = 0
 317              		@ frame_needed = 0, uses_anonymous_args = 0
 318              		.loc 1 243 1 is_stmt 0 view .LVU62
 319 0000 F0B5     		push	{r4, r5, r6, r7, lr}
 320              	.LCFI3:
 321              		.cfi_def_cfa_offset 20
 322              		.cfi_offset 4, -20
 323              		.cfi_offset 5, -16
 324              		.cfi_offset 6, -12
 325              		.cfi_offset 7, -8
 326              		.cfi_offset 14, -4
 327 0002 0300     		movs	r3, r0
 244:Drivers/STM32F0xx_HAL_Driver/Src/stm32f0xx_ll_usb.c ****   HAL_StatusTypeDef ret = HAL_OK;
 328              		.loc 1 244 3 is_stmt 1 view .LVU63
 329              	.LVL17:
 245:Drivers/STM32F0xx_HAL_Driver/Src/stm32f0xx_ll_usb.c ****   uint16_t wEpRegVal;
 330              		.loc 1 245 3 view .LVU64
 246:Drivers/STM32F0xx_HAL_Driver/Src/stm32f0xx_ll_usb.c **** 
 247:Drivers/STM32F0xx_HAL_Driver/Src/stm32f0xx_ll_usb.c ****   wEpRegVal = PCD_GET_ENDPOINT(USBx, ep->num) & USB_EP_T_MASK;
 331              		.loc 1 247 3 view .LVU65
 332              		.loc 1 247 15 is_stmt 0 view .LVU66
 333 0004 0D78     		ldrb	r5, [r1]
 334 0006 AD00     		lsls	r5, r5, #2
 335 0008 4519     		adds	r5, r0, r5
 336              		.loc 1 247 47 view .LVU67
 337 000a 2A88     		ldrh	r2, [r5]
 338              		.loc 1 247 13 view .LVU68
 339 000c B148     		ldr	r0, .L40
 340              	.LVL18:
ARM GAS  /tmp/ccFvwqLO.s 			page 11


 341              		.loc 1 247 13 view .LVU69
 342 000e 0240     		ands	r2, r0
 343              	.LVL19:
 248:Drivers/STM32F0xx_HAL_Driver/Src/stm32f0xx_ll_usb.c **** 
 249:Drivers/STM32F0xx_HAL_Driver/Src/stm32f0xx_ll_usb.c ****   /* initialize Endpoint */
 250:Drivers/STM32F0xx_HAL_Driver/Src/stm32f0xx_ll_usb.c ****   switch (ep->type)
 344              		.loc 1 250 3 is_stmt 1 view .LVU70
 345              		.loc 1 250 13 is_stmt 0 view .LVU71
 346 0010 C878     		ldrb	r0, [r1, #3]
 347              		.loc 1 250 3 view .LVU72
 348 0012 0228     		cmp	r0, #2
 349 0014 59D0     		beq	.L37
 350 0016 0AD8     		bhi	.L15
 351 0018 0028     		cmp	r0, #0
 352 001a 52D0     		beq	.L16
 353 001c 0128     		cmp	r0, #1
 354 001e 04D1     		bne	.L38
 251:Drivers/STM32F0xx_HAL_Driver/Src/stm32f0xx_ll_usb.c ****   {
 252:Drivers/STM32F0xx_HAL_Driver/Src/stm32f0xx_ll_usb.c ****     case EP_TYPE_CTRL:
 253:Drivers/STM32F0xx_HAL_Driver/Src/stm32f0xx_ll_usb.c ****       wEpRegVal |= USB_EP_CONTROL;
 254:Drivers/STM32F0xx_HAL_Driver/Src/stm32f0xx_ll_usb.c ****       break;
 255:Drivers/STM32F0xx_HAL_Driver/Src/stm32f0xx_ll_usb.c **** 
 256:Drivers/STM32F0xx_HAL_Driver/Src/stm32f0xx_ll_usb.c ****     case EP_TYPE_BULK:
 257:Drivers/STM32F0xx_HAL_Driver/Src/stm32f0xx_ll_usb.c ****       wEpRegVal |= USB_EP_BULK;
 258:Drivers/STM32F0xx_HAL_Driver/Src/stm32f0xx_ll_usb.c ****       break;
 259:Drivers/STM32F0xx_HAL_Driver/Src/stm32f0xx_ll_usb.c **** 
 260:Drivers/STM32F0xx_HAL_Driver/Src/stm32f0xx_ll_usb.c ****     case EP_TYPE_INTR:
 261:Drivers/STM32F0xx_HAL_Driver/Src/stm32f0xx_ll_usb.c ****       wEpRegVal |= USB_EP_INTERRUPT;
 262:Drivers/STM32F0xx_HAL_Driver/Src/stm32f0xx_ll_usb.c ****       break;
 263:Drivers/STM32F0xx_HAL_Driver/Src/stm32f0xx_ll_usb.c **** 
 264:Drivers/STM32F0xx_HAL_Driver/Src/stm32f0xx_ll_usb.c ****     case EP_TYPE_ISOC:
 265:Drivers/STM32F0xx_HAL_Driver/Src/stm32f0xx_ll_usb.c ****       wEpRegVal |= USB_EP_ISOCHRONOUS;
 355              		.loc 1 265 7 is_stmt 1 view .LVU73
 356              		.loc 1 265 17 is_stmt 0 view .LVU74
 357 0020 8020     		movs	r0, #128
 358 0022 C000     		lsls	r0, r0, #3
 359 0024 0243     		orrs	r2, r0
 360              	.LVL20:
 266:Drivers/STM32F0xx_HAL_Driver/Src/stm32f0xx_ll_usb.c ****       break;
 361              		.loc 1 266 7 is_stmt 1 view .LVU75
 244:Drivers/STM32F0xx_HAL_Driver/Src/stm32f0xx_ll_usb.c ****   uint16_t wEpRegVal;
 362              		.loc 1 244 21 is_stmt 0 view .LVU76
 363 0026 0020     		movs	r0, #0
 364              		.loc 1 266 7 view .LVU77
 365 0028 09E0     		b	.L14
 366              	.L38:
 267:Drivers/STM32F0xx_HAL_Driver/Src/stm32f0xx_ll_usb.c **** 
 268:Drivers/STM32F0xx_HAL_Driver/Src/stm32f0xx_ll_usb.c ****     default:
 269:Drivers/STM32F0xx_HAL_Driver/Src/stm32f0xx_ll_usb.c ****       ret = HAL_ERROR;
 367              		.loc 1 269 11 view .LVU78
 368 002a 0120     		movs	r0, #1
 369 002c 07E0     		b	.L14
 370              	.L15:
 250:Drivers/STM32F0xx_HAL_Driver/Src/stm32f0xx_ll_usb.c ****   {
 371              		.loc 1 250 3 view .LVU79
 372 002e 0328     		cmp	r0, #3
 373 0030 04D1     		bne	.L39
ARM GAS  /tmp/ccFvwqLO.s 			page 12


 261:Drivers/STM32F0xx_HAL_Driver/Src/stm32f0xx_ll_usb.c ****       break;
 374              		.loc 1 261 7 is_stmt 1 view .LVU80
 261:Drivers/STM32F0xx_HAL_Driver/Src/stm32f0xx_ll_usb.c ****       break;
 375              		.loc 1 261 17 is_stmt 0 view .LVU81
 376 0032 C020     		movs	r0, #192
 377 0034 C000     		lsls	r0, r0, #3
 378 0036 0243     		orrs	r2, r0
 379              	.LVL21:
 262:Drivers/STM32F0xx_HAL_Driver/Src/stm32f0xx_ll_usb.c **** 
 380              		.loc 1 262 7 is_stmt 1 view .LVU82
 244:Drivers/STM32F0xx_HAL_Driver/Src/stm32f0xx_ll_usb.c ****   uint16_t wEpRegVal;
 381              		.loc 1 244 21 is_stmt 0 view .LVU83
 382 0038 0020     		movs	r0, #0
 262:Drivers/STM32F0xx_HAL_Driver/Src/stm32f0xx_ll_usb.c **** 
 383              		.loc 1 262 7 view .LVU84
 384 003a 00E0     		b	.L14
 385              	.L39:
 386              		.loc 1 269 11 view .LVU85
 387 003c 0120     		movs	r0, #1
 388              	.L14:
 389              	.LVL22:
 270:Drivers/STM32F0xx_HAL_Driver/Src/stm32f0xx_ll_usb.c ****       break;
 271:Drivers/STM32F0xx_HAL_Driver/Src/stm32f0xx_ll_usb.c ****   }
 272:Drivers/STM32F0xx_HAL_Driver/Src/stm32f0xx_ll_usb.c **** 
 273:Drivers/STM32F0xx_HAL_Driver/Src/stm32f0xx_ll_usb.c ****   PCD_SET_ENDPOINT(USBx, ep->num, wEpRegVal | USB_EP_CTR_RX | USB_EP_CTR_TX);
 390              		.loc 1 273 3 is_stmt 1 view .LVU86
 391 003e A64C     		ldr	r4, .L40+4
 392 0040 2243     		orrs	r2, r4
 393              	.LVL23:
 394              		.loc 1 273 3 is_stmt 0 view .LVU87
 395 0042 92B2     		uxth	r2, r2
 396 0044 2A80     		strh	r2, [r5]
 274:Drivers/STM32F0xx_HAL_Driver/Src/stm32f0xx_ll_usb.c **** 
 275:Drivers/STM32F0xx_HAL_Driver/Src/stm32f0xx_ll_usb.c ****   PCD_SET_EP_ADDRESS(USBx, ep->num, ep->num);
 397              		.loc 1 275 3 is_stmt 1 view .LVU88
 398              	.LBB2:
 399              		.loc 1 275 3 view .LVU89
 400              		.loc 1 275 3 view .LVU90
 401 0046 0A78     		ldrb	r2, [r1]
 402 0048 9600     		lsls	r6, r2, #2
 403 004a 9E19     		adds	r6, r3, r6
 404 004c 3588     		ldrh	r5, [r6]
 405 004e 2DB2     		sxth	r5, r5
 406 0050 A24F     		ldr	r7, .L40+8
 407 0052 3D40     		ands	r5, r7
 408 0054 2A43     		orrs	r2, r5
 409 0056 92B2     		uxth	r2, r2
 410              	.LVL24:
 411              		.loc 1 275 3 view .LVU91
 412 0058 1443     		orrs	r4, r2
 413 005a A4B2     		uxth	r4, r4
 414 005c 3480     		strh	r4, [r6]
 415              	.LBE2:
 416              		.loc 1 275 3 view .LVU92
 276:Drivers/STM32F0xx_HAL_Driver/Src/stm32f0xx_ll_usb.c **** 
 277:Drivers/STM32F0xx_HAL_Driver/Src/stm32f0xx_ll_usb.c ****   if (ep->doublebuffer == 0U)
 417              		.loc 1 277 3 view .LVU93
ARM GAS  /tmp/ccFvwqLO.s 			page 13


 418              		.loc 1 277 9 is_stmt 0 view .LVU94
 419 005e 0A7B     		ldrb	r2, [r1, #12]
 420              	.LVL25:
 421              		.loc 1 277 6 view .LVU95
 422 0060 002A     		cmp	r2, #0
 423 0062 00D0     		beq	.LCB314
 424 0064 8AE0     		b	.L19	@long jump
 425              	.LCB314:
 278:Drivers/STM32F0xx_HAL_Driver/Src/stm32f0xx_ll_usb.c ****   {
 279:Drivers/STM32F0xx_HAL_Driver/Src/stm32f0xx_ll_usb.c ****     if (ep->is_in != 0U)
 426              		.loc 1 279 5 is_stmt 1 view .LVU96
 427              		.loc 1 279 11 is_stmt 0 view .LVU97
 428 0066 4A78     		ldrb	r2, [r1, #1]
 429              		.loc 1 279 8 view .LVU98
 430 0068 002A     		cmp	r2, #0
 431 006a 3BD0     		beq	.L20
 280:Drivers/STM32F0xx_HAL_Driver/Src/stm32f0xx_ll_usb.c ****     {
 281:Drivers/STM32F0xx_HAL_Driver/Src/stm32f0xx_ll_usb.c ****       /*Set the endpoint Transmit buffer address */
 282:Drivers/STM32F0xx_HAL_Driver/Src/stm32f0xx_ll_usb.c ****       PCD_SET_EP_TX_ADDRESS(USBx, ep->num, ep->pmaadress);
 432              		.loc 1 282 7 is_stmt 1 view .LVU99
 433              	.LBB3:
 434              		.loc 1 282 7 view .LVU100
 435              		.loc 1 282 7 view .LVU101
 436              	.LVL26:
 437              		.loc 1 282 7 view .LVU102
 438 006c 5022     		movs	r2, #80
 439 006e 9C5A     		ldrh	r4, [r3, r2]
 440 0070 1C19     		adds	r4, r3, r4
 441              	.LVL27:
 442              		.loc 1 282 7 view .LVU103
 443 0072 0A78     		ldrb	r2, [r1]
 444 0074 D200     		lsls	r2, r2, #3
 445 0076 1219     		adds	r2, r2, r4
 446 0078 8024     		movs	r4, #128
 447              	.LVL28:
 448              		.loc 1 282 7 is_stmt 0 view .LVU104
 449 007a E400     		lsls	r4, r4, #3
 450 007c A446     		mov	ip, r4
 451 007e 6244     		add	r2, r2, ip
 452              	.LVL29:
 453              		.loc 1 282 7 is_stmt 1 view .LVU105
 454 0080 CC88     		ldrh	r4, [r1, #6]
 455 0082 6408     		lsrs	r4, r4, #1
 456 0084 6400     		lsls	r4, r4, #1
 457 0086 1480     		strh	r4, [r2]
 458              	.LBE3:
 459              		.loc 1 282 7 view .LVU106
 283:Drivers/STM32F0xx_HAL_Driver/Src/stm32f0xx_ll_usb.c ****       PCD_CLEAR_TX_DTOG(USBx, ep->num);
 460              		.loc 1 283 7 view .LVU107
 461              	.LBB4:
 462              		.loc 1 283 7 view .LVU108
 463              		.loc 1 283 7 view .LVU109
 464 0088 0A78     		ldrb	r2, [r1]
 465              	.LVL30:
 466              		.loc 1 283 7 is_stmt 0 view .LVU110
 467 008a 9200     		lsls	r2, r2, #2
 468 008c 9A18     		adds	r2, r3, r2
ARM GAS  /tmp/ccFvwqLO.s 			page 14


 469 008e 1488     		ldrh	r4, [r2]
 470              	.LVL31:
 471              		.loc 1 283 7 is_stmt 1 view .LVU111
 472 0090 6406     		lsls	r4, r4, #25
 473 0092 06D5     		bpl	.L21
 474              	.LVL32:
 475              		.loc 1 283 7 discriminator 1 view .LVU112
 476              	.LBB5:
 477              		.loc 1 283 7 discriminator 1 view .LVU113
 478              		.loc 1 283 7 discriminator 1 view .LVU114
 479 0094 1488     		ldrh	r4, [r2]
 480 0096 3D00     		movs	r5, r7
 481 0098 2540     		ands	r5, r4
 482              	.LVL33:
 483              		.loc 1 283 7 discriminator 1 view .LVU115
 484 009a 914C     		ldr	r4, .L40+12
 485 009c 2C43     		orrs	r4, r5
 486 009e A4B2     		uxth	r4, r4
 487 00a0 1480     		strh	r4, [r2]
 488              	.LVL34:
 489              	.L21:
 490              		.loc 1 283 7 is_stmt 0 discriminator 1 view .LVU116
 491              	.LBE5:
 492              		.loc 1 283 7 is_stmt 1 discriminator 3 view .LVU117
 493              	.LBE4:
 494              		.loc 1 283 7 discriminator 3 view .LVU118
 284:Drivers/STM32F0xx_HAL_Driver/Src/stm32f0xx_ll_usb.c **** 
 285:Drivers/STM32F0xx_HAL_Driver/Src/stm32f0xx_ll_usb.c ****       if (ep->type != EP_TYPE_ISOC)
 495              		.loc 1 285 7 discriminator 3 view .LVU119
 496              		.loc 1 285 13 is_stmt 0 discriminator 3 view .LVU120
 497 00a2 CA78     		ldrb	r2, [r1, #3]
 498              		.loc 1 285 10 discriminator 3 view .LVU121
 499 00a4 012A     		cmp	r2, #1
 500 00a6 12D0     		beq	.L22
 286:Drivers/STM32F0xx_HAL_Driver/Src/stm32f0xx_ll_usb.c ****       {
 287:Drivers/STM32F0xx_HAL_Driver/Src/stm32f0xx_ll_usb.c ****         /* Configure NAK status for the Endpoint */
 288:Drivers/STM32F0xx_HAL_Driver/Src/stm32f0xx_ll_usb.c ****         PCD_SET_EP_TX_STATUS(USBx, ep->num, USB_EP_TX_NAK);
 501              		.loc 1 288 9 is_stmt 1 view .LVU122
 502              	.LBB6:
 503              		.loc 1 288 9 view .LVU123
 504              		.loc 1 288 9 view .LVU124
 505 00a8 0A78     		ldrb	r2, [r1]
 506 00aa 9200     		lsls	r2, r2, #2
 507 00ac 9B18     		adds	r3, r3, r2
 508              	.LVL35:
 509              		.loc 1 288 9 is_stmt 0 view .LVU125
 510 00ae 1A88     		ldrh	r2, [r3]
 511 00b0 8C49     		ldr	r1, .L40+16
 512              	.LVL36:
 513              		.loc 1 288 9 view .LVU126
 514 00b2 0A40     		ands	r2, r1
 515              	.LVL37:
 516              		.loc 1 288 9 is_stmt 1 view .LVU127
 517              		.loc 1 288 9 view .LVU128
 518              		.loc 1 288 9 view .LVU129
 519 00b4 2021     		movs	r1, #32
 520 00b6 5140     		eors	r1, r2
ARM GAS  /tmp/ccFvwqLO.s 			page 15


 521              	.LVL38:
 522              		.loc 1 288 9 view .LVU130
 523 00b8 874A     		ldr	r2, .L40+4
 524 00ba 0A43     		orrs	r2, r1
 525 00bc 92B2     		uxth	r2, r2
 526 00be 1A80     		strh	r2, [r3]
 527              	.LBE6:
 528              		.loc 1 288 9 view .LVU131
 529 00c0 48E0     		b	.L23
 530              	.LVL39:
 531              	.L16:
 253:Drivers/STM32F0xx_HAL_Driver/Src/stm32f0xx_ll_usb.c ****       break;
 532              		.loc 1 253 7 view .LVU132
 253:Drivers/STM32F0xx_HAL_Driver/Src/stm32f0xx_ll_usb.c ****       break;
 533              		.loc 1 253 17 is_stmt 0 view .LVU133
 534 00c2 8024     		movs	r4, #128
 535 00c4 A400     		lsls	r4, r4, #2
 536 00c6 2243     		orrs	r2, r4
 537              	.LVL40:
 254:Drivers/STM32F0xx_HAL_Driver/Src/stm32f0xx_ll_usb.c **** 
 538              		.loc 1 254 7 is_stmt 1 view .LVU134
 539 00c8 B9E7     		b	.L14
 540              	.L37:
 250:Drivers/STM32F0xx_HAL_Driver/Src/stm32f0xx_ll_usb.c ****   {
 541              		.loc 1 250 3 is_stmt 0 view .LVU135
 542 00ca 0020     		movs	r0, #0
 543 00cc B7E7     		b	.L14
 544              	.LVL41:
 545              	.L22:
 289:Drivers/STM32F0xx_HAL_Driver/Src/stm32f0xx_ll_usb.c ****       }
 290:Drivers/STM32F0xx_HAL_Driver/Src/stm32f0xx_ll_usb.c ****       else
 291:Drivers/STM32F0xx_HAL_Driver/Src/stm32f0xx_ll_usb.c ****       {
 292:Drivers/STM32F0xx_HAL_Driver/Src/stm32f0xx_ll_usb.c ****         /* Configure TX Endpoint to disabled state */
 293:Drivers/STM32F0xx_HAL_Driver/Src/stm32f0xx_ll_usb.c ****         PCD_SET_EP_TX_STATUS(USBx, ep->num, USB_EP_TX_DIS);
 546              		.loc 1 293 9 is_stmt 1 view .LVU136
 547              	.LBB7:
 548              		.loc 1 293 9 view .LVU137
 549              		.loc 1 293 9 view .LVU138
 550 00ce 0A78     		ldrb	r2, [r1]
 551 00d0 9200     		lsls	r2, r2, #2
 552 00d2 9B18     		adds	r3, r3, r2
 553              	.LVL42:
 554              		.loc 1 293 9 is_stmt 0 view .LVU139
 555 00d4 1A88     		ldrh	r2, [r3]
 556 00d6 8349     		ldr	r1, .L40+16
 557              	.LVL43:
 558              		.loc 1 293 9 view .LVU140
 559 00d8 1140     		ands	r1, r2
 560              	.LVL44:
 561              		.loc 1 293 9 is_stmt 1 view .LVU141
 562              		.loc 1 293 9 view .LVU142
 563              		.loc 1 293 9 view .LVU143
 564 00da 7F4A     		ldr	r2, .L40+4
 565 00dc 0A43     		orrs	r2, r1
 566 00de 92B2     		uxth	r2, r2
 567 00e0 1A80     		strh	r2, [r3]
 568 00e2 37E0     		b	.L23
ARM GAS  /tmp/ccFvwqLO.s 			page 16


 569              	.LVL45:
 570              	.L20:
 571              		.loc 1 293 9 is_stmt 0 view .LVU144
 572              	.LBE7:
 294:Drivers/STM32F0xx_HAL_Driver/Src/stm32f0xx_ll_usb.c ****       }
 295:Drivers/STM32F0xx_HAL_Driver/Src/stm32f0xx_ll_usb.c ****     }
 296:Drivers/STM32F0xx_HAL_Driver/Src/stm32f0xx_ll_usb.c ****     else
 297:Drivers/STM32F0xx_HAL_Driver/Src/stm32f0xx_ll_usb.c ****     {
 298:Drivers/STM32F0xx_HAL_Driver/Src/stm32f0xx_ll_usb.c ****       /*Set the endpoint Receive buffer address */
 299:Drivers/STM32F0xx_HAL_Driver/Src/stm32f0xx_ll_usb.c ****       PCD_SET_EP_RX_ADDRESS(USBx, ep->num, ep->pmaadress);
 573              		.loc 1 299 7 is_stmt 1 view .LVU145
 574              	.LBB8:
 575              		.loc 1 299 7 view .LVU146
 576              		.loc 1 299 7 view .LVU147
 577              		.loc 1 299 7 view .LVU148
 578 00e4 5025     		movs	r5, #80
 579 00e6 5C5B     		ldrh	r4, [r3, r5]
 580 00e8 1C19     		adds	r4, r3, r4
 581              	.LVL46:
 582              		.loc 1 299 7 view .LVU149
 583 00ea 0A78     		ldrb	r2, [r1]
 584 00ec D200     		lsls	r2, r2, #3
 585 00ee 1219     		adds	r2, r2, r4
 586 00f0 7D4C     		ldr	r4, .L40+20
 587              	.LVL47:
 588              		.loc 1 299 7 is_stmt 0 view .LVU150
 589 00f2 A446     		mov	ip, r4
 590 00f4 6244     		add	r2, r2, ip
 591              	.LVL48:
 592              		.loc 1 299 7 is_stmt 1 view .LVU151
 593 00f6 CC88     		ldrh	r4, [r1, #6]
 594 00f8 6408     		lsrs	r4, r4, #1
 595 00fa 6400     		lsls	r4, r4, #1
 596 00fc 1480     		strh	r4, [r2]
 597              	.LBE8:
 598              		.loc 1 299 7 view .LVU152
 300:Drivers/STM32F0xx_HAL_Driver/Src/stm32f0xx_ll_usb.c ****       /*Set the endpoint Receive buffer counter*/
 301:Drivers/STM32F0xx_HAL_Driver/Src/stm32f0xx_ll_usb.c ****       PCD_SET_EP_RX_CNT(USBx, ep->num, ep->maxpacket);
 599              		.loc 1 301 7 view .LVU153
 600              	.LBB9:
 601              		.loc 1 301 7 view .LVU154
 602              	.LVL49:
 603              		.loc 1 301 7 view .LVU155
 604              		.loc 1 301 7 view .LVU156
 605 00fe 5C5B     		ldrh	r4, [r3, r5]
 606 0100 1C19     		adds	r4, r3, r4
 607              	.LVL50:
 608              		.loc 1 301 7 view .LVU157
 609 0102 0A78     		ldrb	r2, [r1]
 610              	.LVL51:
 611              		.loc 1 301 7 is_stmt 0 view .LVU158
 612 0104 D200     		lsls	r2, r2, #3
 613 0106 1219     		adds	r2, r2, r4
 614 0108 784C     		ldr	r4, .L40+24
 615              	.LVL52:
 616              		.loc 1 301 7 view .LVU159
 617 010a A446     		mov	ip, r4
ARM GAS  /tmp/ccFvwqLO.s 			page 17


 618 010c 6244     		add	r2, r2, ip
 619              	.LVL53:
 620              		.loc 1 301 7 is_stmt 1 view .LVU160
 621              	.LBB10:
 622              		.loc 1 301 7 view .LVU161
 623              		.loc 1 301 7 view .LVU162
 624 010e 0C69     		ldr	r4, [r1, #16]
 625 0110 002C     		cmp	r4, #0
 626 0112 20D1     		bne	.L24
 627              		.loc 1 301 7 discriminator 1 view .LVU163
 628 0114 1488     		ldrh	r4, [r2]
 629 0116 764D     		ldr	r5, .L40+28
 630 0118 2540     		ands	r5, r4
 631              		.loc 1 301 7 discriminator 1 view .LVU164
 632 011a 764C     		ldr	r4, .L40+32
 633 011c 2C43     		orrs	r4, r5
 634 011e 1480     		strh	r4, [r2]
 635              	.L25:
 636              		.loc 1 301 7 discriminator 13 view .LVU165
 637              	.LBE10:
 638              		.loc 1 301 7 discriminator 13 view .LVU166
 639              	.LBE9:
 640              		.loc 1 301 7 discriminator 13 view .LVU167
 302:Drivers/STM32F0xx_HAL_Driver/Src/stm32f0xx_ll_usb.c ****       PCD_CLEAR_RX_DTOG(USBx, ep->num);
 641              		.loc 1 302 7 discriminator 13 view .LVU168
 642              	.LBB12:
 643              		.loc 1 302 7 discriminator 13 view .LVU169
 644              		.loc 1 302 7 discriminator 13 view .LVU170
 645 0120 0A78     		ldrb	r2, [r1]
 646              	.LVL54:
 647              		.loc 1 302 7 is_stmt 0 discriminator 13 view .LVU171
 648 0122 9200     		lsls	r2, r2, #2
 649 0124 9A18     		adds	r2, r3, r2
 650 0126 1488     		ldrh	r4, [r2]
 651              	.LVL55:
 652              		.loc 1 302 7 is_stmt 1 discriminator 13 view .LVU172
 653 0128 6404     		lsls	r4, r4, #17
 654 012a 06D5     		bpl	.L29
 655              	.LVL56:
 656              		.loc 1 302 7 discriminator 1 view .LVU173
 657              	.LBB13:
 658              		.loc 1 302 7 discriminator 1 view .LVU174
 659              		.loc 1 302 7 discriminator 1 view .LVU175
 660 012c 1488     		ldrh	r4, [r2]
 661 012e 6B4D     		ldr	r5, .L40+8
 662 0130 2540     		ands	r5, r4
 663              	.LVL57:
 664              		.loc 1 302 7 discriminator 1 view .LVU176
 665 0132 714C     		ldr	r4, .L40+36
 666 0134 2C43     		orrs	r4, r5
 667 0136 A4B2     		uxth	r4, r4
 668 0138 1480     		strh	r4, [r2]
 669              	.LVL58:
 670              	.L29:
 671              		.loc 1 302 7 is_stmt 0 discriminator 1 view .LVU177
 672              	.LBE13:
 673              		.loc 1 302 7 is_stmt 1 discriminator 3 view .LVU178
ARM GAS  /tmp/ccFvwqLO.s 			page 18


 674              	.LBE12:
 675              		.loc 1 302 7 discriminator 3 view .LVU179
 303:Drivers/STM32F0xx_HAL_Driver/Src/stm32f0xx_ll_usb.c ****       /* Configure VALID status for the Endpoint*/
 304:Drivers/STM32F0xx_HAL_Driver/Src/stm32f0xx_ll_usb.c ****       PCD_SET_EP_RX_STATUS(USBx, ep->num, USB_EP_RX_VALID);
 676              		.loc 1 304 7 discriminator 3 view .LVU180
 677              	.LBB14:
 678              		.loc 1 304 7 discriminator 3 view .LVU181
 679              		.loc 1 304 7 discriminator 3 view .LVU182
 680 013a 0A78     		ldrb	r2, [r1]
 681 013c 9200     		lsls	r2, r2, #2
 682 013e 9B18     		adds	r3, r3, r2
 683              	.LVL59:
 684              		.loc 1 304 7 is_stmt 0 discriminator 3 view .LVU183
 685 0140 1988     		ldrh	r1, [r3]
 686              	.LVL60:
 687              		.loc 1 304 7 discriminator 3 view .LVU184
 688 0142 6E4A     		ldr	r2, .L40+40
 689 0144 1140     		ands	r1, r2
 690              	.LVL61:
 691              		.loc 1 304 7 is_stmt 1 discriminator 3 view .LVU185
 692              		.loc 1 304 7 discriminator 3 view .LVU186
 693              		.loc 1 304 7 discriminator 3 view .LVU187
 694              		.loc 1 304 7 discriminator 3 view .LVU188
 695 0146 C022     		movs	r2, #192
 696 0148 9201     		lsls	r2, r2, #6
 697 014a 5140     		eors	r1, r2
 698              	.LVL62:
 699              		.loc 1 304 7 discriminator 3 view .LVU189
 700 014c 624A     		ldr	r2, .L40+4
 701 014e 0A43     		orrs	r2, r1
 702 0150 92B2     		uxth	r2, r2
 703 0152 1A80     		strh	r2, [r3]
 704              	.LVL63:
 705              	.L23:
 706              		.loc 1 304 7 is_stmt 0 discriminator 3 view .LVU190
 707              	.LBE14:
 305:Drivers/STM32F0xx_HAL_Driver/Src/stm32f0xx_ll_usb.c ****     }
 306:Drivers/STM32F0xx_HAL_Driver/Src/stm32f0xx_ll_usb.c ****   }
 307:Drivers/STM32F0xx_HAL_Driver/Src/stm32f0xx_ll_usb.c ****   /*Double Buffer*/
 308:Drivers/STM32F0xx_HAL_Driver/Src/stm32f0xx_ll_usb.c ****   else
 309:Drivers/STM32F0xx_HAL_Driver/Src/stm32f0xx_ll_usb.c ****   {
 310:Drivers/STM32F0xx_HAL_Driver/Src/stm32f0xx_ll_usb.c ****     /* Set the endpoint as double buffered */
 311:Drivers/STM32F0xx_HAL_Driver/Src/stm32f0xx_ll_usb.c ****     PCD_SET_EP_DBUF(USBx, ep->num);
 312:Drivers/STM32F0xx_HAL_Driver/Src/stm32f0xx_ll_usb.c ****     /* Set buffer address for double buffered mode */
 313:Drivers/STM32F0xx_HAL_Driver/Src/stm32f0xx_ll_usb.c ****     PCD_SET_EP_DBUF_ADDR(USBx, ep->num, ep->pmaaddr0, ep->pmaaddr1);
 314:Drivers/STM32F0xx_HAL_Driver/Src/stm32f0xx_ll_usb.c **** 
 315:Drivers/STM32F0xx_HAL_Driver/Src/stm32f0xx_ll_usb.c ****     if (ep->is_in == 0U)
 316:Drivers/STM32F0xx_HAL_Driver/Src/stm32f0xx_ll_usb.c ****     {
 317:Drivers/STM32F0xx_HAL_Driver/Src/stm32f0xx_ll_usb.c ****       /* Clear the data toggle bits for the endpoint IN/OUT */
 318:Drivers/STM32F0xx_HAL_Driver/Src/stm32f0xx_ll_usb.c ****       PCD_CLEAR_RX_DTOG(USBx, ep->num);
 319:Drivers/STM32F0xx_HAL_Driver/Src/stm32f0xx_ll_usb.c ****       PCD_CLEAR_TX_DTOG(USBx, ep->num);
 320:Drivers/STM32F0xx_HAL_Driver/Src/stm32f0xx_ll_usb.c **** 
 321:Drivers/STM32F0xx_HAL_Driver/Src/stm32f0xx_ll_usb.c ****       /* Reset value of the data toggle bits for the endpoint out */
 322:Drivers/STM32F0xx_HAL_Driver/Src/stm32f0xx_ll_usb.c ****       PCD_TX_DTOG(USBx, ep->num);
 323:Drivers/STM32F0xx_HAL_Driver/Src/stm32f0xx_ll_usb.c **** 
 324:Drivers/STM32F0xx_HAL_Driver/Src/stm32f0xx_ll_usb.c ****       PCD_SET_EP_RX_STATUS(USBx, ep->num, USB_EP_RX_VALID);
 325:Drivers/STM32F0xx_HAL_Driver/Src/stm32f0xx_ll_usb.c ****       PCD_SET_EP_TX_STATUS(USBx, ep->num, USB_EP_TX_DIS);
ARM GAS  /tmp/ccFvwqLO.s 			page 19


 326:Drivers/STM32F0xx_HAL_Driver/Src/stm32f0xx_ll_usb.c ****     }
 327:Drivers/STM32F0xx_HAL_Driver/Src/stm32f0xx_ll_usb.c ****     else
 328:Drivers/STM32F0xx_HAL_Driver/Src/stm32f0xx_ll_usb.c ****     {
 329:Drivers/STM32F0xx_HAL_Driver/Src/stm32f0xx_ll_usb.c ****       /* Clear the data toggle bits for the endpoint IN/OUT */
 330:Drivers/STM32F0xx_HAL_Driver/Src/stm32f0xx_ll_usb.c ****       PCD_CLEAR_RX_DTOG(USBx, ep->num);
 331:Drivers/STM32F0xx_HAL_Driver/Src/stm32f0xx_ll_usb.c ****       PCD_CLEAR_TX_DTOG(USBx, ep->num);
 332:Drivers/STM32F0xx_HAL_Driver/Src/stm32f0xx_ll_usb.c ****       PCD_RX_DTOG(USBx, ep->num);
 333:Drivers/STM32F0xx_HAL_Driver/Src/stm32f0xx_ll_usb.c **** 
 334:Drivers/STM32F0xx_HAL_Driver/Src/stm32f0xx_ll_usb.c ****       if (ep->type != EP_TYPE_ISOC)
 335:Drivers/STM32F0xx_HAL_Driver/Src/stm32f0xx_ll_usb.c ****       {
 336:Drivers/STM32F0xx_HAL_Driver/Src/stm32f0xx_ll_usb.c ****         /* Configure NAK status for the Endpoint */
 337:Drivers/STM32F0xx_HAL_Driver/Src/stm32f0xx_ll_usb.c ****         PCD_SET_EP_TX_STATUS(USBx, ep->num, USB_EP_TX_NAK);
 338:Drivers/STM32F0xx_HAL_Driver/Src/stm32f0xx_ll_usb.c ****       }
 339:Drivers/STM32F0xx_HAL_Driver/Src/stm32f0xx_ll_usb.c ****       else
 340:Drivers/STM32F0xx_HAL_Driver/Src/stm32f0xx_ll_usb.c ****       {
 341:Drivers/STM32F0xx_HAL_Driver/Src/stm32f0xx_ll_usb.c ****         /* Configure TX Endpoint to disabled state */
 342:Drivers/STM32F0xx_HAL_Driver/Src/stm32f0xx_ll_usb.c ****         PCD_SET_EP_TX_STATUS(USBx, ep->num, USB_EP_TX_DIS);
 343:Drivers/STM32F0xx_HAL_Driver/Src/stm32f0xx_ll_usb.c ****       }
 344:Drivers/STM32F0xx_HAL_Driver/Src/stm32f0xx_ll_usb.c **** 
 345:Drivers/STM32F0xx_HAL_Driver/Src/stm32f0xx_ll_usb.c ****       PCD_SET_EP_RX_STATUS(USBx, ep->num, USB_EP_RX_DIS);
 708              		.loc 1 345 7 is_stmt 1 discriminator 7 view .LVU191
 346:Drivers/STM32F0xx_HAL_Driver/Src/stm32f0xx_ll_usb.c ****     }
 347:Drivers/STM32F0xx_HAL_Driver/Src/stm32f0xx_ll_usb.c ****   }
 348:Drivers/STM32F0xx_HAL_Driver/Src/stm32f0xx_ll_usb.c **** 
 349:Drivers/STM32F0xx_HAL_Driver/Src/stm32f0xx_ll_usb.c ****   return ret;
 709              		.loc 1 349 3 discriminator 7 view .LVU192
 350:Drivers/STM32F0xx_HAL_Driver/Src/stm32f0xx_ll_usb.c **** }
 710              		.loc 1 350 1 is_stmt 0 discriminator 7 view .LVU193
 711              		@ sp needed
 712 0154 F0BD     		pop	{r4, r5, r6, r7, pc}
 713              	.LVL64:
 714              	.L24:
 715              	.LBB15:
 716              	.LBB11:
 301:Drivers/STM32F0xx_HAL_Driver/Src/stm32f0xx_ll_usb.c ****       PCD_CLEAR_RX_DTOG(USBx, ep->num);
 717              		.loc 1 301 7 is_stmt 1 discriminator 2 view .LVU194
 718 0156 3E2C     		cmp	r4, #62
 719 0158 06D8     		bhi	.L26
 301:Drivers/STM32F0xx_HAL_Driver/Src/stm32f0xx_ll_usb.c ****       PCD_CLEAR_RX_DTOG(USBx, ep->num);
 720              		.loc 1 301 7 discriminator 4 view .LVU195
 301:Drivers/STM32F0xx_HAL_Driver/Src/stm32f0xx_ll_usb.c ****       PCD_CLEAR_RX_DTOG(USBx, ep->num);
 721              		.loc 1 301 7 discriminator 4 view .LVU196
 722 015a 6508     		lsrs	r5, r4, #1
 723              	.LVL65:
 301:Drivers/STM32F0xx_HAL_Driver/Src/stm32f0xx_ll_usb.c ****       PCD_CLEAR_RX_DTOG(USBx, ep->num);
 724              		.loc 1 301 7 discriminator 4 view .LVU197
 725 015c E407     		lsls	r4, r4, #31
 726 015e 00D5     		bpl	.L27
 301:Drivers/STM32F0xx_HAL_Driver/Src/stm32f0xx_ll_usb.c ****       PCD_CLEAR_RX_DTOG(USBx, ep->num);
 727              		.loc 1 301 7 discriminator 6 view .LVU198
 728 0160 0135     		adds	r5, r5, #1
 729              	.LVL66:
 730              	.L27:
 301:Drivers/STM32F0xx_HAL_Driver/Src/stm32f0xx_ll_usb.c ****       PCD_CLEAR_RX_DTOG(USBx, ep->num);
 731              		.loc 1 301 7 discriminator 8 view .LVU199
 732 0162 AD02     		lsls	r5, r5, #10
 733              	.LVL67:
ARM GAS  /tmp/ccFvwqLO.s 			page 20


 301:Drivers/STM32F0xx_HAL_Driver/Src/stm32f0xx_ll_usb.c ****       PCD_CLEAR_RX_DTOG(USBx, ep->num);
 734              		.loc 1 301 7 is_stmt 0 discriminator 8 view .LVU200
 735 0164 1580     		strh	r5, [r2]
 301:Drivers/STM32F0xx_HAL_Driver/Src/stm32f0xx_ll_usb.c ****       PCD_CLEAR_RX_DTOG(USBx, ep->num);
 736              		.loc 1 301 7 is_stmt 1 discriminator 8 view .LVU201
 737 0166 DBE7     		b	.L25
 738              	.L26:
 301:Drivers/STM32F0xx_HAL_Driver/Src/stm32f0xx_ll_usb.c ****       PCD_CLEAR_RX_DTOG(USBx, ep->num);
 739              		.loc 1 301 7 discriminator 5 view .LVU202
 301:Drivers/STM32F0xx_HAL_Driver/Src/stm32f0xx_ll_usb.c ****       PCD_CLEAR_RX_DTOG(USBx, ep->num);
 740              		.loc 1 301 7 discriminator 5 view .LVU203
 741 0168 6509     		lsrs	r5, r4, #5
 742              	.LVL68:
 301:Drivers/STM32F0xx_HAL_Driver/Src/stm32f0xx_ll_usb.c ****       PCD_CLEAR_RX_DTOG(USBx, ep->num);
 743              		.loc 1 301 7 discriminator 5 view .LVU204
 744 016a E406     		lsls	r4, r4, #27
 745 016c 00D1     		bne	.L28
 301:Drivers/STM32F0xx_HAL_Driver/Src/stm32f0xx_ll_usb.c ****       PCD_CLEAR_RX_DTOG(USBx, ep->num);
 746              		.loc 1 301 7 discriminator 10 view .LVU205
 747 016e 013D     		subs	r5, r5, #1
 748              	.LVL69:
 749              	.L28:
 301:Drivers/STM32F0xx_HAL_Driver/Src/stm32f0xx_ll_usb.c ****       PCD_CLEAR_RX_DTOG(USBx, ep->num);
 750              		.loc 1 301 7 discriminator 12 view .LVU206
 751 0170 AD02     		lsls	r5, r5, #10
 752              	.LVL70:
 301:Drivers/STM32F0xx_HAL_Driver/Src/stm32f0xx_ll_usb.c ****       PCD_CLEAR_RX_DTOG(USBx, ep->num);
 753              		.loc 1 301 7 is_stmt 0 discriminator 12 view .LVU207
 754 0172 ADB2     		uxth	r5, r5
 755 0174 5F4C     		ldr	r4, .L40+32
 756 0176 2543     		orrs	r5, r4
 757 0178 1580     		strh	r5, [r2]
 758 017a D1E7     		b	.L25
 759              	.LVL71:
 760              	.L19:
 301:Drivers/STM32F0xx_HAL_Driver/Src/stm32f0xx_ll_usb.c ****       PCD_CLEAR_RX_DTOG(USBx, ep->num);
 761              		.loc 1 301 7 discriminator 12 view .LVU208
 762              	.LBE11:
 763              	.LBE15:
 311:Drivers/STM32F0xx_HAL_Driver/Src/stm32f0xx_ll_usb.c ****     /* Set buffer address for double buffered mode */
 764              		.loc 1 311 5 is_stmt 1 view .LVU209
 765              	.LBB16:
 311:Drivers/STM32F0xx_HAL_Driver/Src/stm32f0xx_ll_usb.c ****     /* Set buffer address for double buffered mode */
 766              		.loc 1 311 5 view .LVU210
 311:Drivers/STM32F0xx_HAL_Driver/Src/stm32f0xx_ll_usb.c ****     /* Set buffer address for double buffered mode */
 767              		.loc 1 311 5 view .LVU211
 768 017c 0A78     		ldrb	r2, [r1]
 769 017e 9200     		lsls	r2, r2, #2
 770 0180 9A18     		adds	r2, r3, r2
 771 0182 1488     		ldrh	r4, [r2]
 772 0184 554D     		ldr	r5, .L40+8
 773 0186 2540     		ands	r5, r4
 774              	.LVL72:
 311:Drivers/STM32F0xx_HAL_Driver/Src/stm32f0xx_ll_usb.c ****     /* Set buffer address for double buffered mode */
 775              		.loc 1 311 5 view .LVU212
 776 0188 5D4C     		ldr	r4, .L40+44
 777 018a 2C43     		orrs	r4, r5
ARM GAS  /tmp/ccFvwqLO.s 			page 21


 778 018c A4B2     		uxth	r4, r4
 779 018e 1480     		strh	r4, [r2]
 780              	.LBE16:
 311:Drivers/STM32F0xx_HAL_Driver/Src/stm32f0xx_ll_usb.c ****     /* Set buffer address for double buffered mode */
 781              		.loc 1 311 5 view .LVU213
 313:Drivers/STM32F0xx_HAL_Driver/Src/stm32f0xx_ll_usb.c **** 
 782              		.loc 1 313 5 view .LVU214
 313:Drivers/STM32F0xx_HAL_Driver/Src/stm32f0xx_ll_usb.c **** 
 783              		.loc 1 313 5 view .LVU215
 313:Drivers/STM32F0xx_HAL_Driver/Src/stm32f0xx_ll_usb.c **** 
 784              		.loc 1 313 5 view .LVU216
 785              	.LBB17:
 313:Drivers/STM32F0xx_HAL_Driver/Src/stm32f0xx_ll_usb.c **** 
 786              		.loc 1 313 5 view .LVU217
 313:Drivers/STM32F0xx_HAL_Driver/Src/stm32f0xx_ll_usb.c **** 
 787              		.loc 1 313 5 view .LVU218
 788              	.LVL73:
 313:Drivers/STM32F0xx_HAL_Driver/Src/stm32f0xx_ll_usb.c **** 
 789              		.loc 1 313 5 view .LVU219
 790 0190 5025     		movs	r5, #80
 791              	.LVL74:
 313:Drivers/STM32F0xx_HAL_Driver/Src/stm32f0xx_ll_usb.c **** 
 792              		.loc 1 313 5 is_stmt 0 view .LVU220
 793 0192 5C5B     		ldrh	r4, [r3, r5]
 794 0194 1C19     		adds	r4, r3, r4
 795              	.LVL75:
 313:Drivers/STM32F0xx_HAL_Driver/Src/stm32f0xx_ll_usb.c **** 
 796              		.loc 1 313 5 is_stmt 1 view .LVU221
 797 0196 0A78     		ldrb	r2, [r1]
 798 0198 D200     		lsls	r2, r2, #3
 799 019a 1219     		adds	r2, r2, r4
 800 019c 8024     		movs	r4, #128
 801              	.LVL76:
 313:Drivers/STM32F0xx_HAL_Driver/Src/stm32f0xx_ll_usb.c **** 
 802              		.loc 1 313 5 is_stmt 0 view .LVU222
 803 019e E400     		lsls	r4, r4, #3
 804 01a0 A446     		mov	ip, r4
 805 01a2 6244     		add	r2, r2, ip
 806              	.LVL77:
 313:Drivers/STM32F0xx_HAL_Driver/Src/stm32f0xx_ll_usb.c **** 
 807              		.loc 1 313 5 is_stmt 1 view .LVU223
 808 01a4 0C89     		ldrh	r4, [r1, #8]
 809 01a6 6408     		lsrs	r4, r4, #1
 810 01a8 6400     		lsls	r4, r4, #1
 811 01aa 1480     		strh	r4, [r2]
 812              	.LBE17:
 313:Drivers/STM32F0xx_HAL_Driver/Src/stm32f0xx_ll_usb.c **** 
 813              		.loc 1 313 5 view .LVU224
 313:Drivers/STM32F0xx_HAL_Driver/Src/stm32f0xx_ll_usb.c **** 
 814              		.loc 1 313 5 view .LVU225
 313:Drivers/STM32F0xx_HAL_Driver/Src/stm32f0xx_ll_usb.c **** 
 815              		.loc 1 313 5 view .LVU226
 313:Drivers/STM32F0xx_HAL_Driver/Src/stm32f0xx_ll_usb.c **** 
 816              		.loc 1 313 5 view .LVU227
 817              	.LBB18:
 313:Drivers/STM32F0xx_HAL_Driver/Src/stm32f0xx_ll_usb.c **** 
 818              		.loc 1 313 5 view .LVU228
ARM GAS  /tmp/ccFvwqLO.s 			page 22


 313:Drivers/STM32F0xx_HAL_Driver/Src/stm32f0xx_ll_usb.c **** 
 819              		.loc 1 313 5 view .LVU229
 820              	.LVL78:
 313:Drivers/STM32F0xx_HAL_Driver/Src/stm32f0xx_ll_usb.c **** 
 821              		.loc 1 313 5 view .LVU230
 822 01ac 5C5B     		ldrh	r4, [r3, r5]
 823 01ae 1C19     		adds	r4, r3, r4
 824              	.LVL79:
 313:Drivers/STM32F0xx_HAL_Driver/Src/stm32f0xx_ll_usb.c **** 
 825              		.loc 1 313 5 view .LVU231
 826 01b0 0A78     		ldrb	r2, [r1]
 827              	.LVL80:
 313:Drivers/STM32F0xx_HAL_Driver/Src/stm32f0xx_ll_usb.c **** 
 828              		.loc 1 313 5 is_stmt 0 view .LVU232
 829 01b2 D200     		lsls	r2, r2, #3
 830 01b4 1219     		adds	r2, r2, r4
 831 01b6 4C4C     		ldr	r4, .L40+20
 832              	.LVL81:
 313:Drivers/STM32F0xx_HAL_Driver/Src/stm32f0xx_ll_usb.c **** 
 833              		.loc 1 313 5 view .LVU233
 834 01b8 A446     		mov	ip, r4
 835 01ba 6244     		add	r2, r2, ip
 836              	.LVL82:
 313:Drivers/STM32F0xx_HAL_Driver/Src/stm32f0xx_ll_usb.c **** 
 837              		.loc 1 313 5 is_stmt 1 view .LVU234
 838 01bc 4C89     		ldrh	r4, [r1, #10]
 839 01be 6408     		lsrs	r4, r4, #1
 840 01c0 6400     		lsls	r4, r4, #1
 841 01c2 1480     		strh	r4, [r2]
 842              	.LBE18:
 313:Drivers/STM32F0xx_HAL_Driver/Src/stm32f0xx_ll_usb.c **** 
 843              		.loc 1 313 5 view .LVU235
 313:Drivers/STM32F0xx_HAL_Driver/Src/stm32f0xx_ll_usb.c **** 
 844              		.loc 1 313 5 view .LVU236
 313:Drivers/STM32F0xx_HAL_Driver/Src/stm32f0xx_ll_usb.c **** 
 845              		.loc 1 313 5 view .LVU237
 315:Drivers/STM32F0xx_HAL_Driver/Src/stm32f0xx_ll_usb.c ****     {
 846              		.loc 1 315 5 view .LVU238
 315:Drivers/STM32F0xx_HAL_Driver/Src/stm32f0xx_ll_usb.c ****     {
 847              		.loc 1 315 11 is_stmt 0 view .LVU239
 848 01c4 4A78     		ldrb	r2, [r1, #1]
 849              	.LVL83:
 315:Drivers/STM32F0xx_HAL_Driver/Src/stm32f0xx_ll_usb.c ****     {
 850              		.loc 1 315 8 view .LVU240
 851 01c6 002A     		cmp	r2, #0
 852 01c8 3AD1     		bne	.L30
 318:Drivers/STM32F0xx_HAL_Driver/Src/stm32f0xx_ll_usb.c ****       PCD_CLEAR_TX_DTOG(USBx, ep->num);
 853              		.loc 1 318 7 is_stmt 1 view .LVU241
 854              	.LBB19:
 318:Drivers/STM32F0xx_HAL_Driver/Src/stm32f0xx_ll_usb.c ****       PCD_CLEAR_TX_DTOG(USBx, ep->num);
 855              		.loc 1 318 7 view .LVU242
 318:Drivers/STM32F0xx_HAL_Driver/Src/stm32f0xx_ll_usb.c ****       PCD_CLEAR_TX_DTOG(USBx, ep->num);
 856              		.loc 1 318 7 view .LVU243
 857 01ca 0A78     		ldrb	r2, [r1]
 858 01cc 9200     		lsls	r2, r2, #2
 859 01ce 9A18     		adds	r2, r3, r2
 860 01d0 1488     		ldrh	r4, [r2]
ARM GAS  /tmp/ccFvwqLO.s 			page 23


 861              	.LVL84:
 318:Drivers/STM32F0xx_HAL_Driver/Src/stm32f0xx_ll_usb.c ****       PCD_CLEAR_TX_DTOG(USBx, ep->num);
 862              		.loc 1 318 7 view .LVU244
 863 01d2 6404     		lsls	r4, r4, #17
 864 01d4 06D5     		bpl	.L31
 865              	.LVL85:
 318:Drivers/STM32F0xx_HAL_Driver/Src/stm32f0xx_ll_usb.c ****       PCD_CLEAR_TX_DTOG(USBx, ep->num);
 866              		.loc 1 318 7 discriminator 1 view .LVU245
 867              	.LBB20:
 318:Drivers/STM32F0xx_HAL_Driver/Src/stm32f0xx_ll_usb.c ****       PCD_CLEAR_TX_DTOG(USBx, ep->num);
 868              		.loc 1 318 7 discriminator 1 view .LVU246
 318:Drivers/STM32F0xx_HAL_Driver/Src/stm32f0xx_ll_usb.c ****       PCD_CLEAR_TX_DTOG(USBx, ep->num);
 869              		.loc 1 318 7 discriminator 1 view .LVU247
 870 01d6 1488     		ldrh	r4, [r2]
 871 01d8 404D     		ldr	r5, .L40+8
 872 01da 2540     		ands	r5, r4
 873              	.LVL86:
 318:Drivers/STM32F0xx_HAL_Driver/Src/stm32f0xx_ll_usb.c ****       PCD_CLEAR_TX_DTOG(USBx, ep->num);
 874              		.loc 1 318 7 discriminator 1 view .LVU248
 875 01dc 464C     		ldr	r4, .L40+36
 876 01de 2C43     		orrs	r4, r5
 877 01e0 A4B2     		uxth	r4, r4
 878 01e2 1480     		strh	r4, [r2]
 879              	.LVL87:
 880              	.L31:
 318:Drivers/STM32F0xx_HAL_Driver/Src/stm32f0xx_ll_usb.c ****       PCD_CLEAR_TX_DTOG(USBx, ep->num);
 881              		.loc 1 318 7 is_stmt 0 discriminator 1 view .LVU249
 882              	.LBE20:
 318:Drivers/STM32F0xx_HAL_Driver/Src/stm32f0xx_ll_usb.c ****       PCD_CLEAR_TX_DTOG(USBx, ep->num);
 883              		.loc 1 318 7 is_stmt 1 discriminator 3 view .LVU250
 884              	.LBE19:
 318:Drivers/STM32F0xx_HAL_Driver/Src/stm32f0xx_ll_usb.c ****       PCD_CLEAR_TX_DTOG(USBx, ep->num);
 885              		.loc 1 318 7 discriminator 3 view .LVU251
 319:Drivers/STM32F0xx_HAL_Driver/Src/stm32f0xx_ll_usb.c **** 
 886              		.loc 1 319 7 discriminator 3 view .LVU252
 887              	.LBB21:
 319:Drivers/STM32F0xx_HAL_Driver/Src/stm32f0xx_ll_usb.c **** 
 888              		.loc 1 319 7 discriminator 3 view .LVU253
 319:Drivers/STM32F0xx_HAL_Driver/Src/stm32f0xx_ll_usb.c **** 
 889              		.loc 1 319 7 discriminator 3 view .LVU254
 890 01e4 0A78     		ldrb	r2, [r1]
 891 01e6 9200     		lsls	r2, r2, #2
 892 01e8 9A18     		adds	r2, r3, r2
 893 01ea 1488     		ldrh	r4, [r2]
 894              	.LVL88:
 319:Drivers/STM32F0xx_HAL_Driver/Src/stm32f0xx_ll_usb.c **** 
 895              		.loc 1 319 7 discriminator 3 view .LVU255
 896 01ec 6406     		lsls	r4, r4, #25
 897 01ee 06D5     		bpl	.L32
 898              	.LVL89:
 319:Drivers/STM32F0xx_HAL_Driver/Src/stm32f0xx_ll_usb.c **** 
 899              		.loc 1 319 7 discriminator 1 view .LVU256
 900              	.LBB22:
 319:Drivers/STM32F0xx_HAL_Driver/Src/stm32f0xx_ll_usb.c **** 
 901              		.loc 1 319 7 discriminator 1 view .LVU257
 319:Drivers/STM32F0xx_HAL_Driver/Src/stm32f0xx_ll_usb.c **** 
 902              		.loc 1 319 7 discriminator 1 view .LVU258
ARM GAS  /tmp/ccFvwqLO.s 			page 24


 903 01f0 1488     		ldrh	r4, [r2]
 904 01f2 3A4D     		ldr	r5, .L40+8
 905 01f4 2540     		ands	r5, r4
 906              	.LVL90:
 319:Drivers/STM32F0xx_HAL_Driver/Src/stm32f0xx_ll_usb.c **** 
 907              		.loc 1 319 7 discriminator 1 view .LVU259
 908 01f6 3A4C     		ldr	r4, .L40+12
 909 01f8 2C43     		orrs	r4, r5
 910 01fa A4B2     		uxth	r4, r4
 911 01fc 1480     		strh	r4, [r2]
 912              	.LVL91:
 913              	.L32:
 319:Drivers/STM32F0xx_HAL_Driver/Src/stm32f0xx_ll_usb.c **** 
 914              		.loc 1 319 7 is_stmt 0 discriminator 1 view .LVU260
 915              	.LBE22:
 319:Drivers/STM32F0xx_HAL_Driver/Src/stm32f0xx_ll_usb.c **** 
 916              		.loc 1 319 7 is_stmt 1 discriminator 3 view .LVU261
 917              	.LBE21:
 319:Drivers/STM32F0xx_HAL_Driver/Src/stm32f0xx_ll_usb.c **** 
 918              		.loc 1 319 7 discriminator 3 view .LVU262
 322:Drivers/STM32F0xx_HAL_Driver/Src/stm32f0xx_ll_usb.c **** 
 919              		.loc 1 322 7 discriminator 3 view .LVU263
 920              	.LBB23:
 322:Drivers/STM32F0xx_HAL_Driver/Src/stm32f0xx_ll_usb.c **** 
 921              		.loc 1 322 7 discriminator 3 view .LVU264
 322:Drivers/STM32F0xx_HAL_Driver/Src/stm32f0xx_ll_usb.c **** 
 922              		.loc 1 322 7 discriminator 3 view .LVU265
 923 01fe 0A78     		ldrb	r2, [r1]
 924 0200 9200     		lsls	r2, r2, #2
 925 0202 9A18     		adds	r2, r3, r2
 926 0204 1488     		ldrh	r4, [r2]
 927 0206 354D     		ldr	r5, .L40+8
 928 0208 2540     		ands	r5, r4
 929              	.LVL92:
 322:Drivers/STM32F0xx_HAL_Driver/Src/stm32f0xx_ll_usb.c **** 
 930              		.loc 1 322 7 discriminator 3 view .LVU266
 931 020a 354C     		ldr	r4, .L40+12
 932 020c 2C43     		orrs	r4, r5
 933 020e A4B2     		uxth	r4, r4
 934 0210 1480     		strh	r4, [r2]
 935              	.LBE23:
 322:Drivers/STM32F0xx_HAL_Driver/Src/stm32f0xx_ll_usb.c **** 
 936              		.loc 1 322 7 discriminator 3 view .LVU267
 324:Drivers/STM32F0xx_HAL_Driver/Src/stm32f0xx_ll_usb.c ****       PCD_SET_EP_TX_STATUS(USBx, ep->num, USB_EP_TX_DIS);
 937              		.loc 1 324 7 discriminator 3 view .LVU268
 938              	.LBB24:
 324:Drivers/STM32F0xx_HAL_Driver/Src/stm32f0xx_ll_usb.c ****       PCD_SET_EP_TX_STATUS(USBx, ep->num, USB_EP_TX_DIS);
 939              		.loc 1 324 7 discriminator 3 view .LVU269
 324:Drivers/STM32F0xx_HAL_Driver/Src/stm32f0xx_ll_usb.c ****       PCD_SET_EP_TX_STATUS(USBx, ep->num, USB_EP_TX_DIS);
 940              		.loc 1 324 7 discriminator 3 view .LVU270
 941 0212 0C78     		ldrb	r4, [r1]
 942 0214 A400     		lsls	r4, r4, #2
 943 0216 1C19     		adds	r4, r3, r4
 944 0218 2288     		ldrh	r2, [r4]
 945 021a 384D     		ldr	r5, .L40+40
 946              	.LVL93:
 324:Drivers/STM32F0xx_HAL_Driver/Src/stm32f0xx_ll_usb.c ****       PCD_SET_EP_TX_STATUS(USBx, ep->num, USB_EP_TX_DIS);
ARM GAS  /tmp/ccFvwqLO.s 			page 25


 947              		.loc 1 324 7 is_stmt 0 discriminator 3 view .LVU271
 948 021c 1540     		ands	r5, r2
 949              	.LVL94:
 324:Drivers/STM32F0xx_HAL_Driver/Src/stm32f0xx_ll_usb.c ****       PCD_SET_EP_TX_STATUS(USBx, ep->num, USB_EP_TX_DIS);
 950              		.loc 1 324 7 is_stmt 1 discriminator 3 view .LVU272
 324:Drivers/STM32F0xx_HAL_Driver/Src/stm32f0xx_ll_usb.c ****       PCD_SET_EP_TX_STATUS(USBx, ep->num, USB_EP_TX_DIS);
 951              		.loc 1 324 7 discriminator 3 view .LVU273
 324:Drivers/STM32F0xx_HAL_Driver/Src/stm32f0xx_ll_usb.c ****       PCD_SET_EP_TX_STATUS(USBx, ep->num, USB_EP_TX_DIS);
 952              		.loc 1 324 7 discriminator 3 view .LVU274
 324:Drivers/STM32F0xx_HAL_Driver/Src/stm32f0xx_ll_usb.c ****       PCD_SET_EP_TX_STATUS(USBx, ep->num, USB_EP_TX_DIS);
 953              		.loc 1 324 7 discriminator 3 view .LVU275
 954 021e C022     		movs	r2, #192
 955 0220 9201     		lsls	r2, r2, #6
 956 0222 6A40     		eors	r2, r5
 957              	.LVL95:
 324:Drivers/STM32F0xx_HAL_Driver/Src/stm32f0xx_ll_usb.c ****       PCD_SET_EP_TX_STATUS(USBx, ep->num, USB_EP_TX_DIS);
 958              		.loc 1 324 7 discriminator 3 view .LVU276
 959 0224 2C4D     		ldr	r5, .L40+4
 960 0226 2A43     		orrs	r2, r5
 961              	.LVL96:
 324:Drivers/STM32F0xx_HAL_Driver/Src/stm32f0xx_ll_usb.c ****       PCD_SET_EP_TX_STATUS(USBx, ep->num, USB_EP_TX_DIS);
 962              		.loc 1 324 7 is_stmt 0 discriminator 3 view .LVU277
 963 0228 92B2     		uxth	r2, r2
 964 022a 2280     		strh	r2, [r4]
 965              	.LBE24:
 324:Drivers/STM32F0xx_HAL_Driver/Src/stm32f0xx_ll_usb.c ****       PCD_SET_EP_TX_STATUS(USBx, ep->num, USB_EP_TX_DIS);
 966              		.loc 1 324 7 is_stmt 1 discriminator 3 view .LVU278
 325:Drivers/STM32F0xx_HAL_Driver/Src/stm32f0xx_ll_usb.c ****     }
 967              		.loc 1 325 7 discriminator 3 view .LVU279
 968              	.LBB25:
 325:Drivers/STM32F0xx_HAL_Driver/Src/stm32f0xx_ll_usb.c ****     }
 969              		.loc 1 325 7 discriminator 3 view .LVU280
 325:Drivers/STM32F0xx_HAL_Driver/Src/stm32f0xx_ll_usb.c ****     }
 970              		.loc 1 325 7 discriminator 3 view .LVU281
 971 022c 0A78     		ldrb	r2, [r1]
 972 022e 9200     		lsls	r2, r2, #2
 973 0230 9B18     		adds	r3, r3, r2
 974              	.LVL97:
 325:Drivers/STM32F0xx_HAL_Driver/Src/stm32f0xx_ll_usb.c ****     }
 975              		.loc 1 325 7 is_stmt 0 discriminator 3 view .LVU282
 976 0232 1A88     		ldrh	r2, [r3]
 977 0234 2B49     		ldr	r1, .L40+16
 978              	.LVL98:
 325:Drivers/STM32F0xx_HAL_Driver/Src/stm32f0xx_ll_usb.c ****     }
 979              		.loc 1 325 7 discriminator 3 view .LVU283
 980 0236 0A40     		ands	r2, r1
 981              	.LVL99:
 325:Drivers/STM32F0xx_HAL_Driver/Src/stm32f0xx_ll_usb.c ****     }
 982              		.loc 1 325 7 is_stmt 1 discriminator 3 view .LVU284
 325:Drivers/STM32F0xx_HAL_Driver/Src/stm32f0xx_ll_usb.c ****     }
 983              		.loc 1 325 7 discriminator 3 view .LVU285
 325:Drivers/STM32F0xx_HAL_Driver/Src/stm32f0xx_ll_usb.c ****     }
 984              		.loc 1 325 7 discriminator 3 view .LVU286
 985 0238 2A43     		orrs	r2, r5
 986              	.LVL100:
 325:Drivers/STM32F0xx_HAL_Driver/Src/stm32f0xx_ll_usb.c ****     }
 987              		.loc 1 325 7 is_stmt 0 discriminator 3 view .LVU287
ARM GAS  /tmp/ccFvwqLO.s 			page 26


 988 023a 92B2     		uxth	r2, r2
 989 023c 1A80     		strh	r2, [r3]
 990              	.LBE25:
 325:Drivers/STM32F0xx_HAL_Driver/Src/stm32f0xx_ll_usb.c ****     }
 991              		.loc 1 325 7 is_stmt 1 discriminator 3 view .LVU288
 992 023e 89E7     		b	.L23
 993              	.LVL101:
 994              	.L30:
 330:Drivers/STM32F0xx_HAL_Driver/Src/stm32f0xx_ll_usb.c ****       PCD_CLEAR_TX_DTOG(USBx, ep->num);
 995              		.loc 1 330 7 view .LVU289
 996              	.LBB26:
 330:Drivers/STM32F0xx_HAL_Driver/Src/stm32f0xx_ll_usb.c ****       PCD_CLEAR_TX_DTOG(USBx, ep->num);
 997              		.loc 1 330 7 view .LVU290
 330:Drivers/STM32F0xx_HAL_Driver/Src/stm32f0xx_ll_usb.c ****       PCD_CLEAR_TX_DTOG(USBx, ep->num);
 998              		.loc 1 330 7 view .LVU291
 999 0240 0A78     		ldrb	r2, [r1]
 1000 0242 9200     		lsls	r2, r2, #2
 1001 0244 9A18     		adds	r2, r3, r2
 1002 0246 1488     		ldrh	r4, [r2]
 1003              	.LVL102:
 330:Drivers/STM32F0xx_HAL_Driver/Src/stm32f0xx_ll_usb.c ****       PCD_CLEAR_TX_DTOG(USBx, ep->num);
 1004              		.loc 1 330 7 view .LVU292
 1005 0248 6404     		lsls	r4, r4, #17
 1006 024a 06D5     		bpl	.L33
 1007              	.LVL103:
 330:Drivers/STM32F0xx_HAL_Driver/Src/stm32f0xx_ll_usb.c ****       PCD_CLEAR_TX_DTOG(USBx, ep->num);
 1008              		.loc 1 330 7 discriminator 1 view .LVU293
 1009              	.LBB27:
 330:Drivers/STM32F0xx_HAL_Driver/Src/stm32f0xx_ll_usb.c ****       PCD_CLEAR_TX_DTOG(USBx, ep->num);
 1010              		.loc 1 330 7 discriminator 1 view .LVU294
 330:Drivers/STM32F0xx_HAL_Driver/Src/stm32f0xx_ll_usb.c ****       PCD_CLEAR_TX_DTOG(USBx, ep->num);
 1011              		.loc 1 330 7 discriminator 1 view .LVU295
 1012 024c 1488     		ldrh	r4, [r2]
 1013 024e 234D     		ldr	r5, .L40+8
 1014 0250 2540     		ands	r5, r4
 1015              	.LVL104:
 330:Drivers/STM32F0xx_HAL_Driver/Src/stm32f0xx_ll_usb.c ****       PCD_CLEAR_TX_DTOG(USBx, ep->num);
 1016              		.loc 1 330 7 discriminator 1 view .LVU296
 1017 0252 294C     		ldr	r4, .L40+36
 1018 0254 2C43     		orrs	r4, r5
 1019 0256 A4B2     		uxth	r4, r4
 1020 0258 1480     		strh	r4, [r2]
 1021              	.LVL105:
 1022              	.L33:
 330:Drivers/STM32F0xx_HAL_Driver/Src/stm32f0xx_ll_usb.c ****       PCD_CLEAR_TX_DTOG(USBx, ep->num);
 1023              		.loc 1 330 7 is_stmt 0 discriminator 1 view .LVU297
 1024              	.LBE27:
 330:Drivers/STM32F0xx_HAL_Driver/Src/stm32f0xx_ll_usb.c ****       PCD_CLEAR_TX_DTOG(USBx, ep->num);
 1025              		.loc 1 330 7 is_stmt 1 discriminator 3 view .LVU298
 1026              	.LBE26:
 330:Drivers/STM32F0xx_HAL_Driver/Src/stm32f0xx_ll_usb.c ****       PCD_CLEAR_TX_DTOG(USBx, ep->num);
 1027              		.loc 1 330 7 discriminator 3 view .LVU299
 331:Drivers/STM32F0xx_HAL_Driver/Src/stm32f0xx_ll_usb.c ****       PCD_RX_DTOG(USBx, ep->num);
 1028              		.loc 1 331 7 discriminator 3 view .LVU300
 1029              	.LBB28:
 331:Drivers/STM32F0xx_HAL_Driver/Src/stm32f0xx_ll_usb.c ****       PCD_RX_DTOG(USBx, ep->num);
 1030              		.loc 1 331 7 discriminator 3 view .LVU301
ARM GAS  /tmp/ccFvwqLO.s 			page 27


 331:Drivers/STM32F0xx_HAL_Driver/Src/stm32f0xx_ll_usb.c ****       PCD_RX_DTOG(USBx, ep->num);
 1031              		.loc 1 331 7 discriminator 3 view .LVU302
 1032 025a 0A78     		ldrb	r2, [r1]
 1033 025c 9200     		lsls	r2, r2, #2
 1034 025e 9A18     		adds	r2, r3, r2
 1035 0260 1488     		ldrh	r4, [r2]
 1036              	.LVL106:
 331:Drivers/STM32F0xx_HAL_Driver/Src/stm32f0xx_ll_usb.c ****       PCD_RX_DTOG(USBx, ep->num);
 1037              		.loc 1 331 7 discriminator 3 view .LVU303
 1038 0262 6406     		lsls	r4, r4, #25
 1039 0264 06D5     		bpl	.L34
 1040              	.LVL107:
 331:Drivers/STM32F0xx_HAL_Driver/Src/stm32f0xx_ll_usb.c ****       PCD_RX_DTOG(USBx, ep->num);
 1041              		.loc 1 331 7 discriminator 1 view .LVU304
 1042              	.LBB29:
 331:Drivers/STM32F0xx_HAL_Driver/Src/stm32f0xx_ll_usb.c ****       PCD_RX_DTOG(USBx, ep->num);
 1043              		.loc 1 331 7 discriminator 1 view .LVU305
 331:Drivers/STM32F0xx_HAL_Driver/Src/stm32f0xx_ll_usb.c ****       PCD_RX_DTOG(USBx, ep->num);
 1044              		.loc 1 331 7 discriminator 1 view .LVU306
 1045 0266 1488     		ldrh	r4, [r2]
 1046 0268 1C4D     		ldr	r5, .L40+8
 1047 026a 2540     		ands	r5, r4
 1048              	.LVL108:
 331:Drivers/STM32F0xx_HAL_Driver/Src/stm32f0xx_ll_usb.c ****       PCD_RX_DTOG(USBx, ep->num);
 1049              		.loc 1 331 7 discriminator 1 view .LVU307
 1050 026c 1C4C     		ldr	r4, .L40+12
 1051 026e 2C43     		orrs	r4, r5
 1052 0270 A4B2     		uxth	r4, r4
 1053 0272 1480     		strh	r4, [r2]
 1054              	.LVL109:
 1055              	.L34:
 331:Drivers/STM32F0xx_HAL_Driver/Src/stm32f0xx_ll_usb.c ****       PCD_RX_DTOG(USBx, ep->num);
 1056              		.loc 1 331 7 is_stmt 0 discriminator 1 view .LVU308
 1057              	.LBE29:
 331:Drivers/STM32F0xx_HAL_Driver/Src/stm32f0xx_ll_usb.c ****       PCD_RX_DTOG(USBx, ep->num);
 1058              		.loc 1 331 7 is_stmt 1 discriminator 3 view .LVU309
 1059              	.LBE28:
 331:Drivers/STM32F0xx_HAL_Driver/Src/stm32f0xx_ll_usb.c ****       PCD_RX_DTOG(USBx, ep->num);
 1060              		.loc 1 331 7 discriminator 3 view .LVU310
 332:Drivers/STM32F0xx_HAL_Driver/Src/stm32f0xx_ll_usb.c **** 
 1061              		.loc 1 332 7 discriminator 3 view .LVU311
 1062              	.LBB30:
 332:Drivers/STM32F0xx_HAL_Driver/Src/stm32f0xx_ll_usb.c **** 
 1063              		.loc 1 332 7 discriminator 3 view .LVU312
 332:Drivers/STM32F0xx_HAL_Driver/Src/stm32f0xx_ll_usb.c **** 
 1064              		.loc 1 332 7 discriminator 3 view .LVU313
 1065 0274 0A78     		ldrb	r2, [r1]
 1066 0276 9200     		lsls	r2, r2, #2
 1067 0278 9A18     		adds	r2, r3, r2
 1068 027a 1488     		ldrh	r4, [r2]
 1069 027c 174D     		ldr	r5, .L40+8
 1070 027e 2540     		ands	r5, r4
 1071              	.LVL110:
 332:Drivers/STM32F0xx_HAL_Driver/Src/stm32f0xx_ll_usb.c **** 
 1072              		.loc 1 332 7 discriminator 3 view .LVU314
 1073 0280 1D4C     		ldr	r4, .L40+36
 1074 0282 2C43     		orrs	r4, r5
ARM GAS  /tmp/ccFvwqLO.s 			page 28


 1075 0284 A4B2     		uxth	r4, r4
 1076 0286 1480     		strh	r4, [r2]
 1077              	.LBE30:
 332:Drivers/STM32F0xx_HAL_Driver/Src/stm32f0xx_ll_usb.c **** 
 1078              		.loc 1 332 7 discriminator 3 view .LVU315
 334:Drivers/STM32F0xx_HAL_Driver/Src/stm32f0xx_ll_usb.c ****       {
 1079              		.loc 1 334 7 discriminator 3 view .LVU316
 334:Drivers/STM32F0xx_HAL_Driver/Src/stm32f0xx_ll_usb.c ****       {
 1080              		.loc 1 334 13 is_stmt 0 discriminator 3 view .LVU317
 1081 0288 CA78     		ldrb	r2, [r1, #3]
 334:Drivers/STM32F0xx_HAL_Driver/Src/stm32f0xx_ll_usb.c ****       {
 1082              		.loc 1 334 10 discriminator 3 view .LVU318
 1083 028a 012A     		cmp	r2, #1
 1084 028c 16D0     		beq	.L35
 337:Drivers/STM32F0xx_HAL_Driver/Src/stm32f0xx_ll_usb.c ****       }
 1085              		.loc 1 337 9 is_stmt 1 view .LVU319
 1086              	.LBB31:
 337:Drivers/STM32F0xx_HAL_Driver/Src/stm32f0xx_ll_usb.c ****       }
 1087              		.loc 1 337 9 view .LVU320
 337:Drivers/STM32F0xx_HAL_Driver/Src/stm32f0xx_ll_usb.c ****       }
 1088              		.loc 1 337 9 view .LVU321
 1089 028e 0A78     		ldrb	r2, [r1]
 1090 0290 9200     		lsls	r2, r2, #2
 1091 0292 9A18     		adds	r2, r3, r2
 1092 0294 1488     		ldrh	r4, [r2]
 1093 0296 134D     		ldr	r5, .L40+16
 1094              	.LVL111:
 337:Drivers/STM32F0xx_HAL_Driver/Src/stm32f0xx_ll_usb.c ****       }
 1095              		.loc 1 337 9 is_stmt 0 view .LVU322
 1096 0298 2C40     		ands	r4, r5
 1097              	.LVL112:
 337:Drivers/STM32F0xx_HAL_Driver/Src/stm32f0xx_ll_usb.c ****       }
 1098              		.loc 1 337 9 is_stmt 1 view .LVU323
 337:Drivers/STM32F0xx_HAL_Driver/Src/stm32f0xx_ll_usb.c ****       }
 1099              		.loc 1 337 9 view .LVU324
 337:Drivers/STM32F0xx_HAL_Driver/Src/stm32f0xx_ll_usb.c ****       }
 1100              		.loc 1 337 9 view .LVU325
 1101 029a 2025     		movs	r5, #32
 1102 029c 6540     		eors	r5, r4
 1103              	.LVL113:
 337:Drivers/STM32F0xx_HAL_Driver/Src/stm32f0xx_ll_usb.c ****       }
 1104              		.loc 1 337 9 view .LVU326
 1105 029e 0E4C     		ldr	r4, .L40+4
 1106 02a0 2C43     		orrs	r4, r5
 1107 02a2 A4B2     		uxth	r4, r4
 1108 02a4 1480     		strh	r4, [r2]
 1109              	.LBE31:
 337:Drivers/STM32F0xx_HAL_Driver/Src/stm32f0xx_ll_usb.c ****       }
 1110              		.loc 1 337 9 view .LVU327
 1111              	.LVL114:
 1112              	.L36:
 342:Drivers/STM32F0xx_HAL_Driver/Src/stm32f0xx_ll_usb.c ****       }
 1113              		.loc 1 342 9 discriminator 7 view .LVU328
 345:Drivers/STM32F0xx_HAL_Driver/Src/stm32f0xx_ll_usb.c ****     }
 1114              		.loc 1 345 7 discriminator 7 view .LVU329
 1115              	.LBB32:
 345:Drivers/STM32F0xx_HAL_Driver/Src/stm32f0xx_ll_usb.c ****     }
ARM GAS  /tmp/ccFvwqLO.s 			page 29


 1116              		.loc 1 345 7 discriminator 7 view .LVU330
 345:Drivers/STM32F0xx_HAL_Driver/Src/stm32f0xx_ll_usb.c ****     }
 1117              		.loc 1 345 7 discriminator 7 view .LVU331
 1118 02a6 0A78     		ldrb	r2, [r1]
 1119 02a8 9200     		lsls	r2, r2, #2
 1120 02aa 9B18     		adds	r3, r3, r2
 1121              	.LVL115:
 345:Drivers/STM32F0xx_HAL_Driver/Src/stm32f0xx_ll_usb.c ****     }
 1122              		.loc 1 345 7 is_stmt 0 discriminator 7 view .LVU332
 1123 02ac 1A88     		ldrh	r2, [r3]
 1124 02ae 1349     		ldr	r1, .L40+40
 1125              	.LVL116:
 345:Drivers/STM32F0xx_HAL_Driver/Src/stm32f0xx_ll_usb.c ****     }
 1126              		.loc 1 345 7 discriminator 7 view .LVU333
 1127 02b0 1140     		ands	r1, r2
 1128              	.LVL117:
 345:Drivers/STM32F0xx_HAL_Driver/Src/stm32f0xx_ll_usb.c ****     }
 1129              		.loc 1 345 7 is_stmt 1 discriminator 7 view .LVU334
 345:Drivers/STM32F0xx_HAL_Driver/Src/stm32f0xx_ll_usb.c ****     }
 1130              		.loc 1 345 7 discriminator 7 view .LVU335
 345:Drivers/STM32F0xx_HAL_Driver/Src/stm32f0xx_ll_usb.c ****     }
 1131              		.loc 1 345 7 discriminator 7 view .LVU336
 1132 02b2 094A     		ldr	r2, .L40+4
 1133 02b4 0A43     		orrs	r2, r1
 1134 02b6 92B2     		uxth	r2, r2
 1135 02b8 1A80     		strh	r2, [r3]
 1136 02ba 4BE7     		b	.L23
 1137              	.LVL118:
 1138              	.L35:
 345:Drivers/STM32F0xx_HAL_Driver/Src/stm32f0xx_ll_usb.c ****     }
 1139              		.loc 1 345 7 is_stmt 0 discriminator 7 view .LVU337
 1140              	.LBE32:
 342:Drivers/STM32F0xx_HAL_Driver/Src/stm32f0xx_ll_usb.c ****       }
 1141              		.loc 1 342 9 is_stmt 1 view .LVU338
 1142              	.LBB33:
 342:Drivers/STM32F0xx_HAL_Driver/Src/stm32f0xx_ll_usb.c ****       }
 1143              		.loc 1 342 9 view .LVU339
 342:Drivers/STM32F0xx_HAL_Driver/Src/stm32f0xx_ll_usb.c ****       }
 1144              		.loc 1 342 9 view .LVU340
 1145 02bc 0A78     		ldrb	r2, [r1]
 1146 02be 9200     		lsls	r2, r2, #2
 1147 02c0 9A18     		adds	r2, r3, r2
 1148 02c2 1488     		ldrh	r4, [r2]
 1149 02c4 074D     		ldr	r5, .L40+16
 1150              	.LVL119:
 342:Drivers/STM32F0xx_HAL_Driver/Src/stm32f0xx_ll_usb.c ****       }
 1151              		.loc 1 342 9 is_stmt 0 view .LVU341
 1152 02c6 2540     		ands	r5, r4
 1153              	.LVL120:
 342:Drivers/STM32F0xx_HAL_Driver/Src/stm32f0xx_ll_usb.c ****       }
 1154              		.loc 1 342 9 is_stmt 1 view .LVU342
 342:Drivers/STM32F0xx_HAL_Driver/Src/stm32f0xx_ll_usb.c ****       }
 1155              		.loc 1 342 9 view .LVU343
 342:Drivers/STM32F0xx_HAL_Driver/Src/stm32f0xx_ll_usb.c ****       }
 1156              		.loc 1 342 9 view .LVU344
 1157 02c8 034C     		ldr	r4, .L40+4
 1158 02ca 2C43     		orrs	r4, r5
ARM GAS  /tmp/ccFvwqLO.s 			page 30


 1159 02cc A4B2     		uxth	r4, r4
 1160 02ce 1480     		strh	r4, [r2]
 1161 02d0 E9E7     		b	.L36
 1162              	.L41:
 1163 02d2 C046     		.align	2
 1164              	.L40:
 1165 02d4 8F89FFFF 		.word	-30321
 1166 02d8 8080FFFF 		.word	-32640
 1167 02dc 8F8FFFFF 		.word	-28785
 1168 02e0 C080FFFF 		.word	-32576
 1169 02e4 BF8FFFFF 		.word	-28737
 1170 02e8 04040000 		.word	1028
 1171 02ec 06040000 		.word	1030
 1172 02f0 FF83FFFF 		.word	-31745
 1173 02f4 0080FFFF 		.word	-32768
 1174 02f8 80C0FFFF 		.word	-16256
 1175 02fc 8FBFFFFF 		.word	-16497
 1176 0300 8081FFFF 		.word	-32384
 1177              	.LBE33:
 1178              		.cfi_endproc
 1179              	.LFE48:
 1181              		.section	.text.USB_DeactivateEndpoint,"ax",%progbits
 1182              		.align	1
 1183              		.global	USB_DeactivateEndpoint
 1184              		.syntax unified
 1185              		.code	16
 1186              		.thumb_func
 1187              		.fpu softvfp
 1189              	USB_DeactivateEndpoint:
 1190              	.LVL121:
 1191              	.LFB49:
 351:Drivers/STM32F0xx_HAL_Driver/Src/stm32f0xx_ll_usb.c **** 
 352:Drivers/STM32F0xx_HAL_Driver/Src/stm32f0xx_ll_usb.c **** /**
 353:Drivers/STM32F0xx_HAL_Driver/Src/stm32f0xx_ll_usb.c ****   * @brief  De-activate and de-initialize an endpoint
 354:Drivers/STM32F0xx_HAL_Driver/Src/stm32f0xx_ll_usb.c ****   * @param  USBx : Selected device
 355:Drivers/STM32F0xx_HAL_Driver/Src/stm32f0xx_ll_usb.c ****   * @param  ep: pointer to endpoint structure
 356:Drivers/STM32F0xx_HAL_Driver/Src/stm32f0xx_ll_usb.c ****   * @retval HAL status
 357:Drivers/STM32F0xx_HAL_Driver/Src/stm32f0xx_ll_usb.c ****   */
 358:Drivers/STM32F0xx_HAL_Driver/Src/stm32f0xx_ll_usb.c **** HAL_StatusTypeDef USB_DeactivateEndpoint(USB_TypeDef *USBx, USB_EPTypeDef *ep)
 359:Drivers/STM32F0xx_HAL_Driver/Src/stm32f0xx_ll_usb.c **** {
 1192              		.loc 1 359 1 view -0
 1193              		.cfi_startproc
 1194              		@ args = 0, pretend = 0, frame = 0
 1195              		@ frame_needed = 0, uses_anonymous_args = 0
 1196              		.loc 1 359 1 is_stmt 0 view .LVU346
 1197 0000 10B5     		push	{r4, lr}
 1198              	.LCFI4:
 1199              		.cfi_def_cfa_offset 8
 1200              		.cfi_offset 4, -8
 1201              		.cfi_offset 14, -4
 360:Drivers/STM32F0xx_HAL_Driver/Src/stm32f0xx_ll_usb.c ****   if (ep->doublebuffer == 0U)
 1202              		.loc 1 360 3 is_stmt 1 view .LVU347
 1203              		.loc 1 360 9 is_stmt 0 view .LVU348
 1204 0002 0B7B     		ldrb	r3, [r1, #12]
 1205              		.loc 1 360 6 view .LVU349
 1206 0004 002B     		cmp	r3, #0
 1207 0006 33D1     		bne	.L43
ARM GAS  /tmp/ccFvwqLO.s 			page 31


 361:Drivers/STM32F0xx_HAL_Driver/Src/stm32f0xx_ll_usb.c ****   {
 362:Drivers/STM32F0xx_HAL_Driver/Src/stm32f0xx_ll_usb.c ****     if (ep->is_in != 0U)
 1208              		.loc 1 362 5 is_stmt 1 view .LVU350
 1209              		.loc 1 362 11 is_stmt 0 view .LVU351
 1210 0008 4B78     		ldrb	r3, [r1, #1]
 1211              		.loc 1 362 8 view .LVU352
 1212 000a 002B     		cmp	r3, #0
 1213 000c 18D0     		beq	.L44
 363:Drivers/STM32F0xx_HAL_Driver/Src/stm32f0xx_ll_usb.c ****     {
 364:Drivers/STM32F0xx_HAL_Driver/Src/stm32f0xx_ll_usb.c ****       PCD_CLEAR_TX_DTOG(USBx, ep->num);
 1214              		.loc 1 364 7 is_stmt 1 view .LVU353
 1215              	.LBB34:
 1216              		.loc 1 364 7 view .LVU354
 1217              		.loc 1 364 7 view .LVU355
 1218 000e 0B78     		ldrb	r3, [r1]
 1219 0010 9B00     		lsls	r3, r3, #2
 1220 0012 C318     		adds	r3, r0, r3
 1221 0014 1A88     		ldrh	r2, [r3]
 1222              	.LVL122:
 1223              		.loc 1 364 7 view .LVU356
 1224 0016 5206     		lsls	r2, r2, #25
 1225 0018 06D5     		bpl	.L45
 1226              	.LVL123:
 1227              		.loc 1 364 7 discriminator 1 view .LVU357
 1228              	.LBB35:
 1229              		.loc 1 364 7 discriminator 1 view .LVU358
 1230              		.loc 1 364 7 discriminator 1 view .LVU359
 1231 001a 1A88     		ldrh	r2, [r3]
 1232 001c 4E4C     		ldr	r4, .L53
 1233 001e 1440     		ands	r4, r2
 1234              	.LVL124:
 1235              		.loc 1 364 7 discriminator 1 view .LVU360
 1236 0020 4E4A     		ldr	r2, .L53+4
 1237 0022 2243     		orrs	r2, r4
 1238 0024 92B2     		uxth	r2, r2
 1239 0026 1A80     		strh	r2, [r3]
 1240              	.LVL125:
 1241              	.L45:
 1242              		.loc 1 364 7 is_stmt 0 discriminator 1 view .LVU361
 1243              	.LBE35:
 1244              		.loc 1 364 7 is_stmt 1 discriminator 3 view .LVU362
 1245              	.LBE34:
 1246              		.loc 1 364 7 discriminator 3 view .LVU363
 365:Drivers/STM32F0xx_HAL_Driver/Src/stm32f0xx_ll_usb.c ****       /* Configure DISABLE status for the Endpoint*/
 366:Drivers/STM32F0xx_HAL_Driver/Src/stm32f0xx_ll_usb.c ****       PCD_SET_EP_TX_STATUS(USBx, ep->num, USB_EP_TX_DIS);
 1247              		.loc 1 366 7 discriminator 3 view .LVU364
 1248              	.LBB36:
 1249              		.loc 1 366 7 discriminator 3 view .LVU365
 1250              		.loc 1 366 7 discriminator 3 view .LVU366
 1251 0028 0B78     		ldrb	r3, [r1]
 1252 002a 9B00     		lsls	r3, r3, #2
 1253 002c C018     		adds	r0, r0, r3
 1254              	.LVL126:
 1255              		.loc 1 366 7 is_stmt 0 discriminator 3 view .LVU367
 1256 002e 0388     		ldrh	r3, [r0]
 1257 0030 4B4A     		ldr	r2, .L53+8
 1258 0032 1A40     		ands	r2, r3
ARM GAS  /tmp/ccFvwqLO.s 			page 32


 1259              	.LVL127:
 1260              		.loc 1 366 7 is_stmt 1 discriminator 3 view .LVU368
 1261              		.loc 1 366 7 discriminator 3 view .LVU369
 1262              		.loc 1 366 7 discriminator 3 view .LVU370
 1263 0034 4B4B     		ldr	r3, .L53+12
 1264 0036 1343     		orrs	r3, r2
 1265 0038 9BB2     		uxth	r3, r3
 1266 003a 0380     		strh	r3, [r0]
 1267              	.LBE36:
 1268              		.loc 1 366 7 discriminator 3 view .LVU371
 1269              	.LVL128:
 1270              	.L46:
 367:Drivers/STM32F0xx_HAL_Driver/Src/stm32f0xx_ll_usb.c ****     }
 368:Drivers/STM32F0xx_HAL_Driver/Src/stm32f0xx_ll_usb.c ****     else
 369:Drivers/STM32F0xx_HAL_Driver/Src/stm32f0xx_ll_usb.c ****     {
 370:Drivers/STM32F0xx_HAL_Driver/Src/stm32f0xx_ll_usb.c ****       PCD_CLEAR_RX_DTOG(USBx, ep->num);
 371:Drivers/STM32F0xx_HAL_Driver/Src/stm32f0xx_ll_usb.c ****       /* Configure DISABLE status for the Endpoint*/
 372:Drivers/STM32F0xx_HAL_Driver/Src/stm32f0xx_ll_usb.c ****       PCD_SET_EP_RX_STATUS(USBx, ep->num, USB_EP_RX_DIS);
 373:Drivers/STM32F0xx_HAL_Driver/Src/stm32f0xx_ll_usb.c ****     }
 374:Drivers/STM32F0xx_HAL_Driver/Src/stm32f0xx_ll_usb.c ****   }
 375:Drivers/STM32F0xx_HAL_Driver/Src/stm32f0xx_ll_usb.c ****   /*Double Buffer*/
 376:Drivers/STM32F0xx_HAL_Driver/Src/stm32f0xx_ll_usb.c ****   else
 377:Drivers/STM32F0xx_HAL_Driver/Src/stm32f0xx_ll_usb.c ****   {
 378:Drivers/STM32F0xx_HAL_Driver/Src/stm32f0xx_ll_usb.c ****     if (ep->is_in == 0U)
 379:Drivers/STM32F0xx_HAL_Driver/Src/stm32f0xx_ll_usb.c ****     {
 380:Drivers/STM32F0xx_HAL_Driver/Src/stm32f0xx_ll_usb.c ****       /* Clear the data toggle bits for the endpoint IN/OUT*/
 381:Drivers/STM32F0xx_HAL_Driver/Src/stm32f0xx_ll_usb.c ****       PCD_CLEAR_RX_DTOG(USBx, ep->num);
 382:Drivers/STM32F0xx_HAL_Driver/Src/stm32f0xx_ll_usb.c ****       PCD_CLEAR_TX_DTOG(USBx, ep->num);
 383:Drivers/STM32F0xx_HAL_Driver/Src/stm32f0xx_ll_usb.c **** 
 384:Drivers/STM32F0xx_HAL_Driver/Src/stm32f0xx_ll_usb.c ****       /* Reset value of the data toggle bits for the endpoint out*/
 385:Drivers/STM32F0xx_HAL_Driver/Src/stm32f0xx_ll_usb.c ****       PCD_TX_DTOG(USBx, ep->num);
 386:Drivers/STM32F0xx_HAL_Driver/Src/stm32f0xx_ll_usb.c **** 
 387:Drivers/STM32F0xx_HAL_Driver/Src/stm32f0xx_ll_usb.c ****       PCD_SET_EP_RX_STATUS(USBx, ep->num, USB_EP_RX_DIS);
 388:Drivers/STM32F0xx_HAL_Driver/Src/stm32f0xx_ll_usb.c ****       PCD_SET_EP_TX_STATUS(USBx, ep->num, USB_EP_TX_DIS);
 389:Drivers/STM32F0xx_HAL_Driver/Src/stm32f0xx_ll_usb.c ****     }
 390:Drivers/STM32F0xx_HAL_Driver/Src/stm32f0xx_ll_usb.c ****     else
 391:Drivers/STM32F0xx_HAL_Driver/Src/stm32f0xx_ll_usb.c ****     {
 392:Drivers/STM32F0xx_HAL_Driver/Src/stm32f0xx_ll_usb.c ****       /* Clear the data toggle bits for the endpoint IN/OUT*/
 393:Drivers/STM32F0xx_HAL_Driver/Src/stm32f0xx_ll_usb.c ****       PCD_CLEAR_RX_DTOG(USBx, ep->num);
 394:Drivers/STM32F0xx_HAL_Driver/Src/stm32f0xx_ll_usb.c ****       PCD_CLEAR_TX_DTOG(USBx, ep->num);
 395:Drivers/STM32F0xx_HAL_Driver/Src/stm32f0xx_ll_usb.c ****       PCD_RX_DTOG(USBx, ep->num);
 396:Drivers/STM32F0xx_HAL_Driver/Src/stm32f0xx_ll_usb.c ****       /* Configure DISABLE status for the Endpoint*/
 397:Drivers/STM32F0xx_HAL_Driver/Src/stm32f0xx_ll_usb.c ****       PCD_SET_EP_TX_STATUS(USBx, ep->num, USB_EP_TX_DIS);
 398:Drivers/STM32F0xx_HAL_Driver/Src/stm32f0xx_ll_usb.c ****       PCD_SET_EP_RX_STATUS(USBx, ep->num, USB_EP_RX_DIS);
 1271              		.loc 1 398 7 discriminator 7 view .LVU372
 399:Drivers/STM32F0xx_HAL_Driver/Src/stm32f0xx_ll_usb.c ****     }
 400:Drivers/STM32F0xx_HAL_Driver/Src/stm32f0xx_ll_usb.c ****   }
 401:Drivers/STM32F0xx_HAL_Driver/Src/stm32f0xx_ll_usb.c **** 
 402:Drivers/STM32F0xx_HAL_Driver/Src/stm32f0xx_ll_usb.c ****   return HAL_OK;
 1272              		.loc 1 402 3 discriminator 7 view .LVU373
 403:Drivers/STM32F0xx_HAL_Driver/Src/stm32f0xx_ll_usb.c **** }
 1273              		.loc 1 403 1 is_stmt 0 discriminator 7 view .LVU374
 1274 003c 0020     		movs	r0, #0
 1275              		@ sp needed
 1276 003e 10BD     		pop	{r4, pc}
 1277              	.LVL129:
 1278              	.L44:
ARM GAS  /tmp/ccFvwqLO.s 			page 33


 370:Drivers/STM32F0xx_HAL_Driver/Src/stm32f0xx_ll_usb.c ****       /* Configure DISABLE status for the Endpoint*/
 1279              		.loc 1 370 7 is_stmt 1 view .LVU375
 1280              	.LBB37:
 370:Drivers/STM32F0xx_HAL_Driver/Src/stm32f0xx_ll_usb.c ****       /* Configure DISABLE status for the Endpoint*/
 1281              		.loc 1 370 7 view .LVU376
 370:Drivers/STM32F0xx_HAL_Driver/Src/stm32f0xx_ll_usb.c ****       /* Configure DISABLE status for the Endpoint*/
 1282              		.loc 1 370 7 view .LVU377
 1283 0040 0B78     		ldrb	r3, [r1]
 1284 0042 9B00     		lsls	r3, r3, #2
 1285 0044 C318     		adds	r3, r0, r3
 1286 0046 1A88     		ldrh	r2, [r3]
 1287              	.LVL130:
 370:Drivers/STM32F0xx_HAL_Driver/Src/stm32f0xx_ll_usb.c ****       /* Configure DISABLE status for the Endpoint*/
 1288              		.loc 1 370 7 view .LVU378
 1289 0048 5204     		lsls	r2, r2, #17
 1290 004a 06D5     		bpl	.L47
 1291              	.LVL131:
 370:Drivers/STM32F0xx_HAL_Driver/Src/stm32f0xx_ll_usb.c ****       /* Configure DISABLE status for the Endpoint*/
 1292              		.loc 1 370 7 discriminator 1 view .LVU379
 1293              	.LBB38:
 370:Drivers/STM32F0xx_HAL_Driver/Src/stm32f0xx_ll_usb.c ****       /* Configure DISABLE status for the Endpoint*/
 1294              		.loc 1 370 7 discriminator 1 view .LVU380
 370:Drivers/STM32F0xx_HAL_Driver/Src/stm32f0xx_ll_usb.c ****       /* Configure DISABLE status for the Endpoint*/
 1295              		.loc 1 370 7 discriminator 1 view .LVU381
 1296 004c 1A88     		ldrh	r2, [r3]
 1297 004e 424C     		ldr	r4, .L53
 1298 0050 1440     		ands	r4, r2
 1299              	.LVL132:
 370:Drivers/STM32F0xx_HAL_Driver/Src/stm32f0xx_ll_usb.c ****       /* Configure DISABLE status for the Endpoint*/
 1300              		.loc 1 370 7 discriminator 1 view .LVU382
 1301 0052 454A     		ldr	r2, .L53+16
 1302 0054 2243     		orrs	r2, r4
 1303 0056 92B2     		uxth	r2, r2
 1304 0058 1A80     		strh	r2, [r3]
 1305              	.LVL133:
 1306              	.L47:
 370:Drivers/STM32F0xx_HAL_Driver/Src/stm32f0xx_ll_usb.c ****       /* Configure DISABLE status for the Endpoint*/
 1307              		.loc 1 370 7 is_stmt 0 discriminator 1 view .LVU383
 1308              	.LBE38:
 370:Drivers/STM32F0xx_HAL_Driver/Src/stm32f0xx_ll_usb.c ****       /* Configure DISABLE status for the Endpoint*/
 1309              		.loc 1 370 7 is_stmt 1 discriminator 3 view .LVU384
 1310              	.LBE37:
 370:Drivers/STM32F0xx_HAL_Driver/Src/stm32f0xx_ll_usb.c ****       /* Configure DISABLE status for the Endpoint*/
 1311              		.loc 1 370 7 discriminator 3 view .LVU385
 372:Drivers/STM32F0xx_HAL_Driver/Src/stm32f0xx_ll_usb.c ****     }
 1312              		.loc 1 372 7 discriminator 3 view .LVU386
 1313              	.LBB39:
 372:Drivers/STM32F0xx_HAL_Driver/Src/stm32f0xx_ll_usb.c ****     }
 1314              		.loc 1 372 7 discriminator 3 view .LVU387
 372:Drivers/STM32F0xx_HAL_Driver/Src/stm32f0xx_ll_usb.c ****     }
 1315              		.loc 1 372 7 discriminator 3 view .LVU388
 1316 005a 0B78     		ldrb	r3, [r1]
 1317 005c 9B00     		lsls	r3, r3, #2
 1318 005e C018     		adds	r0, r0, r3
 1319              	.LVL134:
 372:Drivers/STM32F0xx_HAL_Driver/Src/stm32f0xx_ll_usb.c ****     }
 1320              		.loc 1 372 7 is_stmt 0 discriminator 3 view .LVU389
ARM GAS  /tmp/ccFvwqLO.s 			page 34


 1321 0060 0388     		ldrh	r3, [r0]
 1322 0062 424A     		ldr	r2, .L53+20
 1323 0064 1A40     		ands	r2, r3
 1324              	.LVL135:
 372:Drivers/STM32F0xx_HAL_Driver/Src/stm32f0xx_ll_usb.c ****     }
 1325              		.loc 1 372 7 is_stmt 1 discriminator 3 view .LVU390
 372:Drivers/STM32F0xx_HAL_Driver/Src/stm32f0xx_ll_usb.c ****     }
 1326              		.loc 1 372 7 discriminator 3 view .LVU391
 372:Drivers/STM32F0xx_HAL_Driver/Src/stm32f0xx_ll_usb.c ****     }
 1327              		.loc 1 372 7 discriminator 3 view .LVU392
 1328 0066 3F4B     		ldr	r3, .L53+12
 1329 0068 1343     		orrs	r3, r2
 1330 006a 9BB2     		uxth	r3, r3
 1331 006c 0380     		strh	r3, [r0]
 1332 006e E5E7     		b	.L46
 1333              	.LVL136:
 1334              	.L43:
 372:Drivers/STM32F0xx_HAL_Driver/Src/stm32f0xx_ll_usb.c ****     }
 1335              		.loc 1 372 7 is_stmt 0 discriminator 3 view .LVU393
 1336              	.LBE39:
 378:Drivers/STM32F0xx_HAL_Driver/Src/stm32f0xx_ll_usb.c ****     {
 1337              		.loc 1 378 5 is_stmt 1 view .LVU394
 378:Drivers/STM32F0xx_HAL_Driver/Src/stm32f0xx_ll_usb.c ****     {
 1338              		.loc 1 378 11 is_stmt 0 view .LVU395
 1339 0070 4B78     		ldrb	r3, [r1, #1]
 378:Drivers/STM32F0xx_HAL_Driver/Src/stm32f0xx_ll_usb.c ****     {
 1340              		.loc 1 378 8 view .LVU396
 1341 0072 002B     		cmp	r3, #0
 1342 0074 37D1     		bne	.L48
 381:Drivers/STM32F0xx_HAL_Driver/Src/stm32f0xx_ll_usb.c ****       PCD_CLEAR_TX_DTOG(USBx, ep->num);
 1343              		.loc 1 381 7 is_stmt 1 view .LVU397
 1344              	.LBB40:
 381:Drivers/STM32F0xx_HAL_Driver/Src/stm32f0xx_ll_usb.c ****       PCD_CLEAR_TX_DTOG(USBx, ep->num);
 1345              		.loc 1 381 7 view .LVU398
 381:Drivers/STM32F0xx_HAL_Driver/Src/stm32f0xx_ll_usb.c ****       PCD_CLEAR_TX_DTOG(USBx, ep->num);
 1346              		.loc 1 381 7 view .LVU399
 1347 0076 0B78     		ldrb	r3, [r1]
 1348 0078 9B00     		lsls	r3, r3, #2
 1349 007a C318     		adds	r3, r0, r3
 1350 007c 1A88     		ldrh	r2, [r3]
 1351              	.LVL137:
 381:Drivers/STM32F0xx_HAL_Driver/Src/stm32f0xx_ll_usb.c ****       PCD_CLEAR_TX_DTOG(USBx, ep->num);
 1352              		.loc 1 381 7 view .LVU400
 1353 007e 5204     		lsls	r2, r2, #17
 1354 0080 06D5     		bpl	.L49
 1355              	.LVL138:
 381:Drivers/STM32F0xx_HAL_Driver/Src/stm32f0xx_ll_usb.c ****       PCD_CLEAR_TX_DTOG(USBx, ep->num);
 1356              		.loc 1 381 7 discriminator 1 view .LVU401
 1357              	.LBB41:
 381:Drivers/STM32F0xx_HAL_Driver/Src/stm32f0xx_ll_usb.c ****       PCD_CLEAR_TX_DTOG(USBx, ep->num);
 1358              		.loc 1 381 7 discriminator 1 view .LVU402
 381:Drivers/STM32F0xx_HAL_Driver/Src/stm32f0xx_ll_usb.c ****       PCD_CLEAR_TX_DTOG(USBx, ep->num);
 1359              		.loc 1 381 7 discriminator 1 view .LVU403
 1360 0082 1A88     		ldrh	r2, [r3]
 1361 0084 344C     		ldr	r4, .L53
 1362 0086 1440     		ands	r4, r2
 1363              	.LVL139:
ARM GAS  /tmp/ccFvwqLO.s 			page 35


 381:Drivers/STM32F0xx_HAL_Driver/Src/stm32f0xx_ll_usb.c ****       PCD_CLEAR_TX_DTOG(USBx, ep->num);
 1364              		.loc 1 381 7 discriminator 1 view .LVU404
 1365 0088 374A     		ldr	r2, .L53+16
 1366 008a 2243     		orrs	r2, r4
 1367 008c 92B2     		uxth	r2, r2
 1368 008e 1A80     		strh	r2, [r3]
 1369              	.LVL140:
 1370              	.L49:
 381:Drivers/STM32F0xx_HAL_Driver/Src/stm32f0xx_ll_usb.c ****       PCD_CLEAR_TX_DTOG(USBx, ep->num);
 1371              		.loc 1 381 7 is_stmt 0 discriminator 1 view .LVU405
 1372              	.LBE41:
 381:Drivers/STM32F0xx_HAL_Driver/Src/stm32f0xx_ll_usb.c ****       PCD_CLEAR_TX_DTOG(USBx, ep->num);
 1373              		.loc 1 381 7 is_stmt 1 discriminator 3 view .LVU406
 1374              	.LBE40:
 381:Drivers/STM32F0xx_HAL_Driver/Src/stm32f0xx_ll_usb.c ****       PCD_CLEAR_TX_DTOG(USBx, ep->num);
 1375              		.loc 1 381 7 discriminator 3 view .LVU407
 382:Drivers/STM32F0xx_HAL_Driver/Src/stm32f0xx_ll_usb.c **** 
 1376              		.loc 1 382 7 discriminator 3 view .LVU408
 1377              	.LBB42:
 382:Drivers/STM32F0xx_HAL_Driver/Src/stm32f0xx_ll_usb.c **** 
 1378              		.loc 1 382 7 discriminator 3 view .LVU409
 382:Drivers/STM32F0xx_HAL_Driver/Src/stm32f0xx_ll_usb.c **** 
 1379              		.loc 1 382 7 discriminator 3 view .LVU410
 1380 0090 0B78     		ldrb	r3, [r1]
 1381 0092 9B00     		lsls	r3, r3, #2
 1382 0094 C318     		adds	r3, r0, r3
 1383 0096 1A88     		ldrh	r2, [r3]
 1384              	.LVL141:
 382:Drivers/STM32F0xx_HAL_Driver/Src/stm32f0xx_ll_usb.c **** 
 1385              		.loc 1 382 7 discriminator 3 view .LVU411
 1386 0098 5206     		lsls	r2, r2, #25
 1387 009a 06D5     		bpl	.L50
 1388              	.LVL142:
 382:Drivers/STM32F0xx_HAL_Driver/Src/stm32f0xx_ll_usb.c **** 
 1389              		.loc 1 382 7 discriminator 1 view .LVU412
 1390              	.LBB43:
 382:Drivers/STM32F0xx_HAL_Driver/Src/stm32f0xx_ll_usb.c **** 
 1391              		.loc 1 382 7 discriminator 1 view .LVU413
 382:Drivers/STM32F0xx_HAL_Driver/Src/stm32f0xx_ll_usb.c **** 
 1392              		.loc 1 382 7 discriminator 1 view .LVU414
 1393 009c 1A88     		ldrh	r2, [r3]
 1394 009e 2E4C     		ldr	r4, .L53
 1395 00a0 1440     		ands	r4, r2
 1396              	.LVL143:
 382:Drivers/STM32F0xx_HAL_Driver/Src/stm32f0xx_ll_usb.c **** 
 1397              		.loc 1 382 7 discriminator 1 view .LVU415
 1398 00a2 2E4A     		ldr	r2, .L53+4
 1399 00a4 2243     		orrs	r2, r4
 1400 00a6 92B2     		uxth	r2, r2
 1401 00a8 1A80     		strh	r2, [r3]
 1402              	.LVL144:
 1403              	.L50:
 382:Drivers/STM32F0xx_HAL_Driver/Src/stm32f0xx_ll_usb.c **** 
 1404              		.loc 1 382 7 is_stmt 0 discriminator 1 view .LVU416
 1405              	.LBE43:
 382:Drivers/STM32F0xx_HAL_Driver/Src/stm32f0xx_ll_usb.c **** 
 1406              		.loc 1 382 7 is_stmt 1 discriminator 3 view .LVU417
ARM GAS  /tmp/ccFvwqLO.s 			page 36


 1407              	.LBE42:
 382:Drivers/STM32F0xx_HAL_Driver/Src/stm32f0xx_ll_usb.c **** 
 1408              		.loc 1 382 7 discriminator 3 view .LVU418
 385:Drivers/STM32F0xx_HAL_Driver/Src/stm32f0xx_ll_usb.c **** 
 1409              		.loc 1 385 7 discriminator 3 view .LVU419
 1410              	.LBB44:
 385:Drivers/STM32F0xx_HAL_Driver/Src/stm32f0xx_ll_usb.c **** 
 1411              		.loc 1 385 7 discriminator 3 view .LVU420
 385:Drivers/STM32F0xx_HAL_Driver/Src/stm32f0xx_ll_usb.c **** 
 1412              		.loc 1 385 7 discriminator 3 view .LVU421
 1413 00aa 0B78     		ldrb	r3, [r1]
 1414 00ac 9B00     		lsls	r3, r3, #2
 1415 00ae C318     		adds	r3, r0, r3
 1416 00b0 1A88     		ldrh	r2, [r3]
 1417 00b2 294C     		ldr	r4, .L53
 1418 00b4 1440     		ands	r4, r2
 1419              	.LVL145:
 385:Drivers/STM32F0xx_HAL_Driver/Src/stm32f0xx_ll_usb.c **** 
 1420              		.loc 1 385 7 discriminator 3 view .LVU422
 1421 00b6 294A     		ldr	r2, .L53+4
 1422 00b8 2243     		orrs	r2, r4
 1423 00ba 92B2     		uxth	r2, r2
 1424 00bc 1A80     		strh	r2, [r3]
 1425              	.LBE44:
 385:Drivers/STM32F0xx_HAL_Driver/Src/stm32f0xx_ll_usb.c **** 
 1426              		.loc 1 385 7 discriminator 3 view .LVU423
 387:Drivers/STM32F0xx_HAL_Driver/Src/stm32f0xx_ll_usb.c ****       PCD_SET_EP_TX_STATUS(USBx, ep->num, USB_EP_TX_DIS);
 1427              		.loc 1 387 7 discriminator 3 view .LVU424
 1428              	.LBB45:
 387:Drivers/STM32F0xx_HAL_Driver/Src/stm32f0xx_ll_usb.c ****       PCD_SET_EP_TX_STATUS(USBx, ep->num, USB_EP_TX_DIS);
 1429              		.loc 1 387 7 discriminator 3 view .LVU425
 387:Drivers/STM32F0xx_HAL_Driver/Src/stm32f0xx_ll_usb.c ****       PCD_SET_EP_TX_STATUS(USBx, ep->num, USB_EP_TX_DIS);
 1430              		.loc 1 387 7 discriminator 3 view .LVU426
 1431 00be 0C78     		ldrb	r4, [r1]
 1432              	.LVL146:
 387:Drivers/STM32F0xx_HAL_Driver/Src/stm32f0xx_ll_usb.c ****       PCD_SET_EP_TX_STATUS(USBx, ep->num, USB_EP_TX_DIS);
 1433              		.loc 1 387 7 is_stmt 0 discriminator 3 view .LVU427
 1434 00c0 A400     		lsls	r4, r4, #2
 1435 00c2 0419     		adds	r4, r0, r4
 1436 00c4 2388     		ldrh	r3, [r4]
 1437 00c6 294A     		ldr	r2, .L53+20
 1438 00c8 1340     		ands	r3, r2
 1439              	.LVL147:
 387:Drivers/STM32F0xx_HAL_Driver/Src/stm32f0xx_ll_usb.c ****       PCD_SET_EP_TX_STATUS(USBx, ep->num, USB_EP_TX_DIS);
 1440              		.loc 1 387 7 is_stmt 1 discriminator 3 view .LVU428
 387:Drivers/STM32F0xx_HAL_Driver/Src/stm32f0xx_ll_usb.c ****       PCD_SET_EP_TX_STATUS(USBx, ep->num, USB_EP_TX_DIS);
 1441              		.loc 1 387 7 discriminator 3 view .LVU429
 387:Drivers/STM32F0xx_HAL_Driver/Src/stm32f0xx_ll_usb.c ****       PCD_SET_EP_TX_STATUS(USBx, ep->num, USB_EP_TX_DIS);
 1442              		.loc 1 387 7 discriminator 3 view .LVU430
 1443 00ca 264A     		ldr	r2, .L53+12
 1444 00cc 1343     		orrs	r3, r2
 1445              	.LVL148:
 387:Drivers/STM32F0xx_HAL_Driver/Src/stm32f0xx_ll_usb.c ****       PCD_SET_EP_TX_STATUS(USBx, ep->num, USB_EP_TX_DIS);
 1446              		.loc 1 387 7 is_stmt 0 discriminator 3 view .LVU431
 1447 00ce 9BB2     		uxth	r3, r3
 1448 00d0 2380     		strh	r3, [r4]
 1449              	.LBE45:
ARM GAS  /tmp/ccFvwqLO.s 			page 37


 387:Drivers/STM32F0xx_HAL_Driver/Src/stm32f0xx_ll_usb.c ****       PCD_SET_EP_TX_STATUS(USBx, ep->num, USB_EP_TX_DIS);
 1450              		.loc 1 387 7 is_stmt 1 discriminator 3 view .LVU432
 388:Drivers/STM32F0xx_HAL_Driver/Src/stm32f0xx_ll_usb.c ****     }
 1451              		.loc 1 388 7 discriminator 3 view .LVU433
 1452              	.LBB46:
 388:Drivers/STM32F0xx_HAL_Driver/Src/stm32f0xx_ll_usb.c ****     }
 1453              		.loc 1 388 7 discriminator 3 view .LVU434
 388:Drivers/STM32F0xx_HAL_Driver/Src/stm32f0xx_ll_usb.c ****     }
 1454              		.loc 1 388 7 discriminator 3 view .LVU435
 1455 00d2 0B78     		ldrb	r3, [r1]
 1456 00d4 9B00     		lsls	r3, r3, #2
 1457 00d6 C018     		adds	r0, r0, r3
 1458              	.LVL149:
 388:Drivers/STM32F0xx_HAL_Driver/Src/stm32f0xx_ll_usb.c ****     }
 1459              		.loc 1 388 7 is_stmt 0 discriminator 3 view .LVU436
 1460 00d8 0388     		ldrh	r3, [r0]
 1461 00da 2149     		ldr	r1, .L53+8
 1462              	.LVL150:
 388:Drivers/STM32F0xx_HAL_Driver/Src/stm32f0xx_ll_usb.c ****     }
 1463              		.loc 1 388 7 discriminator 3 view .LVU437
 1464 00dc 0B40     		ands	r3, r1
 1465              	.LVL151:
 388:Drivers/STM32F0xx_HAL_Driver/Src/stm32f0xx_ll_usb.c ****     }
 1466              		.loc 1 388 7 is_stmt 1 discriminator 3 view .LVU438
 388:Drivers/STM32F0xx_HAL_Driver/Src/stm32f0xx_ll_usb.c ****     }
 1467              		.loc 1 388 7 discriminator 3 view .LVU439
 388:Drivers/STM32F0xx_HAL_Driver/Src/stm32f0xx_ll_usb.c ****     }
 1468              		.loc 1 388 7 discriminator 3 view .LVU440
 1469 00de 1A43     		orrs	r2, r3
 1470 00e0 92B2     		uxth	r2, r2
 1471 00e2 0280     		strh	r2, [r0]
 1472              	.LBE46:
 388:Drivers/STM32F0xx_HAL_Driver/Src/stm32f0xx_ll_usb.c ****     }
 1473              		.loc 1 388 7 discriminator 3 view .LVU441
 1474 00e4 AAE7     		b	.L46
 1475              	.LVL152:
 1476              	.L48:
 393:Drivers/STM32F0xx_HAL_Driver/Src/stm32f0xx_ll_usb.c ****       PCD_CLEAR_TX_DTOG(USBx, ep->num);
 1477              		.loc 1 393 7 view .LVU442
 1478              	.LBB47:
 393:Drivers/STM32F0xx_HAL_Driver/Src/stm32f0xx_ll_usb.c ****       PCD_CLEAR_TX_DTOG(USBx, ep->num);
 1479              		.loc 1 393 7 view .LVU443
 393:Drivers/STM32F0xx_HAL_Driver/Src/stm32f0xx_ll_usb.c ****       PCD_CLEAR_TX_DTOG(USBx, ep->num);
 1480              		.loc 1 393 7 view .LVU444
 1481 00e6 0B78     		ldrb	r3, [r1]
 1482 00e8 9B00     		lsls	r3, r3, #2
 1483 00ea C318     		adds	r3, r0, r3
 1484 00ec 1A88     		ldrh	r2, [r3]
 1485              	.LVL153:
 393:Drivers/STM32F0xx_HAL_Driver/Src/stm32f0xx_ll_usb.c ****       PCD_CLEAR_TX_DTOG(USBx, ep->num);
 1486              		.loc 1 393 7 view .LVU445
 1487 00ee 5204     		lsls	r2, r2, #17
 1488 00f0 06D5     		bpl	.L51
 1489              	.LVL154:
 393:Drivers/STM32F0xx_HAL_Driver/Src/stm32f0xx_ll_usb.c ****       PCD_CLEAR_TX_DTOG(USBx, ep->num);
 1490              		.loc 1 393 7 discriminator 1 view .LVU446
 1491              	.LBB48:
ARM GAS  /tmp/ccFvwqLO.s 			page 38


 393:Drivers/STM32F0xx_HAL_Driver/Src/stm32f0xx_ll_usb.c ****       PCD_CLEAR_TX_DTOG(USBx, ep->num);
 1492              		.loc 1 393 7 discriminator 1 view .LVU447
 393:Drivers/STM32F0xx_HAL_Driver/Src/stm32f0xx_ll_usb.c ****       PCD_CLEAR_TX_DTOG(USBx, ep->num);
 1493              		.loc 1 393 7 discriminator 1 view .LVU448
 1494 00f2 1A88     		ldrh	r2, [r3]
 1495 00f4 184C     		ldr	r4, .L53
 1496 00f6 1440     		ands	r4, r2
 1497              	.LVL155:
 393:Drivers/STM32F0xx_HAL_Driver/Src/stm32f0xx_ll_usb.c ****       PCD_CLEAR_TX_DTOG(USBx, ep->num);
 1498              		.loc 1 393 7 discriminator 1 view .LVU449
 1499 00f8 1B4A     		ldr	r2, .L53+16
 1500 00fa 2243     		orrs	r2, r4
 1501 00fc 92B2     		uxth	r2, r2
 1502 00fe 1A80     		strh	r2, [r3]
 1503              	.LVL156:
 1504              	.L51:
 393:Drivers/STM32F0xx_HAL_Driver/Src/stm32f0xx_ll_usb.c ****       PCD_CLEAR_TX_DTOG(USBx, ep->num);
 1505              		.loc 1 393 7 is_stmt 0 discriminator 1 view .LVU450
 1506              	.LBE48:
 393:Drivers/STM32F0xx_HAL_Driver/Src/stm32f0xx_ll_usb.c ****       PCD_CLEAR_TX_DTOG(USBx, ep->num);
 1507              		.loc 1 393 7 is_stmt 1 discriminator 3 view .LVU451
 1508              	.LBE47:
 393:Drivers/STM32F0xx_HAL_Driver/Src/stm32f0xx_ll_usb.c ****       PCD_CLEAR_TX_DTOG(USBx, ep->num);
 1509              		.loc 1 393 7 discriminator 3 view .LVU452
 394:Drivers/STM32F0xx_HAL_Driver/Src/stm32f0xx_ll_usb.c ****       PCD_RX_DTOG(USBx, ep->num);
 1510              		.loc 1 394 7 discriminator 3 view .LVU453
 1511              	.LBB49:
 394:Drivers/STM32F0xx_HAL_Driver/Src/stm32f0xx_ll_usb.c ****       PCD_RX_DTOG(USBx, ep->num);
 1512              		.loc 1 394 7 discriminator 3 view .LVU454
 394:Drivers/STM32F0xx_HAL_Driver/Src/stm32f0xx_ll_usb.c ****       PCD_RX_DTOG(USBx, ep->num);
 1513              		.loc 1 394 7 discriminator 3 view .LVU455
 1514 0100 0B78     		ldrb	r3, [r1]
 1515 0102 9B00     		lsls	r3, r3, #2
 1516 0104 C318     		adds	r3, r0, r3
 1517 0106 1A88     		ldrh	r2, [r3]
 1518              	.LVL157:
 394:Drivers/STM32F0xx_HAL_Driver/Src/stm32f0xx_ll_usb.c ****       PCD_RX_DTOG(USBx, ep->num);
 1519              		.loc 1 394 7 discriminator 3 view .LVU456
 1520 0108 5206     		lsls	r2, r2, #25
 1521 010a 06D5     		bpl	.L52
 1522              	.LVL158:
 394:Drivers/STM32F0xx_HAL_Driver/Src/stm32f0xx_ll_usb.c ****       PCD_RX_DTOG(USBx, ep->num);
 1523              		.loc 1 394 7 discriminator 1 view .LVU457
 1524              	.LBB50:
 394:Drivers/STM32F0xx_HAL_Driver/Src/stm32f0xx_ll_usb.c ****       PCD_RX_DTOG(USBx, ep->num);
 1525              		.loc 1 394 7 discriminator 1 view .LVU458
 394:Drivers/STM32F0xx_HAL_Driver/Src/stm32f0xx_ll_usb.c ****       PCD_RX_DTOG(USBx, ep->num);
 1526              		.loc 1 394 7 discriminator 1 view .LVU459
 1527 010c 1A88     		ldrh	r2, [r3]
 1528 010e 124C     		ldr	r4, .L53
 1529 0110 1440     		ands	r4, r2
 1530              	.LVL159:
 394:Drivers/STM32F0xx_HAL_Driver/Src/stm32f0xx_ll_usb.c ****       PCD_RX_DTOG(USBx, ep->num);
 1531              		.loc 1 394 7 discriminator 1 view .LVU460
 1532 0112 124A     		ldr	r2, .L53+4
 1533 0114 2243     		orrs	r2, r4
 1534 0116 92B2     		uxth	r2, r2
ARM GAS  /tmp/ccFvwqLO.s 			page 39


 1535 0118 1A80     		strh	r2, [r3]
 1536              	.LVL160:
 1537              	.L52:
 394:Drivers/STM32F0xx_HAL_Driver/Src/stm32f0xx_ll_usb.c ****       PCD_RX_DTOG(USBx, ep->num);
 1538              		.loc 1 394 7 is_stmt 0 discriminator 1 view .LVU461
 1539              	.LBE50:
 394:Drivers/STM32F0xx_HAL_Driver/Src/stm32f0xx_ll_usb.c ****       PCD_RX_DTOG(USBx, ep->num);
 1540              		.loc 1 394 7 is_stmt 1 discriminator 3 view .LVU462
 1541              	.LBE49:
 394:Drivers/STM32F0xx_HAL_Driver/Src/stm32f0xx_ll_usb.c ****       PCD_RX_DTOG(USBx, ep->num);
 1542              		.loc 1 394 7 discriminator 3 view .LVU463
 395:Drivers/STM32F0xx_HAL_Driver/Src/stm32f0xx_ll_usb.c ****       /* Configure DISABLE status for the Endpoint*/
 1543              		.loc 1 395 7 discriminator 3 view .LVU464
 1544              	.LBB51:
 395:Drivers/STM32F0xx_HAL_Driver/Src/stm32f0xx_ll_usb.c ****       /* Configure DISABLE status for the Endpoint*/
 1545              		.loc 1 395 7 discriminator 3 view .LVU465
 395:Drivers/STM32F0xx_HAL_Driver/Src/stm32f0xx_ll_usb.c ****       /* Configure DISABLE status for the Endpoint*/
 1546              		.loc 1 395 7 discriminator 3 view .LVU466
 1547 011a 0B78     		ldrb	r3, [r1]
 1548 011c 9B00     		lsls	r3, r3, #2
 1549 011e C318     		adds	r3, r0, r3
 1550 0120 1A88     		ldrh	r2, [r3]
 1551 0122 0D4C     		ldr	r4, .L53
 1552 0124 1440     		ands	r4, r2
 1553              	.LVL161:
 395:Drivers/STM32F0xx_HAL_Driver/Src/stm32f0xx_ll_usb.c ****       /* Configure DISABLE status for the Endpoint*/
 1554              		.loc 1 395 7 discriminator 3 view .LVU467
 1555 0126 104A     		ldr	r2, .L53+16
 1556 0128 2243     		orrs	r2, r4
 1557 012a 92B2     		uxth	r2, r2
 1558 012c 1A80     		strh	r2, [r3]
 1559              	.LBE51:
 395:Drivers/STM32F0xx_HAL_Driver/Src/stm32f0xx_ll_usb.c ****       /* Configure DISABLE status for the Endpoint*/
 1560              		.loc 1 395 7 discriminator 3 view .LVU468
 397:Drivers/STM32F0xx_HAL_Driver/Src/stm32f0xx_ll_usb.c ****       PCD_SET_EP_RX_STATUS(USBx, ep->num, USB_EP_RX_DIS);
 1561              		.loc 1 397 7 discriminator 3 view .LVU469
 1562              	.LBB52:
 397:Drivers/STM32F0xx_HAL_Driver/Src/stm32f0xx_ll_usb.c ****       PCD_SET_EP_RX_STATUS(USBx, ep->num, USB_EP_RX_DIS);
 1563              		.loc 1 397 7 discriminator 3 view .LVU470
 397:Drivers/STM32F0xx_HAL_Driver/Src/stm32f0xx_ll_usb.c ****       PCD_SET_EP_RX_STATUS(USBx, ep->num, USB_EP_RX_DIS);
 1564              		.loc 1 397 7 discriminator 3 view .LVU471
 1565 012e 0C78     		ldrb	r4, [r1]
 1566              	.LVL162:
 397:Drivers/STM32F0xx_HAL_Driver/Src/stm32f0xx_ll_usb.c ****       PCD_SET_EP_RX_STATUS(USBx, ep->num, USB_EP_RX_DIS);
 1567              		.loc 1 397 7 is_stmt 0 discriminator 3 view .LVU472
 1568 0130 A400     		lsls	r4, r4, #2
 1569 0132 0419     		adds	r4, r0, r4
 1570 0134 2388     		ldrh	r3, [r4]
 1571 0136 0A4A     		ldr	r2, .L53+8
 1572 0138 1340     		ands	r3, r2
 1573              	.LVL163:
 397:Drivers/STM32F0xx_HAL_Driver/Src/stm32f0xx_ll_usb.c ****       PCD_SET_EP_RX_STATUS(USBx, ep->num, USB_EP_RX_DIS);
 1574              		.loc 1 397 7 is_stmt 1 discriminator 3 view .LVU473
 397:Drivers/STM32F0xx_HAL_Driver/Src/stm32f0xx_ll_usb.c ****       PCD_SET_EP_RX_STATUS(USBx, ep->num, USB_EP_RX_DIS);
 1575              		.loc 1 397 7 discriminator 3 view .LVU474
 397:Drivers/STM32F0xx_HAL_Driver/Src/stm32f0xx_ll_usb.c ****       PCD_SET_EP_RX_STATUS(USBx, ep->num, USB_EP_RX_DIS);
 1576              		.loc 1 397 7 discriminator 3 view .LVU475
ARM GAS  /tmp/ccFvwqLO.s 			page 40


 1577 013a 0A4A     		ldr	r2, .L53+12
 1578 013c 1343     		orrs	r3, r2
 1579              	.LVL164:
 397:Drivers/STM32F0xx_HAL_Driver/Src/stm32f0xx_ll_usb.c ****       PCD_SET_EP_RX_STATUS(USBx, ep->num, USB_EP_RX_DIS);
 1580              		.loc 1 397 7 is_stmt 0 discriminator 3 view .LVU476
 1581 013e 9BB2     		uxth	r3, r3
 1582 0140 2380     		strh	r3, [r4]
 1583              	.LBE52:
 397:Drivers/STM32F0xx_HAL_Driver/Src/stm32f0xx_ll_usb.c ****       PCD_SET_EP_RX_STATUS(USBx, ep->num, USB_EP_RX_DIS);
 1584              		.loc 1 397 7 is_stmt 1 discriminator 3 view .LVU477
 398:Drivers/STM32F0xx_HAL_Driver/Src/stm32f0xx_ll_usb.c ****     }
 1585              		.loc 1 398 7 discriminator 3 view .LVU478
 1586              	.LBB53:
 398:Drivers/STM32F0xx_HAL_Driver/Src/stm32f0xx_ll_usb.c ****     }
 1587              		.loc 1 398 7 discriminator 3 view .LVU479
 398:Drivers/STM32F0xx_HAL_Driver/Src/stm32f0xx_ll_usb.c ****     }
 1588              		.loc 1 398 7 discriminator 3 view .LVU480
 1589 0142 0B78     		ldrb	r3, [r1]
 1590 0144 9B00     		lsls	r3, r3, #2
 1591 0146 C018     		adds	r0, r0, r3
 1592              	.LVL165:
 398:Drivers/STM32F0xx_HAL_Driver/Src/stm32f0xx_ll_usb.c ****     }
 1593              		.loc 1 398 7 is_stmt 0 discriminator 3 view .LVU481
 1594 0148 0388     		ldrh	r3, [r0]
 1595 014a 0849     		ldr	r1, .L53+20
 1596              	.LVL166:
 398:Drivers/STM32F0xx_HAL_Driver/Src/stm32f0xx_ll_usb.c ****     }
 1597              		.loc 1 398 7 discriminator 3 view .LVU482
 1598 014c 0B40     		ands	r3, r1
 1599              	.LVL167:
 398:Drivers/STM32F0xx_HAL_Driver/Src/stm32f0xx_ll_usb.c ****     }
 1600              		.loc 1 398 7 is_stmt 1 discriminator 3 view .LVU483
 398:Drivers/STM32F0xx_HAL_Driver/Src/stm32f0xx_ll_usb.c ****     }
 1601              		.loc 1 398 7 discriminator 3 view .LVU484
 398:Drivers/STM32F0xx_HAL_Driver/Src/stm32f0xx_ll_usb.c ****     }
 1602              		.loc 1 398 7 discriminator 3 view .LVU485
 1603 014e 1A43     		orrs	r2, r3
 1604 0150 92B2     		uxth	r2, r2
 1605 0152 0280     		strh	r2, [r0]
 1606 0154 72E7     		b	.L46
 1607              	.L54:
 1608 0156 C046     		.align	2
 1609              	.L53:
 1610 0158 8F8FFFFF 		.word	-28785
 1611 015c C080FFFF 		.word	-32576
 1612 0160 BF8FFFFF 		.word	-28737
 1613 0164 8080FFFF 		.word	-32640
 1614 0168 80C0FFFF 		.word	-16256
 1615 016c 8FBFFFFF 		.word	-16497
 1616              	.LBE53:
 1617              		.cfi_endproc
 1618              	.LFE49:
 1620              		.section	.text.USB_WritePacket,"ax",%progbits
 1621              		.align	1
 1622              		.global	USB_WritePacket
 1623              		.syntax unified
 1624              		.code	16
ARM GAS  /tmp/ccFvwqLO.s 			page 41


 1625              		.thumb_func
 1626              		.fpu softvfp
 1628              	USB_WritePacket:
 1629              	.LVL168:
 1630              	.LFB51:
 404:Drivers/STM32F0xx_HAL_Driver/Src/stm32f0xx_ll_usb.c **** 
 405:Drivers/STM32F0xx_HAL_Driver/Src/stm32f0xx_ll_usb.c **** /**
 406:Drivers/STM32F0xx_HAL_Driver/Src/stm32f0xx_ll_usb.c ****   * @brief  USB_EPStartXfer : setup and starts a transfer over an EP
 407:Drivers/STM32F0xx_HAL_Driver/Src/stm32f0xx_ll_usb.c ****   * @param  USBx : Selected device
 408:Drivers/STM32F0xx_HAL_Driver/Src/stm32f0xx_ll_usb.c ****   * @param  ep: pointer to endpoint structure
 409:Drivers/STM32F0xx_HAL_Driver/Src/stm32f0xx_ll_usb.c ****   * @retval HAL status
 410:Drivers/STM32F0xx_HAL_Driver/Src/stm32f0xx_ll_usb.c ****   */
 411:Drivers/STM32F0xx_HAL_Driver/Src/stm32f0xx_ll_usb.c **** HAL_StatusTypeDef USB_EPStartXfer(USB_TypeDef *USBx, USB_EPTypeDef *ep)
 412:Drivers/STM32F0xx_HAL_Driver/Src/stm32f0xx_ll_usb.c **** {
 413:Drivers/STM32F0xx_HAL_Driver/Src/stm32f0xx_ll_usb.c ****   uint16_t pmabuffer;
 414:Drivers/STM32F0xx_HAL_Driver/Src/stm32f0xx_ll_usb.c ****   uint32_t len;
 415:Drivers/STM32F0xx_HAL_Driver/Src/stm32f0xx_ll_usb.c **** 
 416:Drivers/STM32F0xx_HAL_Driver/Src/stm32f0xx_ll_usb.c ****   /* IN endpoint */
 417:Drivers/STM32F0xx_HAL_Driver/Src/stm32f0xx_ll_usb.c ****   if (ep->is_in == 1U)
 418:Drivers/STM32F0xx_HAL_Driver/Src/stm32f0xx_ll_usb.c ****   {
 419:Drivers/STM32F0xx_HAL_Driver/Src/stm32f0xx_ll_usb.c ****     /*Multi packet transfer*/
 420:Drivers/STM32F0xx_HAL_Driver/Src/stm32f0xx_ll_usb.c ****     if (ep->xfer_len > ep->maxpacket)
 421:Drivers/STM32F0xx_HAL_Driver/Src/stm32f0xx_ll_usb.c ****     {
 422:Drivers/STM32F0xx_HAL_Driver/Src/stm32f0xx_ll_usb.c ****       len = ep->maxpacket;
 423:Drivers/STM32F0xx_HAL_Driver/Src/stm32f0xx_ll_usb.c ****       ep->xfer_len -= len;
 424:Drivers/STM32F0xx_HAL_Driver/Src/stm32f0xx_ll_usb.c ****     }
 425:Drivers/STM32F0xx_HAL_Driver/Src/stm32f0xx_ll_usb.c ****     else
 426:Drivers/STM32F0xx_HAL_Driver/Src/stm32f0xx_ll_usb.c ****     {
 427:Drivers/STM32F0xx_HAL_Driver/Src/stm32f0xx_ll_usb.c ****       len = ep->xfer_len;
 428:Drivers/STM32F0xx_HAL_Driver/Src/stm32f0xx_ll_usb.c ****       ep->xfer_len = 0U;
 429:Drivers/STM32F0xx_HAL_Driver/Src/stm32f0xx_ll_usb.c ****     }
 430:Drivers/STM32F0xx_HAL_Driver/Src/stm32f0xx_ll_usb.c **** 
 431:Drivers/STM32F0xx_HAL_Driver/Src/stm32f0xx_ll_usb.c ****     /* configure and validate Tx endpoint */
 432:Drivers/STM32F0xx_HAL_Driver/Src/stm32f0xx_ll_usb.c ****     if (ep->doublebuffer == 0U)
 433:Drivers/STM32F0xx_HAL_Driver/Src/stm32f0xx_ll_usb.c ****     {
 434:Drivers/STM32F0xx_HAL_Driver/Src/stm32f0xx_ll_usb.c ****       USB_WritePMA(USBx, ep->xfer_buff, ep->pmaadress, (uint16_t)len);
 435:Drivers/STM32F0xx_HAL_Driver/Src/stm32f0xx_ll_usb.c ****       PCD_SET_EP_TX_CNT(USBx, ep->num, len);
 436:Drivers/STM32F0xx_HAL_Driver/Src/stm32f0xx_ll_usb.c ****     }
 437:Drivers/STM32F0xx_HAL_Driver/Src/stm32f0xx_ll_usb.c ****     else
 438:Drivers/STM32F0xx_HAL_Driver/Src/stm32f0xx_ll_usb.c ****     {
 439:Drivers/STM32F0xx_HAL_Driver/Src/stm32f0xx_ll_usb.c ****       /* Write the data to the USB endpoint */
 440:Drivers/STM32F0xx_HAL_Driver/Src/stm32f0xx_ll_usb.c ****       if ((PCD_GET_ENDPOINT(USBx, ep->num) & USB_EP_DTOG_TX) != 0U)
 441:Drivers/STM32F0xx_HAL_Driver/Src/stm32f0xx_ll_usb.c ****       {
 442:Drivers/STM32F0xx_HAL_Driver/Src/stm32f0xx_ll_usb.c ****         /* Set the Double buffer counter for pmabuffer1 */
 443:Drivers/STM32F0xx_HAL_Driver/Src/stm32f0xx_ll_usb.c ****         PCD_SET_EP_DBUF1_CNT(USBx, ep->num, ep->is_in, len);
 444:Drivers/STM32F0xx_HAL_Driver/Src/stm32f0xx_ll_usb.c ****         pmabuffer = ep->pmaaddr1;
 445:Drivers/STM32F0xx_HAL_Driver/Src/stm32f0xx_ll_usb.c ****       }
 446:Drivers/STM32F0xx_HAL_Driver/Src/stm32f0xx_ll_usb.c ****       else
 447:Drivers/STM32F0xx_HAL_Driver/Src/stm32f0xx_ll_usb.c ****       {
 448:Drivers/STM32F0xx_HAL_Driver/Src/stm32f0xx_ll_usb.c ****         /* Set the Double buffer counter for pmabuffer0 */
 449:Drivers/STM32F0xx_HAL_Driver/Src/stm32f0xx_ll_usb.c ****         PCD_SET_EP_DBUF0_CNT(USBx, ep->num, ep->is_in, len);
 450:Drivers/STM32F0xx_HAL_Driver/Src/stm32f0xx_ll_usb.c ****         pmabuffer = ep->pmaaddr0;
 451:Drivers/STM32F0xx_HAL_Driver/Src/stm32f0xx_ll_usb.c ****       }
 452:Drivers/STM32F0xx_HAL_Driver/Src/stm32f0xx_ll_usb.c ****       USB_WritePMA(USBx, ep->xfer_buff, pmabuffer, (uint16_t)len);
 453:Drivers/STM32F0xx_HAL_Driver/Src/stm32f0xx_ll_usb.c ****       PCD_FreeUserBuffer(USBx, ep->num, ep->is_in);
 454:Drivers/STM32F0xx_HAL_Driver/Src/stm32f0xx_ll_usb.c ****     }
 455:Drivers/STM32F0xx_HAL_Driver/Src/stm32f0xx_ll_usb.c **** 
ARM GAS  /tmp/ccFvwqLO.s 			page 42


 456:Drivers/STM32F0xx_HAL_Driver/Src/stm32f0xx_ll_usb.c ****     PCD_SET_EP_TX_STATUS(USBx, ep->num, USB_EP_TX_VALID);
 457:Drivers/STM32F0xx_HAL_Driver/Src/stm32f0xx_ll_usb.c ****   }
 458:Drivers/STM32F0xx_HAL_Driver/Src/stm32f0xx_ll_usb.c ****   else /* OUT endpoint */
 459:Drivers/STM32F0xx_HAL_Driver/Src/stm32f0xx_ll_usb.c ****   {
 460:Drivers/STM32F0xx_HAL_Driver/Src/stm32f0xx_ll_usb.c ****     /* Multi packet transfer*/
 461:Drivers/STM32F0xx_HAL_Driver/Src/stm32f0xx_ll_usb.c ****     if (ep->xfer_len > ep->maxpacket)
 462:Drivers/STM32F0xx_HAL_Driver/Src/stm32f0xx_ll_usb.c ****     {
 463:Drivers/STM32F0xx_HAL_Driver/Src/stm32f0xx_ll_usb.c ****       len = ep->maxpacket;
 464:Drivers/STM32F0xx_HAL_Driver/Src/stm32f0xx_ll_usb.c ****       ep->xfer_len -= len;
 465:Drivers/STM32F0xx_HAL_Driver/Src/stm32f0xx_ll_usb.c ****     }
 466:Drivers/STM32F0xx_HAL_Driver/Src/stm32f0xx_ll_usb.c ****     else
 467:Drivers/STM32F0xx_HAL_Driver/Src/stm32f0xx_ll_usb.c ****     {
 468:Drivers/STM32F0xx_HAL_Driver/Src/stm32f0xx_ll_usb.c ****       len = ep->xfer_len;
 469:Drivers/STM32F0xx_HAL_Driver/Src/stm32f0xx_ll_usb.c ****       ep->xfer_len = 0U;
 470:Drivers/STM32F0xx_HAL_Driver/Src/stm32f0xx_ll_usb.c ****     }
 471:Drivers/STM32F0xx_HAL_Driver/Src/stm32f0xx_ll_usb.c **** 
 472:Drivers/STM32F0xx_HAL_Driver/Src/stm32f0xx_ll_usb.c ****     /* configure and validate Rx endpoint */
 473:Drivers/STM32F0xx_HAL_Driver/Src/stm32f0xx_ll_usb.c ****     if (ep->doublebuffer == 0U)
 474:Drivers/STM32F0xx_HAL_Driver/Src/stm32f0xx_ll_usb.c ****     {
 475:Drivers/STM32F0xx_HAL_Driver/Src/stm32f0xx_ll_usb.c ****       /*Set RX buffer count*/
 476:Drivers/STM32F0xx_HAL_Driver/Src/stm32f0xx_ll_usb.c ****       PCD_SET_EP_RX_CNT(USBx, ep->num, len);
 477:Drivers/STM32F0xx_HAL_Driver/Src/stm32f0xx_ll_usb.c ****     }
 478:Drivers/STM32F0xx_HAL_Driver/Src/stm32f0xx_ll_usb.c ****     else
 479:Drivers/STM32F0xx_HAL_Driver/Src/stm32f0xx_ll_usb.c ****     {
 480:Drivers/STM32F0xx_HAL_Driver/Src/stm32f0xx_ll_usb.c ****       /*Set the Double buffer counter*/
 481:Drivers/STM32F0xx_HAL_Driver/Src/stm32f0xx_ll_usb.c ****       PCD_SET_EP_DBUF_CNT(USBx, ep->num, ep->is_in, len);
 482:Drivers/STM32F0xx_HAL_Driver/Src/stm32f0xx_ll_usb.c ****     }
 483:Drivers/STM32F0xx_HAL_Driver/Src/stm32f0xx_ll_usb.c **** 
 484:Drivers/STM32F0xx_HAL_Driver/Src/stm32f0xx_ll_usb.c ****     PCD_SET_EP_RX_STATUS(USBx, ep->num, USB_EP_RX_VALID);
 485:Drivers/STM32F0xx_HAL_Driver/Src/stm32f0xx_ll_usb.c ****   }
 486:Drivers/STM32F0xx_HAL_Driver/Src/stm32f0xx_ll_usb.c **** 
 487:Drivers/STM32F0xx_HAL_Driver/Src/stm32f0xx_ll_usb.c ****   return HAL_OK;
 488:Drivers/STM32F0xx_HAL_Driver/Src/stm32f0xx_ll_usb.c **** }
 489:Drivers/STM32F0xx_HAL_Driver/Src/stm32f0xx_ll_usb.c **** 
 490:Drivers/STM32F0xx_HAL_Driver/Src/stm32f0xx_ll_usb.c **** /**
 491:Drivers/STM32F0xx_HAL_Driver/Src/stm32f0xx_ll_usb.c ****   * @brief  USB_WritePacket : Writes a packet into the Tx FIFO associated
 492:Drivers/STM32F0xx_HAL_Driver/Src/stm32f0xx_ll_usb.c ****   *         with the EP/channel
 493:Drivers/STM32F0xx_HAL_Driver/Src/stm32f0xx_ll_usb.c ****   * @param  USBx : Selected device
 494:Drivers/STM32F0xx_HAL_Driver/Src/stm32f0xx_ll_usb.c ****   * @param  src :  pointer to source buffer
 495:Drivers/STM32F0xx_HAL_Driver/Src/stm32f0xx_ll_usb.c ****   * @param  ch_ep_num : endpoint or host channel number
 496:Drivers/STM32F0xx_HAL_Driver/Src/stm32f0xx_ll_usb.c ****   * @param  len : Number of bytes to write
 497:Drivers/STM32F0xx_HAL_Driver/Src/stm32f0xx_ll_usb.c ****   * @retval HAL status
 498:Drivers/STM32F0xx_HAL_Driver/Src/stm32f0xx_ll_usb.c ****   */
 499:Drivers/STM32F0xx_HAL_Driver/Src/stm32f0xx_ll_usb.c **** HAL_StatusTypeDef USB_WritePacket(USB_TypeDef *USBx, uint8_t *src, uint8_t ch_ep_num, uint16_t len)
 500:Drivers/STM32F0xx_HAL_Driver/Src/stm32f0xx_ll_usb.c **** {
 1631              		.loc 1 500 1 view -0
 1632              		.cfi_startproc
 1633              		@ args = 0, pretend = 0, frame = 0
 1634              		@ frame_needed = 0, uses_anonymous_args = 0
 1635              		@ link register save eliminated.
 501:Drivers/STM32F0xx_HAL_Driver/Src/stm32f0xx_ll_usb.c ****   /* Prevent unused argument(s) compilation warning */
 502:Drivers/STM32F0xx_HAL_Driver/Src/stm32f0xx_ll_usb.c ****   UNUSED(USBx);
 1636              		.loc 1 502 3 view .LVU487
 503:Drivers/STM32F0xx_HAL_Driver/Src/stm32f0xx_ll_usb.c ****   UNUSED(src);
 1637              		.loc 1 503 3 view .LVU488
 504:Drivers/STM32F0xx_HAL_Driver/Src/stm32f0xx_ll_usb.c ****   UNUSED(ch_ep_num);
 1638              		.loc 1 504 3 view .LVU489
ARM GAS  /tmp/ccFvwqLO.s 			page 43


 505:Drivers/STM32F0xx_HAL_Driver/Src/stm32f0xx_ll_usb.c ****   UNUSED(len);
 1639              		.loc 1 505 3 view .LVU490
 506:Drivers/STM32F0xx_HAL_Driver/Src/stm32f0xx_ll_usb.c ****   /* NOTE : - This function is not required by USB Device FS peripheral, it is used
 507:Drivers/STM32F0xx_HAL_Driver/Src/stm32f0xx_ll_usb.c ****               only by USB OTG FS peripheral.
 508:Drivers/STM32F0xx_HAL_Driver/Src/stm32f0xx_ll_usb.c ****             - This function is added to ensure compatibility across platforms.
 509:Drivers/STM32F0xx_HAL_Driver/Src/stm32f0xx_ll_usb.c ****    */
 510:Drivers/STM32F0xx_HAL_Driver/Src/stm32f0xx_ll_usb.c ****   return HAL_OK;
 1640              		.loc 1 510 3 view .LVU491
 511:Drivers/STM32F0xx_HAL_Driver/Src/stm32f0xx_ll_usb.c **** }
 1641              		.loc 1 511 1 is_stmt 0 view .LVU492
 1642 0000 0020     		movs	r0, #0
 1643              	.LVL169:
 1644              		.loc 1 511 1 view .LVU493
 1645              		@ sp needed
 1646 0002 7047     		bx	lr
 1647              		.cfi_endproc
 1648              	.LFE51:
 1650              		.section	.text.USB_ReadPacket,"ax",%progbits
 1651              		.align	1
 1652              		.global	USB_ReadPacket
 1653              		.syntax unified
 1654              		.code	16
 1655              		.thumb_func
 1656              		.fpu softvfp
 1658              	USB_ReadPacket:
 1659              	.LVL170:
 1660              	.LFB52:
 512:Drivers/STM32F0xx_HAL_Driver/Src/stm32f0xx_ll_usb.c **** 
 513:Drivers/STM32F0xx_HAL_Driver/Src/stm32f0xx_ll_usb.c **** /**
 514:Drivers/STM32F0xx_HAL_Driver/Src/stm32f0xx_ll_usb.c ****   * @brief  USB_ReadPacket : read a packet from the Tx FIFO associated
 515:Drivers/STM32F0xx_HAL_Driver/Src/stm32f0xx_ll_usb.c ****   *         with the EP/channel
 516:Drivers/STM32F0xx_HAL_Driver/Src/stm32f0xx_ll_usb.c ****   * @param  USBx : Selected device
 517:Drivers/STM32F0xx_HAL_Driver/Src/stm32f0xx_ll_usb.c ****   * @param  dest : destination pointer
 518:Drivers/STM32F0xx_HAL_Driver/Src/stm32f0xx_ll_usb.c ****   * @param  len : Number of bytes to read
 519:Drivers/STM32F0xx_HAL_Driver/Src/stm32f0xx_ll_usb.c ****   * @retval pointer to destination buffer
 520:Drivers/STM32F0xx_HAL_Driver/Src/stm32f0xx_ll_usb.c ****   */
 521:Drivers/STM32F0xx_HAL_Driver/Src/stm32f0xx_ll_usb.c **** void *USB_ReadPacket(USB_TypeDef *USBx, uint8_t *dest, uint16_t len)
 522:Drivers/STM32F0xx_HAL_Driver/Src/stm32f0xx_ll_usb.c **** {
 1661              		.loc 1 522 1 is_stmt 1 view -0
 1662              		.cfi_startproc
 1663              		@ args = 0, pretend = 0, frame = 0
 1664              		@ frame_needed = 0, uses_anonymous_args = 0
 1665              		@ link register save eliminated.
 523:Drivers/STM32F0xx_HAL_Driver/Src/stm32f0xx_ll_usb.c ****   /* Prevent unused argument(s) compilation warning */
 524:Drivers/STM32F0xx_HAL_Driver/Src/stm32f0xx_ll_usb.c ****   UNUSED(USBx);
 1666              		.loc 1 524 3 view .LVU495
 525:Drivers/STM32F0xx_HAL_Driver/Src/stm32f0xx_ll_usb.c ****   UNUSED(dest);
 1667              		.loc 1 525 3 view .LVU496
 526:Drivers/STM32F0xx_HAL_Driver/Src/stm32f0xx_ll_usb.c ****   UNUSED(len);
 1668              		.loc 1 526 3 view .LVU497
 527:Drivers/STM32F0xx_HAL_Driver/Src/stm32f0xx_ll_usb.c ****   /* NOTE : - This function is not required by USB Device FS peripheral, it is used
 528:Drivers/STM32F0xx_HAL_Driver/Src/stm32f0xx_ll_usb.c ****               only by USB OTG FS peripheral.
 529:Drivers/STM32F0xx_HAL_Driver/Src/stm32f0xx_ll_usb.c ****             - This function is added to ensure compatibility across platforms.
 530:Drivers/STM32F0xx_HAL_Driver/Src/stm32f0xx_ll_usb.c ****    */
 531:Drivers/STM32F0xx_HAL_Driver/Src/stm32f0xx_ll_usb.c ****   return ((void *)NULL);
 1669              		.loc 1 531 3 view .LVU498
 532:Drivers/STM32F0xx_HAL_Driver/Src/stm32f0xx_ll_usb.c **** }
ARM GAS  /tmp/ccFvwqLO.s 			page 44


 1670              		.loc 1 532 1 is_stmt 0 view .LVU499
 1671 0000 0020     		movs	r0, #0
 1672              	.LVL171:
 1673              		.loc 1 532 1 view .LVU500
 1674              		@ sp needed
 1675 0002 7047     		bx	lr
 1676              		.cfi_endproc
 1677              	.LFE52:
 1679              		.section	.text.USB_EPSetStall,"ax",%progbits
 1680              		.align	1
 1681              		.global	USB_EPSetStall
 1682              		.syntax unified
 1683              		.code	16
 1684              		.thumb_func
 1685              		.fpu softvfp
 1687              	USB_EPSetStall:
 1688              	.LVL172:
 1689              	.LFB53:
 533:Drivers/STM32F0xx_HAL_Driver/Src/stm32f0xx_ll_usb.c **** 
 534:Drivers/STM32F0xx_HAL_Driver/Src/stm32f0xx_ll_usb.c **** /**
 535:Drivers/STM32F0xx_HAL_Driver/Src/stm32f0xx_ll_usb.c ****   * @brief  USB_EPSetStall : set a stall condition over an EP
 536:Drivers/STM32F0xx_HAL_Driver/Src/stm32f0xx_ll_usb.c ****   * @param  USBx : Selected device
 537:Drivers/STM32F0xx_HAL_Driver/Src/stm32f0xx_ll_usb.c ****   * @param  ep: pointer to endpoint structure
 538:Drivers/STM32F0xx_HAL_Driver/Src/stm32f0xx_ll_usb.c ****   * @retval HAL status
 539:Drivers/STM32F0xx_HAL_Driver/Src/stm32f0xx_ll_usb.c ****   */
 540:Drivers/STM32F0xx_HAL_Driver/Src/stm32f0xx_ll_usb.c **** HAL_StatusTypeDef USB_EPSetStall(USB_TypeDef *USBx, USB_EPTypeDef *ep)
 541:Drivers/STM32F0xx_HAL_Driver/Src/stm32f0xx_ll_usb.c **** {
 1690              		.loc 1 541 1 is_stmt 1 view -0
 1691              		.cfi_startproc
 1692              		@ args = 0, pretend = 0, frame = 0
 1693              		@ frame_needed = 0, uses_anonymous_args = 0
 1694              		@ link register save eliminated.
 542:Drivers/STM32F0xx_HAL_Driver/Src/stm32f0xx_ll_usb.c ****   if (ep->is_in != 0U)
 1695              		.loc 1 542 3 view .LVU502
 1696              		.loc 1 542 9 is_stmt 0 view .LVU503
 1697 0000 4B78     		ldrb	r3, [r1, #1]
 1698              		.loc 1 542 6 view .LVU504
 1699 0002 002B     		cmp	r3, #0
 1700 0004 0DD0     		beq	.L58
 543:Drivers/STM32F0xx_HAL_Driver/Src/stm32f0xx_ll_usb.c ****   {
 544:Drivers/STM32F0xx_HAL_Driver/Src/stm32f0xx_ll_usb.c ****     PCD_SET_EP_TX_STATUS(USBx, ep->num, USB_EP_TX_STALL);
 1701              		.loc 1 544 5 is_stmt 1 view .LVU505
 1702              	.LBB54:
 1703              		.loc 1 544 5 view .LVU506
 1704              		.loc 1 544 5 view .LVU507
 1705 0006 0B78     		ldrb	r3, [r1]
 1706 0008 9B00     		lsls	r3, r3, #2
 1707 000a C018     		adds	r0, r0, r3
 1708              	.LVL173:
 1709              		.loc 1 544 5 is_stmt 0 view .LVU508
 1710 000c 0388     		ldrh	r3, [r0]
 1711 000e 0C4A     		ldr	r2, .L60
 1712 0010 1340     		ands	r3, r2
 1713              	.LVL174:
 1714              		.loc 1 544 5 is_stmt 1 view .LVU509
 1715              		.loc 1 544 5 view .LVU510
 1716 0012 1022     		movs	r2, #16
ARM GAS  /tmp/ccFvwqLO.s 			page 45


 1717 0014 5A40     		eors	r2, r3
 1718              	.LVL175:
 1719              		.loc 1 544 5 view .LVU511
 1720              		.loc 1 544 5 view .LVU512
 1721 0016 0B4B     		ldr	r3, .L60+4
 1722 0018 1343     		orrs	r3, r2
 1723 001a 9BB2     		uxth	r3, r3
 1724 001c 0380     		strh	r3, [r0]
 1725              	.LBE54:
 1726              		.loc 1 544 5 view .LVU513
 1727              	.LVL176:
 1728              	.L59:
 545:Drivers/STM32F0xx_HAL_Driver/Src/stm32f0xx_ll_usb.c ****   }
 546:Drivers/STM32F0xx_HAL_Driver/Src/stm32f0xx_ll_usb.c ****   else
 547:Drivers/STM32F0xx_HAL_Driver/Src/stm32f0xx_ll_usb.c ****   {
 548:Drivers/STM32F0xx_HAL_Driver/Src/stm32f0xx_ll_usb.c ****     PCD_SET_EP_RX_STATUS(USBx, ep->num, USB_EP_RX_STALL);
 1729              		.loc 1 548 5 discriminator 7 view .LVU514
 549:Drivers/STM32F0xx_HAL_Driver/Src/stm32f0xx_ll_usb.c ****   }
 550:Drivers/STM32F0xx_HAL_Driver/Src/stm32f0xx_ll_usb.c **** 
 551:Drivers/STM32F0xx_HAL_Driver/Src/stm32f0xx_ll_usb.c ****   return HAL_OK;
 1730              		.loc 1 551 3 discriminator 7 view .LVU515
 552:Drivers/STM32F0xx_HAL_Driver/Src/stm32f0xx_ll_usb.c **** }
 1731              		.loc 1 552 1 is_stmt 0 discriminator 7 view .LVU516
 1732 001e 0020     		movs	r0, #0
 1733              		@ sp needed
 1734 0020 7047     		bx	lr
 1735              	.LVL177:
 1736              	.L58:
 548:Drivers/STM32F0xx_HAL_Driver/Src/stm32f0xx_ll_usb.c ****   }
 1737              		.loc 1 548 5 is_stmt 1 view .LVU517
 1738              	.LBB55:
 548:Drivers/STM32F0xx_HAL_Driver/Src/stm32f0xx_ll_usb.c ****   }
 1739              		.loc 1 548 5 view .LVU518
 548:Drivers/STM32F0xx_HAL_Driver/Src/stm32f0xx_ll_usb.c ****   }
 1740              		.loc 1 548 5 view .LVU519
 1741 0022 0B78     		ldrb	r3, [r1]
 1742 0024 9B00     		lsls	r3, r3, #2
 1743 0026 C018     		adds	r0, r0, r3
 1744              	.LVL178:
 548:Drivers/STM32F0xx_HAL_Driver/Src/stm32f0xx_ll_usb.c ****   }
 1745              		.loc 1 548 5 is_stmt 0 view .LVU520
 1746 0028 0288     		ldrh	r2, [r0]
 1747 002a 074B     		ldr	r3, .L60+8
 1748 002c 1A40     		ands	r2, r3
 1749              	.LVL179:
 548:Drivers/STM32F0xx_HAL_Driver/Src/stm32f0xx_ll_usb.c ****   }
 1750              		.loc 1 548 5 is_stmt 1 view .LVU521
 548:Drivers/STM32F0xx_HAL_Driver/Src/stm32f0xx_ll_usb.c ****   }
 1751              		.loc 1 548 5 view .LVU522
 1752 002e 8023     		movs	r3, #128
 1753 0030 5B01     		lsls	r3, r3, #5
 1754 0032 5A40     		eors	r2, r3
 1755              	.LVL180:
 548:Drivers/STM32F0xx_HAL_Driver/Src/stm32f0xx_ll_usb.c ****   }
 1756              		.loc 1 548 5 view .LVU523
 548:Drivers/STM32F0xx_HAL_Driver/Src/stm32f0xx_ll_usb.c ****   }
 1757              		.loc 1 548 5 view .LVU524
ARM GAS  /tmp/ccFvwqLO.s 			page 46


 1758 0034 034B     		ldr	r3, .L60+4
 1759 0036 1343     		orrs	r3, r2
 1760 0038 9BB2     		uxth	r3, r3
 1761 003a 0380     		strh	r3, [r0]
 1762 003c EFE7     		b	.L59
 1763              	.L61:
 1764 003e C046     		.align	2
 1765              	.L60:
 1766 0040 BF8FFFFF 		.word	-28737
 1767 0044 8080FFFF 		.word	-32640
 1768 0048 8FBFFFFF 		.word	-16497
 1769              	.LBE55:
 1770              		.cfi_endproc
 1771              	.LFE53:
 1773              		.section	.text.USB_EPClearStall,"ax",%progbits
 1774              		.align	1
 1775              		.global	USB_EPClearStall
 1776              		.syntax unified
 1777              		.code	16
 1778              		.thumb_func
 1779              		.fpu softvfp
 1781              	USB_EPClearStall:
 1782              	.LVL181:
 1783              	.LFB54:
 553:Drivers/STM32F0xx_HAL_Driver/Src/stm32f0xx_ll_usb.c **** 
 554:Drivers/STM32F0xx_HAL_Driver/Src/stm32f0xx_ll_usb.c **** /**
 555:Drivers/STM32F0xx_HAL_Driver/Src/stm32f0xx_ll_usb.c ****   * @brief  USB_EPClearStall : Clear a stall condition over an EP
 556:Drivers/STM32F0xx_HAL_Driver/Src/stm32f0xx_ll_usb.c ****   * @param  USBx : Selected device
 557:Drivers/STM32F0xx_HAL_Driver/Src/stm32f0xx_ll_usb.c ****   * @param  ep: pointer to endpoint structure
 558:Drivers/STM32F0xx_HAL_Driver/Src/stm32f0xx_ll_usb.c ****   * @retval HAL status
 559:Drivers/STM32F0xx_HAL_Driver/Src/stm32f0xx_ll_usb.c ****   */
 560:Drivers/STM32F0xx_HAL_Driver/Src/stm32f0xx_ll_usb.c **** HAL_StatusTypeDef USB_EPClearStall(USB_TypeDef *USBx, USB_EPTypeDef *ep)
 561:Drivers/STM32F0xx_HAL_Driver/Src/stm32f0xx_ll_usb.c **** {
 1784              		.loc 1 561 1 view -0
 1785              		.cfi_startproc
 1786              		@ args = 0, pretend = 0, frame = 0
 1787              		@ frame_needed = 0, uses_anonymous_args = 0
 1788              		.loc 1 561 1 is_stmt 0 view .LVU526
 1789 0000 10B5     		push	{r4, lr}
 1790              	.LCFI5:
 1791              		.cfi_def_cfa_offset 8
 1792              		.cfi_offset 4, -8
 1793              		.cfi_offset 14, -4
 562:Drivers/STM32F0xx_HAL_Driver/Src/stm32f0xx_ll_usb.c ****   if (ep->doublebuffer == 0U)
 1794              		.loc 1 562 3 is_stmt 1 view .LVU527
 1795              		.loc 1 562 9 is_stmt 0 view .LVU528
 1796 0002 0B7B     		ldrb	r3, [r1, #12]
 1797              		.loc 1 562 6 view .LVU529
 1798 0004 002B     		cmp	r3, #0
 1799 0006 39D1     		bne	.L63
 563:Drivers/STM32F0xx_HAL_Driver/Src/stm32f0xx_ll_usb.c ****   {
 564:Drivers/STM32F0xx_HAL_Driver/Src/stm32f0xx_ll_usb.c ****     if (ep->is_in != 0U)
 1800              		.loc 1 564 5 is_stmt 1 view .LVU530
 1801              		.loc 1 564 11 is_stmt 0 view .LVU531
 1802 0008 4B78     		ldrb	r3, [r1, #1]
 1803              		.loc 1 564 8 view .LVU532
 1804 000a 002B     		cmp	r3, #0
ARM GAS  /tmp/ccFvwqLO.s 			page 47


 1805 000c 1CD0     		beq	.L64
 565:Drivers/STM32F0xx_HAL_Driver/Src/stm32f0xx_ll_usb.c ****     {
 566:Drivers/STM32F0xx_HAL_Driver/Src/stm32f0xx_ll_usb.c ****       PCD_CLEAR_TX_DTOG(USBx, ep->num);
 1806              		.loc 1 566 7 is_stmt 1 view .LVU533
 1807              	.LBB56:
 1808              		.loc 1 566 7 view .LVU534
 1809              		.loc 1 566 7 view .LVU535
 1810 000e 0B78     		ldrb	r3, [r1]
 1811 0010 9B00     		lsls	r3, r3, #2
 1812 0012 C318     		adds	r3, r0, r3
 1813 0014 1A88     		ldrh	r2, [r3]
 1814              	.LVL182:
 1815              		.loc 1 566 7 view .LVU536
 1816 0016 5206     		lsls	r2, r2, #25
 1817 0018 06D5     		bpl	.L65
 1818              	.LVL183:
 1819              		.loc 1 566 7 discriminator 1 view .LVU537
 1820              	.LBB57:
 1821              		.loc 1 566 7 discriminator 1 view .LVU538
 1822              		.loc 1 566 7 discriminator 1 view .LVU539
 1823 001a 1A88     		ldrh	r2, [r3]
 1824 001c 184C     		ldr	r4, .L67
 1825 001e 1440     		ands	r4, r2
 1826              	.LVL184:
 1827              		.loc 1 566 7 discriminator 1 view .LVU540
 1828 0020 184A     		ldr	r2, .L67+4
 1829 0022 2243     		orrs	r2, r4
 1830 0024 92B2     		uxth	r2, r2
 1831 0026 1A80     		strh	r2, [r3]
 1832              	.LVL185:
 1833              	.L65:
 1834              		.loc 1 566 7 is_stmt 0 discriminator 1 view .LVU541
 1835              	.LBE57:
 1836              		.loc 1 566 7 is_stmt 1 discriminator 3 view .LVU542
 1837              	.LBE56:
 1838              		.loc 1 566 7 discriminator 3 view .LVU543
 567:Drivers/STM32F0xx_HAL_Driver/Src/stm32f0xx_ll_usb.c **** 
 568:Drivers/STM32F0xx_HAL_Driver/Src/stm32f0xx_ll_usb.c ****       if (ep->type != EP_TYPE_ISOC)
 1839              		.loc 1 568 7 discriminator 3 view .LVU544
 1840              		.loc 1 568 13 is_stmt 0 discriminator 3 view .LVU545
 1841 0028 CB78     		ldrb	r3, [r1, #3]
 1842              		.loc 1 568 10 discriminator 3 view .LVU546
 1843 002a 012B     		cmp	r3, #1
 1844 002c 26D0     		beq	.L63
 569:Drivers/STM32F0xx_HAL_Driver/Src/stm32f0xx_ll_usb.c ****       {
 570:Drivers/STM32F0xx_HAL_Driver/Src/stm32f0xx_ll_usb.c ****         /* Configure NAK status for the Endpoint */
 571:Drivers/STM32F0xx_HAL_Driver/Src/stm32f0xx_ll_usb.c ****         PCD_SET_EP_TX_STATUS(USBx, ep->num, USB_EP_TX_NAK);
 1845              		.loc 1 571 9 is_stmt 1 view .LVU547
 1846              	.LBB58:
 1847              		.loc 1 571 9 view .LVU548
 1848              		.loc 1 571 9 view .LVU549
 1849 002e 0B78     		ldrb	r3, [r1]
 1850 0030 9B00     		lsls	r3, r3, #2
 1851 0032 C018     		adds	r0, r0, r3
 1852              	.LVL186:
 1853              		.loc 1 571 9 is_stmt 0 view .LVU550
 1854 0034 0388     		ldrh	r3, [r0]
ARM GAS  /tmp/ccFvwqLO.s 			page 48


 1855 0036 144A     		ldr	r2, .L67+8
 1856 0038 1340     		ands	r3, r2
 1857              	.LVL187:
 1858              		.loc 1 571 9 is_stmt 1 view .LVU551
 1859              		.loc 1 571 9 view .LVU552
 1860              		.loc 1 571 9 view .LVU553
 1861 003a 2022     		movs	r2, #32
 1862 003c 5A40     		eors	r2, r3
 1863              	.LVL188:
 1864              		.loc 1 571 9 view .LVU554
 1865 003e 134B     		ldr	r3, .L67+12
 1866 0040 1343     		orrs	r3, r2
 1867 0042 9BB2     		uxth	r3, r3
 1868 0044 0380     		strh	r3, [r0]
 1869 0046 19E0     		b	.L63
 1870              	.LVL189:
 1871              	.L64:
 1872              		.loc 1 571 9 is_stmt 0 view .LVU555
 1873              	.LBE58:
 572:Drivers/STM32F0xx_HAL_Driver/Src/stm32f0xx_ll_usb.c ****       }
 573:Drivers/STM32F0xx_HAL_Driver/Src/stm32f0xx_ll_usb.c ****     }
 574:Drivers/STM32F0xx_HAL_Driver/Src/stm32f0xx_ll_usb.c ****     else
 575:Drivers/STM32F0xx_HAL_Driver/Src/stm32f0xx_ll_usb.c ****     {
 576:Drivers/STM32F0xx_HAL_Driver/Src/stm32f0xx_ll_usb.c ****       PCD_CLEAR_RX_DTOG(USBx, ep->num);
 1874              		.loc 1 576 7 is_stmt 1 view .LVU556
 1875              	.LBB59:
 1876              		.loc 1 576 7 view .LVU557
 1877              		.loc 1 576 7 view .LVU558
 1878 0048 0B78     		ldrb	r3, [r1]
 1879 004a 9B00     		lsls	r3, r3, #2
 1880 004c C318     		adds	r3, r0, r3
 1881 004e 1A88     		ldrh	r2, [r3]
 1882              	.LVL190:
 1883              		.loc 1 576 7 view .LVU559
 1884 0050 5204     		lsls	r2, r2, #17
 1885 0052 06D5     		bpl	.L66
 1886              	.LVL191:
 1887              		.loc 1 576 7 discriminator 1 view .LVU560
 1888              	.LBB60:
 1889              		.loc 1 576 7 discriminator 1 view .LVU561
 1890              		.loc 1 576 7 discriminator 1 view .LVU562
 1891 0054 1A88     		ldrh	r2, [r3]
 1892 0056 0A4C     		ldr	r4, .L67
 1893 0058 1440     		ands	r4, r2
 1894              	.LVL192:
 1895              		.loc 1 576 7 discriminator 1 view .LVU563
 1896 005a 0D4A     		ldr	r2, .L67+16
 1897 005c 2243     		orrs	r2, r4
 1898 005e 92B2     		uxth	r2, r2
 1899 0060 1A80     		strh	r2, [r3]
 1900              	.LVL193:
 1901              	.L66:
 1902              		.loc 1 576 7 is_stmt 0 discriminator 1 view .LVU564
 1903              	.LBE60:
 1904              		.loc 1 576 7 is_stmt 1 discriminator 3 view .LVU565
 1905              	.LBE59:
 1906              		.loc 1 576 7 discriminator 3 view .LVU566
ARM GAS  /tmp/ccFvwqLO.s 			page 49


 577:Drivers/STM32F0xx_HAL_Driver/Src/stm32f0xx_ll_usb.c **** 
 578:Drivers/STM32F0xx_HAL_Driver/Src/stm32f0xx_ll_usb.c ****       /* Configure VALID status for the Endpoint*/
 579:Drivers/STM32F0xx_HAL_Driver/Src/stm32f0xx_ll_usb.c ****       PCD_SET_EP_RX_STATUS(USBx, ep->num, USB_EP_RX_VALID);
 1907              		.loc 1 579 7 discriminator 3 view .LVU567
 1908              	.LBB61:
 1909              		.loc 1 579 7 discriminator 3 view .LVU568
 1910              		.loc 1 579 7 discriminator 3 view .LVU569
 1911 0062 0B78     		ldrb	r3, [r1]
 1912 0064 9B00     		lsls	r3, r3, #2
 1913 0066 C018     		adds	r0, r0, r3
 1914              	.LVL194:
 1915              		.loc 1 579 7 is_stmt 0 discriminator 3 view .LVU570
 1916 0068 0288     		ldrh	r2, [r0]
 1917 006a 0A4B     		ldr	r3, .L67+20
 1918 006c 1A40     		ands	r2, r3
 1919              	.LVL195:
 1920              		.loc 1 579 7 is_stmt 1 discriminator 3 view .LVU571
 1921              		.loc 1 579 7 discriminator 3 view .LVU572
 1922              		.loc 1 579 7 discriminator 3 view .LVU573
 1923              		.loc 1 579 7 discriminator 3 view .LVU574
 1924 006e C023     		movs	r3, #192
 1925 0070 9B01     		lsls	r3, r3, #6
 1926 0072 5A40     		eors	r2, r3
 1927              	.LVL196:
 1928              		.loc 1 579 7 discriminator 3 view .LVU575
 1929 0074 054B     		ldr	r3, .L67+12
 1930 0076 1343     		orrs	r3, r2
 1931 0078 9BB2     		uxth	r3, r3
 1932 007a 0380     		strh	r3, [r0]
 1933              	.LVL197:
 1934              	.L63:
 1935              		.loc 1 579 7 is_stmt 0 discriminator 3 view .LVU576
 1936              	.LBE61:
 1937              		.loc 1 579 7 is_stmt 1 discriminator 7 view .LVU577
 580:Drivers/STM32F0xx_HAL_Driver/Src/stm32f0xx_ll_usb.c ****     }
 581:Drivers/STM32F0xx_HAL_Driver/Src/stm32f0xx_ll_usb.c ****   }
 582:Drivers/STM32F0xx_HAL_Driver/Src/stm32f0xx_ll_usb.c **** 
 583:Drivers/STM32F0xx_HAL_Driver/Src/stm32f0xx_ll_usb.c ****   return HAL_OK;
 1938              		.loc 1 583 3 discriminator 7 view .LVU578
 584:Drivers/STM32F0xx_HAL_Driver/Src/stm32f0xx_ll_usb.c **** }
 1939              		.loc 1 584 1 is_stmt 0 discriminator 7 view .LVU579
 1940 007c 0020     		movs	r0, #0
 1941              		@ sp needed
 1942 007e 10BD     		pop	{r4, pc}
 1943              	.L68:
 1944              		.align	2
 1945              	.L67:
 1946 0080 8F8FFFFF 		.word	-28785
 1947 0084 C080FFFF 		.word	-32576
 1948 0088 BF8FFFFF 		.word	-28737
 1949 008c 8080FFFF 		.word	-32640
 1950 0090 80C0FFFF 		.word	-16256
 1951 0094 8FBFFFFF 		.word	-16497
 1952              		.cfi_endproc
 1953              	.LFE54:
 1955              		.section	.text.USB_StopDevice,"ax",%progbits
 1956              		.align	1
ARM GAS  /tmp/ccFvwqLO.s 			page 50


 1957              		.global	USB_StopDevice
 1958              		.syntax unified
 1959              		.code	16
 1960              		.thumb_func
 1961              		.fpu softvfp
 1963              	USB_StopDevice:
 1964              	.LVL198:
 1965              	.LFB55:
 585:Drivers/STM32F0xx_HAL_Driver/Src/stm32f0xx_ll_usb.c **** 
 586:Drivers/STM32F0xx_HAL_Driver/Src/stm32f0xx_ll_usb.c **** /**
 587:Drivers/STM32F0xx_HAL_Driver/Src/stm32f0xx_ll_usb.c ****   * @brief  USB_StopDevice : Stop the usb device mode
 588:Drivers/STM32F0xx_HAL_Driver/Src/stm32f0xx_ll_usb.c ****   * @param  USBx : Selected device
 589:Drivers/STM32F0xx_HAL_Driver/Src/stm32f0xx_ll_usb.c ****   * @retval HAL status
 590:Drivers/STM32F0xx_HAL_Driver/Src/stm32f0xx_ll_usb.c ****   */
 591:Drivers/STM32F0xx_HAL_Driver/Src/stm32f0xx_ll_usb.c **** HAL_StatusTypeDef USB_StopDevice(USB_TypeDef *USBx)
 592:Drivers/STM32F0xx_HAL_Driver/Src/stm32f0xx_ll_usb.c **** {
 1966              		.loc 1 592 1 is_stmt 1 view -0
 1967              		.cfi_startproc
 1968              		@ args = 0, pretend = 0, frame = 0
 1969              		@ frame_needed = 0, uses_anonymous_args = 0
 1970              		@ link register save eliminated.
 593:Drivers/STM32F0xx_HAL_Driver/Src/stm32f0xx_ll_usb.c ****   /* disable all interrupts and force USB reset */
 594:Drivers/STM32F0xx_HAL_Driver/Src/stm32f0xx_ll_usb.c ****   USBx->CNTR = USB_CNTR_FRES;
 1971              		.loc 1 594 3 view .LVU581
 1972              		.loc 1 594 14 is_stmt 0 view .LVU582
 1973 0000 4023     		movs	r3, #64
 1974 0002 0122     		movs	r2, #1
 1975 0004 C252     		strh	r2, [r0, r3]
 595:Drivers/STM32F0xx_HAL_Driver/Src/stm32f0xx_ll_usb.c **** 
 596:Drivers/STM32F0xx_HAL_Driver/Src/stm32f0xx_ll_usb.c ****   /* clear interrupt status register */
 597:Drivers/STM32F0xx_HAL_Driver/Src/stm32f0xx_ll_usb.c ****   USBx->ISTR = 0;
 1976              		.loc 1 597 3 is_stmt 1 view .LVU583
 1977              		.loc 1 597 14 is_stmt 0 view .LVU584
 1978 0006 4332     		adds	r2, r2, #67
 1979 0008 0021     		movs	r1, #0
 1980 000a 8152     		strh	r1, [r0, r2]
 598:Drivers/STM32F0xx_HAL_Driver/Src/stm32f0xx_ll_usb.c **** 
 599:Drivers/STM32F0xx_HAL_Driver/Src/stm32f0xx_ll_usb.c ****   /* switch-off device */
 600:Drivers/STM32F0xx_HAL_Driver/Src/stm32f0xx_ll_usb.c ****   USBx->CNTR = (USB_CNTR_FRES | USB_CNTR_PDWN);
 1981              		.loc 1 600 3 is_stmt 1 view .LVU585
 1982              		.loc 1 600 14 is_stmt 0 view .LVU586
 1983 000c 413A     		subs	r2, r2, #65
 1984 000e C252     		strh	r2, [r0, r3]
 601:Drivers/STM32F0xx_HAL_Driver/Src/stm32f0xx_ll_usb.c **** 
 602:Drivers/STM32F0xx_HAL_Driver/Src/stm32f0xx_ll_usb.c ****   return HAL_OK;
 1985              		.loc 1 602 3 is_stmt 1 view .LVU587
 603:Drivers/STM32F0xx_HAL_Driver/Src/stm32f0xx_ll_usb.c **** }
 1986              		.loc 1 603 1 is_stmt 0 view .LVU588
 1987 0010 0020     		movs	r0, #0
 1988              	.LVL199:
 1989              		.loc 1 603 1 view .LVU589
 1990              		@ sp needed
 1991 0012 7047     		bx	lr
 1992              		.cfi_endproc
 1993              	.LFE55:
 1995              		.section	.text.USB_SetDevAddress,"ax",%progbits
 1996              		.align	1
ARM GAS  /tmp/ccFvwqLO.s 			page 51


 1997              		.global	USB_SetDevAddress
 1998              		.syntax unified
 1999              		.code	16
 2000              		.thumb_func
 2001              		.fpu softvfp
 2003              	USB_SetDevAddress:
 2004              	.LVL200:
 2005              	.LFB56:
 604:Drivers/STM32F0xx_HAL_Driver/Src/stm32f0xx_ll_usb.c **** 
 605:Drivers/STM32F0xx_HAL_Driver/Src/stm32f0xx_ll_usb.c **** /**
 606:Drivers/STM32F0xx_HAL_Driver/Src/stm32f0xx_ll_usb.c ****   * @brief  USB_SetDevAddress : Stop the usb device mode
 607:Drivers/STM32F0xx_HAL_Driver/Src/stm32f0xx_ll_usb.c ****   * @param  USBx : Selected device
 608:Drivers/STM32F0xx_HAL_Driver/Src/stm32f0xx_ll_usb.c ****   * @param  address : new device address to be assigned
 609:Drivers/STM32F0xx_HAL_Driver/Src/stm32f0xx_ll_usb.c ****   *          This parameter can be a value from 0 to 255
 610:Drivers/STM32F0xx_HAL_Driver/Src/stm32f0xx_ll_usb.c ****   * @retval HAL status
 611:Drivers/STM32F0xx_HAL_Driver/Src/stm32f0xx_ll_usb.c ****   */
 612:Drivers/STM32F0xx_HAL_Driver/Src/stm32f0xx_ll_usb.c **** HAL_StatusTypeDef  USB_SetDevAddress(USB_TypeDef *USBx, uint8_t address)
 613:Drivers/STM32F0xx_HAL_Driver/Src/stm32f0xx_ll_usb.c **** {
 2006              		.loc 1 613 1 is_stmt 1 view -0
 2007              		.cfi_startproc
 2008              		@ args = 0, pretend = 0, frame = 0
 2009              		@ frame_needed = 0, uses_anonymous_args = 0
 2010              		@ link register save eliminated.
 614:Drivers/STM32F0xx_HAL_Driver/Src/stm32f0xx_ll_usb.c ****   if (address == 0U)
 2011              		.loc 1 614 3 view .LVU591
 2012              		.loc 1 614 6 is_stmt 0 view .LVU592
 2013 0000 0029     		cmp	r1, #0
 2014 0002 02D1     		bne	.L71
 615:Drivers/STM32F0xx_HAL_Driver/Src/stm32f0xx_ll_usb.c ****   {
 616:Drivers/STM32F0xx_HAL_Driver/Src/stm32f0xx_ll_usb.c ****     /* set device address and enable function */
 617:Drivers/STM32F0xx_HAL_Driver/Src/stm32f0xx_ll_usb.c ****     USBx->DADDR = USB_DADDR_EF;
 2015              		.loc 1 617 5 is_stmt 1 view .LVU593
 2016              		.loc 1 617 17 is_stmt 0 view .LVU594
 2017 0004 4C23     		movs	r3, #76
 2018 0006 8022     		movs	r2, #128
 2019 0008 C252     		strh	r2, [r0, r3]
 2020              	.L71:
 618:Drivers/STM32F0xx_HAL_Driver/Src/stm32f0xx_ll_usb.c ****   }
 619:Drivers/STM32F0xx_HAL_Driver/Src/stm32f0xx_ll_usb.c **** 
 620:Drivers/STM32F0xx_HAL_Driver/Src/stm32f0xx_ll_usb.c ****   return HAL_OK;
 2021              		.loc 1 620 3 is_stmt 1 view .LVU595
 621:Drivers/STM32F0xx_HAL_Driver/Src/stm32f0xx_ll_usb.c **** }
 2022              		.loc 1 621 1 is_stmt 0 view .LVU596
 2023 000a 0020     		movs	r0, #0
 2024              	.LVL201:
 2025              		.loc 1 621 1 view .LVU597
 2026              		@ sp needed
 2027 000c 7047     		bx	lr
 2028              		.cfi_endproc
 2029              	.LFE56:
 2031              		.section	.text.USB_DevConnect,"ax",%progbits
 2032              		.align	1
 2033              		.global	USB_DevConnect
 2034              		.syntax unified
 2035              		.code	16
 2036              		.thumb_func
 2037              		.fpu softvfp
ARM GAS  /tmp/ccFvwqLO.s 			page 52


 2039              	USB_DevConnect:
 2040              	.LVL202:
 2041              	.LFB57:
 622:Drivers/STM32F0xx_HAL_Driver/Src/stm32f0xx_ll_usb.c **** 
 623:Drivers/STM32F0xx_HAL_Driver/Src/stm32f0xx_ll_usb.c **** /**
 624:Drivers/STM32F0xx_HAL_Driver/Src/stm32f0xx_ll_usb.c ****   * @brief  USB_DevConnect : Connect the USB device by enabling the pull-up/pull-down
 625:Drivers/STM32F0xx_HAL_Driver/Src/stm32f0xx_ll_usb.c ****   * @param  USBx : Selected device
 626:Drivers/STM32F0xx_HAL_Driver/Src/stm32f0xx_ll_usb.c ****   * @retval HAL status
 627:Drivers/STM32F0xx_HAL_Driver/Src/stm32f0xx_ll_usb.c ****   */
 628:Drivers/STM32F0xx_HAL_Driver/Src/stm32f0xx_ll_usb.c **** HAL_StatusTypeDef  USB_DevConnect(USB_TypeDef *USBx)
 629:Drivers/STM32F0xx_HAL_Driver/Src/stm32f0xx_ll_usb.c **** {
 2042              		.loc 1 629 1 is_stmt 1 view -0
 2043              		.cfi_startproc
 2044              		@ args = 0, pretend = 0, frame = 0
 2045              		@ frame_needed = 0, uses_anonymous_args = 0
 2046              		@ link register save eliminated.
 630:Drivers/STM32F0xx_HAL_Driver/Src/stm32f0xx_ll_usb.c ****   /* Enabling DP Pull-UP bit to Connect internal PU resistor on USB DP line */
 631:Drivers/STM32F0xx_HAL_Driver/Src/stm32f0xx_ll_usb.c ****   USBx->BCDR |= USB_BCDR_DPPU;
 2047              		.loc 1 631 3 view .LVU599
 2048              		.loc 1 631 14 is_stmt 0 view .LVU600
 2049 0000 5822     		movs	r2, #88
 2050 0002 835A     		ldrh	r3, [r0, r2]
 2051 0004 0249     		ldr	r1, .L73
 2052 0006 0B43     		orrs	r3, r1
 2053 0008 9BB2     		uxth	r3, r3
 2054 000a 8352     		strh	r3, [r0, r2]
 632:Drivers/STM32F0xx_HAL_Driver/Src/stm32f0xx_ll_usb.c **** 
 633:Drivers/STM32F0xx_HAL_Driver/Src/stm32f0xx_ll_usb.c ****   return HAL_OK;
 2055              		.loc 1 633 3 is_stmt 1 view .LVU601
 634:Drivers/STM32F0xx_HAL_Driver/Src/stm32f0xx_ll_usb.c **** }
 2056              		.loc 1 634 1 is_stmt 0 view .LVU602
 2057 000c 0020     		movs	r0, #0
 2058              	.LVL203:
 2059              		.loc 1 634 1 view .LVU603
 2060              		@ sp needed
 2061 000e 7047     		bx	lr
 2062              	.L74:
 2063              		.align	2
 2064              	.L73:
 2065 0010 0080FFFF 		.word	-32768
 2066              		.cfi_endproc
 2067              	.LFE57:
 2069              		.section	.text.USB_DevDisconnect,"ax",%progbits
 2070              		.align	1
 2071              		.global	USB_DevDisconnect
 2072              		.syntax unified
 2073              		.code	16
 2074              		.thumb_func
 2075              		.fpu softvfp
 2077              	USB_DevDisconnect:
 2078              	.LVL204:
 2079              	.LFB58:
 635:Drivers/STM32F0xx_HAL_Driver/Src/stm32f0xx_ll_usb.c **** 
 636:Drivers/STM32F0xx_HAL_Driver/Src/stm32f0xx_ll_usb.c **** /**
 637:Drivers/STM32F0xx_HAL_Driver/Src/stm32f0xx_ll_usb.c ****   * @brief  USB_DevDisconnect : Disconnect the USB device by disabling the pull-up/pull-down
 638:Drivers/STM32F0xx_HAL_Driver/Src/stm32f0xx_ll_usb.c ****   * @param  USBx : Selected device
 639:Drivers/STM32F0xx_HAL_Driver/Src/stm32f0xx_ll_usb.c ****   * @retval HAL status
ARM GAS  /tmp/ccFvwqLO.s 			page 53


 640:Drivers/STM32F0xx_HAL_Driver/Src/stm32f0xx_ll_usb.c ****   */
 641:Drivers/STM32F0xx_HAL_Driver/Src/stm32f0xx_ll_usb.c **** HAL_StatusTypeDef  USB_DevDisconnect(USB_TypeDef *USBx)
 642:Drivers/STM32F0xx_HAL_Driver/Src/stm32f0xx_ll_usb.c **** {
 2080              		.loc 1 642 1 is_stmt 1 view -0
 2081              		.cfi_startproc
 2082              		@ args = 0, pretend = 0, frame = 0
 2083              		@ frame_needed = 0, uses_anonymous_args = 0
 2084              		@ link register save eliminated.
 643:Drivers/STM32F0xx_HAL_Driver/Src/stm32f0xx_ll_usb.c ****   /* Disable DP Pull-Up bit to disconnect the Internal PU resistor on USB DP line */
 644:Drivers/STM32F0xx_HAL_Driver/Src/stm32f0xx_ll_usb.c ****   USBx->BCDR &= (uint16_t)(~(USB_BCDR_DPPU));
 2085              		.loc 1 644 3 view .LVU605
 2086              		.loc 1 644 14 is_stmt 0 view .LVU606
 2087 0000 5822     		movs	r2, #88
 2088 0002 835A     		ldrh	r3, [r0, r2]
 2089 0004 5B04     		lsls	r3, r3, #17
 2090 0006 5B0C     		lsrs	r3, r3, #17
 2091 0008 8352     		strh	r3, [r0, r2]
 645:Drivers/STM32F0xx_HAL_Driver/Src/stm32f0xx_ll_usb.c **** 
 646:Drivers/STM32F0xx_HAL_Driver/Src/stm32f0xx_ll_usb.c ****   return HAL_OK;
 2092              		.loc 1 646 3 is_stmt 1 view .LVU607
 647:Drivers/STM32F0xx_HAL_Driver/Src/stm32f0xx_ll_usb.c **** }
 2093              		.loc 1 647 1 is_stmt 0 view .LVU608
 2094 000a 0020     		movs	r0, #0
 2095              	.LVL205:
 2096              		.loc 1 647 1 view .LVU609
 2097              		@ sp needed
 2098 000c 7047     		bx	lr
 2099              		.cfi_endproc
 2100              	.LFE58:
 2102              		.section	.text.USB_ReadInterrupts,"ax",%progbits
 2103              		.align	1
 2104              		.global	USB_ReadInterrupts
 2105              		.syntax unified
 2106              		.code	16
 2107              		.thumb_func
 2108              		.fpu softvfp
 2110              	USB_ReadInterrupts:
 2111              	.LVL206:
 2112              	.LFB59:
 648:Drivers/STM32F0xx_HAL_Driver/Src/stm32f0xx_ll_usb.c **** 
 649:Drivers/STM32F0xx_HAL_Driver/Src/stm32f0xx_ll_usb.c **** /**
 650:Drivers/STM32F0xx_HAL_Driver/Src/stm32f0xx_ll_usb.c ****   * @brief  USB_ReadInterrupts: return the global USB interrupt status
 651:Drivers/STM32F0xx_HAL_Driver/Src/stm32f0xx_ll_usb.c ****   * @param  USBx : Selected device
 652:Drivers/STM32F0xx_HAL_Driver/Src/stm32f0xx_ll_usb.c ****   * @retval HAL status
 653:Drivers/STM32F0xx_HAL_Driver/Src/stm32f0xx_ll_usb.c ****   */
 654:Drivers/STM32F0xx_HAL_Driver/Src/stm32f0xx_ll_usb.c **** uint32_t  USB_ReadInterrupts(USB_TypeDef *USBx)
 655:Drivers/STM32F0xx_HAL_Driver/Src/stm32f0xx_ll_usb.c **** {
 2113              		.loc 1 655 1 is_stmt 1 view -0
 2114              		.cfi_startproc
 2115              		@ args = 0, pretend = 0, frame = 0
 2116              		@ frame_needed = 0, uses_anonymous_args = 0
 2117              		@ link register save eliminated.
 656:Drivers/STM32F0xx_HAL_Driver/Src/stm32f0xx_ll_usb.c ****   uint32_t tmpreg;
 2118              		.loc 1 656 3 view .LVU611
 657:Drivers/STM32F0xx_HAL_Driver/Src/stm32f0xx_ll_usb.c **** 
 658:Drivers/STM32F0xx_HAL_Driver/Src/stm32f0xx_ll_usb.c ****   tmpreg = USBx->ISTR;
 2119              		.loc 1 658 3 view .LVU612
ARM GAS  /tmp/ccFvwqLO.s 			page 54


 2120              		.loc 1 658 16 is_stmt 0 view .LVU613
 2121 0000 4423     		movs	r3, #68
 2122 0002 C05A     		ldrh	r0, [r0, r3]
 2123              	.LVL207:
 2124              		.loc 1 658 16 view .LVU614
 2125 0004 80B2     		uxth	r0, r0
 2126              	.LVL208:
 659:Drivers/STM32F0xx_HAL_Driver/Src/stm32f0xx_ll_usb.c ****   return tmpreg;
 2127              		.loc 1 659 3 is_stmt 1 view .LVU615
 660:Drivers/STM32F0xx_HAL_Driver/Src/stm32f0xx_ll_usb.c **** }
 2128              		.loc 1 660 1 is_stmt 0 view .LVU616
 2129              		@ sp needed
 2130 0006 7047     		bx	lr
 2131              		.cfi_endproc
 2132              	.LFE59:
 2134              		.section	.text.USB_ReadDevAllOutEpInterrupt,"ax",%progbits
 2135              		.align	1
 2136              		.global	USB_ReadDevAllOutEpInterrupt
 2137              		.syntax unified
 2138              		.code	16
 2139              		.thumb_func
 2140              		.fpu softvfp
 2142              	USB_ReadDevAllOutEpInterrupt:
 2143              	.LVL209:
 2144              	.LFB60:
 661:Drivers/STM32F0xx_HAL_Driver/Src/stm32f0xx_ll_usb.c **** 
 662:Drivers/STM32F0xx_HAL_Driver/Src/stm32f0xx_ll_usb.c **** /**
 663:Drivers/STM32F0xx_HAL_Driver/Src/stm32f0xx_ll_usb.c ****   * @brief  USB_ReadDevAllOutEpInterrupt: return the USB device OUT endpoints interrupt status
 664:Drivers/STM32F0xx_HAL_Driver/Src/stm32f0xx_ll_usb.c ****   * @param  USBx : Selected device
 665:Drivers/STM32F0xx_HAL_Driver/Src/stm32f0xx_ll_usb.c ****   * @retval HAL status
 666:Drivers/STM32F0xx_HAL_Driver/Src/stm32f0xx_ll_usb.c ****   */
 667:Drivers/STM32F0xx_HAL_Driver/Src/stm32f0xx_ll_usb.c **** uint32_t USB_ReadDevAllOutEpInterrupt(USB_TypeDef *USBx)
 668:Drivers/STM32F0xx_HAL_Driver/Src/stm32f0xx_ll_usb.c **** {
 2145              		.loc 1 668 1 is_stmt 1 view -0
 2146              		.cfi_startproc
 2147              		@ args = 0, pretend = 0, frame = 0
 2148              		@ frame_needed = 0, uses_anonymous_args = 0
 2149              		@ link register save eliminated.
 669:Drivers/STM32F0xx_HAL_Driver/Src/stm32f0xx_ll_usb.c ****   /* Prevent unused argument(s) compilation warning */
 670:Drivers/STM32F0xx_HAL_Driver/Src/stm32f0xx_ll_usb.c ****   UNUSED(USBx);
 2150              		.loc 1 670 3 view .LVU618
 671:Drivers/STM32F0xx_HAL_Driver/Src/stm32f0xx_ll_usb.c ****   /* NOTE : - This function is not required by USB Device FS peripheral, it is used
 672:Drivers/STM32F0xx_HAL_Driver/Src/stm32f0xx_ll_usb.c ****               only by USB OTG FS peripheral.
 673:Drivers/STM32F0xx_HAL_Driver/Src/stm32f0xx_ll_usb.c ****             - This function is added to ensure compatibility across platforms.
 674:Drivers/STM32F0xx_HAL_Driver/Src/stm32f0xx_ll_usb.c ****    */
 675:Drivers/STM32F0xx_HAL_Driver/Src/stm32f0xx_ll_usb.c ****   return (0);
 2151              		.loc 1 675 3 view .LVU619
 676:Drivers/STM32F0xx_HAL_Driver/Src/stm32f0xx_ll_usb.c **** }
 2152              		.loc 1 676 1 is_stmt 0 view .LVU620
 2153 0000 0020     		movs	r0, #0
 2154              	.LVL210:
 2155              		.loc 1 676 1 view .LVU621
 2156              		@ sp needed
 2157 0002 7047     		bx	lr
 2158              		.cfi_endproc
 2159              	.LFE60:
 2161              		.section	.text.USB_ReadDevAllInEpInterrupt,"ax",%progbits
ARM GAS  /tmp/ccFvwqLO.s 			page 55


 2162              		.align	1
 2163              		.global	USB_ReadDevAllInEpInterrupt
 2164              		.syntax unified
 2165              		.code	16
 2166              		.thumb_func
 2167              		.fpu softvfp
 2169              	USB_ReadDevAllInEpInterrupt:
 2170              	.LVL211:
 2171              	.LFB61:
 677:Drivers/STM32F0xx_HAL_Driver/Src/stm32f0xx_ll_usb.c **** 
 678:Drivers/STM32F0xx_HAL_Driver/Src/stm32f0xx_ll_usb.c **** /**
 679:Drivers/STM32F0xx_HAL_Driver/Src/stm32f0xx_ll_usb.c ****   * @brief  USB_ReadDevAllInEpInterrupt: return the USB device IN endpoints interrupt status
 680:Drivers/STM32F0xx_HAL_Driver/Src/stm32f0xx_ll_usb.c ****   * @param  USBx : Selected device
 681:Drivers/STM32F0xx_HAL_Driver/Src/stm32f0xx_ll_usb.c ****   * @retval HAL status
 682:Drivers/STM32F0xx_HAL_Driver/Src/stm32f0xx_ll_usb.c ****   */
 683:Drivers/STM32F0xx_HAL_Driver/Src/stm32f0xx_ll_usb.c **** uint32_t USB_ReadDevAllInEpInterrupt(USB_TypeDef *USBx)
 684:Drivers/STM32F0xx_HAL_Driver/Src/stm32f0xx_ll_usb.c **** {
 2172              		.loc 1 684 1 is_stmt 1 view -0
 2173              		.cfi_startproc
 2174              		@ args = 0, pretend = 0, frame = 0
 2175              		@ frame_needed = 0, uses_anonymous_args = 0
 2176              		@ link register save eliminated.
 685:Drivers/STM32F0xx_HAL_Driver/Src/stm32f0xx_ll_usb.c ****   /* Prevent unused argument(s) compilation warning */
 686:Drivers/STM32F0xx_HAL_Driver/Src/stm32f0xx_ll_usb.c ****   UNUSED(USBx);
 2177              		.loc 1 686 3 view .LVU623
 687:Drivers/STM32F0xx_HAL_Driver/Src/stm32f0xx_ll_usb.c ****   /* NOTE : - This function is not required by USB Device FS peripheral, it is used
 688:Drivers/STM32F0xx_HAL_Driver/Src/stm32f0xx_ll_usb.c ****               only by USB OTG FS peripheral.
 689:Drivers/STM32F0xx_HAL_Driver/Src/stm32f0xx_ll_usb.c ****             - This function is added to ensure compatibility across platforms.
 690:Drivers/STM32F0xx_HAL_Driver/Src/stm32f0xx_ll_usb.c ****    */
 691:Drivers/STM32F0xx_HAL_Driver/Src/stm32f0xx_ll_usb.c ****   return (0);
 2178              		.loc 1 691 3 view .LVU624
 692:Drivers/STM32F0xx_HAL_Driver/Src/stm32f0xx_ll_usb.c **** }
 2179              		.loc 1 692 1 is_stmt 0 view .LVU625
 2180 0000 0020     		movs	r0, #0
 2181              	.LVL212:
 2182              		.loc 1 692 1 view .LVU626
 2183              		@ sp needed
 2184 0002 7047     		bx	lr
 2185              		.cfi_endproc
 2186              	.LFE61:
 2188              		.section	.text.USB_ReadDevOutEPInterrupt,"ax",%progbits
 2189              		.align	1
 2190              		.global	USB_ReadDevOutEPInterrupt
 2191              		.syntax unified
 2192              		.code	16
 2193              		.thumb_func
 2194              		.fpu softvfp
 2196              	USB_ReadDevOutEPInterrupt:
 2197              	.LVL213:
 2198              	.LFB62:
 693:Drivers/STM32F0xx_HAL_Driver/Src/stm32f0xx_ll_usb.c **** 
 694:Drivers/STM32F0xx_HAL_Driver/Src/stm32f0xx_ll_usb.c **** /**
 695:Drivers/STM32F0xx_HAL_Driver/Src/stm32f0xx_ll_usb.c ****   * @brief  Returns Device OUT EP Interrupt register
 696:Drivers/STM32F0xx_HAL_Driver/Src/stm32f0xx_ll_usb.c ****   * @param  USBx : Selected device
 697:Drivers/STM32F0xx_HAL_Driver/Src/stm32f0xx_ll_usb.c ****   * @param  epnum : endpoint number
 698:Drivers/STM32F0xx_HAL_Driver/Src/stm32f0xx_ll_usb.c ****   *          This parameter can be a value from 0 to 15
 699:Drivers/STM32F0xx_HAL_Driver/Src/stm32f0xx_ll_usb.c ****   * @retval Device OUT EP Interrupt register
ARM GAS  /tmp/ccFvwqLO.s 			page 56


 700:Drivers/STM32F0xx_HAL_Driver/Src/stm32f0xx_ll_usb.c ****   */
 701:Drivers/STM32F0xx_HAL_Driver/Src/stm32f0xx_ll_usb.c **** uint32_t USB_ReadDevOutEPInterrupt(USB_TypeDef *USBx, uint8_t epnum)
 702:Drivers/STM32F0xx_HAL_Driver/Src/stm32f0xx_ll_usb.c **** {
 2199              		.loc 1 702 1 is_stmt 1 view -0
 2200              		.cfi_startproc
 2201              		@ args = 0, pretend = 0, frame = 0
 2202              		@ frame_needed = 0, uses_anonymous_args = 0
 2203              		@ link register save eliminated.
 703:Drivers/STM32F0xx_HAL_Driver/Src/stm32f0xx_ll_usb.c ****   /* Prevent unused argument(s) compilation warning */
 704:Drivers/STM32F0xx_HAL_Driver/Src/stm32f0xx_ll_usb.c ****   UNUSED(USBx);
 2204              		.loc 1 704 3 view .LVU628
 705:Drivers/STM32F0xx_HAL_Driver/Src/stm32f0xx_ll_usb.c ****   UNUSED(epnum);
 2205              		.loc 1 705 3 view .LVU629
 706:Drivers/STM32F0xx_HAL_Driver/Src/stm32f0xx_ll_usb.c ****   /* NOTE : - This function is not required by USB Device FS peripheral, it is used
 707:Drivers/STM32F0xx_HAL_Driver/Src/stm32f0xx_ll_usb.c ****               only by USB OTG FS peripheral.
 708:Drivers/STM32F0xx_HAL_Driver/Src/stm32f0xx_ll_usb.c ****             - This function is added to ensure compatibility across platforms.
 709:Drivers/STM32F0xx_HAL_Driver/Src/stm32f0xx_ll_usb.c ****    */
 710:Drivers/STM32F0xx_HAL_Driver/Src/stm32f0xx_ll_usb.c ****   return (0);
 2206              		.loc 1 710 3 view .LVU630
 711:Drivers/STM32F0xx_HAL_Driver/Src/stm32f0xx_ll_usb.c **** }
 2207              		.loc 1 711 1 is_stmt 0 view .LVU631
 2208 0000 0020     		movs	r0, #0
 2209              	.LVL214:
 2210              		.loc 1 711 1 view .LVU632
 2211              		@ sp needed
 2212 0002 7047     		bx	lr
 2213              		.cfi_endproc
 2214              	.LFE62:
 2216              		.section	.text.USB_ReadDevInEPInterrupt,"ax",%progbits
 2217              		.align	1
 2218              		.global	USB_ReadDevInEPInterrupt
 2219              		.syntax unified
 2220              		.code	16
 2221              		.thumb_func
 2222              		.fpu softvfp
 2224              	USB_ReadDevInEPInterrupt:
 2225              	.LVL215:
 2226              	.LFB63:
 712:Drivers/STM32F0xx_HAL_Driver/Src/stm32f0xx_ll_usb.c **** 
 713:Drivers/STM32F0xx_HAL_Driver/Src/stm32f0xx_ll_usb.c **** /**
 714:Drivers/STM32F0xx_HAL_Driver/Src/stm32f0xx_ll_usb.c ****   * @brief  Returns Device IN EP Interrupt register
 715:Drivers/STM32F0xx_HAL_Driver/Src/stm32f0xx_ll_usb.c ****   * @param  USBx : Selected device
 716:Drivers/STM32F0xx_HAL_Driver/Src/stm32f0xx_ll_usb.c ****   * @param  epnum : endpoint number
 717:Drivers/STM32F0xx_HAL_Driver/Src/stm32f0xx_ll_usb.c ****   *          This parameter can be a value from 0 to 15
 718:Drivers/STM32F0xx_HAL_Driver/Src/stm32f0xx_ll_usb.c ****   * @retval Device IN EP Interrupt register
 719:Drivers/STM32F0xx_HAL_Driver/Src/stm32f0xx_ll_usb.c ****   */
 720:Drivers/STM32F0xx_HAL_Driver/Src/stm32f0xx_ll_usb.c **** uint32_t USB_ReadDevInEPInterrupt(USB_TypeDef *USBx, uint8_t epnum)
 721:Drivers/STM32F0xx_HAL_Driver/Src/stm32f0xx_ll_usb.c **** {
 2227              		.loc 1 721 1 is_stmt 1 view -0
 2228              		.cfi_startproc
 2229              		@ args = 0, pretend = 0, frame = 0
 2230              		@ frame_needed = 0, uses_anonymous_args = 0
 2231              		@ link register save eliminated.
 722:Drivers/STM32F0xx_HAL_Driver/Src/stm32f0xx_ll_usb.c ****   /* Prevent unused argument(s) compilation warning */
 723:Drivers/STM32F0xx_HAL_Driver/Src/stm32f0xx_ll_usb.c ****   UNUSED(USBx);
 2232              		.loc 1 723 3 view .LVU634
 724:Drivers/STM32F0xx_HAL_Driver/Src/stm32f0xx_ll_usb.c ****   UNUSED(epnum);
ARM GAS  /tmp/ccFvwqLO.s 			page 57


 2233              		.loc 1 724 3 view .LVU635
 725:Drivers/STM32F0xx_HAL_Driver/Src/stm32f0xx_ll_usb.c ****   /* NOTE : - This function is not required by USB Device FS peripheral, it is used
 726:Drivers/STM32F0xx_HAL_Driver/Src/stm32f0xx_ll_usb.c ****               only by USB OTG FS peripheral.
 727:Drivers/STM32F0xx_HAL_Driver/Src/stm32f0xx_ll_usb.c ****             - This function is added to ensure compatibility across platforms.
 728:Drivers/STM32F0xx_HAL_Driver/Src/stm32f0xx_ll_usb.c ****    */
 729:Drivers/STM32F0xx_HAL_Driver/Src/stm32f0xx_ll_usb.c ****   return (0);
 2234              		.loc 1 729 3 view .LVU636
 730:Drivers/STM32F0xx_HAL_Driver/Src/stm32f0xx_ll_usb.c **** }
 2235              		.loc 1 730 1 is_stmt 0 view .LVU637
 2236 0000 0020     		movs	r0, #0
 2237              	.LVL216:
 2238              		.loc 1 730 1 view .LVU638
 2239              		@ sp needed
 2240 0002 7047     		bx	lr
 2241              		.cfi_endproc
 2242              	.LFE63:
 2244              		.section	.text.USB_ClearInterrupts,"ax",%progbits
 2245              		.align	1
 2246              		.global	USB_ClearInterrupts
 2247              		.syntax unified
 2248              		.code	16
 2249              		.thumb_func
 2250              		.fpu softvfp
 2252              	USB_ClearInterrupts:
 2253              	.LVL217:
 2254              	.LFB64:
 731:Drivers/STM32F0xx_HAL_Driver/Src/stm32f0xx_ll_usb.c **** 
 732:Drivers/STM32F0xx_HAL_Driver/Src/stm32f0xx_ll_usb.c **** /**
 733:Drivers/STM32F0xx_HAL_Driver/Src/stm32f0xx_ll_usb.c ****   * @brief  USB_ClearInterrupts: clear a USB interrupt
 734:Drivers/STM32F0xx_HAL_Driver/Src/stm32f0xx_ll_usb.c ****   * @param  USBx  Selected device
 735:Drivers/STM32F0xx_HAL_Driver/Src/stm32f0xx_ll_usb.c ****   * @param  interrupt  interrupt flag
 736:Drivers/STM32F0xx_HAL_Driver/Src/stm32f0xx_ll_usb.c ****   * @retval None
 737:Drivers/STM32F0xx_HAL_Driver/Src/stm32f0xx_ll_usb.c ****   */
 738:Drivers/STM32F0xx_HAL_Driver/Src/stm32f0xx_ll_usb.c **** void  USB_ClearInterrupts(USB_TypeDef *USBx, uint32_t interrupt)
 739:Drivers/STM32F0xx_HAL_Driver/Src/stm32f0xx_ll_usb.c **** {
 2255              		.loc 1 739 1 is_stmt 1 view -0
 2256              		.cfi_startproc
 2257              		@ args = 0, pretend = 0, frame = 0
 2258              		@ frame_needed = 0, uses_anonymous_args = 0
 2259              		@ link register save eliminated.
 740:Drivers/STM32F0xx_HAL_Driver/Src/stm32f0xx_ll_usb.c ****   /* Prevent unused argument(s) compilation warning */
 741:Drivers/STM32F0xx_HAL_Driver/Src/stm32f0xx_ll_usb.c ****   UNUSED(USBx);
 2260              		.loc 1 741 3 view .LVU640
 742:Drivers/STM32F0xx_HAL_Driver/Src/stm32f0xx_ll_usb.c ****   UNUSED(interrupt);
 2261              		.loc 1 742 3 view .LVU641
 743:Drivers/STM32F0xx_HAL_Driver/Src/stm32f0xx_ll_usb.c ****   /* NOTE : - This function is not required by USB Device FS peripheral, it is used
 744:Drivers/STM32F0xx_HAL_Driver/Src/stm32f0xx_ll_usb.c ****               only by USB OTG FS peripheral.
 745:Drivers/STM32F0xx_HAL_Driver/Src/stm32f0xx_ll_usb.c ****             - This function is added to ensure compatibility across platforms.
 746:Drivers/STM32F0xx_HAL_Driver/Src/stm32f0xx_ll_usb.c ****    */
 747:Drivers/STM32F0xx_HAL_Driver/Src/stm32f0xx_ll_usb.c **** }
 2262              		.loc 1 747 1 is_stmt 0 view .LVU642
 2263              		@ sp needed
 2264 0000 7047     		bx	lr
 2265              		.cfi_endproc
 2266              	.LFE64:
 2268              		.section	.text.USB_EP0_OutStart,"ax",%progbits
 2269              		.align	1
ARM GAS  /tmp/ccFvwqLO.s 			page 58


 2270              		.global	USB_EP0_OutStart
 2271              		.syntax unified
 2272              		.code	16
 2273              		.thumb_func
 2274              		.fpu softvfp
 2276              	USB_EP0_OutStart:
 2277              	.LVL218:
 2278              	.LFB65:
 748:Drivers/STM32F0xx_HAL_Driver/Src/stm32f0xx_ll_usb.c **** 
 749:Drivers/STM32F0xx_HAL_Driver/Src/stm32f0xx_ll_usb.c **** /**
 750:Drivers/STM32F0xx_HAL_Driver/Src/stm32f0xx_ll_usb.c ****   * @brief  Prepare the EP0 to start the first control setup
 751:Drivers/STM32F0xx_HAL_Driver/Src/stm32f0xx_ll_usb.c ****   * @param  USBx  Selected device
 752:Drivers/STM32F0xx_HAL_Driver/Src/stm32f0xx_ll_usb.c ****   * @param  psetup  pointer to setup packet
 753:Drivers/STM32F0xx_HAL_Driver/Src/stm32f0xx_ll_usb.c ****   * @retval HAL status
 754:Drivers/STM32F0xx_HAL_Driver/Src/stm32f0xx_ll_usb.c ****   */
 755:Drivers/STM32F0xx_HAL_Driver/Src/stm32f0xx_ll_usb.c **** HAL_StatusTypeDef USB_EP0_OutStart(USB_TypeDef *USBx, uint8_t *psetup)
 756:Drivers/STM32F0xx_HAL_Driver/Src/stm32f0xx_ll_usb.c **** {
 2279              		.loc 1 756 1 is_stmt 1 view -0
 2280              		.cfi_startproc
 2281              		@ args = 0, pretend = 0, frame = 0
 2282              		@ frame_needed = 0, uses_anonymous_args = 0
 2283              		@ link register save eliminated.
 757:Drivers/STM32F0xx_HAL_Driver/Src/stm32f0xx_ll_usb.c ****   /* Prevent unused argument(s) compilation warning */
 758:Drivers/STM32F0xx_HAL_Driver/Src/stm32f0xx_ll_usb.c ****   UNUSED(USBx);
 2284              		.loc 1 758 3 view .LVU644
 759:Drivers/STM32F0xx_HAL_Driver/Src/stm32f0xx_ll_usb.c ****   UNUSED(psetup);
 2285              		.loc 1 759 3 view .LVU645
 760:Drivers/STM32F0xx_HAL_Driver/Src/stm32f0xx_ll_usb.c ****   /* NOTE : - This function is not required by USB Device FS peripheral, it is used
 761:Drivers/STM32F0xx_HAL_Driver/Src/stm32f0xx_ll_usb.c ****               only by USB OTG FS peripheral.
 762:Drivers/STM32F0xx_HAL_Driver/Src/stm32f0xx_ll_usb.c ****             - This function is added to ensure compatibility across platforms.
 763:Drivers/STM32F0xx_HAL_Driver/Src/stm32f0xx_ll_usb.c ****    */
 764:Drivers/STM32F0xx_HAL_Driver/Src/stm32f0xx_ll_usb.c ****   return HAL_OK;
 2286              		.loc 1 764 3 view .LVU646
 765:Drivers/STM32F0xx_HAL_Driver/Src/stm32f0xx_ll_usb.c **** }
 2287              		.loc 1 765 1 is_stmt 0 view .LVU647
 2288 0000 0020     		movs	r0, #0
 2289              	.LVL219:
 2290              		.loc 1 765 1 view .LVU648
 2291              		@ sp needed
 2292 0002 7047     		bx	lr
 2293              		.cfi_endproc
 2294              	.LFE65:
 2296              		.section	.text.USB_ActivateRemoteWakeup,"ax",%progbits
 2297              		.align	1
 2298              		.global	USB_ActivateRemoteWakeup
 2299              		.syntax unified
 2300              		.code	16
 2301              		.thumb_func
 2302              		.fpu softvfp
 2304              	USB_ActivateRemoteWakeup:
 2305              	.LVL220:
 2306              	.LFB66:
 766:Drivers/STM32F0xx_HAL_Driver/Src/stm32f0xx_ll_usb.c **** 
 767:Drivers/STM32F0xx_HAL_Driver/Src/stm32f0xx_ll_usb.c **** /**
 768:Drivers/STM32F0xx_HAL_Driver/Src/stm32f0xx_ll_usb.c ****   * @brief  USB_ActivateRemoteWakeup : active remote wakeup signalling
 769:Drivers/STM32F0xx_HAL_Driver/Src/stm32f0xx_ll_usb.c ****   * @param  USBx  Selected device
 770:Drivers/STM32F0xx_HAL_Driver/Src/stm32f0xx_ll_usb.c ****   * @retval HAL status
ARM GAS  /tmp/ccFvwqLO.s 			page 59


 771:Drivers/STM32F0xx_HAL_Driver/Src/stm32f0xx_ll_usb.c ****   */
 772:Drivers/STM32F0xx_HAL_Driver/Src/stm32f0xx_ll_usb.c **** HAL_StatusTypeDef USB_ActivateRemoteWakeup(USB_TypeDef *USBx)
 773:Drivers/STM32F0xx_HAL_Driver/Src/stm32f0xx_ll_usb.c **** {
 2307              		.loc 1 773 1 is_stmt 1 view -0
 2308              		.cfi_startproc
 2309              		@ args = 0, pretend = 0, frame = 0
 2310              		@ frame_needed = 0, uses_anonymous_args = 0
 2311              		@ link register save eliminated.
 774:Drivers/STM32F0xx_HAL_Driver/Src/stm32f0xx_ll_usb.c ****   USBx->CNTR |= USB_CNTR_RESUME;
 2312              		.loc 1 774 3 view .LVU650
 2313              		.loc 1 774 14 is_stmt 0 view .LVU651
 2314 0000 4022     		movs	r2, #64
 2315 0002 835A     		ldrh	r3, [r0, r2]
 2316 0004 1021     		movs	r1, #16
 2317 0006 0B43     		orrs	r3, r1
 2318 0008 8352     		strh	r3, [r0, r2]
 775:Drivers/STM32F0xx_HAL_Driver/Src/stm32f0xx_ll_usb.c **** 
 776:Drivers/STM32F0xx_HAL_Driver/Src/stm32f0xx_ll_usb.c ****   return HAL_OK;
 2319              		.loc 1 776 3 is_stmt 1 view .LVU652
 777:Drivers/STM32F0xx_HAL_Driver/Src/stm32f0xx_ll_usb.c **** }
 2320              		.loc 1 777 1 is_stmt 0 view .LVU653
 2321 000a 0020     		movs	r0, #0
 2322              	.LVL221:
 2323              		.loc 1 777 1 view .LVU654
 2324              		@ sp needed
 2325 000c 7047     		bx	lr
 2326              		.cfi_endproc
 2327              	.LFE66:
 2329              		.section	.text.USB_DeActivateRemoteWakeup,"ax",%progbits
 2330              		.align	1
 2331              		.global	USB_DeActivateRemoteWakeup
 2332              		.syntax unified
 2333              		.code	16
 2334              		.thumb_func
 2335              		.fpu softvfp
 2337              	USB_DeActivateRemoteWakeup:
 2338              	.LVL222:
 2339              	.LFB67:
 778:Drivers/STM32F0xx_HAL_Driver/Src/stm32f0xx_ll_usb.c **** 
 779:Drivers/STM32F0xx_HAL_Driver/Src/stm32f0xx_ll_usb.c **** /**
 780:Drivers/STM32F0xx_HAL_Driver/Src/stm32f0xx_ll_usb.c ****   * @brief  USB_DeActivateRemoteWakeup : de-active remote wakeup signalling
 781:Drivers/STM32F0xx_HAL_Driver/Src/stm32f0xx_ll_usb.c ****   * @param  USBx  Selected device
 782:Drivers/STM32F0xx_HAL_Driver/Src/stm32f0xx_ll_usb.c ****   * @retval HAL status
 783:Drivers/STM32F0xx_HAL_Driver/Src/stm32f0xx_ll_usb.c ****   */
 784:Drivers/STM32F0xx_HAL_Driver/Src/stm32f0xx_ll_usb.c **** HAL_StatusTypeDef USB_DeActivateRemoteWakeup(USB_TypeDef *USBx)
 785:Drivers/STM32F0xx_HAL_Driver/Src/stm32f0xx_ll_usb.c **** {
 2340              		.loc 1 785 1 is_stmt 1 view -0
 2341              		.cfi_startproc
 2342              		@ args = 0, pretend = 0, frame = 0
 2343              		@ frame_needed = 0, uses_anonymous_args = 0
 2344              		@ link register save eliminated.
 786:Drivers/STM32F0xx_HAL_Driver/Src/stm32f0xx_ll_usb.c ****   USBx->CNTR &= ~(USB_CNTR_RESUME);
 2345              		.loc 1 786 3 view .LVU656
 2346              		.loc 1 786 14 is_stmt 0 view .LVU657
 2347 0000 4022     		movs	r2, #64
 2348 0002 835A     		ldrh	r3, [r0, r2]
 2349 0004 1021     		movs	r1, #16
ARM GAS  /tmp/ccFvwqLO.s 			page 60


 2350 0006 8B43     		bics	r3, r1
 2351 0008 8352     		strh	r3, [r0, r2]
 787:Drivers/STM32F0xx_HAL_Driver/Src/stm32f0xx_ll_usb.c ****   return HAL_OK;
 2352              		.loc 1 787 3 is_stmt 1 view .LVU658
 788:Drivers/STM32F0xx_HAL_Driver/Src/stm32f0xx_ll_usb.c **** }
 2353              		.loc 1 788 1 is_stmt 0 view .LVU659
 2354 000a 0020     		movs	r0, #0
 2355              	.LVL223:
 2356              		.loc 1 788 1 view .LVU660
 2357              		@ sp needed
 2358 000c 7047     		bx	lr
 2359              		.cfi_endproc
 2360              	.LFE67:
 2362              		.section	.text.USB_WritePMA,"ax",%progbits
 2363              		.align	1
 2364              		.global	USB_WritePMA
 2365              		.syntax unified
 2366              		.code	16
 2367              		.thumb_func
 2368              		.fpu softvfp
 2370              	USB_WritePMA:
 2371              	.LVL224:
 2372              	.LFB68:
 789:Drivers/STM32F0xx_HAL_Driver/Src/stm32f0xx_ll_usb.c **** 
 790:Drivers/STM32F0xx_HAL_Driver/Src/stm32f0xx_ll_usb.c **** /**
 791:Drivers/STM32F0xx_HAL_Driver/Src/stm32f0xx_ll_usb.c ****   * @brief Copy a buffer from user memory area to packet memory area (PMA)
 792:Drivers/STM32F0xx_HAL_Driver/Src/stm32f0xx_ll_usb.c ****   * @param   USBx USB peripheral instance register address.
 793:Drivers/STM32F0xx_HAL_Driver/Src/stm32f0xx_ll_usb.c ****   * @param   pbUsrBuf pointer to user memory area.
 794:Drivers/STM32F0xx_HAL_Driver/Src/stm32f0xx_ll_usb.c ****   * @param   wPMABufAddr address into PMA.
 795:Drivers/STM32F0xx_HAL_Driver/Src/stm32f0xx_ll_usb.c ****   * @param   wNBytes: no. of bytes to be copied.
 796:Drivers/STM32F0xx_HAL_Driver/Src/stm32f0xx_ll_usb.c ****   * @retval None
 797:Drivers/STM32F0xx_HAL_Driver/Src/stm32f0xx_ll_usb.c ****   */
 798:Drivers/STM32F0xx_HAL_Driver/Src/stm32f0xx_ll_usb.c **** void USB_WritePMA(USB_TypeDef *USBx, uint8_t *pbUsrBuf, uint16_t wPMABufAddr, uint16_t wNBytes)
 799:Drivers/STM32F0xx_HAL_Driver/Src/stm32f0xx_ll_usb.c **** {
 2373              		.loc 1 799 1 is_stmt 1 view -0
 2374              		.cfi_startproc
 2375              		@ args = 0, pretend = 0, frame = 0
 2376              		@ frame_needed = 0, uses_anonymous_args = 0
 2377              		.loc 1 799 1 is_stmt 0 view .LVU662
 2378 0000 10B5     		push	{r4, lr}
 2379              	.LCFI6:
 2380              		.cfi_def_cfa_offset 8
 2381              		.cfi_offset 4, -8
 2382              		.cfi_offset 14, -4
 800:Drivers/STM32F0xx_HAL_Driver/Src/stm32f0xx_ll_usb.c ****   uint32_t n = ((uint32_t)wNBytes + 1U) >> 1;
 2383              		.loc 1 800 3 is_stmt 1 view .LVU663
 2384              		.loc 1 800 35 is_stmt 0 view .LVU664
 2385 0002 0133     		adds	r3, r3, #1
 2386              	.LVL225:
 2387              		.loc 1 800 12 view .LVU665
 2388 0004 5B08     		lsrs	r3, r3, #1
 2389              	.LVL226:
 801:Drivers/STM32F0xx_HAL_Driver/Src/stm32f0xx_ll_usb.c ****   uint32_t BaseAddr = (uint32_t)USBx;
 2390              		.loc 1 801 3 is_stmt 1 view .LVU666
 802:Drivers/STM32F0xx_HAL_Driver/Src/stm32f0xx_ll_usb.c ****   uint32_t i, temp1, temp2;
 2391              		.loc 1 802 3 view .LVU667
 803:Drivers/STM32F0xx_HAL_Driver/Src/stm32f0xx_ll_usb.c ****   __IO uint16_t *pdwVal;
ARM GAS  /tmp/ccFvwqLO.s 			page 61


 2392              		.loc 1 803 3 view .LVU668
 804:Drivers/STM32F0xx_HAL_Driver/Src/stm32f0xx_ll_usb.c ****   uint8_t *pBuf = pbUsrBuf;
 2393              		.loc 1 804 3 view .LVU669
 805:Drivers/STM32F0xx_HAL_Driver/Src/stm32f0xx_ll_usb.c **** 
 806:Drivers/STM32F0xx_HAL_Driver/Src/stm32f0xx_ll_usb.c ****   pdwVal = (__IO uint16_t *)(BaseAddr + 0x400U + ((uint32_t)wPMABufAddr * PMA_ACCESS));
 2394              		.loc 1 806 3 view .LVU670
 2395              		.loc 1 806 48 is_stmt 0 view .LVU671
 2396 0006 1018     		adds	r0, r2, r0
 2397              	.LVL227:
 2398              		.loc 1 806 48 view .LVU672
 2399 0008 8022     		movs	r2, #128
 2400              	.LVL228:
 2401              		.loc 1 806 48 view .LVU673
 2402 000a D200     		lsls	r2, r2, #3
 2403 000c 9446     		mov	ip, r2
 2404 000e 6044     		add	r0, r0, ip
 2405              	.LVL229:
 807:Drivers/STM32F0xx_HAL_Driver/Src/stm32f0xx_ll_usb.c **** 
 808:Drivers/STM32F0xx_HAL_Driver/Src/stm32f0xx_ll_usb.c ****   for (i = n; i != 0U; i--)
 2406              		.loc 1 808 3 is_stmt 1 view .LVU674
 2407              	.L86:
 2408              		.loc 1 808 15 discriminator 1 view .LVU675
 2409              		.loc 1 808 3 is_stmt 0 discriminator 1 view .LVU676
 2410 0010 002B     		cmp	r3, #0
 2411 0012 08D0     		beq	.L88
 809:Drivers/STM32F0xx_HAL_Driver/Src/stm32f0xx_ll_usb.c ****   {
 810:Drivers/STM32F0xx_HAL_Driver/Src/stm32f0xx_ll_usb.c ****     temp1 = *pBuf;
 2412              		.loc 1 810 5 is_stmt 1 discriminator 3 view .LVU677
 2413              		.loc 1 810 13 is_stmt 0 discriminator 3 view .LVU678
 2414 0014 0C78     		ldrb	r4, [r1]
 2415              	.LVL230:
 811:Drivers/STM32F0xx_HAL_Driver/Src/stm32f0xx_ll_usb.c ****     pBuf++;
 2416              		.loc 1 811 5 is_stmt 1 discriminator 3 view .LVU679
 812:Drivers/STM32F0xx_HAL_Driver/Src/stm32f0xx_ll_usb.c ****     temp2 = temp1 | ((uint16_t)((uint16_t) *pBuf << 8));
 2417              		.loc 1 812 5 discriminator 3 view .LVU680
 2418              		.loc 1 812 44 is_stmt 0 discriminator 3 view .LVU681
 2419 0016 4A78     		ldrb	r2, [r1, #1]
 2420              		.loc 1 812 22 discriminator 3 view .LVU682
 2421 0018 1202     		lsls	r2, r2, #8
 2422              	.LVL231:
 813:Drivers/STM32F0xx_HAL_Driver/Src/stm32f0xx_ll_usb.c ****     *pdwVal = (uint16_t)temp2;
 2423              		.loc 1 813 5 is_stmt 1 discriminator 3 view .LVU683
 2424              		.loc 1 813 15 is_stmt 0 discriminator 3 view .LVU684
 2425 001a 2243     		orrs	r2, r4
 2426              	.LVL232:
 2427              		.loc 1 813 13 discriminator 3 view .LVU685
 2428 001c 0280     		strh	r2, [r0]
 814:Drivers/STM32F0xx_HAL_Driver/Src/stm32f0xx_ll_usb.c ****     pdwVal++;
 2429              		.loc 1 814 5 is_stmt 1 discriminator 3 view .LVU686
 2430              		.loc 1 814 11 is_stmt 0 discriminator 3 view .LVU687
 2431 001e 0230     		adds	r0, r0, #2
 2432              	.LVL233:
 815:Drivers/STM32F0xx_HAL_Driver/Src/stm32f0xx_ll_usb.c **** 
 816:Drivers/STM32F0xx_HAL_Driver/Src/stm32f0xx_ll_usb.c **** #if PMA_ACCESS > 1U
 817:Drivers/STM32F0xx_HAL_Driver/Src/stm32f0xx_ll_usb.c ****     pdwVal++;
 818:Drivers/STM32F0xx_HAL_Driver/Src/stm32f0xx_ll_usb.c **** #endif
 819:Drivers/STM32F0xx_HAL_Driver/Src/stm32f0xx_ll_usb.c **** 
ARM GAS  /tmp/ccFvwqLO.s 			page 62


 820:Drivers/STM32F0xx_HAL_Driver/Src/stm32f0xx_ll_usb.c ****     pBuf++;
 2433              		.loc 1 820 5 is_stmt 1 discriminator 3 view .LVU688
 2434              		.loc 1 820 9 is_stmt 0 discriminator 3 view .LVU689
 2435 0020 0231     		adds	r1, r1, #2
 2436              	.LVL234:
 808:Drivers/STM32F0xx_HAL_Driver/Src/stm32f0xx_ll_usb.c ****   {
 2437              		.loc 1 808 24 is_stmt 1 discriminator 3 view .LVU690
 808:Drivers/STM32F0xx_HAL_Driver/Src/stm32f0xx_ll_usb.c ****   {
 2438              		.loc 1 808 25 is_stmt 0 discriminator 3 view .LVU691
 2439 0022 013B     		subs	r3, r3, #1
 2440              	.LVL235:
 808:Drivers/STM32F0xx_HAL_Driver/Src/stm32f0xx_ll_usb.c ****   {
 2441              		.loc 1 808 25 discriminator 3 view .LVU692
 2442 0024 F4E7     		b	.L86
 2443              	.LVL236:
 2444              	.L88:
 821:Drivers/STM32F0xx_HAL_Driver/Src/stm32f0xx_ll_usb.c ****   }
 822:Drivers/STM32F0xx_HAL_Driver/Src/stm32f0xx_ll_usb.c **** }
 2445              		.loc 1 822 1 view .LVU693
 2446              		@ sp needed
 2447 0026 10BD     		pop	{r4, pc}
 2448              		.cfi_endproc
 2449              	.LFE68:
 2451              		.section	.text.USB_EPStartXfer,"ax",%progbits
 2452              		.align	1
 2453              		.global	USB_EPStartXfer
 2454              		.syntax unified
 2455              		.code	16
 2456              		.thumb_func
 2457              		.fpu softvfp
 2459              	USB_EPStartXfer:
 2460              	.LVL237:
 2461              	.LFB50:
 412:Drivers/STM32F0xx_HAL_Driver/Src/stm32f0xx_ll_usb.c ****   uint16_t pmabuffer;
 2462              		.loc 1 412 1 is_stmt 1 view -0
 2463              		.cfi_startproc
 2464              		@ args = 0, pretend = 0, frame = 0
 2465              		@ frame_needed = 0, uses_anonymous_args = 0
 412:Drivers/STM32F0xx_HAL_Driver/Src/stm32f0xx_ll_usb.c ****   uint16_t pmabuffer;
 2466              		.loc 1 412 1 is_stmt 0 view .LVU695
 2467 0000 70B5     		push	{r4, r5, r6, lr}
 2468              	.LCFI7:
 2469              		.cfi_def_cfa_offset 16
 2470              		.cfi_offset 4, -16
 2471              		.cfi_offset 5, -12
 2472              		.cfi_offset 6, -8
 2473              		.cfi_offset 14, -4
 2474 0002 0500     		movs	r5, r0
 2475 0004 0C00     		movs	r4, r1
 413:Drivers/STM32F0xx_HAL_Driver/Src/stm32f0xx_ll_usb.c ****   uint32_t len;
 2476              		.loc 1 413 3 is_stmt 1 view .LVU696
 414:Drivers/STM32F0xx_HAL_Driver/Src/stm32f0xx_ll_usb.c **** 
 2477              		.loc 1 414 3 view .LVU697
 417:Drivers/STM32F0xx_HAL_Driver/Src/stm32f0xx_ll_usb.c ****   {
 2478              		.loc 1 417 3 view .LVU698
 417:Drivers/STM32F0xx_HAL_Driver/Src/stm32f0xx_ll_usb.c ****   {
 2479              		.loc 1 417 9 is_stmt 0 view .LVU699
ARM GAS  /tmp/ccFvwqLO.s 			page 63


 2480 0006 4978     		ldrb	r1, [r1, #1]
 2481              	.LVL238:
 417:Drivers/STM32F0xx_HAL_Driver/Src/stm32f0xx_ll_usb.c ****   {
 2482              		.loc 1 417 6 view .LVU700
 2483 0008 0129     		cmp	r1, #1
 2484 000a 2BD0     		beq	.L129
 461:Drivers/STM32F0xx_HAL_Driver/Src/stm32f0xx_ll_usb.c ****     {
 2485              		.loc 1 461 5 is_stmt 1 view .LVU701
 461:Drivers/STM32F0xx_HAL_Driver/Src/stm32f0xx_ll_usb.c ****     {
 2486              		.loc 1 461 11 is_stmt 0 view .LVU702
 2487 000c A269     		ldr	r2, [r4, #24]
 461:Drivers/STM32F0xx_HAL_Driver/Src/stm32f0xx_ll_usb.c ****     {
 2488              		.loc 1 461 26 view .LVU703
 2489 000e 2369     		ldr	r3, [r4, #16]
 461:Drivers/STM32F0xx_HAL_Driver/Src/stm32f0xx_ll_usb.c ****     {
 2490              		.loc 1 461 8 view .LVU704
 2491 0010 9A42     		cmp	r2, r3
 2492 0012 00D8     		bhi	.LCB2424
 2493 0014 D8E0     		b	.L111	@long jump
 2494              	.LCB2424:
 463:Drivers/STM32F0xx_HAL_Driver/Src/stm32f0xx_ll_usb.c ****       ep->xfer_len -= len;
 2495              		.loc 1 463 7 is_stmt 1 view .LVU705
 2496              	.LVL239:
 464:Drivers/STM32F0xx_HAL_Driver/Src/stm32f0xx_ll_usb.c ****     }
 2497              		.loc 1 464 7 view .LVU706
 464:Drivers/STM32F0xx_HAL_Driver/Src/stm32f0xx_ll_usb.c ****     }
 2498              		.loc 1 464 20 is_stmt 0 view .LVU707
 2499 0016 D21A     		subs	r2, r2, r3
 2500 0018 A261     		str	r2, [r4, #24]
 2501              	.L112:
 473:Drivers/STM32F0xx_HAL_Driver/Src/stm32f0xx_ll_usb.c ****     {
 2502              		.loc 1 473 5 is_stmt 1 view .LVU708
 473:Drivers/STM32F0xx_HAL_Driver/Src/stm32f0xx_ll_usb.c ****     {
 2503              		.loc 1 473 11 is_stmt 0 view .LVU709
 2504 001a 227B     		ldrb	r2, [r4, #12]
 473:Drivers/STM32F0xx_HAL_Driver/Src/stm32f0xx_ll_usb.c ****     {
 2505              		.loc 1 473 8 view .LVU710
 2506 001c 002A     		cmp	r2, #0
 2507 001e 00D0     		beq	.LCB2437
 2508 0020 E9E0     		b	.L113	@long jump
 2509              	.LCB2437:
 476:Drivers/STM32F0xx_HAL_Driver/Src/stm32f0xx_ll_usb.c ****     }
 2510              		.loc 1 476 7 is_stmt 1 view .LVU711
 2511              	.LBB62:
 476:Drivers/STM32F0xx_HAL_Driver/Src/stm32f0xx_ll_usb.c ****     }
 2512              		.loc 1 476 7 view .LVU712
 2513              	.LVL240:
 476:Drivers/STM32F0xx_HAL_Driver/Src/stm32f0xx_ll_usb.c ****     }
 2514              		.loc 1 476 7 view .LVU713
 476:Drivers/STM32F0xx_HAL_Driver/Src/stm32f0xx_ll_usb.c ****     }
 2515              		.loc 1 476 7 view .LVU714
 2516 0022 5032     		adds	r2, r2, #80
 2517 0024 A95A     		ldrh	r1, [r5, r2]
 2518 0026 6918     		adds	r1, r5, r1
 2519              	.LVL241:
 476:Drivers/STM32F0xx_HAL_Driver/Src/stm32f0xx_ll_usb.c ****     }
 2520              		.loc 1 476 7 view .LVU715
ARM GAS  /tmp/ccFvwqLO.s 			page 64


 2521 0028 2278     		ldrb	r2, [r4]
 2522 002a D200     		lsls	r2, r2, #3
 2523 002c 5218     		adds	r2, r2, r1
 2524 002e A049     		ldr	r1, .L131
 2525              	.LVL242:
 476:Drivers/STM32F0xx_HAL_Driver/Src/stm32f0xx_ll_usb.c ****     }
 2526              		.loc 1 476 7 is_stmt 0 view .LVU716
 2527 0030 8C46     		mov	ip, r1
 2528 0032 6244     		add	r2, r2, ip
 2529              	.LVL243:
 476:Drivers/STM32F0xx_HAL_Driver/Src/stm32f0xx_ll_usb.c ****     }
 2530              		.loc 1 476 7 is_stmt 1 view .LVU717
 2531              	.LBB63:
 476:Drivers/STM32F0xx_HAL_Driver/Src/stm32f0xx_ll_usb.c ****     }
 2532              		.loc 1 476 7 view .LVU718
 476:Drivers/STM32F0xx_HAL_Driver/Src/stm32f0xx_ll_usb.c ****     }
 2533              		.loc 1 476 7 view .LVU719
 2534 0034 002B     		cmp	r3, #0
 2535 0036 00D0     		beq	.LCB2464
 2536 0038 CAE0     		b	.L114	@long jump
 2537              	.LCB2464:
 476:Drivers/STM32F0xx_HAL_Driver/Src/stm32f0xx_ll_usb.c ****     }
 2538              		.loc 1 476 7 discriminator 1 view .LVU720
 2539 003a 1388     		ldrh	r3, [r2]
 2540              	.LVL244:
 476:Drivers/STM32F0xx_HAL_Driver/Src/stm32f0xx_ll_usb.c ****     }
 2541              		.loc 1 476 7 is_stmt 0 discriminator 1 view .LVU721
 2542 003c 9D49     		ldr	r1, .L131+4
 2543 003e 1940     		ands	r1, r3
 476:Drivers/STM32F0xx_HAL_Driver/Src/stm32f0xx_ll_usb.c ****     }
 2544              		.loc 1 476 7 is_stmt 1 discriminator 1 view .LVU722
 2545 0040 9D4B     		ldr	r3, .L131+8
 2546 0042 0B43     		orrs	r3, r1
 2547 0044 1380     		strh	r3, [r2]
 2548              	.LVL245:
 2549              	.L115:
 476:Drivers/STM32F0xx_HAL_Driver/Src/stm32f0xx_ll_usb.c ****     }
 2550              		.loc 1 476 7 is_stmt 0 discriminator 1 view .LVU723
 2551              	.LBE63:
 2552              	.LBE62:
 481:Drivers/STM32F0xx_HAL_Driver/Src/stm32f0xx_ll_usb.c ****     }
 2553              		.loc 1 481 7 is_stmt 1 discriminator 36 view .LVU724
 481:Drivers/STM32F0xx_HAL_Driver/Src/stm32f0xx_ll_usb.c ****     }
 2554              		.loc 1 481 7 discriminator 36 view .LVU725
 484:Drivers/STM32F0xx_HAL_Driver/Src/stm32f0xx_ll_usb.c ****   }
 2555              		.loc 1 484 5 discriminator 36 view .LVU726
 2556              	.LBB65:
 484:Drivers/STM32F0xx_HAL_Driver/Src/stm32f0xx_ll_usb.c ****   }
 2557              		.loc 1 484 5 discriminator 36 view .LVU727
 484:Drivers/STM32F0xx_HAL_Driver/Src/stm32f0xx_ll_usb.c ****   }
 2558              		.loc 1 484 5 discriminator 36 view .LVU728
 2559 0046 2078     		ldrb	r0, [r4]
 2560 0048 8000     		lsls	r0, r0, #2
 2561 004a 2D18     		adds	r5, r5, r0
 2562              	.LVL246:
 484:Drivers/STM32F0xx_HAL_Driver/Src/stm32f0xx_ll_usb.c ****   }
 2563              		.loc 1 484 5 is_stmt 0 discriminator 36 view .LVU729
ARM GAS  /tmp/ccFvwqLO.s 			page 65


 2564 004c 2A88     		ldrh	r2, [r5]
 2565 004e 9B4B     		ldr	r3, .L131+12
 2566 0050 1A40     		ands	r2, r3
 2567              	.LVL247:
 484:Drivers/STM32F0xx_HAL_Driver/Src/stm32f0xx_ll_usb.c ****   }
 2568              		.loc 1 484 5 is_stmt 1 discriminator 36 view .LVU730
 484:Drivers/STM32F0xx_HAL_Driver/Src/stm32f0xx_ll_usb.c ****   }
 2569              		.loc 1 484 5 discriminator 36 view .LVU731
 484:Drivers/STM32F0xx_HAL_Driver/Src/stm32f0xx_ll_usb.c ****   }
 2570              		.loc 1 484 5 discriminator 36 view .LVU732
 484:Drivers/STM32F0xx_HAL_Driver/Src/stm32f0xx_ll_usb.c ****   }
 2571              		.loc 1 484 5 discriminator 36 view .LVU733
 2572 0052 C023     		movs	r3, #192
 2573 0054 9B01     		lsls	r3, r3, #6
 2574 0056 5A40     		eors	r2, r3
 2575              	.LVL248:
 484:Drivers/STM32F0xx_HAL_Driver/Src/stm32f0xx_ll_usb.c ****   }
 2576              		.loc 1 484 5 discriminator 36 view .LVU734
 2577 0058 994B     		ldr	r3, .L131+16
 2578 005a 1343     		orrs	r3, r2
 2579 005c 9BB2     		uxth	r3, r3
 2580 005e 2B80     		strh	r3, [r5]
 2581              	.LVL249:
 2582              	.L110:
 484:Drivers/STM32F0xx_HAL_Driver/Src/stm32f0xx_ll_usb.c ****   }
 2583              		.loc 1 484 5 is_stmt 0 discriminator 36 view .LVU735
 2584              	.LBE65:
 484:Drivers/STM32F0xx_HAL_Driver/Src/stm32f0xx_ll_usb.c ****   }
 2585              		.loc 1 484 5 is_stmt 1 discriminator 7 view .LVU736
 487:Drivers/STM32F0xx_HAL_Driver/Src/stm32f0xx_ll_usb.c **** }
 2586              		.loc 1 487 3 discriminator 7 view .LVU737
 488:Drivers/STM32F0xx_HAL_Driver/Src/stm32f0xx_ll_usb.c **** 
 2587              		.loc 1 488 1 is_stmt 0 discriminator 7 view .LVU738
 2588 0060 0020     		movs	r0, #0
 2589              		@ sp needed
 2590              	.LVL250:
 488:Drivers/STM32F0xx_HAL_Driver/Src/stm32f0xx_ll_usb.c **** 
 2591              		.loc 1 488 1 discriminator 7 view .LVU739
 2592 0062 70BD     		pop	{r4, r5, r6, pc}
 2593              	.LVL251:
 2594              	.L129:
 420:Drivers/STM32F0xx_HAL_Driver/Src/stm32f0xx_ll_usb.c ****     {
 2595              		.loc 1 420 5 is_stmt 1 view .LVU740
 420:Drivers/STM32F0xx_HAL_Driver/Src/stm32f0xx_ll_usb.c ****     {
 2596              		.loc 1 420 11 is_stmt 0 view .LVU741
 2597 0064 A269     		ldr	r2, [r4, #24]
 420:Drivers/STM32F0xx_HAL_Driver/Src/stm32f0xx_ll_usb.c ****     {
 2598              		.loc 1 420 26 view .LVU742
 2599 0066 2369     		ldr	r3, [r4, #16]
 420:Drivers/STM32F0xx_HAL_Driver/Src/stm32f0xx_ll_usb.c ****     {
 2600              		.loc 1 420 8 view .LVU743
 2601 0068 9A42     		cmp	r2, r3
 2602 006a 1DD9     		bls	.L91
 422:Drivers/STM32F0xx_HAL_Driver/Src/stm32f0xx_ll_usb.c ****       ep->xfer_len -= len;
 2603              		.loc 1 422 7 is_stmt 1 view .LVU744
 2604              	.LVL252:
 423:Drivers/STM32F0xx_HAL_Driver/Src/stm32f0xx_ll_usb.c ****     }
ARM GAS  /tmp/ccFvwqLO.s 			page 66


 2605              		.loc 1 423 7 view .LVU745
 423:Drivers/STM32F0xx_HAL_Driver/Src/stm32f0xx_ll_usb.c ****     }
 2606              		.loc 1 423 20 is_stmt 0 view .LVU746
 2607 006c D21A     		subs	r2, r2, r3
 2608 006e A261     		str	r2, [r4, #24]
 2609              	.L92:
 432:Drivers/STM32F0xx_HAL_Driver/Src/stm32f0xx_ll_usb.c ****     {
 2610              		.loc 1 432 5 is_stmt 1 view .LVU747
 432:Drivers/STM32F0xx_HAL_Driver/Src/stm32f0xx_ll_usb.c ****     {
 2611              		.loc 1 432 11 is_stmt 0 view .LVU748
 2612 0070 227B     		ldrb	r2, [r4, #12]
 432:Drivers/STM32F0xx_HAL_Driver/Src/stm32f0xx_ll_usb.c ****     {
 2613              		.loc 1 432 8 view .LVU749
 2614 0072 002A     		cmp	r2, #0
 2615 0074 1CD0     		beq	.L130
 440:Drivers/STM32F0xx_HAL_Driver/Src/stm32f0xx_ll_usb.c ****       {
 2616              		.loc 1 440 7 is_stmt 1 view .LVU750
 440:Drivers/STM32F0xx_HAL_Driver/Src/stm32f0xx_ll_usb.c ****       {
 2617              		.loc 1 440 12 is_stmt 0 view .LVU751
 2618 0076 2278     		ldrb	r2, [r4]
 2619 0078 9000     		lsls	r0, r2, #2
 2620              	.LVL253:
 440:Drivers/STM32F0xx_HAL_Driver/Src/stm32f0xx_ll_usb.c ****       {
 2621              		.loc 1 440 12 view .LVU752
 2622 007a 2818     		adds	r0, r5, r0
 2623 007c 0088     		ldrh	r0, [r0]
 440:Drivers/STM32F0xx_HAL_Driver/Src/stm32f0xx_ll_usb.c ****       {
 2624              		.loc 1 440 10 view .LVU753
 2625 007e 4006     		lsls	r0, r0, #25
 2626 0080 64D5     		bpl	.L95
 443:Drivers/STM32F0xx_HAL_Driver/Src/stm32f0xx_ll_usb.c ****         pmabuffer = ep->pmaaddr1;
 2627              		.loc 1 443 9 is_stmt 1 view .LVU754
 2628              	.LBB66:
 443:Drivers/STM32F0xx_HAL_Driver/Src/stm32f0xx_ll_usb.c ****         pmabuffer = ep->pmaaddr1;
 2629              		.loc 1 443 9 view .LVU755
 2630              	.LVL254:
 443:Drivers/STM32F0xx_HAL_Driver/Src/stm32f0xx_ll_usb.c ****         pmabuffer = ep->pmaaddr1;
 2631              		.loc 1 443 9 view .LVU756
 443:Drivers/STM32F0xx_HAL_Driver/Src/stm32f0xx_ll_usb.c ****         pmabuffer = ep->pmaaddr1;
 2632              		.loc 1 443 9 view .LVU757
 2633 0082 0029     		cmp	r1, #0
 2634 0084 39D1     		bne	.L96
 443:Drivers/STM32F0xx_HAL_Driver/Src/stm32f0xx_ll_usb.c ****         pmabuffer = ep->pmaaddr1;
 2635              		.loc 1 443 9 discriminator 1 view .LVU758
 2636              	.LBB67:
 443:Drivers/STM32F0xx_HAL_Driver/Src/stm32f0xx_ll_usb.c ****         pmabuffer = ep->pmaaddr1;
 2637              		.loc 1 443 9 discriminator 1 view .LVU759
 2638              	.LVL255:
 443:Drivers/STM32F0xx_HAL_Driver/Src/stm32f0xx_ll_usb.c ****         pmabuffer = ep->pmaaddr1;
 2639              		.loc 1 443 9 discriminator 1 view .LVU760
 443:Drivers/STM32F0xx_HAL_Driver/Src/stm32f0xx_ll_usb.c ****         pmabuffer = ep->pmaaddr1;
 2640              		.loc 1 443 9 discriminator 1 view .LVU761
 2641 0086 5031     		adds	r1, r1, #80
 2642 0088 695A     		ldrh	r1, [r5, r1]
 2643 008a 6918     		adds	r1, r5, r1
 2644              	.LVL256:
 443:Drivers/STM32F0xx_HAL_Driver/Src/stm32f0xx_ll_usb.c ****         pmabuffer = ep->pmaaddr1;
ARM GAS  /tmp/ccFvwqLO.s 			page 67


 2645              		.loc 1 443 9 discriminator 1 view .LVU762
 2646 008c D200     		lsls	r2, r2, #3
 2647 008e 5218     		adds	r2, r2, r1
 2648 0090 8749     		ldr	r1, .L131
 2649              	.LVL257:
 443:Drivers/STM32F0xx_HAL_Driver/Src/stm32f0xx_ll_usb.c ****         pmabuffer = ep->pmaaddr1;
 2650              		.loc 1 443 9 is_stmt 0 discriminator 1 view .LVU763
 2651 0092 8C46     		mov	ip, r1
 2652 0094 6244     		add	r2, r2, ip
 2653              	.LVL258:
 443:Drivers/STM32F0xx_HAL_Driver/Src/stm32f0xx_ll_usb.c ****         pmabuffer = ep->pmaaddr1;
 2654              		.loc 1 443 9 is_stmt 1 discriminator 1 view .LVU764
 2655              	.LBB68:
 443:Drivers/STM32F0xx_HAL_Driver/Src/stm32f0xx_ll_usb.c ****         pmabuffer = ep->pmaaddr1;
 2656              		.loc 1 443 9 discriminator 1 view .LVU765
 443:Drivers/STM32F0xx_HAL_Driver/Src/stm32f0xx_ll_usb.c ****         pmabuffer = ep->pmaaddr1;
 2657              		.loc 1 443 9 discriminator 1 view .LVU766
 2658 0096 002B     		cmp	r3, #0
 2659 0098 1CD1     		bne	.L97
 443:Drivers/STM32F0xx_HAL_Driver/Src/stm32f0xx_ll_usb.c ****         pmabuffer = ep->pmaaddr1;
 2660              		.loc 1 443 9 discriminator 3 view .LVU767
 2661 009a 1188     		ldrh	r1, [r2]
 2662 009c 8548     		ldr	r0, .L131+4
 2663 009e 0840     		ands	r0, r1
 443:Drivers/STM32F0xx_HAL_Driver/Src/stm32f0xx_ll_usb.c ****         pmabuffer = ep->pmaaddr1;
 2664              		.loc 1 443 9 discriminator 3 view .LVU768
 2665 00a0 8549     		ldr	r1, .L131+8
 2666 00a2 0143     		orrs	r1, r0
 2667 00a4 1180     		strh	r1, [r2]
 2668 00a6 31E0     		b	.L98
 2669              	.LVL259:
 2670              	.L91:
 443:Drivers/STM32F0xx_HAL_Driver/Src/stm32f0xx_ll_usb.c ****         pmabuffer = ep->pmaaddr1;
 2671              		.loc 1 443 9 is_stmt 0 discriminator 3 view .LVU769
 2672              	.LBE68:
 2673              	.LBE67:
 2674              	.LBE66:
 427:Drivers/STM32F0xx_HAL_Driver/Src/stm32f0xx_ll_usb.c ****       ep->xfer_len = 0U;
 2675              		.loc 1 427 7 is_stmt 1 view .LVU770
 428:Drivers/STM32F0xx_HAL_Driver/Src/stm32f0xx_ll_usb.c ****     }
 2676              		.loc 1 428 7 view .LVU771
 428:Drivers/STM32F0xx_HAL_Driver/Src/stm32f0xx_ll_usb.c ****     }
 2677              		.loc 1 428 20 is_stmt 0 view .LVU772
 2678 00a8 0023     		movs	r3, #0
 2679 00aa A361     		str	r3, [r4, #24]
 427:Drivers/STM32F0xx_HAL_Driver/Src/stm32f0xx_ll_usb.c ****       ep->xfer_len = 0U;
 2680              		.loc 1 427 11 view .LVU773
 2681 00ac 1300     		movs	r3, r2
 2682 00ae DFE7     		b	.L92
 2683              	.LVL260:
 2684              	.L130:
 434:Drivers/STM32F0xx_HAL_Driver/Src/stm32f0xx_ll_usb.c ****       PCD_SET_EP_TX_CNT(USBx, ep->num, len);
 2685              		.loc 1 434 7 is_stmt 1 view .LVU774
 2686 00b0 9EB2     		uxth	r6, r3
 2687 00b2 E288     		ldrh	r2, [r4, #6]
 2688 00b4 3300     		movs	r3, r6
 2689              	.LVL261:
ARM GAS  /tmp/ccFvwqLO.s 			page 68


 434:Drivers/STM32F0xx_HAL_Driver/Src/stm32f0xx_ll_usb.c ****       PCD_SET_EP_TX_CNT(USBx, ep->num, len);
 2690              		.loc 1 434 7 is_stmt 0 view .LVU775
 2691 00b6 6169     		ldr	r1, [r4, #20]
 2692 00b8 2800     		movs	r0, r5
 2693              	.LVL262:
 434:Drivers/STM32F0xx_HAL_Driver/Src/stm32f0xx_ll_usb.c ****       PCD_SET_EP_TX_CNT(USBx, ep->num, len);
 2694              		.loc 1 434 7 view .LVU776
 2695 00ba FFF7FEFF 		bl	USB_WritePMA
 2696              	.LVL263:
 435:Drivers/STM32F0xx_HAL_Driver/Src/stm32f0xx_ll_usb.c ****     }
 2697              		.loc 1 435 7 is_stmt 1 view .LVU777
 2698              	.LBB71:
 435:Drivers/STM32F0xx_HAL_Driver/Src/stm32f0xx_ll_usb.c ****     }
 2699              		.loc 1 435 7 view .LVU778
 435:Drivers/STM32F0xx_HAL_Driver/Src/stm32f0xx_ll_usb.c ****     }
 2700              		.loc 1 435 7 view .LVU779
 435:Drivers/STM32F0xx_HAL_Driver/Src/stm32f0xx_ll_usb.c ****     }
 2701              		.loc 1 435 7 view .LVU780
 2702 00be 5023     		movs	r3, #80
 2703 00c0 EA5A     		ldrh	r2, [r5, r3]
 2704 00c2 AA18     		adds	r2, r5, r2
 2705              	.LVL264:
 435:Drivers/STM32F0xx_HAL_Driver/Src/stm32f0xx_ll_usb.c ****     }
 2706              		.loc 1 435 7 view .LVU781
 2707 00c4 2378     		ldrb	r3, [r4]
 2708 00c6 DB00     		lsls	r3, r3, #3
 2709 00c8 9B18     		adds	r3, r3, r2
 2710 00ca 7E4A     		ldr	r2, .L131+20
 2711              	.LVL265:
 435:Drivers/STM32F0xx_HAL_Driver/Src/stm32f0xx_ll_usb.c ****     }
 2712              		.loc 1 435 7 is_stmt 0 view .LVU782
 2713 00cc 9446     		mov	ip, r2
 2714 00ce 6344     		add	r3, r3, ip
 2715              	.LVL266:
 435:Drivers/STM32F0xx_HAL_Driver/Src/stm32f0xx_ll_usb.c ****     }
 2716              		.loc 1 435 7 is_stmt 1 view .LVU783
 2717 00d0 1E80     		strh	r6, [r3]
 2718              	.LBE71:
 435:Drivers/STM32F0xx_HAL_Driver/Src/stm32f0xx_ll_usb.c ****     }
 2719              		.loc 1 435 7 view .LVU784
 2720 00d2 2EE0     		b	.L94
 2721              	.LVL267:
 2722              	.L97:
 2723              	.LBB72:
 2724              	.LBB70:
 2725              	.LBB69:
 443:Drivers/STM32F0xx_HAL_Driver/Src/stm32f0xx_ll_usb.c ****         pmabuffer = ep->pmaaddr1;
 2726              		.loc 1 443 9 discriminator 4 view .LVU785
 2727 00d4 3E2B     		cmp	r3, #62
 2728 00d6 06D8     		bhi	.L99
 443:Drivers/STM32F0xx_HAL_Driver/Src/stm32f0xx_ll_usb.c ****         pmabuffer = ep->pmaaddr1;
 2729              		.loc 1 443 9 discriminator 6 view .LVU786
 443:Drivers/STM32F0xx_HAL_Driver/Src/stm32f0xx_ll_usb.c ****         pmabuffer = ep->pmaaddr1;
 2730              		.loc 1 443 9 discriminator 6 view .LVU787
 2731 00d8 5908     		lsrs	r1, r3, #1
 2732              	.LVL268:
 443:Drivers/STM32F0xx_HAL_Driver/Src/stm32f0xx_ll_usb.c ****         pmabuffer = ep->pmaaddr1;
ARM GAS  /tmp/ccFvwqLO.s 			page 69


 2733              		.loc 1 443 9 discriminator 6 view .LVU788
 2734 00da D807     		lsls	r0, r3, #31
 2735 00dc 00D5     		bpl	.L100
 443:Drivers/STM32F0xx_HAL_Driver/Src/stm32f0xx_ll_usb.c ****         pmabuffer = ep->pmaaddr1;
 2736              		.loc 1 443 9 discriminator 8 view .LVU789
 2737 00de 0131     		adds	r1, r1, #1
 2738              	.LVL269:
 2739              	.L100:
 443:Drivers/STM32F0xx_HAL_Driver/Src/stm32f0xx_ll_usb.c ****         pmabuffer = ep->pmaaddr1;
 2740              		.loc 1 443 9 discriminator 10 view .LVU790
 2741 00e0 8902     		lsls	r1, r1, #10
 2742              	.LVL270:
 443:Drivers/STM32F0xx_HAL_Driver/Src/stm32f0xx_ll_usb.c ****         pmabuffer = ep->pmaaddr1;
 2743              		.loc 1 443 9 is_stmt 0 discriminator 10 view .LVU791
 2744 00e2 1180     		strh	r1, [r2]
 443:Drivers/STM32F0xx_HAL_Driver/Src/stm32f0xx_ll_usb.c ****         pmabuffer = ep->pmaaddr1;
 2745              		.loc 1 443 9 is_stmt 1 discriminator 10 view .LVU792
 2746 00e4 12E0     		b	.L98
 2747              	.L99:
 443:Drivers/STM32F0xx_HAL_Driver/Src/stm32f0xx_ll_usb.c ****         pmabuffer = ep->pmaaddr1;
 2748              		.loc 1 443 9 discriminator 7 view .LVU793
 443:Drivers/STM32F0xx_HAL_Driver/Src/stm32f0xx_ll_usb.c ****         pmabuffer = ep->pmaaddr1;
 2749              		.loc 1 443 9 discriminator 7 view .LVU794
 2750 00e6 5909     		lsrs	r1, r3, #5
 2751              	.LVL271:
 443:Drivers/STM32F0xx_HAL_Driver/Src/stm32f0xx_ll_usb.c ****         pmabuffer = ep->pmaaddr1;
 2752              		.loc 1 443 9 discriminator 7 view .LVU795
 2753 00e8 D806     		lsls	r0, r3, #27
 2754 00ea 00D1     		bne	.L101
 443:Drivers/STM32F0xx_HAL_Driver/Src/stm32f0xx_ll_usb.c ****         pmabuffer = ep->pmaaddr1;
 2755              		.loc 1 443 9 discriminator 12 view .LVU796
 2756 00ec 0139     		subs	r1, r1, #1
 2757              	.LVL272:
 2758              	.L101:
 443:Drivers/STM32F0xx_HAL_Driver/Src/stm32f0xx_ll_usb.c ****         pmabuffer = ep->pmaaddr1;
 2759              		.loc 1 443 9 discriminator 14 view .LVU797
 2760 00ee 8902     		lsls	r1, r1, #10
 2761              	.LVL273:
 443:Drivers/STM32F0xx_HAL_Driver/Src/stm32f0xx_ll_usb.c ****         pmabuffer = ep->pmaaddr1;
 2762              		.loc 1 443 9 is_stmt 0 discriminator 14 view .LVU798
 2763 00f0 89B2     		uxth	r1, r1
 2764 00f2 7148     		ldr	r0, .L131+8
 2765 00f4 0143     		orrs	r1, r0
 2766 00f6 1180     		strh	r1, [r2]
 2767 00f8 08E0     		b	.L98
 2768              	.LVL274:
 2769              	.L96:
 443:Drivers/STM32F0xx_HAL_Driver/Src/stm32f0xx_ll_usb.c ****         pmabuffer = ep->pmaaddr1;
 2770              		.loc 1 443 9 discriminator 14 view .LVU799
 2771              	.LBE69:
 2772              	.LBE70:
 443:Drivers/STM32F0xx_HAL_Driver/Src/stm32f0xx_ll_usb.c ****         pmabuffer = ep->pmaaddr1;
 2773              		.loc 1 443 9 is_stmt 1 discriminator 16 view .LVU800
 443:Drivers/STM32F0xx_HAL_Driver/Src/stm32f0xx_ll_usb.c ****         pmabuffer = ep->pmaaddr1;
 2774              		.loc 1 443 9 discriminator 16 view .LVU801
 2775 00fa 5021     		movs	r1, #80
 2776 00fc 695A     		ldrh	r1, [r5, r1]
ARM GAS  /tmp/ccFvwqLO.s 			page 70


 2777 00fe 6918     		adds	r1, r5, r1
 2778              	.LVL275:
 443:Drivers/STM32F0xx_HAL_Driver/Src/stm32f0xx_ll_usb.c ****         pmabuffer = ep->pmaaddr1;
 2779              		.loc 1 443 9 discriminator 16 view .LVU802
 2780 0100 D200     		lsls	r2, r2, #3
 2781 0102 5218     		adds	r2, r2, r1
 2782 0104 6A49     		ldr	r1, .L131
 2783              	.LVL276:
 443:Drivers/STM32F0xx_HAL_Driver/Src/stm32f0xx_ll_usb.c ****         pmabuffer = ep->pmaaddr1;
 2784              		.loc 1 443 9 is_stmt 0 discriminator 16 view .LVU803
 2785 0106 8C46     		mov	ip, r1
 2786 0108 6244     		add	r2, r2, ip
 2787              	.LVL277:
 443:Drivers/STM32F0xx_HAL_Driver/Src/stm32f0xx_ll_usb.c ****         pmabuffer = ep->pmaaddr1;
 2788              		.loc 1 443 9 is_stmt 1 discriminator 16 view .LVU804
 2789 010a 1380     		strh	r3, [r2]
 2790              	.LVL278:
 2791              	.L98:
 443:Drivers/STM32F0xx_HAL_Driver/Src/stm32f0xx_ll_usb.c ****         pmabuffer = ep->pmaaddr1;
 2792              		.loc 1 443 9 is_stmt 0 discriminator 16 view .LVU805
 2793              	.LBE72:
 443:Drivers/STM32F0xx_HAL_Driver/Src/stm32f0xx_ll_usb.c ****         pmabuffer = ep->pmaaddr1;
 2794              		.loc 1 443 9 is_stmt 1 discriminator 18 view .LVU806
 444:Drivers/STM32F0xx_HAL_Driver/Src/stm32f0xx_ll_usb.c ****       }
 2795              		.loc 1 444 9 discriminator 18 view .LVU807
 444:Drivers/STM32F0xx_HAL_Driver/Src/stm32f0xx_ll_usb.c ****       }
 2796              		.loc 1 444 19 is_stmt 0 discriminator 18 view .LVU808
 2797 010c 6289     		ldrh	r2, [r4, #10]
 2798              	.LVL279:
 2799              	.L102:
 452:Drivers/STM32F0xx_HAL_Driver/Src/stm32f0xx_ll_usb.c ****       PCD_FreeUserBuffer(USBx, ep->num, ep->is_in);
 2800              		.loc 1 452 7 is_stmt 1 view .LVU809
 2801 010e 9BB2     		uxth	r3, r3
 2802              	.LVL280:
 452:Drivers/STM32F0xx_HAL_Driver/Src/stm32f0xx_ll_usb.c ****       PCD_FreeUserBuffer(USBx, ep->num, ep->is_in);
 2803              		.loc 1 452 7 is_stmt 0 view .LVU810
 2804 0110 6169     		ldr	r1, [r4, #20]
 2805 0112 2800     		movs	r0, r5
 2806 0114 FFF7FEFF 		bl	USB_WritePMA
 2807              	.LVL281:
 453:Drivers/STM32F0xx_HAL_Driver/Src/stm32f0xx_ll_usb.c ****     }
 2808              		.loc 1 453 7 is_stmt 1 view .LVU811
 453:Drivers/STM32F0xx_HAL_Driver/Src/stm32f0xx_ll_usb.c ****     }
 2809              		.loc 1 453 7 view .LVU812
 2810 0118 6378     		ldrb	r3, [r4, #1]
 2811 011a 002B     		cmp	r3, #0
 2812 011c 47D1     		bne	.L109
 453:Drivers/STM32F0xx_HAL_Driver/Src/stm32f0xx_ll_usb.c ****     }
 2813              		.loc 1 453 7 discriminator 1 view .LVU813
 2814              	.LBB73:
 453:Drivers/STM32F0xx_HAL_Driver/Src/stm32f0xx_ll_usb.c ****     }
 2815              		.loc 1 453 7 discriminator 1 view .LVU814
 453:Drivers/STM32F0xx_HAL_Driver/Src/stm32f0xx_ll_usb.c ****     }
 2816              		.loc 1 453 7 discriminator 1 view .LVU815
 2817 011e 2378     		ldrb	r3, [r4]
 2818 0120 9B00     		lsls	r3, r3, #2
 2819 0122 EB18     		adds	r3, r5, r3
ARM GAS  /tmp/ccFvwqLO.s 			page 71


 2820 0124 1A88     		ldrh	r2, [r3]
 2821 0126 6849     		ldr	r1, .L131+24
 2822 0128 1140     		ands	r1, r2
 2823              	.LVL282:
 453:Drivers/STM32F0xx_HAL_Driver/Src/stm32f0xx_ll_usb.c ****     }
 2824              		.loc 1 453 7 discriminator 1 view .LVU816
 2825 012a 684A     		ldr	r2, .L131+28
 2826 012c 0A43     		orrs	r2, r1
 2827 012e 92B2     		uxth	r2, r2
 2828 0130 1A80     		strh	r2, [r3]
 2829              	.LBE73:
 453:Drivers/STM32F0xx_HAL_Driver/Src/stm32f0xx_ll_usb.c ****     }
 2830              		.loc 1 453 7 discriminator 1 view .LVU817
 2831              	.LVL283:
 2832              	.L94:
 453:Drivers/STM32F0xx_HAL_Driver/Src/stm32f0xx_ll_usb.c ****     }
 2833              		.loc 1 453 7 discriminator 6 view .LVU818
 453:Drivers/STM32F0xx_HAL_Driver/Src/stm32f0xx_ll_usb.c ****     }
 2834              		.loc 1 453 7 discriminator 6 view .LVU819
 456:Drivers/STM32F0xx_HAL_Driver/Src/stm32f0xx_ll_usb.c ****   }
 2835              		.loc 1 456 5 discriminator 6 view .LVU820
 2836              	.LBB74:
 456:Drivers/STM32F0xx_HAL_Driver/Src/stm32f0xx_ll_usb.c ****   }
 2837              		.loc 1 456 5 discriminator 6 view .LVU821
 456:Drivers/STM32F0xx_HAL_Driver/Src/stm32f0xx_ll_usb.c ****   }
 2838              		.loc 1 456 5 discriminator 6 view .LVU822
 2839 0132 2078     		ldrb	r0, [r4]
 2840 0134 8000     		lsls	r0, r0, #2
 2841 0136 2D18     		adds	r5, r5, r0
 2842              	.LVL284:
 456:Drivers/STM32F0xx_HAL_Driver/Src/stm32f0xx_ll_usb.c ****   }
 2843              		.loc 1 456 5 is_stmt 0 discriminator 6 view .LVU823
 2844 0138 2B88     		ldrh	r3, [r5]
 2845 013a 654A     		ldr	r2, .L131+32
 2846 013c 1340     		ands	r3, r2
 2847              	.LVL285:
 456:Drivers/STM32F0xx_HAL_Driver/Src/stm32f0xx_ll_usb.c ****   }
 2848              		.loc 1 456 5 is_stmt 1 discriminator 6 view .LVU824
 456:Drivers/STM32F0xx_HAL_Driver/Src/stm32f0xx_ll_usb.c ****   }
 2849              		.loc 1 456 5 discriminator 6 view .LVU825
 456:Drivers/STM32F0xx_HAL_Driver/Src/stm32f0xx_ll_usb.c ****   }
 2850              		.loc 1 456 5 discriminator 6 view .LVU826
 456:Drivers/STM32F0xx_HAL_Driver/Src/stm32f0xx_ll_usb.c ****   }
 2851              		.loc 1 456 5 discriminator 6 view .LVU827
 2852 013e 3022     		movs	r2, #48
 2853 0140 5A40     		eors	r2, r3
 2854              	.LVL286:
 456:Drivers/STM32F0xx_HAL_Driver/Src/stm32f0xx_ll_usb.c ****   }
 2855              		.loc 1 456 5 discriminator 6 view .LVU828
 2856 0142 5F4B     		ldr	r3, .L131+16
 2857 0144 1343     		orrs	r3, r2
 2858 0146 9BB2     		uxth	r3, r3
 2859 0148 2B80     		strh	r3, [r5]
 2860              	.LBE74:
 456:Drivers/STM32F0xx_HAL_Driver/Src/stm32f0xx_ll_usb.c ****   }
 2861              		.loc 1 456 5 discriminator 6 view .LVU829
 2862 014a 89E7     		b	.L110
ARM GAS  /tmp/ccFvwqLO.s 			page 72


 2863              	.LVL287:
 2864              	.L95:
 449:Drivers/STM32F0xx_HAL_Driver/Src/stm32f0xx_ll_usb.c ****         pmabuffer = ep->pmaaddr0;
 2865              		.loc 1 449 9 view .LVU830
 449:Drivers/STM32F0xx_HAL_Driver/Src/stm32f0xx_ll_usb.c ****         pmabuffer = ep->pmaaddr0;
 2866              		.loc 1 449 9 view .LVU831
 2867 014c 0029     		cmp	r1, #0
 2868 014e 23D1     		bne	.L103
 449:Drivers/STM32F0xx_HAL_Driver/Src/stm32f0xx_ll_usb.c ****         pmabuffer = ep->pmaaddr0;
 2869              		.loc 1 449 9 discriminator 1 view .LVU832
 2870              	.LBB75:
 449:Drivers/STM32F0xx_HAL_Driver/Src/stm32f0xx_ll_usb.c ****         pmabuffer = ep->pmaaddr0;
 2871              		.loc 1 449 9 discriminator 1 view .LVU833
 2872              	.LVL288:
 449:Drivers/STM32F0xx_HAL_Driver/Src/stm32f0xx_ll_usb.c ****         pmabuffer = ep->pmaaddr0;
 2873              		.loc 1 449 9 discriminator 1 view .LVU834
 449:Drivers/STM32F0xx_HAL_Driver/Src/stm32f0xx_ll_usb.c ****         pmabuffer = ep->pmaaddr0;
 2874              		.loc 1 449 9 discriminator 1 view .LVU835
 2875 0150 5031     		adds	r1, r1, #80
 2876 0152 695A     		ldrh	r1, [r5, r1]
 2877 0154 6918     		adds	r1, r5, r1
 2878              	.LVL289:
 449:Drivers/STM32F0xx_HAL_Driver/Src/stm32f0xx_ll_usb.c ****         pmabuffer = ep->pmaaddr0;
 2879              		.loc 1 449 9 discriminator 1 view .LVU836
 2880 0156 D200     		lsls	r2, r2, #3
 2881 0158 5218     		adds	r2, r2, r1
 2882 015a 5A49     		ldr	r1, .L131+20
 2883              	.LVL290:
 449:Drivers/STM32F0xx_HAL_Driver/Src/stm32f0xx_ll_usb.c ****         pmabuffer = ep->pmaaddr0;
 2884              		.loc 1 449 9 is_stmt 0 discriminator 1 view .LVU837
 2885 015c 8C46     		mov	ip, r1
 2886 015e 6244     		add	r2, r2, ip
 2887              	.LVL291:
 449:Drivers/STM32F0xx_HAL_Driver/Src/stm32f0xx_ll_usb.c ****         pmabuffer = ep->pmaaddr0;
 2888              		.loc 1 449 9 is_stmt 1 discriminator 1 view .LVU838
 2889              	.LBB76:
 449:Drivers/STM32F0xx_HAL_Driver/Src/stm32f0xx_ll_usb.c ****         pmabuffer = ep->pmaaddr0;
 2890              		.loc 1 449 9 discriminator 1 view .LVU839
 449:Drivers/STM32F0xx_HAL_Driver/Src/stm32f0xx_ll_usb.c ****         pmabuffer = ep->pmaaddr0;
 2891              		.loc 1 449 9 discriminator 1 view .LVU840
 2892 0160 002B     		cmp	r3, #0
 2893 0162 06D1     		bne	.L104
 449:Drivers/STM32F0xx_HAL_Driver/Src/stm32f0xx_ll_usb.c ****         pmabuffer = ep->pmaaddr0;
 2894              		.loc 1 449 9 discriminator 3 view .LVU841
 2895 0164 1188     		ldrh	r1, [r2]
 2896 0166 5348     		ldr	r0, .L131+4
 2897 0168 0840     		ands	r0, r1
 449:Drivers/STM32F0xx_HAL_Driver/Src/stm32f0xx_ll_usb.c ****         pmabuffer = ep->pmaaddr0;
 2898              		.loc 1 449 9 discriminator 3 view .LVU842
 2899 016a 5349     		ldr	r1, .L131+8
 2900 016c 0143     		orrs	r1, r0
 2901 016e 1180     		strh	r1, [r2]
 2902 0170 1BE0     		b	.L105
 2903              	.L104:
 449:Drivers/STM32F0xx_HAL_Driver/Src/stm32f0xx_ll_usb.c ****         pmabuffer = ep->pmaaddr0;
 2904              		.loc 1 449 9 discriminator 4 view .LVU843
 2905 0172 3E2B     		cmp	r3, #62
ARM GAS  /tmp/ccFvwqLO.s 			page 73


 2906 0174 06D8     		bhi	.L106
 449:Drivers/STM32F0xx_HAL_Driver/Src/stm32f0xx_ll_usb.c ****         pmabuffer = ep->pmaaddr0;
 2907              		.loc 1 449 9 discriminator 6 view .LVU844
 449:Drivers/STM32F0xx_HAL_Driver/Src/stm32f0xx_ll_usb.c ****         pmabuffer = ep->pmaaddr0;
 2908              		.loc 1 449 9 discriminator 6 view .LVU845
 2909 0176 5908     		lsrs	r1, r3, #1
 2910              	.LVL292:
 449:Drivers/STM32F0xx_HAL_Driver/Src/stm32f0xx_ll_usb.c ****         pmabuffer = ep->pmaaddr0;
 2911              		.loc 1 449 9 discriminator 6 view .LVU846
 2912 0178 D807     		lsls	r0, r3, #31
 2913 017a 00D5     		bpl	.L107
 449:Drivers/STM32F0xx_HAL_Driver/Src/stm32f0xx_ll_usb.c ****         pmabuffer = ep->pmaaddr0;
 2914              		.loc 1 449 9 discriminator 8 view .LVU847
 2915 017c 0131     		adds	r1, r1, #1
 2916              	.LVL293:
 2917              	.L107:
 449:Drivers/STM32F0xx_HAL_Driver/Src/stm32f0xx_ll_usb.c ****         pmabuffer = ep->pmaaddr0;
 2918              		.loc 1 449 9 discriminator 10 view .LVU848
 2919 017e 8902     		lsls	r1, r1, #10
 2920              	.LVL294:
 449:Drivers/STM32F0xx_HAL_Driver/Src/stm32f0xx_ll_usb.c ****         pmabuffer = ep->pmaaddr0;
 2921              		.loc 1 449 9 is_stmt 0 discriminator 10 view .LVU849
 2922 0180 1180     		strh	r1, [r2]
 449:Drivers/STM32F0xx_HAL_Driver/Src/stm32f0xx_ll_usb.c ****         pmabuffer = ep->pmaaddr0;
 2923              		.loc 1 449 9 is_stmt 1 discriminator 10 view .LVU850
 2924 0182 12E0     		b	.L105
 2925              	.L106:
 449:Drivers/STM32F0xx_HAL_Driver/Src/stm32f0xx_ll_usb.c ****         pmabuffer = ep->pmaaddr0;
 2926              		.loc 1 449 9 discriminator 7 view .LVU851
 449:Drivers/STM32F0xx_HAL_Driver/Src/stm32f0xx_ll_usb.c ****         pmabuffer = ep->pmaaddr0;
 2927              		.loc 1 449 9 discriminator 7 view .LVU852
 2928 0184 5909     		lsrs	r1, r3, #5
 2929              	.LVL295:
 449:Drivers/STM32F0xx_HAL_Driver/Src/stm32f0xx_ll_usb.c ****         pmabuffer = ep->pmaaddr0;
 2930              		.loc 1 449 9 discriminator 7 view .LVU853
 2931 0186 D806     		lsls	r0, r3, #27
 2932 0188 00D1     		bne	.L108
 449:Drivers/STM32F0xx_HAL_Driver/Src/stm32f0xx_ll_usb.c ****         pmabuffer = ep->pmaaddr0;
 2933              		.loc 1 449 9 discriminator 12 view .LVU854
 2934 018a 0139     		subs	r1, r1, #1
 2935              	.LVL296:
 2936              	.L108:
 449:Drivers/STM32F0xx_HAL_Driver/Src/stm32f0xx_ll_usb.c ****         pmabuffer = ep->pmaaddr0;
 2937              		.loc 1 449 9 discriminator 14 view .LVU855
 2938 018c 8902     		lsls	r1, r1, #10
 2939              	.LVL297:
 449:Drivers/STM32F0xx_HAL_Driver/Src/stm32f0xx_ll_usb.c ****         pmabuffer = ep->pmaaddr0;
 2940              		.loc 1 449 9 is_stmt 0 discriminator 14 view .LVU856
 2941 018e 89B2     		uxth	r1, r1
 2942 0190 4948     		ldr	r0, .L131+8
 2943 0192 0143     		orrs	r1, r0
 2944 0194 1180     		strh	r1, [r2]
 2945 0196 08E0     		b	.L105
 2946              	.LVL298:
 2947              	.L103:
 449:Drivers/STM32F0xx_HAL_Driver/Src/stm32f0xx_ll_usb.c ****         pmabuffer = ep->pmaaddr0;
 2948              		.loc 1 449 9 discriminator 14 view .LVU857
ARM GAS  /tmp/ccFvwqLO.s 			page 74


 2949              	.LBE76:
 2950              	.LBE75:
 449:Drivers/STM32F0xx_HAL_Driver/Src/stm32f0xx_ll_usb.c ****         pmabuffer = ep->pmaaddr0;
 2951              		.loc 1 449 9 is_stmt 1 discriminator 16 view .LVU858
 449:Drivers/STM32F0xx_HAL_Driver/Src/stm32f0xx_ll_usb.c ****         pmabuffer = ep->pmaaddr0;
 2952              		.loc 1 449 9 discriminator 16 view .LVU859
 2953              	.LBB77:
 449:Drivers/STM32F0xx_HAL_Driver/Src/stm32f0xx_ll_usb.c ****         pmabuffer = ep->pmaaddr0;
 2954              		.loc 1 449 9 discriminator 16 view .LVU860
 449:Drivers/STM32F0xx_HAL_Driver/Src/stm32f0xx_ll_usb.c ****         pmabuffer = ep->pmaaddr0;
 2955              		.loc 1 449 9 discriminator 16 view .LVU861
 449:Drivers/STM32F0xx_HAL_Driver/Src/stm32f0xx_ll_usb.c ****         pmabuffer = ep->pmaaddr0;
 2956              		.loc 1 449 9 discriminator 16 view .LVU862
 2957 0198 5021     		movs	r1, #80
 2958 019a 695A     		ldrh	r1, [r5, r1]
 2959 019c 6918     		adds	r1, r5, r1
 2960              	.LVL299:
 449:Drivers/STM32F0xx_HAL_Driver/Src/stm32f0xx_ll_usb.c ****         pmabuffer = ep->pmaaddr0;
 2961              		.loc 1 449 9 discriminator 16 view .LVU863
 2962 019e D200     		lsls	r2, r2, #3
 2963 01a0 5218     		adds	r2, r2, r1
 2964 01a2 4849     		ldr	r1, .L131+20
 2965              	.LVL300:
 449:Drivers/STM32F0xx_HAL_Driver/Src/stm32f0xx_ll_usb.c ****         pmabuffer = ep->pmaaddr0;
 2966              		.loc 1 449 9 is_stmt 0 discriminator 16 view .LVU864
 2967 01a4 8C46     		mov	ip, r1
 2968 01a6 6244     		add	r2, r2, ip
 2969              	.LVL301:
 449:Drivers/STM32F0xx_HAL_Driver/Src/stm32f0xx_ll_usb.c ****         pmabuffer = ep->pmaaddr0;
 2970              		.loc 1 449 9 is_stmt 1 discriminator 16 view .LVU865
 2971 01a8 1380     		strh	r3, [r2]
 2972              	.LVL302:
 2973              	.L105:
 449:Drivers/STM32F0xx_HAL_Driver/Src/stm32f0xx_ll_usb.c ****         pmabuffer = ep->pmaaddr0;
 2974              		.loc 1 449 9 is_stmt 0 discriminator 16 view .LVU866
 2975              	.LBE77:
 449:Drivers/STM32F0xx_HAL_Driver/Src/stm32f0xx_ll_usb.c ****         pmabuffer = ep->pmaaddr0;
 2976              		.loc 1 449 9 is_stmt 1 discriminator 18 view .LVU867
 449:Drivers/STM32F0xx_HAL_Driver/Src/stm32f0xx_ll_usb.c ****         pmabuffer = ep->pmaaddr0;
 2977              		.loc 1 449 9 discriminator 18 view .LVU868
 450:Drivers/STM32F0xx_HAL_Driver/Src/stm32f0xx_ll_usb.c ****       }
 2978              		.loc 1 450 9 discriminator 18 view .LVU869
 450:Drivers/STM32F0xx_HAL_Driver/Src/stm32f0xx_ll_usb.c ****       }
 2979              		.loc 1 450 19 is_stmt 0 discriminator 18 view .LVU870
 2980 01aa 2289     		ldrh	r2, [r4, #8]
 2981              	.LVL303:
 450:Drivers/STM32F0xx_HAL_Driver/Src/stm32f0xx_ll_usb.c ****       }
 2982              		.loc 1 450 19 discriminator 18 view .LVU871
 2983 01ac AFE7     		b	.L102
 2984              	.LVL304:
 2985              	.L109:
 453:Drivers/STM32F0xx_HAL_Driver/Src/stm32f0xx_ll_usb.c ****     }
 2986              		.loc 1 453 7 is_stmt 1 discriminator 2 view .LVU872
 2987 01ae 012B     		cmp	r3, #1
 2988 01b0 BFD1     		bne	.L94
 453:Drivers/STM32F0xx_HAL_Driver/Src/stm32f0xx_ll_usb.c ****     }
 2989              		.loc 1 453 7 discriminator 4 view .LVU873
ARM GAS  /tmp/ccFvwqLO.s 			page 75


 2990              	.LBB78:
 453:Drivers/STM32F0xx_HAL_Driver/Src/stm32f0xx_ll_usb.c ****     }
 2991              		.loc 1 453 7 discriminator 4 view .LVU874
 453:Drivers/STM32F0xx_HAL_Driver/Src/stm32f0xx_ll_usb.c ****     }
 2992              		.loc 1 453 7 discriminator 4 view .LVU875
 2993 01b2 2378     		ldrb	r3, [r4]
 2994 01b4 9B00     		lsls	r3, r3, #2
 2995 01b6 EB18     		adds	r3, r5, r3
 2996 01b8 1A88     		ldrh	r2, [r3]
 2997 01ba 4349     		ldr	r1, .L131+24
 2998 01bc 1140     		ands	r1, r2
 2999              	.LVL305:
 453:Drivers/STM32F0xx_HAL_Driver/Src/stm32f0xx_ll_usb.c ****     }
 3000              		.loc 1 453 7 discriminator 4 view .LVU876
 3001 01be 454A     		ldr	r2, .L131+36
 3002 01c0 0A43     		orrs	r2, r1
 3003 01c2 92B2     		uxth	r2, r2
 3004 01c4 1A80     		strh	r2, [r3]
 3005 01c6 B4E7     		b	.L94
 3006              	.LVL306:
 3007              	.L111:
 453:Drivers/STM32F0xx_HAL_Driver/Src/stm32f0xx_ll_usb.c ****     }
 3008              		.loc 1 453 7 is_stmt 0 discriminator 4 view .LVU877
 3009              	.LBE78:
 468:Drivers/STM32F0xx_HAL_Driver/Src/stm32f0xx_ll_usb.c ****       ep->xfer_len = 0U;
 3010              		.loc 1 468 7 is_stmt 1 view .LVU878
 469:Drivers/STM32F0xx_HAL_Driver/Src/stm32f0xx_ll_usb.c ****     }
 3011              		.loc 1 469 7 view .LVU879
 469:Drivers/STM32F0xx_HAL_Driver/Src/stm32f0xx_ll_usb.c ****     }
 3012              		.loc 1 469 20 is_stmt 0 view .LVU880
 3013 01c8 0023     		movs	r3, #0
 3014 01ca A361     		str	r3, [r4, #24]
 468:Drivers/STM32F0xx_HAL_Driver/Src/stm32f0xx_ll_usb.c ****       ep->xfer_len = 0U;
 3015              		.loc 1 468 11 view .LVU881
 3016 01cc 1300     		movs	r3, r2
 3017 01ce 24E7     		b	.L112
 3018              	.LVL307:
 3019              	.L114:
 3020              	.LBB79:
 3021              	.LBB64:
 476:Drivers/STM32F0xx_HAL_Driver/Src/stm32f0xx_ll_usb.c ****     }
 3022              		.loc 1 476 7 is_stmt 1 discriminator 2 view .LVU882
 3023 01d0 3E2B     		cmp	r3, #62
 3024 01d2 06D8     		bhi	.L116
 476:Drivers/STM32F0xx_HAL_Driver/Src/stm32f0xx_ll_usb.c ****     }
 3025              		.loc 1 476 7 discriminator 4 view .LVU883
 476:Drivers/STM32F0xx_HAL_Driver/Src/stm32f0xx_ll_usb.c ****     }
 3026              		.loc 1 476 7 discriminator 4 view .LVU884
 3027 01d4 5908     		lsrs	r1, r3, #1
 3028              	.LVL308:
 476:Drivers/STM32F0xx_HAL_Driver/Src/stm32f0xx_ll_usb.c ****     }
 3029              		.loc 1 476 7 discriminator 4 view .LVU885
 3030 01d6 DB07     		lsls	r3, r3, #31
 3031 01d8 00D5     		bpl	.L117
 3032              	.LVL309:
 476:Drivers/STM32F0xx_HAL_Driver/Src/stm32f0xx_ll_usb.c ****     }
 3033              		.loc 1 476 7 discriminator 6 view .LVU886
ARM GAS  /tmp/ccFvwqLO.s 			page 76


 3034 01da 0131     		adds	r1, r1, #1
 3035              	.LVL310:
 3036              	.L117:
 476:Drivers/STM32F0xx_HAL_Driver/Src/stm32f0xx_ll_usb.c ****     }
 3037              		.loc 1 476 7 discriminator 8 view .LVU887
 3038 01dc 8902     		lsls	r1, r1, #10
 3039              	.LVL311:
 476:Drivers/STM32F0xx_HAL_Driver/Src/stm32f0xx_ll_usb.c ****     }
 3040              		.loc 1 476 7 is_stmt 0 discriminator 8 view .LVU888
 3041 01de 1180     		strh	r1, [r2]
 476:Drivers/STM32F0xx_HAL_Driver/Src/stm32f0xx_ll_usb.c ****     }
 3042              		.loc 1 476 7 is_stmt 1 discriminator 8 view .LVU889
 3043 01e0 31E7     		b	.L115
 3044              	.LVL312:
 3045              	.L116:
 476:Drivers/STM32F0xx_HAL_Driver/Src/stm32f0xx_ll_usb.c ****     }
 3046              		.loc 1 476 7 discriminator 5 view .LVU890
 476:Drivers/STM32F0xx_HAL_Driver/Src/stm32f0xx_ll_usb.c ****     }
 3047              		.loc 1 476 7 discriminator 5 view .LVU891
 3048 01e2 5909     		lsrs	r1, r3, #5
 3049              	.LVL313:
 476:Drivers/STM32F0xx_HAL_Driver/Src/stm32f0xx_ll_usb.c ****     }
 3050              		.loc 1 476 7 discriminator 5 view .LVU892
 3051 01e4 DB06     		lsls	r3, r3, #27
 3052 01e6 00D1     		bne	.L118
 3053              	.LVL314:
 476:Drivers/STM32F0xx_HAL_Driver/Src/stm32f0xx_ll_usb.c ****     }
 3054              		.loc 1 476 7 discriminator 10 view .LVU893
 3055 01e8 0139     		subs	r1, r1, #1
 3056              	.LVL315:
 3057              	.L118:
 476:Drivers/STM32F0xx_HAL_Driver/Src/stm32f0xx_ll_usb.c ****     }
 3058              		.loc 1 476 7 discriminator 12 view .LVU894
 3059 01ea 8902     		lsls	r1, r1, #10
 3060              	.LVL316:
 476:Drivers/STM32F0xx_HAL_Driver/Src/stm32f0xx_ll_usb.c ****     }
 3061              		.loc 1 476 7 is_stmt 0 discriminator 12 view .LVU895
 3062 01ec 89B2     		uxth	r1, r1
 3063 01ee 324B     		ldr	r3, .L131+8
 3064 01f0 1943     		orrs	r1, r3
 3065 01f2 1180     		strh	r1, [r2]
 3066 01f4 27E7     		b	.L115
 3067              	.LVL317:
 3068              	.L113:
 476:Drivers/STM32F0xx_HAL_Driver/Src/stm32f0xx_ll_usb.c ****     }
 3069              		.loc 1 476 7 discriminator 12 view .LVU896
 3070              	.LBE64:
 3071              	.LBE79:
 481:Drivers/STM32F0xx_HAL_Driver/Src/stm32f0xx_ll_usb.c ****     }
 3072              		.loc 1 481 7 is_stmt 1 view .LVU897
 481:Drivers/STM32F0xx_HAL_Driver/Src/stm32f0xx_ll_usb.c ****     }
 3073              		.loc 1 481 7 view .LVU898
 481:Drivers/STM32F0xx_HAL_Driver/Src/stm32f0xx_ll_usb.c ****     }
 3074              		.loc 1 481 7 view .LVU899
 3075 01f6 0029     		cmp	r1, #0
 3076 01f8 10D1     		bne	.L119
 481:Drivers/STM32F0xx_HAL_Driver/Src/stm32f0xx_ll_usb.c ****     }
ARM GAS  /tmp/ccFvwqLO.s 			page 77


 3077              		.loc 1 481 7 discriminator 1 view .LVU900
 3078              	.LBB80:
 481:Drivers/STM32F0xx_HAL_Driver/Src/stm32f0xx_ll_usb.c ****     }
 3079              		.loc 1 481 7 discriminator 1 view .LVU901
 3080              	.LVL318:
 481:Drivers/STM32F0xx_HAL_Driver/Src/stm32f0xx_ll_usb.c ****     }
 3081              		.loc 1 481 7 discriminator 1 view .LVU902
 481:Drivers/STM32F0xx_HAL_Driver/Src/stm32f0xx_ll_usb.c ****     }
 3082              		.loc 1 481 7 discriminator 1 view .LVU903
 3083 01fa 5022     		movs	r2, #80
 3084 01fc A95A     		ldrh	r1, [r5, r2]
 3085 01fe 6918     		adds	r1, r5, r1
 3086              	.LVL319:
 481:Drivers/STM32F0xx_HAL_Driver/Src/stm32f0xx_ll_usb.c ****     }
 3087              		.loc 1 481 7 discriminator 1 view .LVU904
 3088 0200 2278     		ldrb	r2, [r4]
 3089 0202 D200     		lsls	r2, r2, #3
 3090 0204 5218     		adds	r2, r2, r1
 3091 0206 2F49     		ldr	r1, .L131+20
 3092              	.LVL320:
 481:Drivers/STM32F0xx_HAL_Driver/Src/stm32f0xx_ll_usb.c ****     }
 3093              		.loc 1 481 7 is_stmt 0 discriminator 1 view .LVU905
 3094 0208 8C46     		mov	ip, r1
 3095 020a 6244     		add	r2, r2, ip
 3096              	.LVL321:
 481:Drivers/STM32F0xx_HAL_Driver/Src/stm32f0xx_ll_usb.c ****     }
 3097              		.loc 1 481 7 is_stmt 1 discriminator 1 view .LVU906
 3098              	.LBB81:
 481:Drivers/STM32F0xx_HAL_Driver/Src/stm32f0xx_ll_usb.c ****     }
 3099              		.loc 1 481 7 discriminator 1 view .LVU907
 481:Drivers/STM32F0xx_HAL_Driver/Src/stm32f0xx_ll_usb.c ****     }
 3100              		.loc 1 481 7 discriminator 1 view .LVU908
 3101 020c 002B     		cmp	r3, #0
 3102 020e 1AD1     		bne	.L120
 481:Drivers/STM32F0xx_HAL_Driver/Src/stm32f0xx_ll_usb.c ****     }
 3103              		.loc 1 481 7 discriminator 3 view .LVU909
 3104 0210 1188     		ldrh	r1, [r2]
 3105 0212 2848     		ldr	r0, .L131+4
 3106              	.LVL322:
 481:Drivers/STM32F0xx_HAL_Driver/Src/stm32f0xx_ll_usb.c ****     }
 3107              		.loc 1 481 7 is_stmt 0 discriminator 3 view .LVU910
 3108 0214 0840     		ands	r0, r1
 481:Drivers/STM32F0xx_HAL_Driver/Src/stm32f0xx_ll_usb.c ****     }
 3109              		.loc 1 481 7 is_stmt 1 discriminator 3 view .LVU911
 3110 0216 2849     		ldr	r1, .L131+8
 3111 0218 0143     		orrs	r1, r0
 3112 021a 1180     		strh	r1, [r2]
 3113              	.LVL323:
 3114              	.L119:
 481:Drivers/STM32F0xx_HAL_Driver/Src/stm32f0xx_ll_usb.c ****     }
 3115              		.loc 1 481 7 is_stmt 0 discriminator 3 view .LVU912
 3116              	.LBE81:
 3117              	.LBE80:
 481:Drivers/STM32F0xx_HAL_Driver/Src/stm32f0xx_ll_usb.c ****     }
 3118              		.loc 1 481 7 is_stmt 1 discriminator 18 view .LVU913
 481:Drivers/STM32F0xx_HAL_Driver/Src/stm32f0xx_ll_usb.c ****     }
 3119              		.loc 1 481 7 discriminator 18 view .LVU914
ARM GAS  /tmp/ccFvwqLO.s 			page 78


 481:Drivers/STM32F0xx_HAL_Driver/Src/stm32f0xx_ll_usb.c ****     }
 3120              		.loc 1 481 7 discriminator 18 view .LVU915
 3121              	.LBB83:
 481:Drivers/STM32F0xx_HAL_Driver/Src/stm32f0xx_ll_usb.c ****     }
 3122              		.loc 1 481 7 discriminator 18 view .LVU916
 481:Drivers/STM32F0xx_HAL_Driver/Src/stm32f0xx_ll_usb.c ****     }
 3123              		.loc 1 481 7 discriminator 18 view .LVU917
 481:Drivers/STM32F0xx_HAL_Driver/Src/stm32f0xx_ll_usb.c ****     }
 3124              		.loc 1 481 7 discriminator 18 view .LVU918
 3125 021c 6278     		ldrb	r2, [r4, #1]
 3126 021e 002A     		cmp	r2, #0
 3127 0220 37D1     		bne	.L124
 481:Drivers/STM32F0xx_HAL_Driver/Src/stm32f0xx_ll_usb.c ****     }
 3128              		.loc 1 481 7 discriminator 19 view .LVU919
 3129              	.LBB84:
 481:Drivers/STM32F0xx_HAL_Driver/Src/stm32f0xx_ll_usb.c ****     }
 3130              		.loc 1 481 7 discriminator 19 view .LVU920
 3131              	.LVL324:
 481:Drivers/STM32F0xx_HAL_Driver/Src/stm32f0xx_ll_usb.c ****     }
 3132              		.loc 1 481 7 discriminator 19 view .LVU921
 481:Drivers/STM32F0xx_HAL_Driver/Src/stm32f0xx_ll_usb.c ****     }
 3133              		.loc 1 481 7 discriminator 19 view .LVU922
 3134 0222 5032     		adds	r2, r2, #80
 3135 0224 A95A     		ldrh	r1, [r5, r2]
 3136 0226 6918     		adds	r1, r5, r1
 3137              	.LVL325:
 481:Drivers/STM32F0xx_HAL_Driver/Src/stm32f0xx_ll_usb.c ****     }
 3138              		.loc 1 481 7 discriminator 19 view .LVU923
 3139 0228 2278     		ldrb	r2, [r4]
 3140 022a D200     		lsls	r2, r2, #3
 3141 022c 5218     		adds	r2, r2, r1
 3142 022e 2049     		ldr	r1, .L131
 3143              	.LVL326:
 481:Drivers/STM32F0xx_HAL_Driver/Src/stm32f0xx_ll_usb.c ****     }
 3144              		.loc 1 481 7 is_stmt 0 discriminator 19 view .LVU924
 3145 0230 8C46     		mov	ip, r1
 3146 0232 6244     		add	r2, r2, ip
 3147              	.LVL327:
 481:Drivers/STM32F0xx_HAL_Driver/Src/stm32f0xx_ll_usb.c ****     }
 3148              		.loc 1 481 7 is_stmt 1 discriminator 19 view .LVU925
 3149              	.LBB85:
 481:Drivers/STM32F0xx_HAL_Driver/Src/stm32f0xx_ll_usb.c ****     }
 3150              		.loc 1 481 7 discriminator 19 view .LVU926
 481:Drivers/STM32F0xx_HAL_Driver/Src/stm32f0xx_ll_usb.c ****     }
 3151              		.loc 1 481 7 discriminator 19 view .LVU927
 3152 0234 002B     		cmp	r3, #0
 3153 0236 19D1     		bne	.L125
 481:Drivers/STM32F0xx_HAL_Driver/Src/stm32f0xx_ll_usb.c ****     }
 3154              		.loc 1 481 7 discriminator 21 view .LVU928
 3155 0238 1388     		ldrh	r3, [r2]
 3156              	.LVL328:
 481:Drivers/STM32F0xx_HAL_Driver/Src/stm32f0xx_ll_usb.c ****     }
 3157              		.loc 1 481 7 is_stmt 0 discriminator 21 view .LVU929
 3158 023a 1E49     		ldr	r1, .L131+4
 3159 023c 1940     		ands	r1, r3
 481:Drivers/STM32F0xx_HAL_Driver/Src/stm32f0xx_ll_usb.c ****     }
 3160              		.loc 1 481 7 is_stmt 1 discriminator 21 view .LVU930
ARM GAS  /tmp/ccFvwqLO.s 			page 79


 3161 023e 1E4B     		ldr	r3, .L131+8
 3162 0240 0B43     		orrs	r3, r1
 3163 0242 1380     		strh	r3, [r2]
 3164 0244 FFE6     		b	.L115
 3165              	.LVL329:
 3166              	.L120:
 481:Drivers/STM32F0xx_HAL_Driver/Src/stm32f0xx_ll_usb.c ****     }
 3167              		.loc 1 481 7 is_stmt 0 discriminator 21 view .LVU931
 3168              	.LBE85:
 3169              	.LBE84:
 3170              	.LBE83:
 3171              	.LBB88:
 3172              	.LBB82:
 481:Drivers/STM32F0xx_HAL_Driver/Src/stm32f0xx_ll_usb.c ****     }
 3173              		.loc 1 481 7 is_stmt 1 discriminator 4 view .LVU932
 3174 0246 3E2B     		cmp	r3, #62
 3175 0248 06D8     		bhi	.L121
 481:Drivers/STM32F0xx_HAL_Driver/Src/stm32f0xx_ll_usb.c ****     }
 3176              		.loc 1 481 7 discriminator 6 view .LVU933
 481:Drivers/STM32F0xx_HAL_Driver/Src/stm32f0xx_ll_usb.c ****     }
