ARM GAS  /tmp/ccWAL3vR.s 			page 1


   1              		.cpu cortex-m0
   2              		.eabi_attribute 20, 1
   3              		.eabi_attribute 21, 1
   4              		.eabi_attribute 23, 3
   5              		.eabi_attribute 24, 1
   6              		.eabi_attribute 25, 1
   7              		.eabi_attribute 26, 1
   8              		.eabi_attribute 30, 1
   9              		.eabi_attribute 34, 0
  10              		.eabi_attribute 18, 4
  11              		.file	"usbd_msc.c"
  12              		.text
  13              	.Ltext0:
  14              		.cfi_sections	.debug_frame
  15              		.section	.text.USBD_MSC_GetHSCfgDesc,"ax",%progbits
  16              		.align	1
  17              		.global	USBD_MSC_GetHSCfgDesc
  18              		.arch armv6s-m
  19              		.syntax unified
  20              		.code	16
  21              		.thumb_func
  22              		.fpu softvfp
  24              	USBD_MSC_GetHSCfgDesc:
  25              	.LVL0:
  26              	.LFB48:
  27              		.file 1 "Middlewares/ST/STM32_USB_Device_Library/Class/MSC/Src/usbd_msc.c"
   1:Middlewares/ST/STM32_USB_Device_Library/Class/MSC/Src/usbd_msc.c **** /**
   2:Middlewares/ST/STM32_USB_Device_Library/Class/MSC/Src/usbd_msc.c ****   ******************************************************************************
   3:Middlewares/ST/STM32_USB_Device_Library/Class/MSC/Src/usbd_msc.c ****   * @file    usbd_msc.c
   4:Middlewares/ST/STM32_USB_Device_Library/Class/MSC/Src/usbd_msc.c ****   * @author  MCD Application Team
   5:Middlewares/ST/STM32_USB_Device_Library/Class/MSC/Src/usbd_msc.c ****   * @brief   This file provides all the MSC core functions.
   6:Middlewares/ST/STM32_USB_Device_Library/Class/MSC/Src/usbd_msc.c ****   *
   7:Middlewares/ST/STM32_USB_Device_Library/Class/MSC/Src/usbd_msc.c ****   * @verbatim
   8:Middlewares/ST/STM32_USB_Device_Library/Class/MSC/Src/usbd_msc.c ****   *
   9:Middlewares/ST/STM32_USB_Device_Library/Class/MSC/Src/usbd_msc.c ****   *          ===================================================================
  10:Middlewares/ST/STM32_USB_Device_Library/Class/MSC/Src/usbd_msc.c ****   *                                MSC Class  Description
  11:Middlewares/ST/STM32_USB_Device_Library/Class/MSC/Src/usbd_msc.c ****   *          ===================================================================
  12:Middlewares/ST/STM32_USB_Device_Library/Class/MSC/Src/usbd_msc.c ****   *           This module manages the MSC class V1.0 following the "Universal
  13:Middlewares/ST/STM32_USB_Device_Library/Class/MSC/Src/usbd_msc.c ****   *           Serial Bus Mass Storage Class (MSC) Bulk-Only Transport (BOT) Version 1.0
  14:Middlewares/ST/STM32_USB_Device_Library/Class/MSC/Src/usbd_msc.c ****   *           Sep. 31, 1999".
  15:Middlewares/ST/STM32_USB_Device_Library/Class/MSC/Src/usbd_msc.c ****   *           This driver implements the following aspects of the specification:
  16:Middlewares/ST/STM32_USB_Device_Library/Class/MSC/Src/usbd_msc.c ****   *             - Bulk-Only Transport protocol
  17:Middlewares/ST/STM32_USB_Device_Library/Class/MSC/Src/usbd_msc.c ****   *             - Subclass : SCSI transparent command set (ref. SCSI Primary Commands - 3 (SPC-3))
  18:Middlewares/ST/STM32_USB_Device_Library/Class/MSC/Src/usbd_msc.c ****   *
  19:Middlewares/ST/STM32_USB_Device_Library/Class/MSC/Src/usbd_msc.c ****   *  @endverbatim
  20:Middlewares/ST/STM32_USB_Device_Library/Class/MSC/Src/usbd_msc.c ****   *
  21:Middlewares/ST/STM32_USB_Device_Library/Class/MSC/Src/usbd_msc.c ****   ******************************************************************************
  22:Middlewares/ST/STM32_USB_Device_Library/Class/MSC/Src/usbd_msc.c ****   * @attention
  23:Middlewares/ST/STM32_USB_Device_Library/Class/MSC/Src/usbd_msc.c ****   *
  24:Middlewares/ST/STM32_USB_Device_Library/Class/MSC/Src/usbd_msc.c ****   * <h2><center>&copy; Copyright (c) 2015 STMicroelectronics.
  25:Middlewares/ST/STM32_USB_Device_Library/Class/MSC/Src/usbd_msc.c ****   * All rights reserved.</center></h2>
  26:Middlewares/ST/STM32_USB_Device_Library/Class/MSC/Src/usbd_msc.c ****   *
  27:Middlewares/ST/STM32_USB_Device_Library/Class/MSC/Src/usbd_msc.c ****   * This software component is licensed by ST under Ultimate Liberty license
  28:Middlewares/ST/STM32_USB_Device_Library/Class/MSC/Src/usbd_msc.c ****   * SLA0044, the "License"; You may not use this file except in compliance with
  29:Middlewares/ST/STM32_USB_Device_Library/Class/MSC/Src/usbd_msc.c ****   * the License. You may obtain a copy of the License at:
  30:Middlewares/ST/STM32_USB_Device_Library/Class/MSC/Src/usbd_msc.c ****   *                      www.st.com/SLA0044
  31:Middlewares/ST/STM32_USB_Device_Library/Class/MSC/Src/usbd_msc.c ****   *
ARM GAS  /tmp/ccWAL3vR.s 			page 2


  32:Middlewares/ST/STM32_USB_Device_Library/Class/MSC/Src/usbd_msc.c ****   ******************************************************************************
  33:Middlewares/ST/STM32_USB_Device_Library/Class/MSC/Src/usbd_msc.c ****   */
  34:Middlewares/ST/STM32_USB_Device_Library/Class/MSC/Src/usbd_msc.c **** 
  35:Middlewares/ST/STM32_USB_Device_Library/Class/MSC/Src/usbd_msc.c **** /* BSPDependencies
  36:Middlewares/ST/STM32_USB_Device_Library/Class/MSC/Src/usbd_msc.c **** - "stm32xxxxx_{eval}{discovery}{nucleo_144}.c"
  37:Middlewares/ST/STM32_USB_Device_Library/Class/MSC/Src/usbd_msc.c **** - "stm32xxxxx_{eval}{discovery}_io.c"
  38:Middlewares/ST/STM32_USB_Device_Library/Class/MSC/Src/usbd_msc.c **** - "stm32xxxxx_{eval}{discovery}{adafruit}_sd.c"
  39:Middlewares/ST/STM32_USB_Device_Library/Class/MSC/Src/usbd_msc.c **** EndBSPDependencies */
  40:Middlewares/ST/STM32_USB_Device_Library/Class/MSC/Src/usbd_msc.c **** 
  41:Middlewares/ST/STM32_USB_Device_Library/Class/MSC/Src/usbd_msc.c **** /* Includes ------------------------------------------------------------------*/
  42:Middlewares/ST/STM32_USB_Device_Library/Class/MSC/Src/usbd_msc.c **** #include "usbd_msc.h"
  43:Middlewares/ST/STM32_USB_Device_Library/Class/MSC/Src/usbd_msc.c **** 
  44:Middlewares/ST/STM32_USB_Device_Library/Class/MSC/Src/usbd_msc.c **** 
  45:Middlewares/ST/STM32_USB_Device_Library/Class/MSC/Src/usbd_msc.c **** /** @addtogroup STM32_USB_DEVICE_LIBRARY
  46:Middlewares/ST/STM32_USB_Device_Library/Class/MSC/Src/usbd_msc.c ****   * @{
  47:Middlewares/ST/STM32_USB_Device_Library/Class/MSC/Src/usbd_msc.c ****   */
  48:Middlewares/ST/STM32_USB_Device_Library/Class/MSC/Src/usbd_msc.c **** 
  49:Middlewares/ST/STM32_USB_Device_Library/Class/MSC/Src/usbd_msc.c **** 
  50:Middlewares/ST/STM32_USB_Device_Library/Class/MSC/Src/usbd_msc.c **** /** @defgroup MSC_CORE
  51:Middlewares/ST/STM32_USB_Device_Library/Class/MSC/Src/usbd_msc.c ****   * @brief Mass storage core module
  52:Middlewares/ST/STM32_USB_Device_Library/Class/MSC/Src/usbd_msc.c ****   * @{
  53:Middlewares/ST/STM32_USB_Device_Library/Class/MSC/Src/usbd_msc.c ****   */
  54:Middlewares/ST/STM32_USB_Device_Library/Class/MSC/Src/usbd_msc.c **** 
  55:Middlewares/ST/STM32_USB_Device_Library/Class/MSC/Src/usbd_msc.c **** /** @defgroup MSC_CORE_Private_TypesDefinitions
  56:Middlewares/ST/STM32_USB_Device_Library/Class/MSC/Src/usbd_msc.c ****   * @{
  57:Middlewares/ST/STM32_USB_Device_Library/Class/MSC/Src/usbd_msc.c ****   */
  58:Middlewares/ST/STM32_USB_Device_Library/Class/MSC/Src/usbd_msc.c **** /**
  59:Middlewares/ST/STM32_USB_Device_Library/Class/MSC/Src/usbd_msc.c ****   * @}
  60:Middlewares/ST/STM32_USB_Device_Library/Class/MSC/Src/usbd_msc.c ****   */
  61:Middlewares/ST/STM32_USB_Device_Library/Class/MSC/Src/usbd_msc.c **** 
  62:Middlewares/ST/STM32_USB_Device_Library/Class/MSC/Src/usbd_msc.c **** 
  63:Middlewares/ST/STM32_USB_Device_Library/Class/MSC/Src/usbd_msc.c **** /** @defgroup MSC_CORE_Private_Defines
  64:Middlewares/ST/STM32_USB_Device_Library/Class/MSC/Src/usbd_msc.c ****   * @{
  65:Middlewares/ST/STM32_USB_Device_Library/Class/MSC/Src/usbd_msc.c ****   */
  66:Middlewares/ST/STM32_USB_Device_Library/Class/MSC/Src/usbd_msc.c **** 
  67:Middlewares/ST/STM32_USB_Device_Library/Class/MSC/Src/usbd_msc.c **** /**
  68:Middlewares/ST/STM32_USB_Device_Library/Class/MSC/Src/usbd_msc.c ****   * @}
  69:Middlewares/ST/STM32_USB_Device_Library/Class/MSC/Src/usbd_msc.c ****   */
  70:Middlewares/ST/STM32_USB_Device_Library/Class/MSC/Src/usbd_msc.c **** 
  71:Middlewares/ST/STM32_USB_Device_Library/Class/MSC/Src/usbd_msc.c **** 
  72:Middlewares/ST/STM32_USB_Device_Library/Class/MSC/Src/usbd_msc.c **** /** @defgroup MSC_CORE_Private_Macros
  73:Middlewares/ST/STM32_USB_Device_Library/Class/MSC/Src/usbd_msc.c ****   * @{
  74:Middlewares/ST/STM32_USB_Device_Library/Class/MSC/Src/usbd_msc.c ****   */
  75:Middlewares/ST/STM32_USB_Device_Library/Class/MSC/Src/usbd_msc.c **** /**
  76:Middlewares/ST/STM32_USB_Device_Library/Class/MSC/Src/usbd_msc.c ****   * @}
  77:Middlewares/ST/STM32_USB_Device_Library/Class/MSC/Src/usbd_msc.c ****   */
  78:Middlewares/ST/STM32_USB_Device_Library/Class/MSC/Src/usbd_msc.c **** 
  79:Middlewares/ST/STM32_USB_Device_Library/Class/MSC/Src/usbd_msc.c **** 
  80:Middlewares/ST/STM32_USB_Device_Library/Class/MSC/Src/usbd_msc.c **** /** @defgroup MSC_CORE_Private_FunctionPrototypes
  81:Middlewares/ST/STM32_USB_Device_Library/Class/MSC/Src/usbd_msc.c ****   * @{
  82:Middlewares/ST/STM32_USB_Device_Library/Class/MSC/Src/usbd_msc.c ****   */
  83:Middlewares/ST/STM32_USB_Device_Library/Class/MSC/Src/usbd_msc.c **** uint8_t  USBD_MSC_Init(USBD_HandleTypeDef *pdev, uint8_t cfgidx);
  84:Middlewares/ST/STM32_USB_Device_Library/Class/MSC/Src/usbd_msc.c **** uint8_t  USBD_MSC_DeInit(USBD_HandleTypeDef *pdev, uint8_t cfgidx);
  85:Middlewares/ST/STM32_USB_Device_Library/Class/MSC/Src/usbd_msc.c **** uint8_t  USBD_MSC_Setup(USBD_HandleTypeDef *pdev, USBD_SetupReqTypedef *req);
  86:Middlewares/ST/STM32_USB_Device_Library/Class/MSC/Src/usbd_msc.c **** uint8_t  USBD_MSC_DataIn(USBD_HandleTypeDef *pdev, uint8_t epnum);
  87:Middlewares/ST/STM32_USB_Device_Library/Class/MSC/Src/usbd_msc.c **** uint8_t  USBD_MSC_DataOut(USBD_HandleTypeDef *pdev, uint8_t epnum);
  88:Middlewares/ST/STM32_USB_Device_Library/Class/MSC/Src/usbd_msc.c **** 
ARM GAS  /tmp/ccWAL3vR.s 			page 3


  89:Middlewares/ST/STM32_USB_Device_Library/Class/MSC/Src/usbd_msc.c **** uint8_t  *USBD_MSC_GetHSCfgDesc(uint16_t *length);
  90:Middlewares/ST/STM32_USB_Device_Library/Class/MSC/Src/usbd_msc.c **** uint8_t  *USBD_MSC_GetFSCfgDesc(uint16_t *length);
  91:Middlewares/ST/STM32_USB_Device_Library/Class/MSC/Src/usbd_msc.c **** uint8_t  *USBD_MSC_GetOtherSpeedCfgDesc(uint16_t *length);
  92:Middlewares/ST/STM32_USB_Device_Library/Class/MSC/Src/usbd_msc.c **** uint8_t  *USBD_MSC_GetDeviceQualifierDescriptor(uint16_t *length);
  93:Middlewares/ST/STM32_USB_Device_Library/Class/MSC/Src/usbd_msc.c **** 
  94:Middlewares/ST/STM32_USB_Device_Library/Class/MSC/Src/usbd_msc.c **** /**
  95:Middlewares/ST/STM32_USB_Device_Library/Class/MSC/Src/usbd_msc.c ****   * @}
  96:Middlewares/ST/STM32_USB_Device_Library/Class/MSC/Src/usbd_msc.c ****   */
  97:Middlewares/ST/STM32_USB_Device_Library/Class/MSC/Src/usbd_msc.c **** 
  98:Middlewares/ST/STM32_USB_Device_Library/Class/MSC/Src/usbd_msc.c **** 
  99:Middlewares/ST/STM32_USB_Device_Library/Class/MSC/Src/usbd_msc.c **** /** @defgroup MSC_CORE_Private_Variables
 100:Middlewares/ST/STM32_USB_Device_Library/Class/MSC/Src/usbd_msc.c ****   * @{
 101:Middlewares/ST/STM32_USB_Device_Library/Class/MSC/Src/usbd_msc.c ****   */
 102:Middlewares/ST/STM32_USB_Device_Library/Class/MSC/Src/usbd_msc.c **** 
 103:Middlewares/ST/STM32_USB_Device_Library/Class/MSC/Src/usbd_msc.c **** 
 104:Middlewares/ST/STM32_USB_Device_Library/Class/MSC/Src/usbd_msc.c **** USBD_ClassTypeDef  USBD_MSC =
 105:Middlewares/ST/STM32_USB_Device_Library/Class/MSC/Src/usbd_msc.c **** {
 106:Middlewares/ST/STM32_USB_Device_Library/Class/MSC/Src/usbd_msc.c ****   USBD_MSC_Init,
 107:Middlewares/ST/STM32_USB_Device_Library/Class/MSC/Src/usbd_msc.c ****   USBD_MSC_DeInit,
 108:Middlewares/ST/STM32_USB_Device_Library/Class/MSC/Src/usbd_msc.c ****   USBD_MSC_Setup,
 109:Middlewares/ST/STM32_USB_Device_Library/Class/MSC/Src/usbd_msc.c ****   NULL, /*EP0_TxSent*/
 110:Middlewares/ST/STM32_USB_Device_Library/Class/MSC/Src/usbd_msc.c ****   NULL, /*EP0_RxReady*/
 111:Middlewares/ST/STM32_USB_Device_Library/Class/MSC/Src/usbd_msc.c ****   USBD_MSC_DataIn,
 112:Middlewares/ST/STM32_USB_Device_Library/Class/MSC/Src/usbd_msc.c ****   USBD_MSC_DataOut,
 113:Middlewares/ST/STM32_USB_Device_Library/Class/MSC/Src/usbd_msc.c ****   NULL, /*SOF */
 114:Middlewares/ST/STM32_USB_Device_Library/Class/MSC/Src/usbd_msc.c ****   NULL,
 115:Middlewares/ST/STM32_USB_Device_Library/Class/MSC/Src/usbd_msc.c ****   NULL,
 116:Middlewares/ST/STM32_USB_Device_Library/Class/MSC/Src/usbd_msc.c ****   USBD_MSC_GetHSCfgDesc,
 117:Middlewares/ST/STM32_USB_Device_Library/Class/MSC/Src/usbd_msc.c ****   USBD_MSC_GetFSCfgDesc,
 118:Middlewares/ST/STM32_USB_Device_Library/Class/MSC/Src/usbd_msc.c ****   USBD_MSC_GetOtherSpeedCfgDesc,
 119:Middlewares/ST/STM32_USB_Device_Library/Class/MSC/Src/usbd_msc.c ****   USBD_MSC_GetDeviceQualifierDescriptor,
 120:Middlewares/ST/STM32_USB_Device_Library/Class/MSC/Src/usbd_msc.c **** };
 121:Middlewares/ST/STM32_USB_Device_Library/Class/MSC/Src/usbd_msc.c **** 
 122:Middlewares/ST/STM32_USB_Device_Library/Class/MSC/Src/usbd_msc.c **** /* USB Mass storage device Configuration Descriptor */
 123:Middlewares/ST/STM32_USB_Device_Library/Class/MSC/Src/usbd_msc.c **** /*   All Descriptors (Configuration, Interface, Endpoint, Class, Vendor */
 124:Middlewares/ST/STM32_USB_Device_Library/Class/MSC/Src/usbd_msc.c **** __ALIGN_BEGIN uint8_t USBD_MSC_CfgHSDesc[USB_MSC_CONFIG_DESC_SIZ]  __ALIGN_END =
 125:Middlewares/ST/STM32_USB_Device_Library/Class/MSC/Src/usbd_msc.c **** {
 126:Middlewares/ST/STM32_USB_Device_Library/Class/MSC/Src/usbd_msc.c **** 
 127:Middlewares/ST/STM32_USB_Device_Library/Class/MSC/Src/usbd_msc.c ****   0x09,   /* bLength: Configuation Descriptor size */
 128:Middlewares/ST/STM32_USB_Device_Library/Class/MSC/Src/usbd_msc.c ****   USB_DESC_TYPE_CONFIGURATION,   /* bDescriptorType: Configuration */
 129:Middlewares/ST/STM32_USB_Device_Library/Class/MSC/Src/usbd_msc.c ****   USB_MSC_CONFIG_DESC_SIZ,
 130:Middlewares/ST/STM32_USB_Device_Library/Class/MSC/Src/usbd_msc.c **** 
 131:Middlewares/ST/STM32_USB_Device_Library/Class/MSC/Src/usbd_msc.c ****   0x00,
 132:Middlewares/ST/STM32_USB_Device_Library/Class/MSC/Src/usbd_msc.c ****   0x01,   /* bNumInterfaces: 1 interface */
 133:Middlewares/ST/STM32_USB_Device_Library/Class/MSC/Src/usbd_msc.c ****   0x01,   /* bConfigurationValue: */
 134:Middlewares/ST/STM32_USB_Device_Library/Class/MSC/Src/usbd_msc.c ****   0x04,   /* iConfiguration: */
 135:Middlewares/ST/STM32_USB_Device_Library/Class/MSC/Src/usbd_msc.c ****   0xC0,   /* bmAttributes: */
 136:Middlewares/ST/STM32_USB_Device_Library/Class/MSC/Src/usbd_msc.c ****   0x32,   /* MaxPower 100 mA */
 137:Middlewares/ST/STM32_USB_Device_Library/Class/MSC/Src/usbd_msc.c **** 
 138:Middlewares/ST/STM32_USB_Device_Library/Class/MSC/Src/usbd_msc.c ****   /********************  Mass Storage interface ********************/
 139:Middlewares/ST/STM32_USB_Device_Library/Class/MSC/Src/usbd_msc.c ****   0x09,   /* bLength: Interface Descriptor size */
 140:Middlewares/ST/STM32_USB_Device_Library/Class/MSC/Src/usbd_msc.c ****   0x04,   /* bDescriptorType: */
 141:Middlewares/ST/STM32_USB_Device_Library/Class/MSC/Src/usbd_msc.c ****   0x00,   /* bInterfaceNumber: Number of Interface */
 142:Middlewares/ST/STM32_USB_Device_Library/Class/MSC/Src/usbd_msc.c ****   0x00,   /* bAlternateSetting: Alternate setting */
 143:Middlewares/ST/STM32_USB_Device_Library/Class/MSC/Src/usbd_msc.c ****   0x02,   /* bNumEndpoints*/
 144:Middlewares/ST/STM32_USB_Device_Library/Class/MSC/Src/usbd_msc.c ****   0x08,   /* bInterfaceClass: MSC Class */
 145:Middlewares/ST/STM32_USB_Device_Library/Class/MSC/Src/usbd_msc.c ****   0x06,   /* bInterfaceSubClass : SCSI transparent*/
ARM GAS  /tmp/ccWAL3vR.s 			page 4


 146:Middlewares/ST/STM32_USB_Device_Library/Class/MSC/Src/usbd_msc.c ****   0x50,   /* nInterfaceProtocol */
 147:Middlewares/ST/STM32_USB_Device_Library/Class/MSC/Src/usbd_msc.c ****   0x05,          /* iInterface: */
 148:Middlewares/ST/STM32_USB_Device_Library/Class/MSC/Src/usbd_msc.c ****   /********************  Mass Storage Endpoints ********************/
 149:Middlewares/ST/STM32_USB_Device_Library/Class/MSC/Src/usbd_msc.c ****   0x07,   /*Endpoint descriptor length = 7*/
 150:Middlewares/ST/STM32_USB_Device_Library/Class/MSC/Src/usbd_msc.c ****   0x05,   /*Endpoint descriptor type */
 151:Middlewares/ST/STM32_USB_Device_Library/Class/MSC/Src/usbd_msc.c ****   MSC_EPIN_ADDR,   /*Endpoint address (IN, address 1) */
 152:Middlewares/ST/STM32_USB_Device_Library/Class/MSC/Src/usbd_msc.c ****   0x02,   /*Bulk endpoint type */
 153:Middlewares/ST/STM32_USB_Device_Library/Class/MSC/Src/usbd_msc.c ****   LOBYTE(MSC_MAX_HS_PACKET),
 154:Middlewares/ST/STM32_USB_Device_Library/Class/MSC/Src/usbd_msc.c ****   HIBYTE(MSC_MAX_HS_PACKET),
 155:Middlewares/ST/STM32_USB_Device_Library/Class/MSC/Src/usbd_msc.c ****   0x00,   /*Polling interval in milliseconds */
 156:Middlewares/ST/STM32_USB_Device_Library/Class/MSC/Src/usbd_msc.c **** 
 157:Middlewares/ST/STM32_USB_Device_Library/Class/MSC/Src/usbd_msc.c ****   0x07,   /*Endpoint descriptor length = 7 */
 158:Middlewares/ST/STM32_USB_Device_Library/Class/MSC/Src/usbd_msc.c ****   0x05,   /*Endpoint descriptor type */
 159:Middlewares/ST/STM32_USB_Device_Library/Class/MSC/Src/usbd_msc.c ****   MSC_EPOUT_ADDR,   /*Endpoint address (OUT, address 1) */
 160:Middlewares/ST/STM32_USB_Device_Library/Class/MSC/Src/usbd_msc.c ****   0x02,   /*Bulk endpoint type */
 161:Middlewares/ST/STM32_USB_Device_Library/Class/MSC/Src/usbd_msc.c ****   LOBYTE(MSC_MAX_HS_PACKET),
 162:Middlewares/ST/STM32_USB_Device_Library/Class/MSC/Src/usbd_msc.c ****   HIBYTE(MSC_MAX_HS_PACKET),
 163:Middlewares/ST/STM32_USB_Device_Library/Class/MSC/Src/usbd_msc.c ****   0x00     /*Polling interval in milliseconds*/
 164:Middlewares/ST/STM32_USB_Device_Library/Class/MSC/Src/usbd_msc.c **** };
 165:Middlewares/ST/STM32_USB_Device_Library/Class/MSC/Src/usbd_msc.c **** 
 166:Middlewares/ST/STM32_USB_Device_Library/Class/MSC/Src/usbd_msc.c **** /* USB Mass storage device Configuration Descriptor */
 167:Middlewares/ST/STM32_USB_Device_Library/Class/MSC/Src/usbd_msc.c **** /*   All Descriptors (Configuration, Interface, Endpoint, Class, Vendor */
 168:Middlewares/ST/STM32_USB_Device_Library/Class/MSC/Src/usbd_msc.c **** __ALIGN_BEGIN uint8_t USBD_MSC_CfgFSDesc[USB_MSC_CONFIG_DESC_SIZ]  __ALIGN_END =
 169:Middlewares/ST/STM32_USB_Device_Library/Class/MSC/Src/usbd_msc.c **** {
 170:Middlewares/ST/STM32_USB_Device_Library/Class/MSC/Src/usbd_msc.c ****   0x09,   /* bLength: Configuation Descriptor size */
 171:Middlewares/ST/STM32_USB_Device_Library/Class/MSC/Src/usbd_msc.c ****   USB_DESC_TYPE_CONFIGURATION,   /* bDescriptorType: Configuration */
 172:Middlewares/ST/STM32_USB_Device_Library/Class/MSC/Src/usbd_msc.c ****   USB_MSC_CONFIG_DESC_SIZ,
 173:Middlewares/ST/STM32_USB_Device_Library/Class/MSC/Src/usbd_msc.c **** 
 174:Middlewares/ST/STM32_USB_Device_Library/Class/MSC/Src/usbd_msc.c ****   0x00,
 175:Middlewares/ST/STM32_USB_Device_Library/Class/MSC/Src/usbd_msc.c ****   0x01,   /* bNumInterfaces: 1 interface */
 176:Middlewares/ST/STM32_USB_Device_Library/Class/MSC/Src/usbd_msc.c ****   0x01,   /* bConfigurationValue: */
 177:Middlewares/ST/STM32_USB_Device_Library/Class/MSC/Src/usbd_msc.c ****   0x04,   /* iConfiguration: */
 178:Middlewares/ST/STM32_USB_Device_Library/Class/MSC/Src/usbd_msc.c ****   0xC0,   /* bmAttributes: */
 179:Middlewares/ST/STM32_USB_Device_Library/Class/MSC/Src/usbd_msc.c ****   0x32,   /* MaxPower 100 mA */
 180:Middlewares/ST/STM32_USB_Device_Library/Class/MSC/Src/usbd_msc.c **** 
 181:Middlewares/ST/STM32_USB_Device_Library/Class/MSC/Src/usbd_msc.c ****   /********************  Mass Storage interface ********************/
 182:Middlewares/ST/STM32_USB_Device_Library/Class/MSC/Src/usbd_msc.c ****   0x09,   /* bLength: Interface Descriptor size */
 183:Middlewares/ST/STM32_USB_Device_Library/Class/MSC/Src/usbd_msc.c ****   0x04,   /* bDescriptorType: */
 184:Middlewares/ST/STM32_USB_Device_Library/Class/MSC/Src/usbd_msc.c ****   0x00,   /* bInterfaceNumber: Number of Interface */
 185:Middlewares/ST/STM32_USB_Device_Library/Class/MSC/Src/usbd_msc.c ****   0x00,   /* bAlternateSetting: Alternate setting */
 186:Middlewares/ST/STM32_USB_Device_Library/Class/MSC/Src/usbd_msc.c ****   0x02,   /* bNumEndpoints*/
 187:Middlewares/ST/STM32_USB_Device_Library/Class/MSC/Src/usbd_msc.c ****   0x08,   /* bInterfaceClass: MSC Class */
 188:Middlewares/ST/STM32_USB_Device_Library/Class/MSC/Src/usbd_msc.c ****   0x06,   /* bInterfaceSubClass : SCSI transparent*/
 189:Middlewares/ST/STM32_USB_Device_Library/Class/MSC/Src/usbd_msc.c ****   0x50,   /* nInterfaceProtocol */
 190:Middlewares/ST/STM32_USB_Device_Library/Class/MSC/Src/usbd_msc.c ****   0x05,          /* iInterface: */
 191:Middlewares/ST/STM32_USB_Device_Library/Class/MSC/Src/usbd_msc.c ****   /********************  Mass Storage Endpoints ********************/
 192:Middlewares/ST/STM32_USB_Device_Library/Class/MSC/Src/usbd_msc.c ****   0x07,   /*Endpoint descriptor length = 7*/
 193:Middlewares/ST/STM32_USB_Device_Library/Class/MSC/Src/usbd_msc.c ****   0x05,   /*Endpoint descriptor type */
 194:Middlewares/ST/STM32_USB_Device_Library/Class/MSC/Src/usbd_msc.c ****   MSC_EPIN_ADDR,   /*Endpoint address (IN, address 1) */
 195:Middlewares/ST/STM32_USB_Device_Library/Class/MSC/Src/usbd_msc.c ****   0x02,   /*Bulk endpoint type */
 196:Middlewares/ST/STM32_USB_Device_Library/Class/MSC/Src/usbd_msc.c ****   LOBYTE(MSC_MAX_FS_PACKET),
 197:Middlewares/ST/STM32_USB_Device_Library/Class/MSC/Src/usbd_msc.c ****   HIBYTE(MSC_MAX_FS_PACKET),
 198:Middlewares/ST/STM32_USB_Device_Library/Class/MSC/Src/usbd_msc.c ****   0x00,   /*Polling interval in milliseconds */
 199:Middlewares/ST/STM32_USB_Device_Library/Class/MSC/Src/usbd_msc.c **** 
 200:Middlewares/ST/STM32_USB_Device_Library/Class/MSC/Src/usbd_msc.c ****   0x07,   /*Endpoint descriptor length = 7 */
 201:Middlewares/ST/STM32_USB_Device_Library/Class/MSC/Src/usbd_msc.c ****   0x05,   /*Endpoint descriptor type */
 202:Middlewares/ST/STM32_USB_Device_Library/Class/MSC/Src/usbd_msc.c ****   MSC_EPOUT_ADDR,   /*Endpoint address (OUT, address 1) */
ARM GAS  /tmp/ccWAL3vR.s 			page 5


 203:Middlewares/ST/STM32_USB_Device_Library/Class/MSC/Src/usbd_msc.c ****   0x02,   /*Bulk endpoint type */
 204:Middlewares/ST/STM32_USB_Device_Library/Class/MSC/Src/usbd_msc.c ****   LOBYTE(MSC_MAX_FS_PACKET),
 205:Middlewares/ST/STM32_USB_Device_Library/Class/MSC/Src/usbd_msc.c ****   HIBYTE(MSC_MAX_FS_PACKET),
 206:Middlewares/ST/STM32_USB_Device_Library/Class/MSC/Src/usbd_msc.c ****   0x00     /*Polling interval in milliseconds*/
 207:Middlewares/ST/STM32_USB_Device_Library/Class/MSC/Src/usbd_msc.c **** };
 208:Middlewares/ST/STM32_USB_Device_Library/Class/MSC/Src/usbd_msc.c **** 
 209:Middlewares/ST/STM32_USB_Device_Library/Class/MSC/Src/usbd_msc.c **** __ALIGN_BEGIN uint8_t USBD_MSC_OtherSpeedCfgDesc[USB_MSC_CONFIG_DESC_SIZ]   __ALIGN_END  =
 210:Middlewares/ST/STM32_USB_Device_Library/Class/MSC/Src/usbd_msc.c **** {
 211:Middlewares/ST/STM32_USB_Device_Library/Class/MSC/Src/usbd_msc.c ****   0x09,   /* bLength: Configuation Descriptor size */
 212:Middlewares/ST/STM32_USB_Device_Library/Class/MSC/Src/usbd_msc.c ****   USB_DESC_TYPE_OTHER_SPEED_CONFIGURATION,
 213:Middlewares/ST/STM32_USB_Device_Library/Class/MSC/Src/usbd_msc.c ****   USB_MSC_CONFIG_DESC_SIZ,
 214:Middlewares/ST/STM32_USB_Device_Library/Class/MSC/Src/usbd_msc.c **** 
 215:Middlewares/ST/STM32_USB_Device_Library/Class/MSC/Src/usbd_msc.c ****   0x00,
 216:Middlewares/ST/STM32_USB_Device_Library/Class/MSC/Src/usbd_msc.c ****   0x01,   /* bNumInterfaces: 1 interface */
 217:Middlewares/ST/STM32_USB_Device_Library/Class/MSC/Src/usbd_msc.c ****   0x01,   /* bConfigurationValue: */
 218:Middlewares/ST/STM32_USB_Device_Library/Class/MSC/Src/usbd_msc.c ****   0x04,   /* iConfiguration: */
 219:Middlewares/ST/STM32_USB_Device_Library/Class/MSC/Src/usbd_msc.c ****   0xC0,   /* bmAttributes: */
 220:Middlewares/ST/STM32_USB_Device_Library/Class/MSC/Src/usbd_msc.c ****   0x32,   /* MaxPower 100 mA */
 221:Middlewares/ST/STM32_USB_Device_Library/Class/MSC/Src/usbd_msc.c **** 
 222:Middlewares/ST/STM32_USB_Device_Library/Class/MSC/Src/usbd_msc.c ****   /********************  Mass Storage interface ********************/
 223:Middlewares/ST/STM32_USB_Device_Library/Class/MSC/Src/usbd_msc.c ****   0x09,   /* bLength: Interface Descriptor size */
 224:Middlewares/ST/STM32_USB_Device_Library/Class/MSC/Src/usbd_msc.c ****   0x04,   /* bDescriptorType: */
 225:Middlewares/ST/STM32_USB_Device_Library/Class/MSC/Src/usbd_msc.c ****   0x00,   /* bInterfaceNumber: Number of Interface */
 226:Middlewares/ST/STM32_USB_Device_Library/Class/MSC/Src/usbd_msc.c ****   0x00,   /* bAlternateSetting: Alternate setting */
 227:Middlewares/ST/STM32_USB_Device_Library/Class/MSC/Src/usbd_msc.c ****   0x02,   /* bNumEndpoints*/
 228:Middlewares/ST/STM32_USB_Device_Library/Class/MSC/Src/usbd_msc.c ****   0x08,   /* bInterfaceClass: MSC Class */
 229:Middlewares/ST/STM32_USB_Device_Library/Class/MSC/Src/usbd_msc.c ****   0x06,   /* bInterfaceSubClass : SCSI transparent command set*/
 230:Middlewares/ST/STM32_USB_Device_Library/Class/MSC/Src/usbd_msc.c ****   0x50,   /* nInterfaceProtocol */
 231:Middlewares/ST/STM32_USB_Device_Library/Class/MSC/Src/usbd_msc.c ****   0x05,          /* iInterface: */
 232:Middlewares/ST/STM32_USB_Device_Library/Class/MSC/Src/usbd_msc.c ****   /********************  Mass Storage Endpoints ********************/
 233:Middlewares/ST/STM32_USB_Device_Library/Class/MSC/Src/usbd_msc.c ****   0x07,   /*Endpoint descriptor length = 7*/
 234:Middlewares/ST/STM32_USB_Device_Library/Class/MSC/Src/usbd_msc.c ****   0x05,   /*Endpoint descriptor type */
 235:Middlewares/ST/STM32_USB_Device_Library/Class/MSC/Src/usbd_msc.c ****   MSC_EPIN_ADDR,   /*Endpoint address (IN, address 1) */
 236:Middlewares/ST/STM32_USB_Device_Library/Class/MSC/Src/usbd_msc.c ****   0x02,   /*Bulk endpoint type */
 237:Middlewares/ST/STM32_USB_Device_Library/Class/MSC/Src/usbd_msc.c ****   0x40,
 238:Middlewares/ST/STM32_USB_Device_Library/Class/MSC/Src/usbd_msc.c ****   0x00,
 239:Middlewares/ST/STM32_USB_Device_Library/Class/MSC/Src/usbd_msc.c ****   0x00,   /*Polling interval in milliseconds */
 240:Middlewares/ST/STM32_USB_Device_Library/Class/MSC/Src/usbd_msc.c **** 
 241:Middlewares/ST/STM32_USB_Device_Library/Class/MSC/Src/usbd_msc.c ****   0x07,   /*Endpoint descriptor length = 7 */
 242:Middlewares/ST/STM32_USB_Device_Library/Class/MSC/Src/usbd_msc.c ****   0x05,   /*Endpoint descriptor type */
 243:Middlewares/ST/STM32_USB_Device_Library/Class/MSC/Src/usbd_msc.c ****   MSC_EPOUT_ADDR,   /*Endpoint address (OUT, address 1) */
 244:Middlewares/ST/STM32_USB_Device_Library/Class/MSC/Src/usbd_msc.c ****   0x02,   /*Bulk endpoint type */
 245:Middlewares/ST/STM32_USB_Device_Library/Class/MSC/Src/usbd_msc.c ****   0x40,
 246:Middlewares/ST/STM32_USB_Device_Library/Class/MSC/Src/usbd_msc.c ****   0x00,
 247:Middlewares/ST/STM32_USB_Device_Library/Class/MSC/Src/usbd_msc.c ****   0x00     /*Polling interval in milliseconds*/
 248:Middlewares/ST/STM32_USB_Device_Library/Class/MSC/Src/usbd_msc.c **** };
 249:Middlewares/ST/STM32_USB_Device_Library/Class/MSC/Src/usbd_msc.c **** 
 250:Middlewares/ST/STM32_USB_Device_Library/Class/MSC/Src/usbd_msc.c **** /* USB Standard Device Descriptor */
 251:Middlewares/ST/STM32_USB_Device_Library/Class/MSC/Src/usbd_msc.c **** __ALIGN_BEGIN  uint8_t USBD_MSC_DeviceQualifierDesc[USB_LEN_DEV_QUALIFIER_DESC]  __ALIGN_END =
 252:Middlewares/ST/STM32_USB_Device_Library/Class/MSC/Src/usbd_msc.c **** {
 253:Middlewares/ST/STM32_USB_Device_Library/Class/MSC/Src/usbd_msc.c ****   USB_LEN_DEV_QUALIFIER_DESC,
 254:Middlewares/ST/STM32_USB_Device_Library/Class/MSC/Src/usbd_msc.c ****   USB_DESC_TYPE_DEVICE_QUALIFIER,
 255:Middlewares/ST/STM32_USB_Device_Library/Class/MSC/Src/usbd_msc.c ****   0x00,
 256:Middlewares/ST/STM32_USB_Device_Library/Class/MSC/Src/usbd_msc.c ****   0x02,
 257:Middlewares/ST/STM32_USB_Device_Library/Class/MSC/Src/usbd_msc.c ****   0x00,
 258:Middlewares/ST/STM32_USB_Device_Library/Class/MSC/Src/usbd_msc.c ****   0x00,
 259:Middlewares/ST/STM32_USB_Device_Library/Class/MSC/Src/usbd_msc.c ****   0x00,
ARM GAS  /tmp/ccWAL3vR.s 			page 6


 260:Middlewares/ST/STM32_USB_Device_Library/Class/MSC/Src/usbd_msc.c ****   MSC_MAX_FS_PACKET,
 261:Middlewares/ST/STM32_USB_Device_Library/Class/MSC/Src/usbd_msc.c ****   0x01,
 262:Middlewares/ST/STM32_USB_Device_Library/Class/MSC/Src/usbd_msc.c ****   0x00,
 263:Middlewares/ST/STM32_USB_Device_Library/Class/MSC/Src/usbd_msc.c **** };
 264:Middlewares/ST/STM32_USB_Device_Library/Class/MSC/Src/usbd_msc.c **** /**
 265:Middlewares/ST/STM32_USB_Device_Library/Class/MSC/Src/usbd_msc.c ****   * @}
 266:Middlewares/ST/STM32_USB_Device_Library/Class/MSC/Src/usbd_msc.c ****   */
 267:Middlewares/ST/STM32_USB_Device_Library/Class/MSC/Src/usbd_msc.c **** 
 268:Middlewares/ST/STM32_USB_Device_Library/Class/MSC/Src/usbd_msc.c **** 
 269:Middlewares/ST/STM32_USB_Device_Library/Class/MSC/Src/usbd_msc.c **** /** @defgroup MSC_CORE_Private_Functions
 270:Middlewares/ST/STM32_USB_Device_Library/Class/MSC/Src/usbd_msc.c ****   * @{
 271:Middlewares/ST/STM32_USB_Device_Library/Class/MSC/Src/usbd_msc.c ****   */
 272:Middlewares/ST/STM32_USB_Device_Library/Class/MSC/Src/usbd_msc.c **** 
 273:Middlewares/ST/STM32_USB_Device_Library/Class/MSC/Src/usbd_msc.c **** /**
 274:Middlewares/ST/STM32_USB_Device_Library/Class/MSC/Src/usbd_msc.c ****   * @brief  USBD_MSC_Init
 275:Middlewares/ST/STM32_USB_Device_Library/Class/MSC/Src/usbd_msc.c ****   *         Initialize  the mass storage configuration
 276:Middlewares/ST/STM32_USB_Device_Library/Class/MSC/Src/usbd_msc.c ****   * @param  pdev: device instance
 277:Middlewares/ST/STM32_USB_Device_Library/Class/MSC/Src/usbd_msc.c ****   * @param  cfgidx: configuration index
 278:Middlewares/ST/STM32_USB_Device_Library/Class/MSC/Src/usbd_msc.c ****   * @retval status
 279:Middlewares/ST/STM32_USB_Device_Library/Class/MSC/Src/usbd_msc.c ****   */
 280:Middlewares/ST/STM32_USB_Device_Library/Class/MSC/Src/usbd_msc.c **** uint8_t USBD_MSC_Init(USBD_HandleTypeDef *pdev, uint8_t cfgidx)
 281:Middlewares/ST/STM32_USB_Device_Library/Class/MSC/Src/usbd_msc.c **** {
 282:Middlewares/ST/STM32_USB_Device_Library/Class/MSC/Src/usbd_msc.c ****   if (pdev->dev_speed == USBD_SPEED_HIGH)
 283:Middlewares/ST/STM32_USB_Device_Library/Class/MSC/Src/usbd_msc.c ****   {
 284:Middlewares/ST/STM32_USB_Device_Library/Class/MSC/Src/usbd_msc.c ****     /* Open EP OUT */
 285:Middlewares/ST/STM32_USB_Device_Library/Class/MSC/Src/usbd_msc.c ****     USBD_LL_OpenEP(pdev, MSC_EPOUT_ADDR, USBD_EP_TYPE_BULK, MSC_MAX_HS_PACKET);
 286:Middlewares/ST/STM32_USB_Device_Library/Class/MSC/Src/usbd_msc.c ****     pdev->ep_out[MSC_EPOUT_ADDR & 0xFU].is_used = 1U;
 287:Middlewares/ST/STM32_USB_Device_Library/Class/MSC/Src/usbd_msc.c **** 
 288:Middlewares/ST/STM32_USB_Device_Library/Class/MSC/Src/usbd_msc.c ****     /* Open EP IN */
 289:Middlewares/ST/STM32_USB_Device_Library/Class/MSC/Src/usbd_msc.c ****     USBD_LL_OpenEP(pdev, MSC_EPIN_ADDR, USBD_EP_TYPE_BULK, MSC_MAX_HS_PACKET);
 290:Middlewares/ST/STM32_USB_Device_Library/Class/MSC/Src/usbd_msc.c ****     pdev->ep_in[MSC_EPIN_ADDR & 0xFU].is_used = 1U;
 291:Middlewares/ST/STM32_USB_Device_Library/Class/MSC/Src/usbd_msc.c ****   }
 292:Middlewares/ST/STM32_USB_Device_Library/Class/MSC/Src/usbd_msc.c ****   else
 293:Middlewares/ST/STM32_USB_Device_Library/Class/MSC/Src/usbd_msc.c ****   {
 294:Middlewares/ST/STM32_USB_Device_Library/Class/MSC/Src/usbd_msc.c ****     /* Open EP OUT */
 295:Middlewares/ST/STM32_USB_Device_Library/Class/MSC/Src/usbd_msc.c ****     USBD_LL_OpenEP(pdev, MSC_EPOUT_ADDR, USBD_EP_TYPE_BULK, MSC_MAX_FS_PACKET);
 296:Middlewares/ST/STM32_USB_Device_Library/Class/MSC/Src/usbd_msc.c ****     pdev->ep_out[MSC_EPOUT_ADDR & 0xFU].is_used = 1U;
 297:Middlewares/ST/STM32_USB_Device_Library/Class/MSC/Src/usbd_msc.c **** 
 298:Middlewares/ST/STM32_USB_Device_Library/Class/MSC/Src/usbd_msc.c ****     /* Open EP IN */
 299:Middlewares/ST/STM32_USB_Device_Library/Class/MSC/Src/usbd_msc.c ****     USBD_LL_OpenEP(pdev, MSC_EPIN_ADDR, USBD_EP_TYPE_BULK, MSC_MAX_FS_PACKET);
 300:Middlewares/ST/STM32_USB_Device_Library/Class/MSC/Src/usbd_msc.c ****     pdev->ep_in[MSC_EPIN_ADDR & 0xFU].is_used = 1U;
 301:Middlewares/ST/STM32_USB_Device_Library/Class/MSC/Src/usbd_msc.c ****   }
 302:Middlewares/ST/STM32_USB_Device_Library/Class/MSC/Src/usbd_msc.c ****   pdev->pClassData = USBD_malloc(sizeof(USBD_MSC_BOT_HandleTypeDef));
 303:Middlewares/ST/STM32_USB_Device_Library/Class/MSC/Src/usbd_msc.c **** 
 304:Middlewares/ST/STM32_USB_Device_Library/Class/MSC/Src/usbd_msc.c ****   if (pdev->pClassData == NULL)
 305:Middlewares/ST/STM32_USB_Device_Library/Class/MSC/Src/usbd_msc.c ****   {
 306:Middlewares/ST/STM32_USB_Device_Library/Class/MSC/Src/usbd_msc.c ****     return USBD_FAIL;
 307:Middlewares/ST/STM32_USB_Device_Library/Class/MSC/Src/usbd_msc.c ****   }
 308:Middlewares/ST/STM32_USB_Device_Library/Class/MSC/Src/usbd_msc.c **** 
 309:Middlewares/ST/STM32_USB_Device_Library/Class/MSC/Src/usbd_msc.c ****   /* Init the BOT  layer */
 310:Middlewares/ST/STM32_USB_Device_Library/Class/MSC/Src/usbd_msc.c ****   MSC_BOT_Init(pdev);
 311:Middlewares/ST/STM32_USB_Device_Library/Class/MSC/Src/usbd_msc.c **** 
 312:Middlewares/ST/STM32_USB_Device_Library/Class/MSC/Src/usbd_msc.c ****   return USBD_OK;
 313:Middlewares/ST/STM32_USB_Device_Library/Class/MSC/Src/usbd_msc.c **** }
 314:Middlewares/ST/STM32_USB_Device_Library/Class/MSC/Src/usbd_msc.c **** 
 315:Middlewares/ST/STM32_USB_Device_Library/Class/MSC/Src/usbd_msc.c **** /**
 316:Middlewares/ST/STM32_USB_Device_Library/Class/MSC/Src/usbd_msc.c ****   * @brief  USBD_MSC_DeInit
ARM GAS  /tmp/ccWAL3vR.s 			page 7


 317:Middlewares/ST/STM32_USB_Device_Library/Class/MSC/Src/usbd_msc.c ****   *         DeInitilaize  the mass storage configuration
 318:Middlewares/ST/STM32_USB_Device_Library/Class/MSC/Src/usbd_msc.c ****   * @param  pdev: device instance
 319:Middlewares/ST/STM32_USB_Device_Library/Class/MSC/Src/usbd_msc.c ****   * @param  cfgidx: configuration index
 320:Middlewares/ST/STM32_USB_Device_Library/Class/MSC/Src/usbd_msc.c ****   * @retval status
 321:Middlewares/ST/STM32_USB_Device_Library/Class/MSC/Src/usbd_msc.c ****   */
 322:Middlewares/ST/STM32_USB_Device_Library/Class/MSC/Src/usbd_msc.c **** uint8_t USBD_MSC_DeInit(USBD_HandleTypeDef *pdev,
 323:Middlewares/ST/STM32_USB_Device_Library/Class/MSC/Src/usbd_msc.c ****                          uint8_t cfgidx)
 324:Middlewares/ST/STM32_USB_Device_Library/Class/MSC/Src/usbd_msc.c **** {
 325:Middlewares/ST/STM32_USB_Device_Library/Class/MSC/Src/usbd_msc.c ****   /* Close MSC EPs */
 326:Middlewares/ST/STM32_USB_Device_Library/Class/MSC/Src/usbd_msc.c ****   USBD_LL_CloseEP(pdev, MSC_EPOUT_ADDR);
 327:Middlewares/ST/STM32_USB_Device_Library/Class/MSC/Src/usbd_msc.c ****   pdev->ep_out[MSC_EPOUT_ADDR & 0xFU].is_used = 0U;
 328:Middlewares/ST/STM32_USB_Device_Library/Class/MSC/Src/usbd_msc.c **** 
 329:Middlewares/ST/STM32_USB_Device_Library/Class/MSC/Src/usbd_msc.c ****   /* Close EP IN */
 330:Middlewares/ST/STM32_USB_Device_Library/Class/MSC/Src/usbd_msc.c ****   USBD_LL_CloseEP(pdev, MSC_EPIN_ADDR);
 331:Middlewares/ST/STM32_USB_Device_Library/Class/MSC/Src/usbd_msc.c ****   pdev->ep_in[MSC_EPIN_ADDR & 0xFU].is_used = 0U;
 332:Middlewares/ST/STM32_USB_Device_Library/Class/MSC/Src/usbd_msc.c **** 
 333:Middlewares/ST/STM32_USB_Device_Library/Class/MSC/Src/usbd_msc.c ****   /* De-Init the BOT layer */
 334:Middlewares/ST/STM32_USB_Device_Library/Class/MSC/Src/usbd_msc.c ****   MSC_BOT_DeInit(pdev);
 335:Middlewares/ST/STM32_USB_Device_Library/Class/MSC/Src/usbd_msc.c **** 
 336:Middlewares/ST/STM32_USB_Device_Library/Class/MSC/Src/usbd_msc.c ****   /* Free MSC Class Resources */
 337:Middlewares/ST/STM32_USB_Device_Library/Class/MSC/Src/usbd_msc.c ****   if (pdev->pClassData != NULL)
 338:Middlewares/ST/STM32_USB_Device_Library/Class/MSC/Src/usbd_msc.c ****   {
 339:Middlewares/ST/STM32_USB_Device_Library/Class/MSC/Src/usbd_msc.c ****     USBD_free(pdev->pClassData);
 340:Middlewares/ST/STM32_USB_Device_Library/Class/MSC/Src/usbd_msc.c ****     pdev->pClassData  = NULL;
 341:Middlewares/ST/STM32_USB_Device_Library/Class/MSC/Src/usbd_msc.c ****   }
 342:Middlewares/ST/STM32_USB_Device_Library/Class/MSC/Src/usbd_msc.c **** 
 343:Middlewares/ST/STM32_USB_Device_Library/Class/MSC/Src/usbd_msc.c ****   return USBD_OK;
 344:Middlewares/ST/STM32_USB_Device_Library/Class/MSC/Src/usbd_msc.c **** }
 345:Middlewares/ST/STM32_USB_Device_Library/Class/MSC/Src/usbd_msc.c **** /**
 346:Middlewares/ST/STM32_USB_Device_Library/Class/MSC/Src/usbd_msc.c **** * @brief  USBD_MSC_Setup
 347:Middlewares/ST/STM32_USB_Device_Library/Class/MSC/Src/usbd_msc.c **** *         Handle the MSC specific requests
 348:Middlewares/ST/STM32_USB_Device_Library/Class/MSC/Src/usbd_msc.c **** * @param  pdev: device instance
 349:Middlewares/ST/STM32_USB_Device_Library/Class/MSC/Src/usbd_msc.c **** * @param  req: USB request
 350:Middlewares/ST/STM32_USB_Device_Library/Class/MSC/Src/usbd_msc.c **** * @retval status
 351:Middlewares/ST/STM32_USB_Device_Library/Class/MSC/Src/usbd_msc.c **** */
 352:Middlewares/ST/STM32_USB_Device_Library/Class/MSC/Src/usbd_msc.c **** uint8_t USBD_MSC_Setup(USBD_HandleTypeDef *pdev, USBD_SetupReqTypedef *req)
 353:Middlewares/ST/STM32_USB_Device_Library/Class/MSC/Src/usbd_msc.c **** {
 354:Middlewares/ST/STM32_USB_Device_Library/Class/MSC/Src/usbd_msc.c ****   USBD_MSC_BOT_HandleTypeDef *hmsc = (USBD_MSC_BOT_HandleTypeDef *) pdev->pClassData;
 355:Middlewares/ST/STM32_USB_Device_Library/Class/MSC/Src/usbd_msc.c ****   uint8_t ret = USBD_OK;
 356:Middlewares/ST/STM32_USB_Device_Library/Class/MSC/Src/usbd_msc.c ****   uint16_t status_info = 0U;
 357:Middlewares/ST/STM32_USB_Device_Library/Class/MSC/Src/usbd_msc.c **** 
 358:Middlewares/ST/STM32_USB_Device_Library/Class/MSC/Src/usbd_msc.c ****   switch (req->bmRequest & USB_REQ_TYPE_MASK)
 359:Middlewares/ST/STM32_USB_Device_Library/Class/MSC/Src/usbd_msc.c ****   {
 360:Middlewares/ST/STM32_USB_Device_Library/Class/MSC/Src/usbd_msc.c ****     /* Class request */
 361:Middlewares/ST/STM32_USB_Device_Library/Class/MSC/Src/usbd_msc.c ****     case USB_REQ_TYPE_CLASS:
 362:Middlewares/ST/STM32_USB_Device_Library/Class/MSC/Src/usbd_msc.c ****       switch (req->bRequest)
 363:Middlewares/ST/STM32_USB_Device_Library/Class/MSC/Src/usbd_msc.c ****       {
 364:Middlewares/ST/STM32_USB_Device_Library/Class/MSC/Src/usbd_msc.c ****         case BOT_GET_MAX_LUN:
 365:Middlewares/ST/STM32_USB_Device_Library/Class/MSC/Src/usbd_msc.c ****           if ((req->wValue  == 0U) && (req->wLength == 1U) &&
 366:Middlewares/ST/STM32_USB_Device_Library/Class/MSC/Src/usbd_msc.c ****               ((req->bmRequest & 0x80U) == 0x80U))
 367:Middlewares/ST/STM32_USB_Device_Library/Class/MSC/Src/usbd_msc.c ****           {
 368:Middlewares/ST/STM32_USB_Device_Library/Class/MSC/Src/usbd_msc.c ****             hmsc->max_lun = (uint32_t)((USBD_StorageTypeDef *)pdev->pUserData)->GetMaxLun();
 369:Middlewares/ST/STM32_USB_Device_Library/Class/MSC/Src/usbd_msc.c ****             USBD_CtlSendData(pdev, (uint8_t *)(void *)&hmsc->max_lun, 1U);
 370:Middlewares/ST/STM32_USB_Device_Library/Class/MSC/Src/usbd_msc.c ****           }
 371:Middlewares/ST/STM32_USB_Device_Library/Class/MSC/Src/usbd_msc.c ****           else
 372:Middlewares/ST/STM32_USB_Device_Library/Class/MSC/Src/usbd_msc.c ****           {
 373:Middlewares/ST/STM32_USB_Device_Library/Class/MSC/Src/usbd_msc.c ****             USBD_CtlError(pdev, req);
ARM GAS  /tmp/ccWAL3vR.s 			page 8


 374:Middlewares/ST/STM32_USB_Device_Library/Class/MSC/Src/usbd_msc.c ****             ret = USBD_FAIL;
 375:Middlewares/ST/STM32_USB_Device_Library/Class/MSC/Src/usbd_msc.c ****           }
 376:Middlewares/ST/STM32_USB_Device_Library/Class/MSC/Src/usbd_msc.c ****           break;
 377:Middlewares/ST/STM32_USB_Device_Library/Class/MSC/Src/usbd_msc.c **** 
 378:Middlewares/ST/STM32_USB_Device_Library/Class/MSC/Src/usbd_msc.c ****         case BOT_RESET :
 379:Middlewares/ST/STM32_USB_Device_Library/Class/MSC/Src/usbd_msc.c ****           if ((req->wValue  == 0U) && (req->wLength == 0U) &&
 380:Middlewares/ST/STM32_USB_Device_Library/Class/MSC/Src/usbd_msc.c ****               ((req->bmRequest & 0x80U) != 0x80U))
 381:Middlewares/ST/STM32_USB_Device_Library/Class/MSC/Src/usbd_msc.c ****           {
 382:Middlewares/ST/STM32_USB_Device_Library/Class/MSC/Src/usbd_msc.c ****             MSC_BOT_Reset(pdev);
 383:Middlewares/ST/STM32_USB_Device_Library/Class/MSC/Src/usbd_msc.c ****           }
 384:Middlewares/ST/STM32_USB_Device_Library/Class/MSC/Src/usbd_msc.c ****           else
 385:Middlewares/ST/STM32_USB_Device_Library/Class/MSC/Src/usbd_msc.c ****           {
 386:Middlewares/ST/STM32_USB_Device_Library/Class/MSC/Src/usbd_msc.c ****             USBD_CtlError(pdev, req);
 387:Middlewares/ST/STM32_USB_Device_Library/Class/MSC/Src/usbd_msc.c ****             ret = USBD_FAIL;
 388:Middlewares/ST/STM32_USB_Device_Library/Class/MSC/Src/usbd_msc.c ****           }
 389:Middlewares/ST/STM32_USB_Device_Library/Class/MSC/Src/usbd_msc.c ****           break;
 390:Middlewares/ST/STM32_USB_Device_Library/Class/MSC/Src/usbd_msc.c **** 
 391:Middlewares/ST/STM32_USB_Device_Library/Class/MSC/Src/usbd_msc.c ****         default:
 392:Middlewares/ST/STM32_USB_Device_Library/Class/MSC/Src/usbd_msc.c ****           USBD_CtlError(pdev, req);
 393:Middlewares/ST/STM32_USB_Device_Library/Class/MSC/Src/usbd_msc.c ****           ret = USBD_FAIL;
 394:Middlewares/ST/STM32_USB_Device_Library/Class/MSC/Src/usbd_msc.c ****           break;
 395:Middlewares/ST/STM32_USB_Device_Library/Class/MSC/Src/usbd_msc.c ****       }
 396:Middlewares/ST/STM32_USB_Device_Library/Class/MSC/Src/usbd_msc.c ****       break;
 397:Middlewares/ST/STM32_USB_Device_Library/Class/MSC/Src/usbd_msc.c ****     /* Interface & Endpoint request */
 398:Middlewares/ST/STM32_USB_Device_Library/Class/MSC/Src/usbd_msc.c ****     case USB_REQ_TYPE_STANDARD:
 399:Middlewares/ST/STM32_USB_Device_Library/Class/MSC/Src/usbd_msc.c ****       switch (req->bRequest)
 400:Middlewares/ST/STM32_USB_Device_Library/Class/MSC/Src/usbd_msc.c ****       {
 401:Middlewares/ST/STM32_USB_Device_Library/Class/MSC/Src/usbd_msc.c ****         case USB_REQ_GET_STATUS:
 402:Middlewares/ST/STM32_USB_Device_Library/Class/MSC/Src/usbd_msc.c ****           if (pdev->dev_state == USBD_STATE_CONFIGURED)
 403:Middlewares/ST/STM32_USB_Device_Library/Class/MSC/Src/usbd_msc.c ****           {
 404:Middlewares/ST/STM32_USB_Device_Library/Class/MSC/Src/usbd_msc.c ****             USBD_CtlSendData(pdev, (uint8_t *)(void *)&status_info, 2U);
 405:Middlewares/ST/STM32_USB_Device_Library/Class/MSC/Src/usbd_msc.c ****           }
 406:Middlewares/ST/STM32_USB_Device_Library/Class/MSC/Src/usbd_msc.c ****           else
 407:Middlewares/ST/STM32_USB_Device_Library/Class/MSC/Src/usbd_msc.c ****           {
 408:Middlewares/ST/STM32_USB_Device_Library/Class/MSC/Src/usbd_msc.c ****             USBD_CtlError(pdev, req);
 409:Middlewares/ST/STM32_USB_Device_Library/Class/MSC/Src/usbd_msc.c ****             ret = USBD_FAIL;
 410:Middlewares/ST/STM32_USB_Device_Library/Class/MSC/Src/usbd_msc.c ****           }
 411:Middlewares/ST/STM32_USB_Device_Library/Class/MSC/Src/usbd_msc.c ****           break;
 412:Middlewares/ST/STM32_USB_Device_Library/Class/MSC/Src/usbd_msc.c **** 
 413:Middlewares/ST/STM32_USB_Device_Library/Class/MSC/Src/usbd_msc.c ****         case USB_REQ_GET_INTERFACE:
 414:Middlewares/ST/STM32_USB_Device_Library/Class/MSC/Src/usbd_msc.c ****           if (pdev->dev_state == USBD_STATE_CONFIGURED)
 415:Middlewares/ST/STM32_USB_Device_Library/Class/MSC/Src/usbd_msc.c ****           {
 416:Middlewares/ST/STM32_USB_Device_Library/Class/MSC/Src/usbd_msc.c ****             USBD_CtlSendData(pdev, (uint8_t *)(void *)&hmsc->interface, 1U);
 417:Middlewares/ST/STM32_USB_Device_Library/Class/MSC/Src/usbd_msc.c ****           }
 418:Middlewares/ST/STM32_USB_Device_Library/Class/MSC/Src/usbd_msc.c ****           else
 419:Middlewares/ST/STM32_USB_Device_Library/Class/MSC/Src/usbd_msc.c ****           {
 420:Middlewares/ST/STM32_USB_Device_Library/Class/MSC/Src/usbd_msc.c ****             USBD_CtlError(pdev, req);
 421:Middlewares/ST/STM32_USB_Device_Library/Class/MSC/Src/usbd_msc.c ****             ret = USBD_FAIL;
 422:Middlewares/ST/STM32_USB_Device_Library/Class/MSC/Src/usbd_msc.c ****           }
 423:Middlewares/ST/STM32_USB_Device_Library/Class/MSC/Src/usbd_msc.c ****           break;
 424:Middlewares/ST/STM32_USB_Device_Library/Class/MSC/Src/usbd_msc.c **** 
 425:Middlewares/ST/STM32_USB_Device_Library/Class/MSC/Src/usbd_msc.c ****         case USB_REQ_SET_INTERFACE:
 426:Middlewares/ST/STM32_USB_Device_Library/Class/MSC/Src/usbd_msc.c ****           if (pdev->dev_state == USBD_STATE_CONFIGURED)
 427:Middlewares/ST/STM32_USB_Device_Library/Class/MSC/Src/usbd_msc.c ****           {
 428:Middlewares/ST/STM32_USB_Device_Library/Class/MSC/Src/usbd_msc.c ****             hmsc->interface = (uint8_t)(req->wValue);
 429:Middlewares/ST/STM32_USB_Device_Library/Class/MSC/Src/usbd_msc.c ****           }
 430:Middlewares/ST/STM32_USB_Device_Library/Class/MSC/Src/usbd_msc.c ****           else
ARM GAS  /tmp/ccWAL3vR.s 			page 9


 431:Middlewares/ST/STM32_USB_Device_Library/Class/MSC/Src/usbd_msc.c ****           {
 432:Middlewares/ST/STM32_USB_Device_Library/Class/MSC/Src/usbd_msc.c ****             USBD_CtlError(pdev, req);
 433:Middlewares/ST/STM32_USB_Device_Library/Class/MSC/Src/usbd_msc.c ****             ret = USBD_FAIL;
 434:Middlewares/ST/STM32_USB_Device_Library/Class/MSC/Src/usbd_msc.c ****           }
 435:Middlewares/ST/STM32_USB_Device_Library/Class/MSC/Src/usbd_msc.c ****           break;
 436:Middlewares/ST/STM32_USB_Device_Library/Class/MSC/Src/usbd_msc.c **** 
 437:Middlewares/ST/STM32_USB_Device_Library/Class/MSC/Src/usbd_msc.c ****         case USB_REQ_CLEAR_FEATURE:
 438:Middlewares/ST/STM32_USB_Device_Library/Class/MSC/Src/usbd_msc.c **** 
 439:Middlewares/ST/STM32_USB_Device_Library/Class/MSC/Src/usbd_msc.c ****           /* Flush the FIFO and Clear the stall status */
 440:Middlewares/ST/STM32_USB_Device_Library/Class/MSC/Src/usbd_msc.c ****           USBD_LL_FlushEP(pdev, (uint8_t)req->wIndex);
 441:Middlewares/ST/STM32_USB_Device_Library/Class/MSC/Src/usbd_msc.c **** 
 442:Middlewares/ST/STM32_USB_Device_Library/Class/MSC/Src/usbd_msc.c ****           /* Reactivate the EP */
 443:Middlewares/ST/STM32_USB_Device_Library/Class/MSC/Src/usbd_msc.c ****           USBD_LL_CloseEP(pdev, (uint8_t)req->wIndex);
 444:Middlewares/ST/STM32_USB_Device_Library/Class/MSC/Src/usbd_msc.c ****           if ((((uint8_t)req->wIndex) & 0x80U) == 0x80U)
 445:Middlewares/ST/STM32_USB_Device_Library/Class/MSC/Src/usbd_msc.c ****           {
 446:Middlewares/ST/STM32_USB_Device_Library/Class/MSC/Src/usbd_msc.c ****             pdev->ep_in[(uint8_t)req->wIndex & 0xFU].is_used = 0U;
 447:Middlewares/ST/STM32_USB_Device_Library/Class/MSC/Src/usbd_msc.c ****             if (pdev->dev_speed == USBD_SPEED_HIGH)
 448:Middlewares/ST/STM32_USB_Device_Library/Class/MSC/Src/usbd_msc.c ****             {
 449:Middlewares/ST/STM32_USB_Device_Library/Class/MSC/Src/usbd_msc.c ****               /* Open EP IN */
 450:Middlewares/ST/STM32_USB_Device_Library/Class/MSC/Src/usbd_msc.c ****               USBD_LL_OpenEP(pdev, MSC_EPIN_ADDR, USBD_EP_TYPE_BULK,
 451:Middlewares/ST/STM32_USB_Device_Library/Class/MSC/Src/usbd_msc.c ****                              MSC_MAX_HS_PACKET);
 452:Middlewares/ST/STM32_USB_Device_Library/Class/MSC/Src/usbd_msc.c ****             }
 453:Middlewares/ST/STM32_USB_Device_Library/Class/MSC/Src/usbd_msc.c ****             else
 454:Middlewares/ST/STM32_USB_Device_Library/Class/MSC/Src/usbd_msc.c ****             {
 455:Middlewares/ST/STM32_USB_Device_Library/Class/MSC/Src/usbd_msc.c ****               /* Open EP IN */
 456:Middlewares/ST/STM32_USB_Device_Library/Class/MSC/Src/usbd_msc.c ****               USBD_LL_OpenEP(pdev, MSC_EPIN_ADDR, USBD_EP_TYPE_BULK,
 457:Middlewares/ST/STM32_USB_Device_Library/Class/MSC/Src/usbd_msc.c ****                              MSC_MAX_FS_PACKET);
 458:Middlewares/ST/STM32_USB_Device_Library/Class/MSC/Src/usbd_msc.c ****             }
 459:Middlewares/ST/STM32_USB_Device_Library/Class/MSC/Src/usbd_msc.c ****             pdev->ep_in[MSC_EPIN_ADDR & 0xFU].is_used = 1U;
 460:Middlewares/ST/STM32_USB_Device_Library/Class/MSC/Src/usbd_msc.c ****           }
 461:Middlewares/ST/STM32_USB_Device_Library/Class/MSC/Src/usbd_msc.c ****           else
 462:Middlewares/ST/STM32_USB_Device_Library/Class/MSC/Src/usbd_msc.c ****           {
 463:Middlewares/ST/STM32_USB_Device_Library/Class/MSC/Src/usbd_msc.c ****             pdev->ep_out[(uint8_t)req->wIndex & 0xFU].is_used = 0U;
 464:Middlewares/ST/STM32_USB_Device_Library/Class/MSC/Src/usbd_msc.c ****             if (pdev->dev_speed == USBD_SPEED_HIGH)
 465:Middlewares/ST/STM32_USB_Device_Library/Class/MSC/Src/usbd_msc.c ****             {
 466:Middlewares/ST/STM32_USB_Device_Library/Class/MSC/Src/usbd_msc.c ****               /* Open EP OUT */
 467:Middlewares/ST/STM32_USB_Device_Library/Class/MSC/Src/usbd_msc.c ****               USBD_LL_OpenEP(pdev, MSC_EPOUT_ADDR, USBD_EP_TYPE_BULK,
 468:Middlewares/ST/STM32_USB_Device_Library/Class/MSC/Src/usbd_msc.c ****                              MSC_MAX_HS_PACKET);
 469:Middlewares/ST/STM32_USB_Device_Library/Class/MSC/Src/usbd_msc.c ****             }
 470:Middlewares/ST/STM32_USB_Device_Library/Class/MSC/Src/usbd_msc.c ****             else
 471:Middlewares/ST/STM32_USB_Device_Library/Class/MSC/Src/usbd_msc.c ****             {
 472:Middlewares/ST/STM32_USB_Device_Library/Class/MSC/Src/usbd_msc.c ****               /* Open EP OUT */
 473:Middlewares/ST/STM32_USB_Device_Library/Class/MSC/Src/usbd_msc.c ****               USBD_LL_OpenEP(pdev, MSC_EPOUT_ADDR, USBD_EP_TYPE_BULK,
 474:Middlewares/ST/STM32_USB_Device_Library/Class/MSC/Src/usbd_msc.c ****                              MSC_MAX_FS_PACKET);
 475:Middlewares/ST/STM32_USB_Device_Library/Class/MSC/Src/usbd_msc.c ****             }
 476:Middlewares/ST/STM32_USB_Device_Library/Class/MSC/Src/usbd_msc.c ****             pdev->ep_out[MSC_EPOUT_ADDR & 0xFU].is_used = 1U;
 477:Middlewares/ST/STM32_USB_Device_Library/Class/MSC/Src/usbd_msc.c ****           }
 478:Middlewares/ST/STM32_USB_Device_Library/Class/MSC/Src/usbd_msc.c **** 
 479:Middlewares/ST/STM32_USB_Device_Library/Class/MSC/Src/usbd_msc.c ****           /* Handle BOT error */
 480:Middlewares/ST/STM32_USB_Device_Library/Class/MSC/Src/usbd_msc.c ****           MSC_BOT_CplClrFeature(pdev, (uint8_t)req->wIndex);
 481:Middlewares/ST/STM32_USB_Device_Library/Class/MSC/Src/usbd_msc.c ****           break;
 482:Middlewares/ST/STM32_USB_Device_Library/Class/MSC/Src/usbd_msc.c **** 
 483:Middlewares/ST/STM32_USB_Device_Library/Class/MSC/Src/usbd_msc.c ****         default:
 484:Middlewares/ST/STM32_USB_Device_Library/Class/MSC/Src/usbd_msc.c ****           USBD_CtlError(pdev, req);
 485:Middlewares/ST/STM32_USB_Device_Library/Class/MSC/Src/usbd_msc.c ****           ret = USBD_FAIL;
 486:Middlewares/ST/STM32_USB_Device_Library/Class/MSC/Src/usbd_msc.c ****           break;
 487:Middlewares/ST/STM32_USB_Device_Library/Class/MSC/Src/usbd_msc.c ****       }
ARM GAS  /tmp/ccWAL3vR.s 			page 10


 488:Middlewares/ST/STM32_USB_Device_Library/Class/MSC/Src/usbd_msc.c ****       break;
 489:Middlewares/ST/STM32_USB_Device_Library/Class/MSC/Src/usbd_msc.c **** 
 490:Middlewares/ST/STM32_USB_Device_Library/Class/MSC/Src/usbd_msc.c ****     default:
 491:Middlewares/ST/STM32_USB_Device_Library/Class/MSC/Src/usbd_msc.c ****       USBD_CtlError(pdev, req);
 492:Middlewares/ST/STM32_USB_Device_Library/Class/MSC/Src/usbd_msc.c ****       ret = USBD_FAIL;
 493:Middlewares/ST/STM32_USB_Device_Library/Class/MSC/Src/usbd_msc.c ****       break;
 494:Middlewares/ST/STM32_USB_Device_Library/Class/MSC/Src/usbd_msc.c ****   }
 495:Middlewares/ST/STM32_USB_Device_Library/Class/MSC/Src/usbd_msc.c **** 
 496:Middlewares/ST/STM32_USB_Device_Library/Class/MSC/Src/usbd_msc.c ****   return ret;
 497:Middlewares/ST/STM32_USB_Device_Library/Class/MSC/Src/usbd_msc.c **** }
 498:Middlewares/ST/STM32_USB_Device_Library/Class/MSC/Src/usbd_msc.c **** 
 499:Middlewares/ST/STM32_USB_Device_Library/Class/MSC/Src/usbd_msc.c **** /**
 500:Middlewares/ST/STM32_USB_Device_Library/Class/MSC/Src/usbd_msc.c **** * @brief  USBD_MSC_DataIn
 501:Middlewares/ST/STM32_USB_Device_Library/Class/MSC/Src/usbd_msc.c **** *         handle data IN Stage
 502:Middlewares/ST/STM32_USB_Device_Library/Class/MSC/Src/usbd_msc.c **** * @param  pdev: device instance
 503:Middlewares/ST/STM32_USB_Device_Library/Class/MSC/Src/usbd_msc.c **** * @param  epnum: endpoint index
 504:Middlewares/ST/STM32_USB_Device_Library/Class/MSC/Src/usbd_msc.c **** * @retval status
 505:Middlewares/ST/STM32_USB_Device_Library/Class/MSC/Src/usbd_msc.c **** */
 506:Middlewares/ST/STM32_USB_Device_Library/Class/MSC/Src/usbd_msc.c **** uint8_t USBD_MSC_DataIn(USBD_HandleTypeDef *pdev, uint8_t epnum)
 507:Middlewares/ST/STM32_USB_Device_Library/Class/MSC/Src/usbd_msc.c **** {
 508:Middlewares/ST/STM32_USB_Device_Library/Class/MSC/Src/usbd_msc.c ****   MSC_BOT_DataIn(pdev, epnum);
 509:Middlewares/ST/STM32_USB_Device_Library/Class/MSC/Src/usbd_msc.c **** 
 510:Middlewares/ST/STM32_USB_Device_Library/Class/MSC/Src/usbd_msc.c ****   return USBD_OK;
 511:Middlewares/ST/STM32_USB_Device_Library/Class/MSC/Src/usbd_msc.c **** }
 512:Middlewares/ST/STM32_USB_Device_Library/Class/MSC/Src/usbd_msc.c **** 
 513:Middlewares/ST/STM32_USB_Device_Library/Class/MSC/Src/usbd_msc.c **** /**
 514:Middlewares/ST/STM32_USB_Device_Library/Class/MSC/Src/usbd_msc.c **** * @brief  USBD_MSC_DataOut
 515:Middlewares/ST/STM32_USB_Device_Library/Class/MSC/Src/usbd_msc.c **** *         handle data OUT Stage
 516:Middlewares/ST/STM32_USB_Device_Library/Class/MSC/Src/usbd_msc.c **** * @param  pdev: device instance
 517:Middlewares/ST/STM32_USB_Device_Library/Class/MSC/Src/usbd_msc.c **** * @param  epnum: endpoint index
 518:Middlewares/ST/STM32_USB_Device_Library/Class/MSC/Src/usbd_msc.c **** * @retval status
 519:Middlewares/ST/STM32_USB_Device_Library/Class/MSC/Src/usbd_msc.c **** */
 520:Middlewares/ST/STM32_USB_Device_Library/Class/MSC/Src/usbd_msc.c **** uint8_t USBD_MSC_DataOut(USBD_HandleTypeDef *pdev, uint8_t epnum)
 521:Middlewares/ST/STM32_USB_Device_Library/Class/MSC/Src/usbd_msc.c **** {
 522:Middlewares/ST/STM32_USB_Device_Library/Class/MSC/Src/usbd_msc.c ****   MSC_BOT_DataOut(pdev, epnum);
 523:Middlewares/ST/STM32_USB_Device_Library/Class/MSC/Src/usbd_msc.c **** 
 524:Middlewares/ST/STM32_USB_Device_Library/Class/MSC/Src/usbd_msc.c ****   return USBD_OK;
 525:Middlewares/ST/STM32_USB_Device_Library/Class/MSC/Src/usbd_msc.c **** }
 526:Middlewares/ST/STM32_USB_Device_Library/Class/MSC/Src/usbd_msc.c **** 
 527:Middlewares/ST/STM32_USB_Device_Library/Class/MSC/Src/usbd_msc.c **** /**
 528:Middlewares/ST/STM32_USB_Device_Library/Class/MSC/Src/usbd_msc.c **** * @brief  USBD_MSC_GetHSCfgDesc
 529:Middlewares/ST/STM32_USB_Device_Library/Class/MSC/Src/usbd_msc.c **** *         return configuration descriptor
 530:Middlewares/ST/STM32_USB_Device_Library/Class/MSC/Src/usbd_msc.c **** * @param  length : pointer data length
 531:Middlewares/ST/STM32_USB_Device_Library/Class/MSC/Src/usbd_msc.c **** * @retval pointer to descriptor buffer
 532:Middlewares/ST/STM32_USB_Device_Library/Class/MSC/Src/usbd_msc.c **** */
 533:Middlewares/ST/STM32_USB_Device_Library/Class/MSC/Src/usbd_msc.c **** uint8_t *USBD_MSC_GetHSCfgDesc(uint16_t *length)
 534:Middlewares/ST/STM32_USB_Device_Library/Class/MSC/Src/usbd_msc.c **** {
  28              		.loc 1 534 1 view -0
  29              		.cfi_startproc
  30              		@ args = 0, pretend = 0, frame = 0
  31              		@ frame_needed = 0, uses_anonymous_args = 0
  32              		@ link register save eliminated.
 535:Middlewares/ST/STM32_USB_Device_Library/Class/MSC/Src/usbd_msc.c ****   *length = sizeof(USBD_MSC_CfgHSDesc);
  33              		.loc 1 535 3 view .LVU1
  34              		.loc 1 535 11 is_stmt 0 view .LVU2
  35 0000 2023     		movs	r3, #32
  36 0002 0380     		strh	r3, [r0]
ARM GAS  /tmp/ccWAL3vR.s 			page 11


 536:Middlewares/ST/STM32_USB_Device_Library/Class/MSC/Src/usbd_msc.c **** 
 537:Middlewares/ST/STM32_USB_Device_Library/Class/MSC/Src/usbd_msc.c ****   return USBD_MSC_CfgHSDesc;
  37              		.loc 1 537 3 is_stmt 1 view .LVU3
 538:Middlewares/ST/STM32_USB_Device_Library/Class/MSC/Src/usbd_msc.c **** }
  38              		.loc 1 538 1 is_stmt 0 view .LVU4
  39 0004 0048     		ldr	r0, .L2
  40              	.LVL1:
  41              		.loc 1 538 1 view .LVU5
  42              		@ sp needed
  43 0006 7047     		bx	lr
  44              	.L3:
  45              		.align	2
  46              	.L2:
  47 0008 00000000 		.word	.LANCHOR0
  48              		.cfi_endproc
  49              	.LFE48:
  51              		.section	.text.USBD_MSC_GetFSCfgDesc,"ax",%progbits
  52              		.align	1
  53              		.global	USBD_MSC_GetFSCfgDesc
  54              		.syntax unified
  55              		.code	16
  56              		.thumb_func
  57              		.fpu softvfp
  59              	USBD_MSC_GetFSCfgDesc:
  60              	.LVL2:
  61              	.LFB49:
 539:Middlewares/ST/STM32_USB_Device_Library/Class/MSC/Src/usbd_msc.c **** 
 540:Middlewares/ST/STM32_USB_Device_Library/Class/MSC/Src/usbd_msc.c **** /**
 541:Middlewares/ST/STM32_USB_Device_Library/Class/MSC/Src/usbd_msc.c **** * @brief  USBD_MSC_GetFSCfgDesc
 542:Middlewares/ST/STM32_USB_Device_Library/Class/MSC/Src/usbd_msc.c **** *         return configuration descriptor
 543:Middlewares/ST/STM32_USB_Device_Library/Class/MSC/Src/usbd_msc.c **** * @param  length : pointer data length
 544:Middlewares/ST/STM32_USB_Device_Library/Class/MSC/Src/usbd_msc.c **** * @retval pointer to descriptor buffer
 545:Middlewares/ST/STM32_USB_Device_Library/Class/MSC/Src/usbd_msc.c **** */
 546:Middlewares/ST/STM32_USB_Device_Library/Class/MSC/Src/usbd_msc.c **** uint8_t *USBD_MSC_GetFSCfgDesc(uint16_t *length)
 547:Middlewares/ST/STM32_USB_Device_Library/Class/MSC/Src/usbd_msc.c **** {
  62              		.loc 1 547 1 is_stmt 1 view -0
  63              		.cfi_startproc
  64              		@ args = 0, pretend = 0, frame = 0
  65              		@ frame_needed = 0, uses_anonymous_args = 0
  66              		@ link register save eliminated.
 548:Middlewares/ST/STM32_USB_Device_Library/Class/MSC/Src/usbd_msc.c ****   *length = sizeof(USBD_MSC_CfgFSDesc);
  67              		.loc 1 548 3 view .LVU7
  68              		.loc 1 548 11 is_stmt 0 view .LVU8
  69 0000 2023     		movs	r3, #32
  70 0002 0380     		strh	r3, [r0]
 549:Middlewares/ST/STM32_USB_Device_Library/Class/MSC/Src/usbd_msc.c **** 
 550:Middlewares/ST/STM32_USB_Device_Library/Class/MSC/Src/usbd_msc.c ****   return USBD_MSC_CfgFSDesc;
  71              		.loc 1 550 3 is_stmt 1 view .LVU9
 551:Middlewares/ST/STM32_USB_Device_Library/Class/MSC/Src/usbd_msc.c **** }
  72              		.loc 1 551 1 is_stmt 0 view .LVU10
  73 0004 0048     		ldr	r0, .L5
  74              	.LVL3:
  75              		.loc 1 551 1 view .LVU11
  76              		@ sp needed
  77 0006 7047     		bx	lr
  78              	.L6:
  79              		.align	2
ARM GAS  /tmp/ccWAL3vR.s 			page 12


  80              	.L5:
  81 0008 00000000 		.word	.LANCHOR1
  82              		.cfi_endproc
  83              	.LFE49:
  85              		.section	.text.USBD_MSC_GetOtherSpeedCfgDesc,"ax",%progbits
  86              		.align	1
  87              		.global	USBD_MSC_GetOtherSpeedCfgDesc
  88              		.syntax unified
  89              		.code	16
  90              		.thumb_func
  91              		.fpu softvfp
  93              	USBD_MSC_GetOtherSpeedCfgDesc:
  94              	.LVL4:
  95              	.LFB50:
 552:Middlewares/ST/STM32_USB_Device_Library/Class/MSC/Src/usbd_msc.c **** 
 553:Middlewares/ST/STM32_USB_Device_Library/Class/MSC/Src/usbd_msc.c **** /**
 554:Middlewares/ST/STM32_USB_Device_Library/Class/MSC/Src/usbd_msc.c **** * @brief  USBD_MSC_GetOtherSpeedCfgDesc
 555:Middlewares/ST/STM32_USB_Device_Library/Class/MSC/Src/usbd_msc.c **** *         return other speed configuration descriptor
 556:Middlewares/ST/STM32_USB_Device_Library/Class/MSC/Src/usbd_msc.c **** * @param  length : pointer data length
 557:Middlewares/ST/STM32_USB_Device_Library/Class/MSC/Src/usbd_msc.c **** * @retval pointer to descriptor buffer
 558:Middlewares/ST/STM32_USB_Device_Library/Class/MSC/Src/usbd_msc.c **** */
 559:Middlewares/ST/STM32_USB_Device_Library/Class/MSC/Src/usbd_msc.c **** uint8_t *USBD_MSC_GetOtherSpeedCfgDesc(uint16_t *length)
 560:Middlewares/ST/STM32_USB_Device_Library/Class/MSC/Src/usbd_msc.c **** {
  96              		.loc 1 560 1 is_stmt 1 view -0
  97              		.cfi_startproc
  98              		@ args = 0, pretend = 0, frame = 0
  99              		@ frame_needed = 0, uses_anonymous_args = 0
 100              		@ link register save eliminated.
 561:Middlewares/ST/STM32_USB_Device_Library/Class/MSC/Src/usbd_msc.c ****   *length = sizeof(USBD_MSC_OtherSpeedCfgDesc);
 101              		.loc 1 561 3 view .LVU13
 102              		.loc 1 561 11 is_stmt 0 view .LVU14
 103 0000 2023     		movs	r3, #32
 104 0002 0380     		strh	r3, [r0]
 562:Middlewares/ST/STM32_USB_Device_Library/Class/MSC/Src/usbd_msc.c **** 
 563:Middlewares/ST/STM32_USB_Device_Library/Class/MSC/Src/usbd_msc.c ****   return USBD_MSC_OtherSpeedCfgDesc;
 105              		.loc 1 563 3 is_stmt 1 view .LVU15
 564:Middlewares/ST/STM32_USB_Device_Library/Class/MSC/Src/usbd_msc.c **** }
 106              		.loc 1 564 1 is_stmt 0 view .LVU16
 107 0004 0048     		ldr	r0, .L8
 108              	.LVL5:
 109              		.loc 1 564 1 view .LVU17
 110              		@ sp needed
 111 0006 7047     		bx	lr
 112              	.L9:
 113              		.align	2
 114              	.L8:
 115 0008 00000000 		.word	.LANCHOR2
 116              		.cfi_endproc
 117              	.LFE50:
 119              		.section	.text.USBD_MSC_GetDeviceQualifierDescriptor,"ax",%progbits
 120              		.align	1
 121              		.global	USBD_MSC_GetDeviceQualifierDescriptor
 122              		.syntax unified
 123              		.code	16
 124              		.thumb_func
 125              		.fpu softvfp
 127              	USBD_MSC_GetDeviceQualifierDescriptor:
ARM GAS  /tmp/ccWAL3vR.s 			page 13


 128              	.LVL6:
 129              	.LFB51:
 565:Middlewares/ST/STM32_USB_Device_Library/Class/MSC/Src/usbd_msc.c **** /**
 566:Middlewares/ST/STM32_USB_Device_Library/Class/MSC/Src/usbd_msc.c **** * @brief  DeviceQualifierDescriptor
 567:Middlewares/ST/STM32_USB_Device_Library/Class/MSC/Src/usbd_msc.c **** *         return Device Qualifier descriptor
 568:Middlewares/ST/STM32_USB_Device_Library/Class/MSC/Src/usbd_msc.c **** * @param  length : pointer data length
 569:Middlewares/ST/STM32_USB_Device_Library/Class/MSC/Src/usbd_msc.c **** * @retval pointer to descriptor buffer
 570:Middlewares/ST/STM32_USB_Device_Library/Class/MSC/Src/usbd_msc.c **** */
 571:Middlewares/ST/STM32_USB_Device_Library/Class/MSC/Src/usbd_msc.c **** uint8_t *USBD_MSC_GetDeviceQualifierDescriptor(uint16_t *length)
 572:Middlewares/ST/STM32_USB_Device_Library/Class/MSC/Src/usbd_msc.c **** {
 130              		.loc 1 572 1 is_stmt 1 view -0
 131              		.cfi_startproc
 132              		@ args = 0, pretend = 0, frame = 0
 133              		@ frame_needed = 0, uses_anonymous_args = 0
 134              		@ link register save eliminated.
 573:Middlewares/ST/STM32_USB_Device_Library/Class/MSC/Src/usbd_msc.c ****   *length = sizeof(USBD_MSC_DeviceQualifierDesc);
 135              		.loc 1 573 3 view .LVU19
 136              		.loc 1 573 11 is_stmt 0 view .LVU20
 137 0000 0A23     		movs	r3, #10
 138 0002 0380     		strh	r3, [r0]
 574:Middlewares/ST/STM32_USB_Device_Library/Class/MSC/Src/usbd_msc.c **** 
 575:Middlewares/ST/STM32_USB_Device_Library/Class/MSC/Src/usbd_msc.c ****   return USBD_MSC_DeviceQualifierDesc;
 139              		.loc 1 575 3 is_stmt 1 view .LVU21
 576:Middlewares/ST/STM32_USB_Device_Library/Class/MSC/Src/usbd_msc.c **** }
 140              		.loc 1 576 1 is_stmt 0 view .LVU22
 141 0004 0048     		ldr	r0, .L11
 142              	.LVL7:
 143              		.loc 1 576 1 view .LVU23
 144              		@ sp needed
 145 0006 7047     		bx	lr
 146              	.L12:
 147              		.align	2
 148              	.L11:
 149 0008 00000000 		.word	.LANCHOR3
 150              		.cfi_endproc
 151              	.LFE51:
 153              		.section	.text.USBD_MSC_Init,"ax",%progbits
 154              		.align	1
 155              		.global	USBD_MSC_Init
 156              		.syntax unified
 157              		.code	16
 158              		.thumb_func
 159              		.fpu softvfp
 161              	USBD_MSC_Init:
 162              	.LVL8:
 163              	.LFB43:
 281:Middlewares/ST/STM32_USB_Device_Library/Class/MSC/Src/usbd_msc.c ****   if (pdev->dev_speed == USBD_SPEED_HIGH)
 164              		.loc 1 281 1 is_stmt 1 view -0
 165              		.cfi_startproc
 166              		@ args = 0, pretend = 0, frame = 0
 167              		@ frame_needed = 0, uses_anonymous_args = 0
 281:Middlewares/ST/STM32_USB_Device_Library/Class/MSC/Src/usbd_msc.c ****   if (pdev->dev_speed == USBD_SPEED_HIGH)
 168              		.loc 1 281 1 is_stmt 0 view .LVU25
 169 0000 70B5     		push	{r4, r5, r6, lr}
 170              	.LCFI0:
 171              		.cfi_def_cfa_offset 16
 172              		.cfi_offset 4, -16
ARM GAS  /tmp/ccWAL3vR.s 			page 14


 173              		.cfi_offset 5, -12
 174              		.cfi_offset 6, -8
 175              		.cfi_offset 14, -4
 176 0002 0400     		movs	r4, r0
 282:Middlewares/ST/STM32_USB_Device_Library/Class/MSC/Src/usbd_msc.c ****   {
 177              		.loc 1 282 3 is_stmt 1 view .LVU26
 282:Middlewares/ST/STM32_USB_Device_Library/Class/MSC/Src/usbd_msc.c ****   {
 178              		.loc 1 282 11 is_stmt 0 view .LVU27
 179 0004 037C     		ldrb	r3, [r0, #16]
 282:Middlewares/ST/STM32_USB_Device_Library/Class/MSC/Src/usbd_msc.c ****   {
 180              		.loc 1 282 6 view .LVU28
 181 0006 002B     		cmp	r3, #0
 182 0008 1FD1     		bne	.L14
 285:Middlewares/ST/STM32_USB_Device_Library/Class/MSC/Src/usbd_msc.c ****     pdev->ep_out[MSC_EPOUT_ADDR & 0xFU].is_used = 1U;
 183              		.loc 1 285 5 is_stmt 1 view .LVU29
 184 000a 8026     		movs	r6, #128
 185 000c B600     		lsls	r6, r6, #2
 186 000e 3300     		movs	r3, r6
 187 0010 0222     		movs	r2, #2
 188 0012 0121     		movs	r1, #1
 189              	.LVL9:
 285:Middlewares/ST/STM32_USB_Device_Library/Class/MSC/Src/usbd_msc.c ****     pdev->ep_out[MSC_EPOUT_ADDR & 0xFU].is_used = 1U;
 190              		.loc 1 285 5 is_stmt 0 view .LVU30
 191 0014 FFF7FEFF 		bl	USBD_LL_OpenEP
 192              	.LVL10:
 286:Middlewares/ST/STM32_USB_Device_Library/Class/MSC/Src/usbd_msc.c **** 
 193              		.loc 1 286 5 is_stmt 1 view .LVU31
 286:Middlewares/ST/STM32_USB_Device_Library/Class/MSC/Src/usbd_msc.c **** 
 194              		.loc 1 286 49 is_stmt 0 view .LVU32
 195 0018 0125     		movs	r5, #1
 196 001a B623     		movs	r3, #182
 197 001c 5B00     		lsls	r3, r3, #1
 198 001e E550     		str	r5, [r4, r3]
 289:Middlewares/ST/STM32_USB_Device_Library/Class/MSC/Src/usbd_msc.c ****     pdev->ep_in[MSC_EPIN_ADDR & 0xFU].is_used = 1U;
 199              		.loc 1 289 5 is_stmt 1 view .LVU33
 200 0020 3300     		movs	r3, r6
 201 0022 0222     		movs	r2, #2
 202 0024 8121     		movs	r1, #129
 203 0026 2000     		movs	r0, r4
 204 0028 FFF7FEFF 		bl	USBD_LL_OpenEP
 205              	.LVL11:
 290:Middlewares/ST/STM32_USB_Device_Library/Class/MSC/Src/usbd_msc.c ****   }
 206              		.loc 1 290 5 view .LVU34
 290:Middlewares/ST/STM32_USB_Device_Library/Class/MSC/Src/usbd_msc.c ****   }
 207              		.loc 1 290 47 is_stmt 0 view .LVU35
 208 002c E562     		str	r5, [r4, #44]
 209              	.L15:
 302:Middlewares/ST/STM32_USB_Device_Library/Class/MSC/Src/usbd_msc.c **** 
 210              		.loc 1 302 3 is_stmt 1 view .LVU36
 302:Middlewares/ST/STM32_USB_Device_Library/Class/MSC/Src/usbd_msc.c **** 
 211              		.loc 1 302 22 is_stmt 0 view .LVU37
 212 002e 9B20     		movs	r0, #155
 213 0030 8000     		lsls	r0, r0, #2
 214 0032 FFF7FEFF 		bl	USBD_static_malloc
 215              	.LVL12:
 302:Middlewares/ST/STM32_USB_Device_Library/Class/MSC/Src/usbd_msc.c **** 
 216              		.loc 1 302 20 view .LVU38
ARM GAS  /tmp/ccWAL3vR.s 			page 15


 217 0036 AE23     		movs	r3, #174
 218 0038 9B00     		lsls	r3, r3, #2
 219 003a E050     		str	r0, [r4, r3]
 304:Middlewares/ST/STM32_USB_Device_Library/Class/MSC/Src/usbd_msc.c ****   {
 220              		.loc 1 304 3 is_stmt 1 view .LVU39
 304:Middlewares/ST/STM32_USB_Device_Library/Class/MSC/Src/usbd_msc.c ****   {
 221              		.loc 1 304 6 is_stmt 0 view .LVU40
 222 003c 0028     		cmp	r0, #0
 223 003e 16D0     		beq	.L17
 310:Middlewares/ST/STM32_USB_Device_Library/Class/MSC/Src/usbd_msc.c **** 
 224              		.loc 1 310 3 is_stmt 1 view .LVU41
 225 0040 2000     		movs	r0, r4
 226 0042 FFF7FEFF 		bl	MSC_BOT_Init
 227              	.LVL13:
 312:Middlewares/ST/STM32_USB_Device_Library/Class/MSC/Src/usbd_msc.c **** }
 228              		.loc 1 312 3 view .LVU42
 312:Middlewares/ST/STM32_USB_Device_Library/Class/MSC/Src/usbd_msc.c **** }
 229              		.loc 1 312 10 is_stmt 0 view .LVU43
 230 0046 0020     		movs	r0, #0
 231              	.L16:
 313:Middlewares/ST/STM32_USB_Device_Library/Class/MSC/Src/usbd_msc.c **** 
 232              		.loc 1 313 1 view .LVU44
 233              		@ sp needed
 234              	.LVL14:
 313:Middlewares/ST/STM32_USB_Device_Library/Class/MSC/Src/usbd_msc.c **** 
 235              		.loc 1 313 1 view .LVU45
 236 0048 70BD     		pop	{r4, r5, r6, pc}
 237              	.LVL15:
 238              	.L14:
 295:Middlewares/ST/STM32_USB_Device_Library/Class/MSC/Src/usbd_msc.c ****     pdev->ep_out[MSC_EPOUT_ADDR & 0xFU].is_used = 1U;
 239              		.loc 1 295 5 is_stmt 1 view .LVU46
 240 004a 4023     		movs	r3, #64
 241 004c 0222     		movs	r2, #2
 242 004e 0121     		movs	r1, #1
 243              	.LVL16:
 295:Middlewares/ST/STM32_USB_Device_Library/Class/MSC/Src/usbd_msc.c ****     pdev->ep_out[MSC_EPOUT_ADDR & 0xFU].is_used = 1U;
 244              		.loc 1 295 5 is_stmt 0 view .LVU47
 245 0050 FFF7FEFF 		bl	USBD_LL_OpenEP
 246              	.LVL17:
 296:Middlewares/ST/STM32_USB_Device_Library/Class/MSC/Src/usbd_msc.c **** 
 247              		.loc 1 296 5 is_stmt 1 view .LVU48
 296:Middlewares/ST/STM32_USB_Device_Library/Class/MSC/Src/usbd_msc.c **** 
 248              		.loc 1 296 49 is_stmt 0 view .LVU49
 249 0054 0125     		movs	r5, #1
 250 0056 B623     		movs	r3, #182
 251 0058 5B00     		lsls	r3, r3, #1
 252 005a E550     		str	r5, [r4, r3]
 299:Middlewares/ST/STM32_USB_Device_Library/Class/MSC/Src/usbd_msc.c ****     pdev->ep_in[MSC_EPIN_ADDR & 0xFU].is_used = 1U;
 253              		.loc 1 299 5 is_stmt 1 view .LVU50
 254 005c 2D3B     		subs	r3, r3, #45
 255 005e FF3B     		subs	r3, r3, #255
 256 0060 0222     		movs	r2, #2
 257 0062 8121     		movs	r1, #129
 258 0064 2000     		movs	r0, r4
 259 0066 FFF7FEFF 		bl	USBD_LL_OpenEP
 260              	.LVL18:
 300:Middlewares/ST/STM32_USB_Device_Library/Class/MSC/Src/usbd_msc.c ****   }
ARM GAS  /tmp/ccWAL3vR.s 			page 16


 261              		.loc 1 300 5 view .LVU51
 300:Middlewares/ST/STM32_USB_Device_Library/Class/MSC/Src/usbd_msc.c ****   }
 262              		.loc 1 300 47 is_stmt 0 view .LVU52
 263 006a E562     		str	r5, [r4, #44]
 264 006c DFE7     		b	.L15
 265              	.L17:
 306:Middlewares/ST/STM32_USB_Device_Library/Class/MSC/Src/usbd_msc.c ****   }
 266              		.loc 1 306 12 view .LVU53
 267 006e 0220     		movs	r0, #2
 268 0070 EAE7     		b	.L16
 269              		.cfi_endproc
 270              	.LFE43:
 272              		.section	.text.USBD_MSC_DeInit,"ax",%progbits
 273              		.align	1
 274              		.global	USBD_MSC_DeInit
 275              		.syntax unified
 276              		.code	16
 277              		.thumb_func
 278              		.fpu softvfp
 280              	USBD_MSC_DeInit:
 281              	.LVL19:
 282              	.LFB44:
 324:Middlewares/ST/STM32_USB_Device_Library/Class/MSC/Src/usbd_msc.c ****   /* Close MSC EPs */
 283              		.loc 1 324 1 is_stmt 1 view -0
 284              		.cfi_startproc
 285              		@ args = 0, pretend = 0, frame = 0
 286              		@ frame_needed = 0, uses_anonymous_args = 0
 324:Middlewares/ST/STM32_USB_Device_Library/Class/MSC/Src/usbd_msc.c ****   /* Close MSC EPs */
 287              		.loc 1 324 1 is_stmt 0 view .LVU55
 288 0000 70B5     		push	{r4, r5, r6, lr}
 289              	.LCFI1:
 290              		.cfi_def_cfa_offset 16
 291              		.cfi_offset 4, -16
 292              		.cfi_offset 5, -12
 293              		.cfi_offset 6, -8
 294              		.cfi_offset 14, -4
 295 0002 0400     		movs	r4, r0
 326:Middlewares/ST/STM32_USB_Device_Library/Class/MSC/Src/usbd_msc.c ****   pdev->ep_out[MSC_EPOUT_ADDR & 0xFU].is_used = 0U;
 296              		.loc 1 326 3 is_stmt 1 view .LVU56
 297 0004 0121     		movs	r1, #1
 298              	.LVL20:
 326:Middlewares/ST/STM32_USB_Device_Library/Class/MSC/Src/usbd_msc.c ****   pdev->ep_out[MSC_EPOUT_ADDR & 0xFU].is_used = 0U;
 299              		.loc 1 326 3 is_stmt 0 view .LVU57
 300 0006 FFF7FEFF 		bl	USBD_LL_CloseEP
 301              	.LVL21:
 327:Middlewares/ST/STM32_USB_Device_Library/Class/MSC/Src/usbd_msc.c **** 
 302              		.loc 1 327 3 is_stmt 1 view .LVU58
 327:Middlewares/ST/STM32_USB_Device_Library/Class/MSC/Src/usbd_msc.c **** 
 303              		.loc 1 327 47 is_stmt 0 view .LVU59
 304 000a 0025     		movs	r5, #0
 305 000c B623     		movs	r3, #182
 306 000e 5B00     		lsls	r3, r3, #1
 307 0010 E550     		str	r5, [r4, r3]
 330:Middlewares/ST/STM32_USB_Device_Library/Class/MSC/Src/usbd_msc.c ****   pdev->ep_in[MSC_EPIN_ADDR & 0xFU].is_used = 0U;
 308              		.loc 1 330 3 is_stmt 1 view .LVU60
 309 0012 8121     		movs	r1, #129
 310 0014 2000     		movs	r0, r4
ARM GAS  /tmp/ccWAL3vR.s 			page 17


 311 0016 FFF7FEFF 		bl	USBD_LL_CloseEP
 312              	.LVL22:
 331:Middlewares/ST/STM32_USB_Device_Library/Class/MSC/Src/usbd_msc.c **** 
 313              		.loc 1 331 3 view .LVU61
 331:Middlewares/ST/STM32_USB_Device_Library/Class/MSC/Src/usbd_msc.c **** 
 314              		.loc 1 331 45 is_stmt 0 view .LVU62
 315 001a E562     		str	r5, [r4, #44]
 334:Middlewares/ST/STM32_USB_Device_Library/Class/MSC/Src/usbd_msc.c **** 
 316              		.loc 1 334 3 is_stmt 1 view .LVU63
 317 001c 2000     		movs	r0, r4
 318 001e FFF7FEFF 		bl	MSC_BOT_DeInit
 319              	.LVL23:
 337:Middlewares/ST/STM32_USB_Device_Library/Class/MSC/Src/usbd_msc.c ****   {
 320              		.loc 1 337 3 view .LVU64
 337:Middlewares/ST/STM32_USB_Device_Library/Class/MSC/Src/usbd_msc.c ****   {
 321              		.loc 1 337 11 is_stmt 0 view .LVU65
 322 0022 AE23     		movs	r3, #174
 323 0024 9B00     		lsls	r3, r3, #2
 324 0026 E058     		ldr	r0, [r4, r3]
 337:Middlewares/ST/STM32_USB_Device_Library/Class/MSC/Src/usbd_msc.c ****   {
 325              		.loc 1 337 6 view .LVU66
 326 0028 0028     		cmp	r0, #0
 327 002a 05D0     		beq	.L19
 339:Middlewares/ST/STM32_USB_Device_Library/Class/MSC/Src/usbd_msc.c ****     pdev->pClassData  = NULL;
 328              		.loc 1 339 5 is_stmt 1 view .LVU67
 329 002c FFF7FEFF 		bl	USBD_static_free
 330              	.LVL24:
 340:Middlewares/ST/STM32_USB_Device_Library/Class/MSC/Src/usbd_msc.c ****   }
 331              		.loc 1 340 5 view .LVU68
 340:Middlewares/ST/STM32_USB_Device_Library/Class/MSC/Src/usbd_msc.c ****   }
 332              		.loc 1 340 23 is_stmt 0 view .LVU69
 333 0030 AE23     		movs	r3, #174
 334 0032 9B00     		lsls	r3, r3, #2
 335 0034 0022     		movs	r2, #0
 336 0036 E250     		str	r2, [r4, r3]
 337              	.L19:
 343:Middlewares/ST/STM32_USB_Device_Library/Class/MSC/Src/usbd_msc.c **** }
 338              		.loc 1 343 3 is_stmt 1 view .LVU70
 344:Middlewares/ST/STM32_USB_Device_Library/Class/MSC/Src/usbd_msc.c **** /**
 339              		.loc 1 344 1 is_stmt 0 view .LVU71
 340 0038 0020     		movs	r0, #0
 341              		@ sp needed
 342              	.LVL25:
 344:Middlewares/ST/STM32_USB_Device_Library/Class/MSC/Src/usbd_msc.c **** /**
 343              		.loc 1 344 1 view .LVU72
 344 003a 70BD     		pop	{r4, r5, r6, pc}
 345              		.cfi_endproc
 346              	.LFE44:
 348              		.section	.text.USBD_MSC_Setup,"ax",%progbits
 349              		.align	1
 350              		.global	USBD_MSC_Setup
 351              		.syntax unified
 352              		.code	16
 353              		.thumb_func
 354              		.fpu softvfp
 356              	USBD_MSC_Setup:
 357              	.LVL26:
ARM GAS  /tmp/ccWAL3vR.s 			page 18


 358              	.LFB45:
 353:Middlewares/ST/STM32_USB_Device_Library/Class/MSC/Src/usbd_msc.c ****   USBD_MSC_BOT_HandleTypeDef *hmsc = (USBD_MSC_BOT_HandleTypeDef *) pdev->pClassData;
 359              		.loc 1 353 1 is_stmt 1 view -0
 360              		.cfi_startproc
 361              		@ args = 0, pretend = 0, frame = 8
 362              		@ frame_needed = 0, uses_anonymous_args = 0
 353:Middlewares/ST/STM32_USB_Device_Library/Class/MSC/Src/usbd_msc.c ****   USBD_MSC_BOT_HandleTypeDef *hmsc = (USBD_MSC_BOT_HandleTypeDef *) pdev->pClassData;
 363              		.loc 1 353 1 is_stmt 0 view .LVU74
 364 0000 F0B5     		push	{r4, r5, r6, r7, lr}
 365              	.LCFI2:
 366              		.cfi_def_cfa_offset 20
 367              		.cfi_offset 4, -20
 368              		.cfi_offset 5, -16
 369              		.cfi_offset 6, -12
 370              		.cfi_offset 7, -8
 371              		.cfi_offset 14, -4
 372 0002 C646     		mov	lr, r8
 373 0004 00B5     		push	{lr}
 374              	.LCFI3:
 375              		.cfi_def_cfa_offset 24
 376              		.cfi_offset 8, -24
 377 0006 82B0     		sub	sp, sp, #8
 378              	.LCFI4:
 379              		.cfi_def_cfa_offset 32
 380 0008 0500     		movs	r5, r0
 381 000a 0C00     		movs	r4, r1
 354:Middlewares/ST/STM32_USB_Device_Library/Class/MSC/Src/usbd_msc.c ****   uint8_t ret = USBD_OK;
 382              		.loc 1 354 3 is_stmt 1 view .LVU75
 354:Middlewares/ST/STM32_USB_Device_Library/Class/MSC/Src/usbd_msc.c ****   uint8_t ret = USBD_OK;
 383              		.loc 1 354 31 is_stmt 0 view .LVU76
 384 000c AE23     		movs	r3, #174
 385 000e 9B00     		lsls	r3, r3, #2
 386 0010 C358     		ldr	r3, [r0, r3]
 387 0012 9846     		mov	r8, r3
 388              	.LVL27:
 355:Middlewares/ST/STM32_USB_Device_Library/Class/MSC/Src/usbd_msc.c ****   uint16_t status_info = 0U;
 389              		.loc 1 355 3 is_stmt 1 view .LVU77
 356:Middlewares/ST/STM32_USB_Device_Library/Class/MSC/Src/usbd_msc.c **** 
 390              		.loc 1 356 3 view .LVU78
 356:Middlewares/ST/STM32_USB_Device_Library/Class/MSC/Src/usbd_msc.c **** 
 391              		.loc 1 356 12 is_stmt 0 view .LVU79
 392 0014 6B46     		mov	r3, sp
 393              	.LVL28:
 356:Middlewares/ST/STM32_USB_Device_Library/Class/MSC/Src/usbd_msc.c **** 
 394              		.loc 1 356 12 view .LVU80
 395 0016 0022     		movs	r2, #0
 396 0018 DA80     		strh	r2, [r3, #6]
 358:Middlewares/ST/STM32_USB_Device_Library/Class/MSC/Src/usbd_msc.c ****   {
 397              		.loc 1 358 3 is_stmt 1 view .LVU81
 358:Middlewares/ST/STM32_USB_Device_Library/Class/MSC/Src/usbd_msc.c ****   {
 398              		.loc 1 358 14 is_stmt 0 view .LVU82
 399 001a 0B78     		ldrb	r3, [r1]
 400 001c 6032     		adds	r2, r2, #96
 401 001e 1600     		movs	r6, r2
 402 0020 1E40     		ands	r6, r3
 358:Middlewares/ST/STM32_USB_Device_Library/Class/MSC/Src/usbd_msc.c ****   {
 403              		.loc 1 358 3 view .LVU83
ARM GAS  /tmp/ccWAL3vR.s 			page 19


 404 0022 1A42     		tst	r2, r3
 405 0024 3BD0     		beq	.L21
 406 0026 202E     		cmp	r6, #32
 407 0028 00D0     		beq	.LCB307
 408 002a C0E0     		b	.L22	@long jump
 409              	.LCB307:
 362:Middlewares/ST/STM32_USB_Device_Library/Class/MSC/Src/usbd_msc.c ****       {
 410              		.loc 1 362 7 is_stmt 1 view .LVU84
 362:Middlewares/ST/STM32_USB_Device_Library/Class/MSC/Src/usbd_msc.c ****       {
 411              		.loc 1 362 18 is_stmt 0 view .LVU85
 412 002c 4A78     		ldrb	r2, [r1, #1]
 413 002e FE2A     		cmp	r2, #254
 414 0030 05D0     		beq	.L23
 415 0032 FF2A     		cmp	r2, #255
 416 0034 20D0     		beq	.L24
 392:Middlewares/ST/STM32_USB_Device_Library/Class/MSC/Src/usbd_msc.c ****           ret = USBD_FAIL;
 417              		.loc 1 392 11 is_stmt 1 view .LVU86
 418 0036 FFF7FEFF 		bl	USBD_CtlError
 419              	.LVL29:
 393:Middlewares/ST/STM32_USB_Device_Library/Class/MSC/Src/usbd_msc.c ****           break;
 420              		.loc 1 393 11 view .LVU87
 394:Middlewares/ST/STM32_USB_Device_Library/Class/MSC/Src/usbd_msc.c ****       }
 421              		.loc 1 394 11 view .LVU88
 393:Middlewares/ST/STM32_USB_Device_Library/Class/MSC/Src/usbd_msc.c ****           break;
 422              		.loc 1 393 15 is_stmt 0 view .LVU89
 423 003a 0226     		movs	r6, #2
 394:Middlewares/ST/STM32_USB_Device_Library/Class/MSC/Src/usbd_msc.c ****       }
 424              		.loc 1 394 11 view .LVU90
 425 003c BAE0     		b	.L27
 426              	.LVL30:
 427              	.L23:
 365:Middlewares/ST/STM32_USB_Device_Library/Class/MSC/Src/usbd_msc.c ****               ((req->bmRequest & 0x80U) == 0x80U))
 428              		.loc 1 365 11 is_stmt 1 view .LVU91
 365:Middlewares/ST/STM32_USB_Device_Library/Class/MSC/Src/usbd_msc.c ****               ((req->bmRequest & 0x80U) == 0x80U))
 429              		.loc 1 365 19 is_stmt 0 view .LVU92
 430 003e 4A88     		ldrh	r2, [r1, #2]
 365:Middlewares/ST/STM32_USB_Device_Library/Class/MSC/Src/usbd_msc.c ****               ((req->bmRequest & 0x80U) == 0x80U))
 431              		.loc 1 365 14 view .LVU93
 432 0040 002A     		cmp	r2, #0
 433 0042 02D1     		bne	.L26
 365:Middlewares/ST/STM32_USB_Device_Library/Class/MSC/Src/usbd_msc.c ****               ((req->bmRequest & 0x80U) == 0x80U))
 434              		.loc 1 365 43 discriminator 1 view .LVU94
 435 0044 CA88     		ldrh	r2, [r1, #6]
 365:Middlewares/ST/STM32_USB_Device_Library/Class/MSC/Src/usbd_msc.c ****               ((req->bmRequest & 0x80U) == 0x80U))
 436              		.loc 1 365 36 discriminator 1 view .LVU95
 437 0046 012A     		cmp	r2, #1
 438 0048 05D0     		beq	.L45
 439              	.L26:
 373:Middlewares/ST/STM32_USB_Device_Library/Class/MSC/Src/usbd_msc.c ****             ret = USBD_FAIL;
 440              		.loc 1 373 13 is_stmt 1 view .LVU96
 441 004a 2100     		movs	r1, r4
 442              	.LVL31:
 373:Middlewares/ST/STM32_USB_Device_Library/Class/MSC/Src/usbd_msc.c ****             ret = USBD_FAIL;
 443              		.loc 1 373 13 is_stmt 0 view .LVU97
 444 004c 2800     		movs	r0, r5
 445              	.LVL32:
 373:Middlewares/ST/STM32_USB_Device_Library/Class/MSC/Src/usbd_msc.c ****             ret = USBD_FAIL;
ARM GAS  /tmp/ccWAL3vR.s 			page 20


 446              		.loc 1 373 13 view .LVU98
 447 004e FFF7FEFF 		bl	USBD_CtlError
 448              	.LVL33:
 374:Middlewares/ST/STM32_USB_Device_Library/Class/MSC/Src/usbd_msc.c ****           }
 449              		.loc 1 374 13 is_stmt 1 view .LVU99
 374:Middlewares/ST/STM32_USB_Device_Library/Class/MSC/Src/usbd_msc.c ****           }
 450              		.loc 1 374 17 is_stmt 0 view .LVU100
 451 0052 0226     		movs	r6, #2
 452 0054 AEE0     		b	.L27
 453              	.LVL34:
 454              	.L45:
 366:Middlewares/ST/STM32_USB_Device_Library/Class/MSC/Src/usbd_msc.c ****           {
 455              		.loc 1 366 41 discriminator 2 view .LVU101
 456 0056 5BB2     		sxtb	r3, r3
 365:Middlewares/ST/STM32_USB_Device_Library/Class/MSC/Src/usbd_msc.c ****               ((req->bmRequest & 0x80U) == 0x80U))
 457              		.loc 1 365 60 discriminator 2 view .LVU102
 458 0058 002B     		cmp	r3, #0
 459 005a F6DA     		bge	.L26
 368:Middlewares/ST/STM32_USB_Device_Library/Class/MSC/Src/usbd_msc.c ****             USBD_CtlSendData(pdev, (uint8_t *)(void *)&hmsc->max_lun, 1U);
 460              		.loc 1 368 13 is_stmt 1 view .LVU103
 368:Middlewares/ST/STM32_USB_Device_Library/Class/MSC/Src/usbd_msc.c ****             USBD_CtlSendData(pdev, (uint8_t *)(void *)&hmsc->max_lun, 1U);
 461              		.loc 1 368 67 is_stmt 0 view .LVU104
 462 005c AF23     		movs	r3, #175
 463 005e 9B00     		lsls	r3, r3, #2
 464 0060 C358     		ldr	r3, [r0, r3]
 368:Middlewares/ST/STM32_USB_Device_Library/Class/MSC/Src/usbd_msc.c ****             USBD_CtlSendData(pdev, (uint8_t *)(void *)&hmsc->max_lun, 1U);
 465              		.loc 1 368 79 view .LVU105
 466 0062 9B69     		ldr	r3, [r3, #24]
 368:Middlewares/ST/STM32_USB_Device_Library/Class/MSC/Src/usbd_msc.c ****             USBD_CtlSendData(pdev, (uint8_t *)(void *)&hmsc->max_lun, 1U);
 467              		.loc 1 368 40 view .LVU106
 468 0064 9847     		blx	r3
 469              	.LVL35:
 368:Middlewares/ST/STM32_USB_Device_Library/Class/MSC/Src/usbd_msc.c ****             USBD_CtlSendData(pdev, (uint8_t *)(void *)&hmsc->max_lun, 1U);
 470              		.loc 1 368 27 view .LVU107
 471 0066 4346     		mov	r3, r8
 472 0068 1860     		str	r0, [r3]
 369:Middlewares/ST/STM32_USB_Device_Library/Class/MSC/Src/usbd_msc.c ****           }
 473              		.loc 1 369 13 is_stmt 1 view .LVU108
 474 006a 0122     		movs	r2, #1
 475 006c 4146     		mov	r1, r8
 476 006e 2800     		movs	r0, r5
 477 0070 FFF7FEFF 		bl	USBD_CtlSendData
 478              	.LVL36:
 355:Middlewares/ST/STM32_USB_Device_Library/Class/MSC/Src/usbd_msc.c ****   uint16_t status_info = 0U;
 479              		.loc 1 355 11 is_stmt 0 view .LVU109
 480 0074 0026     		movs	r6, #0
 369:Middlewares/ST/STM32_USB_Device_Library/Class/MSC/Src/usbd_msc.c ****           }
 481              		.loc 1 369 13 view .LVU110
 482 0076 9DE0     		b	.L27
 483              	.LVL37:
 484              	.L24:
 379:Middlewares/ST/STM32_USB_Device_Library/Class/MSC/Src/usbd_msc.c ****               ((req->bmRequest & 0x80U) != 0x80U))
 485              		.loc 1 379 11 is_stmt 1 view .LVU111
 379:Middlewares/ST/STM32_USB_Device_Library/Class/MSC/Src/usbd_msc.c ****               ((req->bmRequest & 0x80U) != 0x80U))
 486              		.loc 1 379 19 is_stmt 0 view .LVU112
 487 0078 4A88     		ldrh	r2, [r1, #2]
 379:Middlewares/ST/STM32_USB_Device_Library/Class/MSC/Src/usbd_msc.c ****               ((req->bmRequest & 0x80U) != 0x80U))
ARM GAS  /tmp/ccWAL3vR.s 			page 21


 488              		.loc 1 379 14 view .LVU113
 489 007a 002A     		cmp	r2, #0
 490 007c 09D1     		bne	.L28
 379:Middlewares/ST/STM32_USB_Device_Library/Class/MSC/Src/usbd_msc.c ****               ((req->bmRequest & 0x80U) != 0x80U))
 491              		.loc 1 379 43 discriminator 1 view .LVU114
 492 007e CA88     		ldrh	r2, [r1, #6]
 379:Middlewares/ST/STM32_USB_Device_Library/Class/MSC/Src/usbd_msc.c ****               ((req->bmRequest & 0x80U) != 0x80U))
 493              		.loc 1 379 36 discriminator 1 view .LVU115
 494 0080 002A     		cmp	r2, #0
 495 0082 06D1     		bne	.L28
 380:Middlewares/ST/STM32_USB_Device_Library/Class/MSC/Src/usbd_msc.c ****           {
 496              		.loc 1 380 41 discriminator 2 view .LVU116
 497 0084 5BB2     		sxtb	r3, r3
 379:Middlewares/ST/STM32_USB_Device_Library/Class/MSC/Src/usbd_msc.c ****               ((req->bmRequest & 0x80U) != 0x80U))
 498              		.loc 1 379 60 discriminator 2 view .LVU117
 499 0086 002B     		cmp	r3, #0
 500 0088 03DB     		blt	.L28
 382:Middlewares/ST/STM32_USB_Device_Library/Class/MSC/Src/usbd_msc.c ****           }
 501              		.loc 1 382 13 is_stmt 1 view .LVU118
 502 008a FFF7FEFF 		bl	MSC_BOT_Reset
 503              	.LVL38:
 355:Middlewares/ST/STM32_USB_Device_Library/Class/MSC/Src/usbd_msc.c ****   uint16_t status_info = 0U;
 504              		.loc 1 355 11 is_stmt 0 view .LVU119
 505 008e 0026     		movs	r6, #0
 382:Middlewares/ST/STM32_USB_Device_Library/Class/MSC/Src/usbd_msc.c ****           }
 506              		.loc 1 382 13 view .LVU120
 507 0090 90E0     		b	.L27
 508              	.LVL39:
 509              	.L28:
 386:Middlewares/ST/STM32_USB_Device_Library/Class/MSC/Src/usbd_msc.c ****             ret = USBD_FAIL;
 510              		.loc 1 386 13 is_stmt 1 view .LVU121
 511 0092 2100     		movs	r1, r4
 512              	.LVL40:
 386:Middlewares/ST/STM32_USB_Device_Library/Class/MSC/Src/usbd_msc.c ****             ret = USBD_FAIL;
 513              		.loc 1 386 13 is_stmt 0 view .LVU122
 514 0094 2800     		movs	r0, r5
 515              	.LVL41:
 386:Middlewares/ST/STM32_USB_Device_Library/Class/MSC/Src/usbd_msc.c ****             ret = USBD_FAIL;
 516              		.loc 1 386 13 view .LVU123
 517 0096 FFF7FEFF 		bl	USBD_CtlError
 518              	.LVL42:
 387:Middlewares/ST/STM32_USB_Device_Library/Class/MSC/Src/usbd_msc.c ****           }
 519              		.loc 1 387 13 is_stmt 1 view .LVU124
 387:Middlewares/ST/STM32_USB_Device_Library/Class/MSC/Src/usbd_msc.c ****           }
 520              		.loc 1 387 17 is_stmt 0 view .LVU125
 521 009a 0226     		movs	r6, #2
 522 009c 8AE0     		b	.L27
 523              	.LVL43:
 524              	.L21:
 399:Middlewares/ST/STM32_USB_Device_Library/Class/MSC/Src/usbd_msc.c ****       {
 525              		.loc 1 399 7 is_stmt 1 view .LVU126
 399:Middlewares/ST/STM32_USB_Device_Library/Class/MSC/Src/usbd_msc.c ****       {
 526              		.loc 1 399 18 is_stmt 0 view .LVU127
 527 009e 4F78     		ldrb	r7, [r1, #1]
 528 00a0 0A2F     		cmp	r7, #10
 529 00a2 48D0     		beq	.L29
 530 00a4 2CD8     		bhi	.L30
ARM GAS  /tmp/ccWAL3vR.s 			page 22


 531 00a6 002F     		cmp	r7, #0
 532 00a8 35D0     		beq	.L31
 533 00aa 012F     		cmp	r7, #1
 534 00ac 79D1     		bne	.L33
 440:Middlewares/ST/STM32_USB_Device_Library/Class/MSC/Src/usbd_msc.c **** 
 535              		.loc 1 440 11 is_stmt 1 view .LVU128
 536 00ae 0979     		ldrb	r1, [r1, #4]
 537              	.LVL44:
 440:Middlewares/ST/STM32_USB_Device_Library/Class/MSC/Src/usbd_msc.c **** 
 538              		.loc 1 440 11 is_stmt 0 view .LVU129
 539 00b0 FFF7FEFF 		bl	USBD_LL_FlushEP
 540              	.LVL45:
 443:Middlewares/ST/STM32_USB_Device_Library/Class/MSC/Src/usbd_msc.c ****           if ((((uint8_t)req->wIndex) & 0x80U) == 0x80U)
 541              		.loc 1 443 11 is_stmt 1 view .LVU130
 542 00b4 2179     		ldrb	r1, [r4, #4]
 543 00b6 2800     		movs	r0, r5
 544 00b8 FFF7FEFF 		bl	USBD_LL_CloseEP
 545              	.LVL46:
 444:Middlewares/ST/STM32_USB_Device_Library/Class/MSC/Src/usbd_msc.c ****           {
 546              		.loc 1 444 11 view .LVU131
 444:Middlewares/ST/STM32_USB_Device_Library/Class/MSC/Src/usbd_msc.c ****           {
 547              		.loc 1 444 29 is_stmt 0 view .LVU132
 548 00bc A388     		ldrh	r3, [r4, #4]
 444:Middlewares/ST/STM32_USB_Device_Library/Class/MSC/Src/usbd_msc.c ****           {
 549              		.loc 1 444 48 view .LVU133
 550 00be 0422     		movs	r2, #4
 551 00c0 A256     		ldrsb	r2, [r4, r2]
 444:Middlewares/ST/STM32_USB_Device_Library/Class/MSC/Src/usbd_msc.c ****           {
 552              		.loc 1 444 14 view .LVU134
 553 00c2 002A     		cmp	r2, #0
 554 00c4 4ADB     		blt	.L46
 463:Middlewares/ST/STM32_USB_Device_Library/Class/MSC/Src/usbd_msc.c ****             if (pdev->dev_speed == USBD_SPEED_HIGH)
 555              		.loc 1 463 13 is_stmt 1 view .LVU135
 463:Middlewares/ST/STM32_USB_Device_Library/Class/MSC/Src/usbd_msc.c ****             if (pdev->dev_speed == USBD_SPEED_HIGH)
 556              		.loc 1 463 47 is_stmt 0 view .LVU136
 557 00c6 0F22     		movs	r2, #15
 558 00c8 1A40     		ands	r2, r3
 463:Middlewares/ST/STM32_USB_Device_Library/Class/MSC/Src/usbd_msc.c ****             if (pdev->dev_speed == USBD_SPEED_HIGH)
 559              		.loc 1 463 63 view .LVU137
 560 00ca 9300     		lsls	r3, r2, #2
 561 00cc 9B18     		adds	r3, r3, r2
 562 00ce 9B00     		lsls	r3, r3, #2
 563 00d0 EB18     		adds	r3, r5, r3
 564 00d2 5933     		adds	r3, r3, #89
 565 00d4 FF33     		adds	r3, r3, #255
 566 00d6 0022     		movs	r2, #0
 567 00d8 1A60     		str	r2, [r3]
 464:Middlewares/ST/STM32_USB_Device_Library/Class/MSC/Src/usbd_msc.c ****             {
 568              		.loc 1 464 13 is_stmt 1 view .LVU138
 464:Middlewares/ST/STM32_USB_Device_Library/Class/MSC/Src/usbd_msc.c ****             {
 569              		.loc 1 464 21 is_stmt 0 view .LVU139
 570 00da 2B7C     		ldrb	r3, [r5, #16]
 464:Middlewares/ST/STM32_USB_Device_Library/Class/MSC/Src/usbd_msc.c ****             {
 571              		.loc 1 464 16 view .LVU140
 572 00dc 002B     		cmp	r3, #0
 573 00de 59D1     		bne	.L42
 467:Middlewares/ST/STM32_USB_Device_Library/Class/MSC/Src/usbd_msc.c ****                              MSC_MAX_HS_PACKET);
ARM GAS  /tmp/ccWAL3vR.s 			page 23


 574              		.loc 1 467 15 is_stmt 1 view .LVU141
 575 00e0 8033     		adds	r3, r3, #128
 576 00e2 9B00     		lsls	r3, r3, #2
 577 00e4 0232     		adds	r2, r2, #2
 578 00e6 0121     		movs	r1, #1
 579 00e8 2800     		movs	r0, r5
 580 00ea FFF7FEFF 		bl	USBD_LL_OpenEP
 581              	.LVL47:
 582              	.L43:
 476:Middlewares/ST/STM32_USB_Device_Library/Class/MSC/Src/usbd_msc.c ****           }
 583              		.loc 1 476 13 view .LVU142
 476:Middlewares/ST/STM32_USB_Device_Library/Class/MSC/Src/usbd_msc.c ****           }
 584              		.loc 1 476 57 is_stmt 0 view .LVU143
 585 00ee B623     		movs	r3, #182
 586 00f0 5B00     		lsls	r3, r3, #1
 587 00f2 0122     		movs	r2, #1
 588 00f4 EA50     		str	r2, [r5, r3]
 589              	.L41:
 480:Middlewares/ST/STM32_USB_Device_Library/Class/MSC/Src/usbd_msc.c ****           break;
 590              		.loc 1 480 11 is_stmt 1 view .LVU144
 591 00f6 2179     		ldrb	r1, [r4, #4]
 592 00f8 2800     		movs	r0, r5
 593 00fa FFF7FEFF 		bl	MSC_BOT_CplClrFeature
 594              	.LVL48:
 481:Middlewares/ST/STM32_USB_Device_Library/Class/MSC/Src/usbd_msc.c **** 
 595              		.loc 1 481 11 view .LVU145
 596 00fe 59E0     		b	.L27
 597              	.LVL49:
 598              	.L30:
 481:Middlewares/ST/STM32_USB_Device_Library/Class/MSC/Src/usbd_msc.c **** 
 599              		.loc 1 481 11 is_stmt 0 view .LVU146
 600 0100 0B2F     		cmp	r7, #11
 601 0102 4ED1     		bne	.L33
 426:Middlewares/ST/STM32_USB_Device_Library/Class/MSC/Src/usbd_msc.c ****           {
 602              		.loc 1 426 11 is_stmt 1 view .LVU147
 426:Middlewares/ST/STM32_USB_Device_Library/Class/MSC/Src/usbd_msc.c ****           {
 603              		.loc 1 426 19 is_stmt 0 view .LVU148
 604 0104 A723     		movs	r3, #167
 605 0106 9B00     		lsls	r3, r3, #2
 606 0108 C35C     		ldrb	r3, [r0, r3]
 426:Middlewares/ST/STM32_USB_Device_Library/Class/MSC/Src/usbd_msc.c ****           {
 607              		.loc 1 426 14 view .LVU149
 608 010a 032B     		cmp	r3, #3
 609 010c 22D1     		bne	.L37
 428:Middlewares/ST/STM32_USB_Device_Library/Class/MSC/Src/usbd_msc.c ****           }
 610              		.loc 1 428 13 is_stmt 1 view .LVU150
 428:Middlewares/ST/STM32_USB_Device_Library/Class/MSC/Src/usbd_msc.c ****           }
 611              		.loc 1 428 31 is_stmt 0 view .LVU151
 612 010e 8B78     		ldrb	r3, [r1, #2]
 428:Middlewares/ST/STM32_USB_Device_Library/Class/MSC/Src/usbd_msc.c ****           }
 613              		.loc 1 428 29 view .LVU152
 614 0110 4246     		mov	r2, r8
 615 0112 5360     		str	r3, [r2, #4]
 616 0114 4EE0     		b	.L27
 617              	.L31:
 402:Middlewares/ST/STM32_USB_Device_Library/Class/MSC/Src/usbd_msc.c ****           {
 618              		.loc 1 402 11 is_stmt 1 view .LVU153
ARM GAS  /tmp/ccWAL3vR.s 			page 24


 402:Middlewares/ST/STM32_USB_Device_Library/Class/MSC/Src/usbd_msc.c ****           {
 619              		.loc 1 402 19 is_stmt 0 view .LVU154
 620 0116 A723     		movs	r3, #167
 621 0118 9B00     		lsls	r3, r3, #2
 622 011a C35C     		ldrb	r3, [r0, r3]
 402:Middlewares/ST/STM32_USB_Device_Library/Class/MSC/Src/usbd_msc.c ****           {
 623              		.loc 1 402 14 view .LVU155
 624 011c 032B     		cmp	r3, #3
 625 011e 03D0     		beq	.L47
 408:Middlewares/ST/STM32_USB_Device_Library/Class/MSC/Src/usbd_msc.c ****             ret = USBD_FAIL;
 626              		.loc 1 408 13 is_stmt 1 view .LVU156
 627 0120 FFF7FEFF 		bl	USBD_CtlError
 628              	.LVL50:
 409:Middlewares/ST/STM32_USB_Device_Library/Class/MSC/Src/usbd_msc.c ****           }
 629              		.loc 1 409 13 view .LVU157
 409:Middlewares/ST/STM32_USB_Device_Library/Class/MSC/Src/usbd_msc.c ****           }
 630              		.loc 1 409 17 is_stmt 0 view .LVU158
 631 0124 0226     		movs	r6, #2
 632 0126 45E0     		b	.L27
 633              	.LVL51:
 634              	.L47:
 404:Middlewares/ST/STM32_USB_Device_Library/Class/MSC/Src/usbd_msc.c ****           }
 635              		.loc 1 404 13 is_stmt 1 view .LVU159
 636 0128 0222     		movs	r2, #2
 637 012a 6B46     		mov	r3, sp
 638 012c 991D     		adds	r1, r3, #6
 639              	.LVL52:
 404:Middlewares/ST/STM32_USB_Device_Library/Class/MSC/Src/usbd_msc.c ****           }
 640              		.loc 1 404 13 is_stmt 0 view .LVU160
 641 012e FFF7FEFF 		bl	USBD_CtlSendData
 642              	.LVL53:
 355:Middlewares/ST/STM32_USB_Device_Library/Class/MSC/Src/usbd_msc.c ****   uint16_t status_info = 0U;
 643              		.loc 1 355 11 view .LVU161
 644 0132 3E00     		movs	r6, r7
 645 0134 3EE0     		b	.L27
 646              	.LVL54:
 647              	.L29:
 414:Middlewares/ST/STM32_USB_Device_Library/Class/MSC/Src/usbd_msc.c ****           {
 648              		.loc 1 414 11 is_stmt 1 view .LVU162
 414:Middlewares/ST/STM32_USB_Device_Library/Class/MSC/Src/usbd_msc.c ****           {
 649              		.loc 1 414 19 is_stmt 0 view .LVU163
 650 0136 A723     		movs	r3, #167
 651 0138 9B00     		lsls	r3, r3, #2
 652 013a C35C     		ldrb	r3, [r0, r3]
 414:Middlewares/ST/STM32_USB_Device_Library/Class/MSC/Src/usbd_msc.c ****           {
 653              		.loc 1 414 14 view .LVU164
 654 013c 032B     		cmp	r3, #3
 655 013e 03D0     		beq	.L48
 420:Middlewares/ST/STM32_USB_Device_Library/Class/MSC/Src/usbd_msc.c ****             ret = USBD_FAIL;
 656              		.loc 1 420 13 is_stmt 1 view .LVU165
 657 0140 FFF7FEFF 		bl	USBD_CtlError
 658              	.LVL55:
 421:Middlewares/ST/STM32_USB_Device_Library/Class/MSC/Src/usbd_msc.c ****           }
 659              		.loc 1 421 13 view .LVU166
 421:Middlewares/ST/STM32_USB_Device_Library/Class/MSC/Src/usbd_msc.c ****           }
 660              		.loc 1 421 17 is_stmt 0 view .LVU167
 661 0144 0226     		movs	r6, #2
ARM GAS  /tmp/ccWAL3vR.s 			page 25


 662 0146 35E0     		b	.L27
 663              	.LVL56:
 664              	.L48:
 416:Middlewares/ST/STM32_USB_Device_Library/Class/MSC/Src/usbd_msc.c ****           }
 665              		.loc 1 416 13 is_stmt 1 view .LVU168
 416:Middlewares/ST/STM32_USB_Device_Library/Class/MSC/Src/usbd_msc.c ****           }
 666              		.loc 1 416 55 is_stmt 0 view .LVU169
 667 0148 4146     		mov	r1, r8
 668              	.LVL57:
 416:Middlewares/ST/STM32_USB_Device_Library/Class/MSC/Src/usbd_msc.c ****           }
 669              		.loc 1 416 55 view .LVU170
 670 014a 0431     		adds	r1, r1, #4
 416:Middlewares/ST/STM32_USB_Device_Library/Class/MSC/Src/usbd_msc.c ****           }
 671              		.loc 1 416 13 view .LVU171
 672 014c 0122     		movs	r2, #1
 673 014e FFF7FEFF 		bl	USBD_CtlSendData
 674              	.LVL58:
 416:Middlewares/ST/STM32_USB_Device_Library/Class/MSC/Src/usbd_msc.c ****           }
 675              		.loc 1 416 13 view .LVU172
 676 0152 2FE0     		b	.L27
 677              	.LVL59:
 678              	.L37:
 432:Middlewares/ST/STM32_USB_Device_Library/Class/MSC/Src/usbd_msc.c ****             ret = USBD_FAIL;
 679              		.loc 1 432 13 is_stmt 1 view .LVU173
 680 0154 FFF7FEFF 		bl	USBD_CtlError
 681              	.LVL60:
 433:Middlewares/ST/STM32_USB_Device_Library/Class/MSC/Src/usbd_msc.c ****           }
 682              		.loc 1 433 13 view .LVU174
 433:Middlewares/ST/STM32_USB_Device_Library/Class/MSC/Src/usbd_msc.c ****           }
 683              		.loc 1 433 17 is_stmt 0 view .LVU175
 684 0158 0226     		movs	r6, #2
 685 015a 2BE0     		b	.L27
 686              	.LVL61:
 687              	.L46:
 446:Middlewares/ST/STM32_USB_Device_Library/Class/MSC/Src/usbd_msc.c ****             if (pdev->dev_speed == USBD_SPEED_HIGH)
 688              		.loc 1 446 13 is_stmt 1 view .LVU176
 446:Middlewares/ST/STM32_USB_Device_Library/Class/MSC/Src/usbd_msc.c ****             if (pdev->dev_speed == USBD_SPEED_HIGH)
 689              		.loc 1 446 46 is_stmt 0 view .LVU177
 690 015c 0F22     		movs	r2, #15
 691 015e 1340     		ands	r3, r2
 446:Middlewares/ST/STM32_USB_Device_Library/Class/MSC/Src/usbd_msc.c ****             if (pdev->dev_speed == USBD_SPEED_HIGH)
 692              		.loc 1 446 62 view .LVU178
 693 0160 9A00     		lsls	r2, r3, #2
 694 0162 D318     		adds	r3, r2, r3
 695 0164 9B00     		lsls	r3, r3, #2
 696 0166 EB18     		adds	r3, r5, r3
 697 0168 0022     		movs	r2, #0
 698 016a 9A61     		str	r2, [r3, #24]
 447:Middlewares/ST/STM32_USB_Device_Library/Class/MSC/Src/usbd_msc.c ****             {
 699              		.loc 1 447 13 is_stmt 1 view .LVU179
 447:Middlewares/ST/STM32_USB_Device_Library/Class/MSC/Src/usbd_msc.c ****             {
 700              		.loc 1 447 21 is_stmt 0 view .LVU180
 701 016c 2B7C     		ldrb	r3, [r5, #16]
 447:Middlewares/ST/STM32_USB_Device_Library/Class/MSC/Src/usbd_msc.c ****             {
 702              		.loc 1 447 16 view .LVU181
 703 016e 002B     		cmp	r3, #0
 704 0170 09D1     		bne	.L39
ARM GAS  /tmp/ccWAL3vR.s 			page 26


 450:Middlewares/ST/STM32_USB_Device_Library/Class/MSC/Src/usbd_msc.c ****                              MSC_MAX_HS_PACKET);
 705              		.loc 1 450 15 is_stmt 1 view .LVU182
 706 0172 8033     		adds	r3, r3, #128
 707 0174 9B00     		lsls	r3, r3, #2
 708 0176 0232     		adds	r2, r2, #2
 709 0178 8121     		movs	r1, #129
 710 017a 2800     		movs	r0, r5
 711 017c FFF7FEFF 		bl	USBD_LL_OpenEP
 712              	.LVL62:
 713              	.L40:
 459:Middlewares/ST/STM32_USB_Device_Library/Class/MSC/Src/usbd_msc.c ****           }
 714              		.loc 1 459 13 view .LVU183
 459:Middlewares/ST/STM32_USB_Device_Library/Class/MSC/Src/usbd_msc.c ****           }
 715              		.loc 1 459 55 is_stmt 0 view .LVU184
 716 0180 0123     		movs	r3, #1
 717 0182 EB62     		str	r3, [r5, #44]
 718 0184 B7E7     		b	.L41
 719              	.L39:
 456:Middlewares/ST/STM32_USB_Device_Library/Class/MSC/Src/usbd_msc.c ****                              MSC_MAX_FS_PACKET);
 720              		.loc 1 456 15 is_stmt 1 view .LVU185
 721 0186 4023     		movs	r3, #64
 722 0188 0222     		movs	r2, #2
 723 018a 8121     		movs	r1, #129
 724 018c 2800     		movs	r0, r5
 725 018e FFF7FEFF 		bl	USBD_LL_OpenEP
 726              	.LVL63:
 727 0192 F5E7     		b	.L40
 728              	.L42:
 473:Middlewares/ST/STM32_USB_Device_Library/Class/MSC/Src/usbd_msc.c ****                              MSC_MAX_FS_PACKET);
 729              		.loc 1 473 15 view .LVU186
 730 0194 4023     		movs	r3, #64
 731 0196 0222     		movs	r2, #2
 732 0198 0121     		movs	r1, #1
 733 019a 2800     		movs	r0, r5
 734 019c FFF7FEFF 		bl	USBD_LL_OpenEP
 735              	.LVL64:
 736 01a0 A5E7     		b	.L43
 737              	.LVL65:
 738              	.L33:
 484:Middlewares/ST/STM32_USB_Device_Library/Class/MSC/Src/usbd_msc.c ****           ret = USBD_FAIL;
 739              		.loc 1 484 11 view .LVU187
 740 01a2 2100     		movs	r1, r4
 741              	.LVL66:
 484:Middlewares/ST/STM32_USB_Device_Library/Class/MSC/Src/usbd_msc.c ****           ret = USBD_FAIL;
 742              		.loc 1 484 11 is_stmt 0 view .LVU188
 743 01a4 2800     		movs	r0, r5
 744              	.LVL67:
 484:Middlewares/ST/STM32_USB_Device_Library/Class/MSC/Src/usbd_msc.c ****           ret = USBD_FAIL;
 745              		.loc 1 484 11 view .LVU189
 746 01a6 FFF7FEFF 		bl	USBD_CtlError
 747              	.LVL68:
 485:Middlewares/ST/STM32_USB_Device_Library/Class/MSC/Src/usbd_msc.c ****           break;
 748              		.loc 1 485 11 is_stmt 1 view .LVU190
 486:Middlewares/ST/STM32_USB_Device_Library/Class/MSC/Src/usbd_msc.c ****       }
 749              		.loc 1 486 11 view .LVU191
 485:Middlewares/ST/STM32_USB_Device_Library/Class/MSC/Src/usbd_msc.c ****           break;
 750              		.loc 1 485 15 is_stmt 0 view .LVU192
ARM GAS  /tmp/ccWAL3vR.s 			page 27


 751 01aa 0226     		movs	r6, #2
 486:Middlewares/ST/STM32_USB_Device_Library/Class/MSC/Src/usbd_msc.c ****       }
 752              		.loc 1 486 11 view .LVU193
 753 01ac 02E0     		b	.L27
 754              	.LVL69:
 755              	.L22:
 491:Middlewares/ST/STM32_USB_Device_Library/Class/MSC/Src/usbd_msc.c ****       ret = USBD_FAIL;
 756              		.loc 1 491 7 is_stmt 1 view .LVU194
 757 01ae FFF7FEFF 		bl	USBD_CtlError
 758              	.LVL70:
 492:Middlewares/ST/STM32_USB_Device_Library/Class/MSC/Src/usbd_msc.c ****       break;
 759              		.loc 1 492 7 view .LVU195
 493:Middlewares/ST/STM32_USB_Device_Library/Class/MSC/Src/usbd_msc.c ****   }
 760              		.loc 1 493 7 view .LVU196
 492:Middlewares/ST/STM32_USB_Device_Library/Class/MSC/Src/usbd_msc.c ****       break;
 761              		.loc 1 492 11 is_stmt 0 view .LVU197
 762 01b2 0226     		movs	r6, #2
 763              	.LVL71:
 764              	.L27:
 496:Middlewares/ST/STM32_USB_Device_Library/Class/MSC/Src/usbd_msc.c **** }
 765              		.loc 1 496 3 is_stmt 1 view .LVU198
 497:Middlewares/ST/STM32_USB_Device_Library/Class/MSC/Src/usbd_msc.c **** 
 766              		.loc 1 497 1 is_stmt 0 view .LVU199
 767 01b4 3000     		movs	r0, r6
 768 01b6 02B0     		add	sp, sp, #8
 769              		@ sp needed
 770              	.LVL72:
 771              	.LVL73:
 772              	.LVL74:
 773              	.LVL75:
 497:Middlewares/ST/STM32_USB_Device_Library/Class/MSC/Src/usbd_msc.c **** 
 774              		.loc 1 497 1 view .LVU200
 775 01b8 04BC     		pop	{r2}
 776 01ba 9046     		mov	r8, r2
 777 01bc F0BD     		pop	{r4, r5, r6, r7, pc}
 778              		.cfi_endproc
 779              	.LFE45:
 781              		.section	.text.USBD_MSC_DataIn,"ax",%progbits
 782              		.align	1
 783              		.global	USBD_MSC_DataIn
 784              		.syntax unified
 785              		.code	16
 786              		.thumb_func
 787              		.fpu softvfp
 789              	USBD_MSC_DataIn:
 790              	.LVL76:
 791              	.LFB46:
 507:Middlewares/ST/STM32_USB_Device_Library/Class/MSC/Src/usbd_msc.c ****   MSC_BOT_DataIn(pdev, epnum);
 792              		.loc 1 507 1 is_stmt 1 view -0
 793              		.cfi_startproc
 794              		@ args = 0, pretend = 0, frame = 0
 795              		@ frame_needed = 0, uses_anonymous_args = 0
 507:Middlewares/ST/STM32_USB_Device_Library/Class/MSC/Src/usbd_msc.c ****   MSC_BOT_DataIn(pdev, epnum);
 796              		.loc 1 507 1 is_stmt 0 view .LVU202
 797 0000 10B5     		push	{r4, lr}
 798              	.LCFI5:
 799              		.cfi_def_cfa_offset 8
ARM GAS  /tmp/ccWAL3vR.s 			page 28


 800              		.cfi_offset 4, -8
 801              		.cfi_offset 14, -4
 508:Middlewares/ST/STM32_USB_Device_Library/Class/MSC/Src/usbd_msc.c **** 
 802              		.loc 1 508 3 is_stmt 1 view .LVU203
 803 0002 FFF7FEFF 		bl	MSC_BOT_DataIn
 804              	.LVL77:
 510:Middlewares/ST/STM32_USB_Device_Library/Class/MSC/Src/usbd_msc.c **** }
 805              		.loc 1 510 3 view .LVU204
 511:Middlewares/ST/STM32_USB_Device_Library/Class/MSC/Src/usbd_msc.c **** 
 806              		.loc 1 511 1 is_stmt 0 view .LVU205
 807 0006 0020     		movs	r0, #0
 808              		@ sp needed
 809 0008 10BD     		pop	{r4, pc}
 810              		.cfi_endproc
 811              	.LFE46:
 813              		.section	.text.USBD_MSC_DataOut,"ax",%progbits
 814              		.align	1
 815              		.global	USBD_MSC_DataOut
 816              		.syntax unified
 817              		.code	16
 818              		.thumb_func
 819              		.fpu softvfp
 821              	USBD_MSC_DataOut:
 822              	.LVL78:
 823              	.LFB47:
 521:Middlewares/ST/STM32_USB_Device_Library/Class/MSC/Src/usbd_msc.c ****   MSC_BOT_DataOut(pdev, epnum);
 824              		.loc 1 521 1 is_stmt 1 view -0
 825              		.cfi_startproc
 826              		@ args = 0, pretend = 0, frame = 0
 827              		@ frame_needed = 0, uses_anonymous_args = 0
 521:Middlewares/ST/STM32_USB_Device_Library/Class/MSC/Src/usbd_msc.c ****   MSC_BOT_DataOut(pdev, epnum);
 828              		.loc 1 521 1 is_stmt 0 view .LVU207
 829 0000 10B5     		push	{r4, lr}
 830              	.LCFI6:
 831              		.cfi_def_cfa_offset 8
 832              		.cfi_offset 4, -8
 833              		.cfi_offset 14, -4
 522:Middlewares/ST/STM32_USB_Device_Library/Class/MSC/Src/usbd_msc.c **** 
 834              		.loc 1 522 3 is_stmt 1 view .LVU208
 835 0002 FFF7FEFF 		bl	MSC_BOT_DataOut
 836              	.LVL79:
 524:Middlewares/ST/STM32_USB_Device_Library/Class/MSC/Src/usbd_msc.c **** }
 837              		.loc 1 524 3 view .LVU209
 525:Middlewares/ST/STM32_USB_Device_Library/Class/MSC/Src/usbd_msc.c **** 
 838              		.loc 1 525 1 is_stmt 0 view .LVU210
 839 0006 0020     		movs	r0, #0
 840              		@ sp needed
 841 0008 10BD     		pop	{r4, pc}
 842              		.cfi_endproc
 843              	.LFE47:
 845              		.section	.text.USBD_MSC_RegisterStorage,"ax",%progbits
 846              		.align	1
 847              		.global	USBD_MSC_RegisterStorage
 848              		.syntax unified
 849              		.code	16
 850              		.thumb_func
 851              		.fpu softvfp
ARM GAS  /tmp/ccWAL3vR.s 			page 29


 853              	USBD_MSC_RegisterStorage:
 854              	.LVL80:
 855              	.LFB52:
 577:Middlewares/ST/STM32_USB_Device_Library/Class/MSC/Src/usbd_msc.c **** 
 578:Middlewares/ST/STM32_USB_Device_Library/Class/MSC/Src/usbd_msc.c **** /**
 579:Middlewares/ST/STM32_USB_Device_Library/Class/MSC/Src/usbd_msc.c **** * @brief  USBD_MSC_RegisterStorage
 580:Middlewares/ST/STM32_USB_Device_Library/Class/MSC/Src/usbd_msc.c **** * @param  fops: storage callback
 581:Middlewares/ST/STM32_USB_Device_Library/Class/MSC/Src/usbd_msc.c **** * @retval status
 582:Middlewares/ST/STM32_USB_Device_Library/Class/MSC/Src/usbd_msc.c **** */
 583:Middlewares/ST/STM32_USB_Device_Library/Class/MSC/Src/usbd_msc.c **** uint8_t USBD_MSC_RegisterStorage(USBD_HandleTypeDef *pdev,
 584:Middlewares/ST/STM32_USB_Device_Library/Class/MSC/Src/usbd_msc.c ****                                  USBD_StorageTypeDef *fops)
 585:Middlewares/ST/STM32_USB_Device_Library/Class/MSC/Src/usbd_msc.c **** {
 856              		.loc 1 585 1 is_stmt 1 view -0
 857              		.cfi_startproc
 858              		@ args = 0, pretend = 0, frame = 0
 859              		@ frame_needed = 0, uses_anonymous_args = 0
 860              		@ link register save eliminated.
 586:Middlewares/ST/STM32_USB_Device_Library/Class/MSC/Src/usbd_msc.c ****   if (fops != NULL)
 861              		.loc 1 586 3 view .LVU212
 862              		.loc 1 586 6 is_stmt 0 view .LVU213
 863 0000 0029     		cmp	r1, #0
 864 0002 02D0     		beq	.L52
 587:Middlewares/ST/STM32_USB_Device_Library/Class/MSC/Src/usbd_msc.c ****   {
 588:Middlewares/ST/STM32_USB_Device_Library/Class/MSC/Src/usbd_msc.c ****     pdev->pUserData = fops;
 865              		.loc 1 588 5 is_stmt 1 view .LVU214
 866              		.loc 1 588 21 is_stmt 0 view .LVU215
 867 0004 AF23     		movs	r3, #175
 868 0006 9B00     		lsls	r3, r3, #2
 869 0008 C150     		str	r1, [r0, r3]
 870              	.L52:
 589:Middlewares/ST/STM32_USB_Device_Library/Class/MSC/Src/usbd_msc.c ****   }
 590:Middlewares/ST/STM32_USB_Device_Library/Class/MSC/Src/usbd_msc.c **** 
 591:Middlewares/ST/STM32_USB_Device_Library/Class/MSC/Src/usbd_msc.c ****   return USBD_OK;
 871              		.loc 1 591 3 is_stmt 1 view .LVU216
 592:Middlewares/ST/STM32_USB_Device_Library/Class/MSC/Src/usbd_msc.c **** }
 872              		.loc 1 592 1 is_stmt 0 view .LVU217
 873 000a 0020     		movs	r0, #0
 874              	.LVL81:
 875              		.loc 1 592 1 view .LVU218
 876              		@ sp needed
 877 000c 7047     		bx	lr
 878              		.cfi_endproc
 879              	.LFE52:
 881              		.global	USBD_MSC_DeviceQualifierDesc
 882              		.global	USBD_MSC_OtherSpeedCfgDesc
 883              		.global	USBD_MSC_CfgFSDesc
 884              		.global	USBD_MSC_CfgHSDesc
 885              		.global	USBD_MSC
 886              		.section	.data.USBD_MSC,"aw"
 887              		.align	2
 890              	USBD_MSC:
 891 0000 00000000 		.word	USBD_MSC_Init
 892 0004 00000000 		.word	USBD_MSC_DeInit
 893 0008 00000000 		.word	USBD_MSC_Setup
 894 000c 00000000 		.word	0
 895 0010 00000000 		.word	0
 896 0014 00000000 		.word	USBD_MSC_DataIn
ARM GAS  /tmp/ccWAL3vR.s 			page 30


 897 0018 00000000 		.word	USBD_MSC_DataOut
 898 001c 00000000 		.word	0
 899 0020 00000000 		.word	0
 900 0024 00000000 		.word	0
 901 0028 00000000 		.word	USBD_MSC_GetHSCfgDesc
 902 002c 00000000 		.word	USBD_MSC_GetFSCfgDesc
 903 0030 00000000 		.word	USBD_MSC_GetOtherSpeedCfgDesc
 904 0034 00000000 		.word	USBD_MSC_GetDeviceQualifierDescriptor
 905              		.section	.data.USBD_MSC_CfgFSDesc,"aw"
 906              		.align	2
 907              		.set	.LANCHOR1,. + 0
 910              	USBD_MSC_CfgFSDesc:
 911 0000 09022000 		.ascii	"\011\002 \000\001\001\004\3002\011\004\000\000\002\010"
 911      010104C0 
 911      32090400 
 911      000208
 912 000f 06500507 		.ascii	"\006P\005\007\005\201\002@\000\000\007\005\001\002@"
 912      05810240 
 912      00000705 
 912      010240
 913 001e 0000     		.ascii	"\000\000"
 914              		.section	.data.USBD_MSC_CfgHSDesc,"aw"
 915              		.align	2
 916              		.set	.LANCHOR0,. + 0
 919              	USBD_MSC_CfgHSDesc:
 920 0000 09022000 		.ascii	"\011\002 \000\001\001\004\3002\011\004\000\000\002\010"
 920      010104C0 
 920      32090400 
 920      000208
 921 000f 06500507 		.ascii	"\006P\005\007\005\201\002\000\002\000\007\005\001\002"
 921      05810200 
 921      02000705 
 921      0102
 922 001d 000200   		.ascii	"\000\002\000"
 923              		.section	.data.USBD_MSC_DeviceQualifierDesc,"aw"
 924              		.align	2
 925              		.set	.LANCHOR3,. + 0
 928              	USBD_MSC_DeviceQualifierDesc:
 929 0000 0A060002 		.ascii	"\012\006\000\002\000\000\000@\001\000"
 929      00000040 
 929      0100
 930              		.section	.data.USBD_MSC_OtherSpeedCfgDesc,"aw"
 931              		.align	2
 932              		.set	.LANCHOR2,. + 0
 935              	USBD_MSC_OtherSpeedCfgDesc:
 936 0000 09072000 		.ascii	"\011\007 \000\001\001\004\3002\011\004\000\000\002\010"
 936      010104C0 
 936      32090400 
 936      000208
 937 000f 06500507 		.ascii	"\006P\005\007\005\201\002@\000\000\007\005\001\002@"
 937      05810240 
 937      00000705 
 937      010240
 938 001e 0000     		.ascii	"\000\000"
 939              		.text
 940              	.Letext0:
 941              		.file 2 "/usr/arm-none-eabi/include/machine/_default_types.h"
ARM GAS  /tmp/ccWAL3vR.s 			page 31


 942              		.file 3 "/usr/arm-none-eabi/include/sys/lock.h"
 943              		.file 4 "/usr/arm-none-eabi/include/sys/_types.h"
 944              		.file 5 "/usr/lib/gcc/arm-none-eabi/9.2.0/include/stddef.h"
 945              		.file 6 "/usr/arm-none-eabi/include/sys/reent.h"
 946              		.file 7 "/usr/arm-none-eabi/include/sys/_stdint.h"
 947              		.file 8 "/usr/arm-none-eabi/include/stdlib.h"
 948              		.file 9 "Drivers/CMSIS/Device/ST/STM32F0xx/Include/system_stm32f0xx.h"
 949              		.file 10 "Drivers/STM32F0xx_HAL_Driver/Inc/stm32f0xx_hal.h"
 950              		.file 11 "Middlewares/ST/STM32_USB_Device_Library/Core/Inc/usbd_def.h"
 951              		.file 12 "Middlewares/ST/STM32_USB_Device_Library/Class/MSC/Inc/usbd_msc_bot.h"
 952              		.file 13 "Middlewares/ST/STM32_USB_Device_Library/Class/MSC/Inc/usbd_msc_scsi.h"
 953              		.file 14 "Middlewares/ST/STM32_USB_Device_Library/Class/MSC/Inc/usbd_msc.h"
 954              		.file 15 "Middlewares/ST/STM32_USB_Device_Library/Core/Inc/usbd_ctlreq.h"
 955              		.file 16 "Middlewares/ST/STM32_USB_Device_Library/Core/Inc/usbd_ioreq.h"
 956              		.file 17 "Middlewares/ST/STM32_USB_Device_Library/Core/Inc/usbd_core.h"
 957              		.file 18 "Inc/usbd_conf.h"
ARM GAS  /tmp/ccWAL3vR.s 			page 32

