ARM GAS  /tmp/ccSHmBiG.s 			page 1


   1              		.cpu cortex-m0
   2              		.eabi_attribute 20, 1
   3              		.eabi_attribute 21, 1
   4              		.eabi_attribute 23, 3
   5              		.eabi_attribute 24, 1
   6              		.eabi_attribute 25, 1
   7              		.eabi_attribute 26, 1
   8              		.eabi_attribute 30, 1
   9              		.eabi_attribute 34, 0
  10              		.eabi_attribute 18, 4
  11              		.file	"usbd_conf.c"
  12              		.text
  13              	.Ltext0:
  14              		.cfi_sections	.debug_frame
  15              		.section	.text.USBD_Get_USB_Status,"ax",%progbits
  16              		.align	1
  17              		.arch armv6s-m
  18              		.syntax unified
  19              		.code	16
  20              		.thumb_func
  21              		.fpu softvfp
  23              	USBD_Get_USB_Status:
  24              	.LVL0:
  25              	.LFB74:
  26              		.file 1 "Src/usbd_conf.c"
   1:Src/usbd_conf.c **** /* USER CODE BEGIN Header */
   2:Src/usbd_conf.c **** /**
   3:Src/usbd_conf.c ****   ******************************************************************************
   4:Src/usbd_conf.c ****   * @file           : usbd_conf.c
   5:Src/usbd_conf.c ****   * @version        : v2.0_Cube
   6:Src/usbd_conf.c ****   * @brief          : This file implements the board support package for the USB device library
   7:Src/usbd_conf.c ****   ******************************************************************************
   8:Src/usbd_conf.c ****   * @attention
   9:Src/usbd_conf.c ****   *
  10:Src/usbd_conf.c ****   * <h2><center>&copy; Copyright (c) 2020 STMicroelectronics.
  11:Src/usbd_conf.c ****   * All rights reserved.</center></h2>
  12:Src/usbd_conf.c ****   *
  13:Src/usbd_conf.c ****   * This software component is licensed by ST under Ultimate Liberty license
  14:Src/usbd_conf.c ****   * SLA0044, the "License"; You may not use this file except in compliance with
  15:Src/usbd_conf.c ****   * the License. You may obtain a copy of the License at:
  16:Src/usbd_conf.c ****   *                             www.st.com/SLA0044
  17:Src/usbd_conf.c ****   *
  18:Src/usbd_conf.c ****   ******************************************************************************
  19:Src/usbd_conf.c ****   */
  20:Src/usbd_conf.c **** /* USER CODE END Header */
  21:Src/usbd_conf.c **** 
  22:Src/usbd_conf.c **** /* Includes ------------------------------------------------------------------*/
  23:Src/usbd_conf.c **** #include "stm32f0xx.h"
  24:Src/usbd_conf.c **** #include "stm32f0xx_hal.h"
  25:Src/usbd_conf.c **** #include "usbd_def.h"
  26:Src/usbd_conf.c **** #include "usbd_core.h"
  27:Src/usbd_conf.c **** #include "usbd_msc.h"
  28:Src/usbd_conf.c **** 
  29:Src/usbd_conf.c **** /* USER CODE BEGIN Includes */
  30:Src/usbd_conf.c **** 
  31:Src/usbd_conf.c **** /* USER CODE END Includes */
  32:Src/usbd_conf.c **** 
ARM GAS  /tmp/ccSHmBiG.s 			page 2


  33:Src/usbd_conf.c **** /* Private typedef -----------------------------------------------------------*/
  34:Src/usbd_conf.c **** /* Private define ------------------------------------------------------------*/
  35:Src/usbd_conf.c **** /* Private macro -------------------------------------------------------------*/
  36:Src/usbd_conf.c **** 
  37:Src/usbd_conf.c **** /* USER CODE BEGIN PV */
  38:Src/usbd_conf.c **** /* Private variables ---------------------------------------------------------*/
  39:Src/usbd_conf.c **** 
  40:Src/usbd_conf.c **** /* USER CODE END PV */
  41:Src/usbd_conf.c **** 
  42:Src/usbd_conf.c **** PCD_HandleTypeDef hpcd_USB_FS;
  43:Src/usbd_conf.c **** void Error_Handler(void);
  44:Src/usbd_conf.c **** 
  45:Src/usbd_conf.c **** /* USER CODE BEGIN 0 */
  46:Src/usbd_conf.c **** 
  47:Src/usbd_conf.c **** /* USER CODE END 0 */
  48:Src/usbd_conf.c **** 
  49:Src/usbd_conf.c **** /* USER CODE BEGIN PFP */
  50:Src/usbd_conf.c **** /* Private function prototypes -----------------------------------------------*/
  51:Src/usbd_conf.c **** 
  52:Src/usbd_conf.c **** /* USER CODE END PFP */
  53:Src/usbd_conf.c **** 
  54:Src/usbd_conf.c **** /* Private functions ---------------------------------------------------------*/
  55:Src/usbd_conf.c **** static USBD_StatusTypeDef USBD_Get_USB_Status(HAL_StatusTypeDef hal_status);
  56:Src/usbd_conf.c **** /* USER CODE BEGIN 1 */
  57:Src/usbd_conf.c **** static void SystemClockConfig_Resume(void);
  58:Src/usbd_conf.c **** /* USER CODE END 1 */
  59:Src/usbd_conf.c **** extern void SystemClock_Config(void);
  60:Src/usbd_conf.c **** 
  61:Src/usbd_conf.c **** /*******************************************************************************
  62:Src/usbd_conf.c ****                        LL Driver Callbacks (PCD -> USB Device Library)
  63:Src/usbd_conf.c **** *******************************************************************************/
  64:Src/usbd_conf.c **** /* MSP Init */
  65:Src/usbd_conf.c **** 
  66:Src/usbd_conf.c **** void HAL_PCD_MspInit(PCD_HandleTypeDef* pcdHandle)
  67:Src/usbd_conf.c **** {
  68:Src/usbd_conf.c ****   if(pcdHandle->Instance==USB)
  69:Src/usbd_conf.c ****   {
  70:Src/usbd_conf.c ****   /* USER CODE BEGIN USB_MspInit 0 */
  71:Src/usbd_conf.c **** 
  72:Src/usbd_conf.c ****   /* USER CODE END USB_MspInit 0 */
  73:Src/usbd_conf.c ****     /* Peripheral clock enable */
  74:Src/usbd_conf.c ****     __HAL_RCC_USB_CLK_ENABLE();
  75:Src/usbd_conf.c **** 
  76:Src/usbd_conf.c ****     /* Peripheral interrupt init */
  77:Src/usbd_conf.c ****     HAL_NVIC_SetPriority(USB_IRQn, 0, 0);
  78:Src/usbd_conf.c ****     HAL_NVIC_EnableIRQ(USB_IRQn);
  79:Src/usbd_conf.c ****   /* USER CODE BEGIN USB_MspInit 1 */
  80:Src/usbd_conf.c **** 
  81:Src/usbd_conf.c ****   /* USER CODE END USB_MspInit 1 */
  82:Src/usbd_conf.c ****   }
  83:Src/usbd_conf.c **** }
  84:Src/usbd_conf.c **** 
  85:Src/usbd_conf.c **** void HAL_PCD_MspDeInit(PCD_HandleTypeDef* pcdHandle)
  86:Src/usbd_conf.c **** {
  87:Src/usbd_conf.c ****   if(pcdHandle->Instance==USB)
  88:Src/usbd_conf.c ****   {
  89:Src/usbd_conf.c ****   /* USER CODE BEGIN USB_MspDeInit 0 */
ARM GAS  /tmp/ccSHmBiG.s 			page 3


  90:Src/usbd_conf.c **** 
  91:Src/usbd_conf.c ****   /* USER CODE END USB_MspDeInit 0 */
  92:Src/usbd_conf.c ****     /* Peripheral clock disable */
  93:Src/usbd_conf.c ****     __HAL_RCC_USB_CLK_DISABLE();
  94:Src/usbd_conf.c **** 
  95:Src/usbd_conf.c ****     /* Peripheral interrupt Deinit*/
  96:Src/usbd_conf.c ****     HAL_NVIC_DisableIRQ(USB_IRQn);
  97:Src/usbd_conf.c **** 
  98:Src/usbd_conf.c ****   /* USER CODE BEGIN USB_MspDeInit 1 */
  99:Src/usbd_conf.c **** 
 100:Src/usbd_conf.c ****   /* USER CODE END USB_MspDeInit 1 */
 101:Src/usbd_conf.c ****   }
 102:Src/usbd_conf.c **** }
 103:Src/usbd_conf.c **** 
 104:Src/usbd_conf.c **** /**
 105:Src/usbd_conf.c ****   * @brief  Setup stage callback
 106:Src/usbd_conf.c ****   * @param  hpcd: PCD handle
 107:Src/usbd_conf.c ****   * @retval None
 108:Src/usbd_conf.c ****   */
 109:Src/usbd_conf.c **** #if (USE_HAL_PCD_REGISTER_CALLBACKS == 1U)
 110:Src/usbd_conf.c **** static void PCD_SetupStageCallback(PCD_HandleTypeDef *hpcd)
 111:Src/usbd_conf.c **** #else
 112:Src/usbd_conf.c **** void HAL_PCD_SetupStageCallback(PCD_HandleTypeDef *hpcd)
 113:Src/usbd_conf.c **** #endif /* USE_HAL_PCD_REGISTER_CALLBACKS */
 114:Src/usbd_conf.c **** {
 115:Src/usbd_conf.c ****   USBD_LL_SetupStage((USBD_HandleTypeDef*)hpcd->pData, (uint8_t *)hpcd->Setup);
 116:Src/usbd_conf.c **** }
 117:Src/usbd_conf.c **** 
 118:Src/usbd_conf.c **** /**
 119:Src/usbd_conf.c ****   * @brief  Data Out stage callback.
 120:Src/usbd_conf.c ****   * @param  hpcd: PCD handle
 121:Src/usbd_conf.c ****   * @param  epnum: Endpoint number
 122:Src/usbd_conf.c ****   * @retval None
 123:Src/usbd_conf.c ****   */
 124:Src/usbd_conf.c **** #if (USE_HAL_PCD_REGISTER_CALLBACKS == 1U)
 125:Src/usbd_conf.c **** static void PCD_DataOutStageCallback(PCD_HandleTypeDef *hpcd, uint8_t epnum)
 126:Src/usbd_conf.c **** #else
 127:Src/usbd_conf.c **** void HAL_PCD_DataOutStageCallback(PCD_HandleTypeDef *hpcd, uint8_t epnum)
 128:Src/usbd_conf.c **** #endif /* USE_HAL_PCD_REGISTER_CALLBACKS */
 129:Src/usbd_conf.c **** {
 130:Src/usbd_conf.c ****   USBD_LL_DataOutStage((USBD_HandleTypeDef*)hpcd->pData, epnum, hpcd->OUT_ep[epnum].xfer_buff);
 131:Src/usbd_conf.c **** }
 132:Src/usbd_conf.c **** 
 133:Src/usbd_conf.c **** /**
 134:Src/usbd_conf.c ****   * @brief  Data In stage callback.
 135:Src/usbd_conf.c ****   * @param  hpcd: PCD handle
 136:Src/usbd_conf.c ****   * @param  epnum: Endpoint number
 137:Src/usbd_conf.c ****   * @retval None
 138:Src/usbd_conf.c ****   */
 139:Src/usbd_conf.c **** #if (USE_HAL_PCD_REGISTER_CALLBACKS == 1U)
 140:Src/usbd_conf.c **** static void PCD_DataInStageCallback(PCD_HandleTypeDef *hpcd, uint8_t epnum)
 141:Src/usbd_conf.c **** #else
 142:Src/usbd_conf.c **** void HAL_PCD_DataInStageCallback(PCD_HandleTypeDef *hpcd, uint8_t epnum)
 143:Src/usbd_conf.c **** #endif /* USE_HAL_PCD_REGISTER_CALLBACKS */
 144:Src/usbd_conf.c **** {
 145:Src/usbd_conf.c ****   USBD_LL_DataInStage((USBD_HandleTypeDef*)hpcd->pData, epnum, hpcd->IN_ep[epnum].xfer_buff);
 146:Src/usbd_conf.c **** }
ARM GAS  /tmp/ccSHmBiG.s 			page 4


 147:Src/usbd_conf.c **** 
 148:Src/usbd_conf.c **** /**
 149:Src/usbd_conf.c ****   * @brief  SOF callback.
 150:Src/usbd_conf.c ****   * @param  hpcd: PCD handle
 151:Src/usbd_conf.c ****   * @retval None
 152:Src/usbd_conf.c ****   */
 153:Src/usbd_conf.c **** #if (USE_HAL_PCD_REGISTER_CALLBACKS == 1U)
 154:Src/usbd_conf.c **** static void PCD_SOFCallback(PCD_HandleTypeDef *hpcd)
 155:Src/usbd_conf.c **** #else
 156:Src/usbd_conf.c **** void HAL_PCD_SOFCallback(PCD_HandleTypeDef *hpcd)
 157:Src/usbd_conf.c **** #endif /* USE_HAL_PCD_REGISTER_CALLBACKS */
 158:Src/usbd_conf.c **** {
 159:Src/usbd_conf.c ****   USBD_LL_SOF((USBD_HandleTypeDef*)hpcd->pData);
 160:Src/usbd_conf.c **** }
 161:Src/usbd_conf.c **** 
 162:Src/usbd_conf.c **** /**
 163:Src/usbd_conf.c ****   * @brief  Reset callback.
 164:Src/usbd_conf.c ****   * @param  hpcd: PCD handle
 165:Src/usbd_conf.c ****   * @retval None
 166:Src/usbd_conf.c ****   */
 167:Src/usbd_conf.c **** #if (USE_HAL_PCD_REGISTER_CALLBACKS == 1U)
 168:Src/usbd_conf.c **** static void PCD_ResetCallback(PCD_HandleTypeDef *hpcd)
 169:Src/usbd_conf.c **** #else
 170:Src/usbd_conf.c **** void HAL_PCD_ResetCallback(PCD_HandleTypeDef *hpcd)
 171:Src/usbd_conf.c **** #endif /* USE_HAL_PCD_REGISTER_CALLBACKS */
 172:Src/usbd_conf.c **** { 
 173:Src/usbd_conf.c ****   USBD_SpeedTypeDef speed = USBD_SPEED_FULL;
 174:Src/usbd_conf.c **** 
 175:Src/usbd_conf.c ****   if ( hpcd->Init.speed != PCD_SPEED_FULL)
 176:Src/usbd_conf.c ****   {
 177:Src/usbd_conf.c ****     Error_Handler();
 178:Src/usbd_conf.c ****   }
 179:Src/usbd_conf.c ****     /* Set Speed. */
 180:Src/usbd_conf.c ****   USBD_LL_SetSpeed((USBD_HandleTypeDef*)hpcd->pData, speed);
 181:Src/usbd_conf.c **** 
 182:Src/usbd_conf.c ****   /* Reset Device. */
 183:Src/usbd_conf.c ****   USBD_LL_Reset((USBD_HandleTypeDef*)hpcd->pData);
 184:Src/usbd_conf.c **** }
 185:Src/usbd_conf.c **** 
 186:Src/usbd_conf.c **** /**
 187:Src/usbd_conf.c ****   * @brief  Suspend callback.
 188:Src/usbd_conf.c ****   * When Low power mode is enabled the debug cannot be used (IAR, Keil doesn't support it)
 189:Src/usbd_conf.c ****   * @param  hpcd: PCD handle
 190:Src/usbd_conf.c ****   * @retval None
 191:Src/usbd_conf.c ****   */
 192:Src/usbd_conf.c **** #if (USE_HAL_PCD_REGISTER_CALLBACKS == 1U)
 193:Src/usbd_conf.c **** static void PCD_SuspendCallback(PCD_HandleTypeDef *hpcd)
 194:Src/usbd_conf.c **** #else
 195:Src/usbd_conf.c **** void HAL_PCD_SuspendCallback(PCD_HandleTypeDef *hpcd)
 196:Src/usbd_conf.c **** #endif /* USE_HAL_PCD_REGISTER_CALLBACKS */
 197:Src/usbd_conf.c **** {
 198:Src/usbd_conf.c ****   /* Inform USB library that core enters in suspend Mode. */
 199:Src/usbd_conf.c ****   USBD_LL_Suspend((USBD_HandleTypeDef*)hpcd->pData);
 200:Src/usbd_conf.c ****   /* Enter in STOP mode. */
 201:Src/usbd_conf.c ****   /* USER CODE BEGIN 2 */
 202:Src/usbd_conf.c ****   if (hpcd->Init.low_power_enable)
 203:Src/usbd_conf.c ****   {
ARM GAS  /tmp/ccSHmBiG.s 			page 5


 204:Src/usbd_conf.c ****     /* Set SLEEPDEEP bit and SleepOnExit of Cortex System Control Register. */
 205:Src/usbd_conf.c ****     SCB->SCR |= (uint32_t)((uint32_t)(SCB_SCR_SLEEPDEEP_Msk | SCB_SCR_SLEEPONEXIT_Msk));
 206:Src/usbd_conf.c ****   }
 207:Src/usbd_conf.c ****   /* USER CODE END 2 */
 208:Src/usbd_conf.c **** }
 209:Src/usbd_conf.c **** 
 210:Src/usbd_conf.c **** /**
 211:Src/usbd_conf.c ****   * @brief  Resume callback.
 212:Src/usbd_conf.c ****   * When Low power mode is enabled the debug cannot be used (IAR, Keil doesn't support it)
 213:Src/usbd_conf.c ****   * @param  hpcd: PCD handle
 214:Src/usbd_conf.c ****   * @retval None
 215:Src/usbd_conf.c ****   */
 216:Src/usbd_conf.c **** #if (USE_HAL_PCD_REGISTER_CALLBACKS == 1U)
 217:Src/usbd_conf.c **** static void PCD_ResumeCallback(PCD_HandleTypeDef *hpcd)
 218:Src/usbd_conf.c **** #else
 219:Src/usbd_conf.c **** void HAL_PCD_ResumeCallback(PCD_HandleTypeDef *hpcd)
 220:Src/usbd_conf.c **** #endif /* USE_HAL_PCD_REGISTER_CALLBACKS */
 221:Src/usbd_conf.c **** {
 222:Src/usbd_conf.c ****   /* USER CODE BEGIN 3 */
 223:Src/usbd_conf.c ****   if (hpcd->Init.low_power_enable)
 224:Src/usbd_conf.c ****   {
 225:Src/usbd_conf.c ****     /* Reset SLEEPDEEP bit of Cortex System Control Register. */
 226:Src/usbd_conf.c ****     SCB->SCR &= (uint32_t)~((uint32_t)(SCB_SCR_SLEEPDEEP_Msk | SCB_SCR_SLEEPONEXIT_Msk));
 227:Src/usbd_conf.c ****     SystemClockConfig_Resume();
 228:Src/usbd_conf.c ****   }
 229:Src/usbd_conf.c ****   /* USER CODE END 3 */
 230:Src/usbd_conf.c ****   USBD_LL_Resume((USBD_HandleTypeDef*)hpcd->pData);
 231:Src/usbd_conf.c **** }
 232:Src/usbd_conf.c **** 
 233:Src/usbd_conf.c **** /**
 234:Src/usbd_conf.c ****   * @brief  ISOOUTIncomplete callback.
 235:Src/usbd_conf.c ****   * @param  hpcd: PCD handle
 236:Src/usbd_conf.c ****   * @param  epnum: Endpoint number
 237:Src/usbd_conf.c ****   * @retval None
 238:Src/usbd_conf.c ****   */
 239:Src/usbd_conf.c **** #if (USE_HAL_PCD_REGISTER_CALLBACKS == 1U)
 240:Src/usbd_conf.c **** static void PCD_ISOOUTIncompleteCallback(PCD_HandleTypeDef *hpcd, uint8_t epnum)
 241:Src/usbd_conf.c **** #else
 242:Src/usbd_conf.c **** void HAL_PCD_ISOOUTIncompleteCallback(PCD_HandleTypeDef *hpcd, uint8_t epnum)
 243:Src/usbd_conf.c **** #endif /* USE_HAL_PCD_REGISTER_CALLBACKS */
 244:Src/usbd_conf.c **** {
 245:Src/usbd_conf.c ****   USBD_LL_IsoOUTIncomplete((USBD_HandleTypeDef*)hpcd->pData, epnum);
 246:Src/usbd_conf.c **** }
 247:Src/usbd_conf.c **** 
 248:Src/usbd_conf.c **** /**
 249:Src/usbd_conf.c ****   * @brief  ISOINIncomplete callback.
 250:Src/usbd_conf.c ****   * @param  hpcd: PCD handle
 251:Src/usbd_conf.c ****   * @param  epnum: Endpoint number
 252:Src/usbd_conf.c ****   * @retval None
 253:Src/usbd_conf.c ****   */
 254:Src/usbd_conf.c **** #if (USE_HAL_PCD_REGISTER_CALLBACKS == 1U)
 255:Src/usbd_conf.c **** static void PCD_ISOINIncompleteCallback(PCD_HandleTypeDef *hpcd, uint8_t epnum)
 256:Src/usbd_conf.c **** #else
 257:Src/usbd_conf.c **** void HAL_PCD_ISOINIncompleteCallback(PCD_HandleTypeDef *hpcd, uint8_t epnum)
 258:Src/usbd_conf.c **** #endif /* USE_HAL_PCD_REGISTER_CALLBACKS */
 259:Src/usbd_conf.c **** {
 260:Src/usbd_conf.c ****   USBD_LL_IsoINIncomplete((USBD_HandleTypeDef*)hpcd->pData, epnum);
ARM GAS  /tmp/ccSHmBiG.s 			page 6


 261:Src/usbd_conf.c **** }
 262:Src/usbd_conf.c **** 
 263:Src/usbd_conf.c **** /**
 264:Src/usbd_conf.c ****   * @brief  Connect callback.
 265:Src/usbd_conf.c ****   * @param  hpcd: PCD handle
 266:Src/usbd_conf.c ****   * @retval None
 267:Src/usbd_conf.c ****   */
 268:Src/usbd_conf.c **** #if (USE_HAL_PCD_REGISTER_CALLBACKS == 1U)
 269:Src/usbd_conf.c **** static void PCD_ConnectCallback(PCD_HandleTypeDef *hpcd)
 270:Src/usbd_conf.c **** #else
 271:Src/usbd_conf.c **** void HAL_PCD_ConnectCallback(PCD_HandleTypeDef *hpcd)
 272:Src/usbd_conf.c **** #endif /* USE_HAL_PCD_REGISTER_CALLBACKS */
 273:Src/usbd_conf.c **** {
 274:Src/usbd_conf.c ****   USBD_LL_DevConnected((USBD_HandleTypeDef*)hpcd->pData);
 275:Src/usbd_conf.c **** }
 276:Src/usbd_conf.c **** 
 277:Src/usbd_conf.c **** /**
 278:Src/usbd_conf.c ****   * @brief  Disconnect callback.
 279:Src/usbd_conf.c ****   * @param  hpcd: PCD handle
 280:Src/usbd_conf.c ****   * @retval None
 281:Src/usbd_conf.c ****   */
 282:Src/usbd_conf.c **** #if (USE_HAL_PCD_REGISTER_CALLBACKS == 1U)
 283:Src/usbd_conf.c **** static void PCD_DisconnectCallback(PCD_HandleTypeDef *hpcd)
 284:Src/usbd_conf.c **** #else
 285:Src/usbd_conf.c **** void HAL_PCD_DisconnectCallback(PCD_HandleTypeDef *hpcd)
 286:Src/usbd_conf.c **** #endif /* USE_HAL_PCD_REGISTER_CALLBACKS */
 287:Src/usbd_conf.c **** {
 288:Src/usbd_conf.c ****   USBD_LL_DevDisconnected((USBD_HandleTypeDef*)hpcd->pData);
 289:Src/usbd_conf.c **** }
 290:Src/usbd_conf.c **** 
 291:Src/usbd_conf.c **** /*******************************************************************************
 292:Src/usbd_conf.c ****                        LL Driver Interface (USB Device Library --> PCD)
 293:Src/usbd_conf.c **** *******************************************************************************/
 294:Src/usbd_conf.c **** 
 295:Src/usbd_conf.c **** /**
 296:Src/usbd_conf.c ****   * @brief  Initializes the low level portion of the device driver.
 297:Src/usbd_conf.c ****   * @param  pdev: Device handle
 298:Src/usbd_conf.c ****   * @retval USBD status
 299:Src/usbd_conf.c ****   */
 300:Src/usbd_conf.c **** USBD_StatusTypeDef USBD_LL_Init(USBD_HandleTypeDef *pdev)
 301:Src/usbd_conf.c **** {
 302:Src/usbd_conf.c ****   /* Init USB Ip. */
 303:Src/usbd_conf.c ****   /* Link the driver to the stack. */
 304:Src/usbd_conf.c ****   hpcd_USB_FS.pData = pdev;
 305:Src/usbd_conf.c ****   pdev->pData = &hpcd_USB_FS;
 306:Src/usbd_conf.c **** 
 307:Src/usbd_conf.c ****   hpcd_USB_FS.Instance = USB;
 308:Src/usbd_conf.c ****   hpcd_USB_FS.Init.dev_endpoints = 8;
 309:Src/usbd_conf.c ****   hpcd_USB_FS.Init.speed = PCD_SPEED_FULL;
 310:Src/usbd_conf.c ****   hpcd_USB_FS.Init.phy_itface = PCD_PHY_EMBEDDED;
 311:Src/usbd_conf.c ****   hpcd_USB_FS.Init.low_power_enable = DISABLE;
 312:Src/usbd_conf.c ****   hpcd_USB_FS.Init.lpm_enable = DISABLE;
 313:Src/usbd_conf.c ****   hpcd_USB_FS.Init.battery_charging_enable = DISABLE;
 314:Src/usbd_conf.c ****   if (HAL_PCD_Init(&hpcd_USB_FS) != HAL_OK)
 315:Src/usbd_conf.c ****   {
 316:Src/usbd_conf.c ****     Error_Handler( );
 317:Src/usbd_conf.c ****   }
ARM GAS  /tmp/ccSHmBiG.s 			page 7


 318:Src/usbd_conf.c **** 
 319:Src/usbd_conf.c **** #if (USE_HAL_PCD_REGISTER_CALLBACKS == 1U)
 320:Src/usbd_conf.c ****   /* Register USB PCD CallBacks */
 321:Src/usbd_conf.c ****   HAL_PCD_RegisterCallback(&hpcd_USB_FS, HAL_PCD_SOF_CB_ID, PCD_SOFCallback);
 322:Src/usbd_conf.c ****   HAL_PCD_RegisterCallback(&hpcd_USB_FS, HAL_PCD_SETUPSTAGE_CB_ID, PCD_SetupStageCallback);
 323:Src/usbd_conf.c ****   HAL_PCD_RegisterCallback(&hpcd_USB_FS, HAL_PCD_RESET_CB_ID, PCD_ResetCallback);
 324:Src/usbd_conf.c ****   HAL_PCD_RegisterCallback(&hpcd_USB_FS, HAL_PCD_SUSPEND_CB_ID, PCD_SuspendCallback);
 325:Src/usbd_conf.c ****   HAL_PCD_RegisterCallback(&hpcd_USB_FS, HAL_PCD_RESUME_CB_ID, PCD_ResumeCallback);
 326:Src/usbd_conf.c ****   HAL_PCD_RegisterCallback(&hpcd_USB_FS, HAL_PCD_CONNECT_CB_ID, PCD_ConnectCallback);
 327:Src/usbd_conf.c ****   HAL_PCD_RegisterCallback(&hpcd_USB_FS, HAL_PCD_DISCONNECT_CB_ID, PCD_DisconnectCallback);
 328:Src/usbd_conf.c **** 
 329:Src/usbd_conf.c ****   HAL_PCD_RegisterDataOutStageCallback(&hpcd_USB_FS, PCD_DataOutStageCallback);
 330:Src/usbd_conf.c ****   HAL_PCD_RegisterDataInStageCallback(&hpcd_USB_FS, PCD_DataInStageCallback);
 331:Src/usbd_conf.c ****   HAL_PCD_RegisterIsoOutIncpltCallback(&hpcd_USB_FS, PCD_ISOOUTIncompleteCallback);
 332:Src/usbd_conf.c ****   HAL_PCD_RegisterIsoInIncpltCallback(&hpcd_USB_FS, PCD_ISOINIncompleteCallback);
 333:Src/usbd_conf.c **** #endif /* USE_HAL_PCD_REGISTER_CALLBACKS */
 334:Src/usbd_conf.c ****   /* USER CODE BEGIN EndPoint_Configuration */
 335:Src/usbd_conf.c ****   HAL_PCDEx_PMAConfig((PCD_HandleTypeDef*)pdev->pData , 0x00 , PCD_SNG_BUF, 0x18);
 336:Src/usbd_conf.c ****   HAL_PCDEx_PMAConfig((PCD_HandleTypeDef*)pdev->pData , 0x80 , PCD_SNG_BUF, 0x58);
 337:Src/usbd_conf.c ****   /* USER CODE END EndPoint_Configuration */
 338:Src/usbd_conf.c ****   /* USER CODE BEGIN EndPoint_Configuration_MSC */
 339:Src/usbd_conf.c ****   HAL_PCDEx_PMAConfig((PCD_HandleTypeDef*)pdev->pData , 0x81 , PCD_SNG_BUF, 0x98);
 340:Src/usbd_conf.c ****   HAL_PCDEx_PMAConfig((PCD_HandleTypeDef*)pdev->pData , 0x01 , PCD_SNG_BUF, 0xD8);
 341:Src/usbd_conf.c ****   /* USER CODE END EndPoint_Configuration_MSC */
 342:Src/usbd_conf.c ****   return USBD_OK;
 343:Src/usbd_conf.c **** }
 344:Src/usbd_conf.c **** 
 345:Src/usbd_conf.c **** /**
 346:Src/usbd_conf.c ****   * @brief  De-Initializes the low level portion of the device driver.
 347:Src/usbd_conf.c ****   * @param  pdev: Device handle
 348:Src/usbd_conf.c ****   * @retval USBD status
 349:Src/usbd_conf.c ****   */
 350:Src/usbd_conf.c **** USBD_StatusTypeDef USBD_LL_DeInit(USBD_HandleTypeDef *pdev)
 351:Src/usbd_conf.c **** {
 352:Src/usbd_conf.c ****   HAL_StatusTypeDef hal_status = HAL_OK;
 353:Src/usbd_conf.c ****   USBD_StatusTypeDef usb_status = USBD_OK;
 354:Src/usbd_conf.c **** 
 355:Src/usbd_conf.c ****   hal_status = HAL_PCD_DeInit(pdev->pData);
 356:Src/usbd_conf.c **** 
 357:Src/usbd_conf.c ****   usb_status =  USBD_Get_USB_Status(hal_status);
 358:Src/usbd_conf.c ****  
 359:Src/usbd_conf.c ****   return usb_status; 
 360:Src/usbd_conf.c **** }
 361:Src/usbd_conf.c **** 
 362:Src/usbd_conf.c **** /**
 363:Src/usbd_conf.c ****   * @brief  Starts the low level portion of the device driver.
 364:Src/usbd_conf.c ****   * @param  pdev: Device handle
 365:Src/usbd_conf.c ****   * @retval USBD status
 366:Src/usbd_conf.c ****   */
 367:Src/usbd_conf.c **** USBD_StatusTypeDef USBD_LL_Start(USBD_HandleTypeDef *pdev)
 368:Src/usbd_conf.c **** {
 369:Src/usbd_conf.c ****   HAL_StatusTypeDef hal_status = HAL_OK;
 370:Src/usbd_conf.c ****   USBD_StatusTypeDef usb_status = USBD_OK;
 371:Src/usbd_conf.c ****  
 372:Src/usbd_conf.c ****   hal_status = HAL_PCD_Start(pdev->pData);
 373:Src/usbd_conf.c ****      
 374:Src/usbd_conf.c ****   usb_status =  USBD_Get_USB_Status(hal_status);
ARM GAS  /tmp/ccSHmBiG.s 			page 8


 375:Src/usbd_conf.c ****   
 376:Src/usbd_conf.c ****   return usb_status;
 377:Src/usbd_conf.c **** }
 378:Src/usbd_conf.c **** 
 379:Src/usbd_conf.c **** /**
 380:Src/usbd_conf.c ****   * @brief  Stops the low level portion of the device driver.
 381:Src/usbd_conf.c ****   * @param  pdev: Device handle
 382:Src/usbd_conf.c ****   * @retval USBD status
 383:Src/usbd_conf.c ****   */
 384:Src/usbd_conf.c **** USBD_StatusTypeDef USBD_LL_Stop(USBD_HandleTypeDef *pdev)
 385:Src/usbd_conf.c **** {
 386:Src/usbd_conf.c ****   HAL_StatusTypeDef hal_status = HAL_OK;
 387:Src/usbd_conf.c ****   USBD_StatusTypeDef usb_status = USBD_OK;
 388:Src/usbd_conf.c **** 
 389:Src/usbd_conf.c ****   hal_status = HAL_PCD_Stop(pdev->pData);
 390:Src/usbd_conf.c **** 
 391:Src/usbd_conf.c ****   usb_status =  USBD_Get_USB_Status(hal_status);
 392:Src/usbd_conf.c ****   
 393:Src/usbd_conf.c ****   return usb_status;
 394:Src/usbd_conf.c **** }
 395:Src/usbd_conf.c **** 
 396:Src/usbd_conf.c **** /**
 397:Src/usbd_conf.c ****   * @brief  Opens an endpoint of the low level driver.
 398:Src/usbd_conf.c ****   * @param  pdev: Device handle
 399:Src/usbd_conf.c ****   * @param  ep_addr: Endpoint number
 400:Src/usbd_conf.c ****   * @param  ep_type: Endpoint type
 401:Src/usbd_conf.c ****   * @param  ep_mps: Endpoint max packet size
 402:Src/usbd_conf.c ****   * @retval USBD status
 403:Src/usbd_conf.c ****   */
 404:Src/usbd_conf.c **** USBD_StatusTypeDef USBD_LL_OpenEP(USBD_HandleTypeDef *pdev, uint8_t ep_addr, uint8_t ep_type, uint1
 405:Src/usbd_conf.c **** {
 406:Src/usbd_conf.c ****   HAL_StatusTypeDef hal_status = HAL_OK;
 407:Src/usbd_conf.c ****   USBD_StatusTypeDef usb_status = USBD_OK;
 408:Src/usbd_conf.c **** 
 409:Src/usbd_conf.c ****   hal_status = HAL_PCD_EP_Open(pdev->pData, ep_addr, ep_mps, ep_type);
 410:Src/usbd_conf.c **** 
 411:Src/usbd_conf.c ****   usb_status =  USBD_Get_USB_Status(hal_status);
 412:Src/usbd_conf.c ****  
 413:Src/usbd_conf.c ****   return usb_status;
 414:Src/usbd_conf.c **** }
 415:Src/usbd_conf.c **** 
 416:Src/usbd_conf.c **** /**
 417:Src/usbd_conf.c ****   * @brief  Closes an endpoint of the low level driver.
 418:Src/usbd_conf.c ****   * @param  pdev: Device handle
 419:Src/usbd_conf.c ****   * @param  ep_addr: Endpoint number
 420:Src/usbd_conf.c ****   * @retval USBD status
 421:Src/usbd_conf.c ****   */
 422:Src/usbd_conf.c **** USBD_StatusTypeDef USBD_LL_CloseEP(USBD_HandleTypeDef *pdev, uint8_t ep_addr)
 423:Src/usbd_conf.c **** {
 424:Src/usbd_conf.c ****   HAL_StatusTypeDef hal_status = HAL_OK;
 425:Src/usbd_conf.c ****   USBD_StatusTypeDef usb_status = USBD_OK;
 426:Src/usbd_conf.c ****   
 427:Src/usbd_conf.c ****   hal_status = HAL_PCD_EP_Close(pdev->pData, ep_addr);
 428:Src/usbd_conf.c ****       
 429:Src/usbd_conf.c ****   usb_status =  USBD_Get_USB_Status(hal_status);
 430:Src/usbd_conf.c **** 
 431:Src/usbd_conf.c ****   return usb_status;  
ARM GAS  /tmp/ccSHmBiG.s 			page 9


 432:Src/usbd_conf.c **** }
 433:Src/usbd_conf.c **** 
 434:Src/usbd_conf.c **** /**
 435:Src/usbd_conf.c ****   * @brief  Flushes an endpoint of the Low Level Driver.
 436:Src/usbd_conf.c ****   * @param  pdev: Device handle
 437:Src/usbd_conf.c ****   * @param  ep_addr: Endpoint number
 438:Src/usbd_conf.c ****   * @retval USBD status
 439:Src/usbd_conf.c ****   */
 440:Src/usbd_conf.c **** USBD_StatusTypeDef USBD_LL_FlushEP(USBD_HandleTypeDef *pdev, uint8_t ep_addr)
 441:Src/usbd_conf.c **** {
 442:Src/usbd_conf.c ****   HAL_StatusTypeDef hal_status = HAL_OK;
 443:Src/usbd_conf.c ****   USBD_StatusTypeDef usb_status = USBD_OK;
 444:Src/usbd_conf.c ****   
 445:Src/usbd_conf.c ****   hal_status = HAL_PCD_EP_Flush(pdev->pData, ep_addr);
 446:Src/usbd_conf.c ****       
 447:Src/usbd_conf.c ****   usb_status =  USBD_Get_USB_Status(hal_status);
 448:Src/usbd_conf.c ****   
 449:Src/usbd_conf.c ****   return usb_status;  
 450:Src/usbd_conf.c **** }
 451:Src/usbd_conf.c **** 
 452:Src/usbd_conf.c **** /**
 453:Src/usbd_conf.c ****   * @brief  Sets a Stall condition on an endpoint of the Low Level Driver.
 454:Src/usbd_conf.c ****   * @param  pdev: Device handle
 455:Src/usbd_conf.c ****   * @param  ep_addr: Endpoint number
 456:Src/usbd_conf.c ****   * @retval USBD status
 457:Src/usbd_conf.c ****   */
 458:Src/usbd_conf.c **** USBD_StatusTypeDef USBD_LL_StallEP(USBD_HandleTypeDef *pdev, uint8_t ep_addr)
 459:Src/usbd_conf.c **** {
 460:Src/usbd_conf.c ****   HAL_StatusTypeDef hal_status = HAL_OK;
 461:Src/usbd_conf.c ****   USBD_StatusTypeDef usb_status = USBD_OK;
 462:Src/usbd_conf.c ****   
 463:Src/usbd_conf.c ****   hal_status = HAL_PCD_EP_SetStall(pdev->pData, ep_addr);
 464:Src/usbd_conf.c **** 
 465:Src/usbd_conf.c ****   usb_status =  USBD_Get_USB_Status(hal_status);
 466:Src/usbd_conf.c ****  
 467:Src/usbd_conf.c ****   return usb_status;  
 468:Src/usbd_conf.c **** }
 469:Src/usbd_conf.c **** 
 470:Src/usbd_conf.c **** /**
 471:Src/usbd_conf.c ****   * @brief  Clears a Stall condition on an endpoint of the Low Level Driver.
 472:Src/usbd_conf.c ****   * @param  pdev: Device handle
 473:Src/usbd_conf.c ****   * @param  ep_addr: Endpoint number
 474:Src/usbd_conf.c ****   * @retval USBD status
 475:Src/usbd_conf.c ****   */
 476:Src/usbd_conf.c **** USBD_StatusTypeDef USBD_LL_ClearStallEP(USBD_HandleTypeDef *pdev, uint8_t ep_addr)
 477:Src/usbd_conf.c **** {
 478:Src/usbd_conf.c ****   HAL_StatusTypeDef hal_status = HAL_OK;
 479:Src/usbd_conf.c ****   USBD_StatusTypeDef usb_status = USBD_OK;
 480:Src/usbd_conf.c ****   
 481:Src/usbd_conf.c ****   hal_status = HAL_PCD_EP_ClrStall(pdev->pData, ep_addr);  
 482:Src/usbd_conf.c ****      
 483:Src/usbd_conf.c ****   usb_status =  USBD_Get_USB_Status(hal_status);
 484:Src/usbd_conf.c **** 
 485:Src/usbd_conf.c ****   return usb_status; 
 486:Src/usbd_conf.c **** }
 487:Src/usbd_conf.c **** 
 488:Src/usbd_conf.c **** /**
ARM GAS  /tmp/ccSHmBiG.s 			page 10


 489:Src/usbd_conf.c ****   * @brief  Returns Stall condition.
 490:Src/usbd_conf.c ****   * @param  pdev: Device handle
 491:Src/usbd_conf.c ****   * @param  ep_addr: Endpoint number
 492:Src/usbd_conf.c ****   * @retval Stall (1: Yes, 0: No)
 493:Src/usbd_conf.c ****   */
 494:Src/usbd_conf.c **** uint8_t USBD_LL_IsStallEP(USBD_HandleTypeDef *pdev, uint8_t ep_addr)
 495:Src/usbd_conf.c **** {
 496:Src/usbd_conf.c ****   PCD_HandleTypeDef *hpcd = (PCD_HandleTypeDef*) pdev->pData;
 497:Src/usbd_conf.c ****   
 498:Src/usbd_conf.c ****   if((ep_addr & 0x80) == 0x80)
 499:Src/usbd_conf.c ****   {
 500:Src/usbd_conf.c ****     return hpcd->IN_ep[ep_addr & 0x7F].is_stall; 
 501:Src/usbd_conf.c ****   }
 502:Src/usbd_conf.c ****   else
 503:Src/usbd_conf.c ****   {
 504:Src/usbd_conf.c ****     return hpcd->OUT_ep[ep_addr & 0x7F].is_stall; 
 505:Src/usbd_conf.c ****   }
 506:Src/usbd_conf.c **** }
 507:Src/usbd_conf.c **** 
 508:Src/usbd_conf.c **** /**
 509:Src/usbd_conf.c ****   * @brief  Assigns a USB address to the device.
 510:Src/usbd_conf.c ****   * @param  pdev: Device handle
 511:Src/usbd_conf.c ****   * @param  dev_addr: Device address
 512:Src/usbd_conf.c ****   * @retval USBD status
 513:Src/usbd_conf.c ****   */
 514:Src/usbd_conf.c **** USBD_StatusTypeDef USBD_LL_SetUSBAddress(USBD_HandleTypeDef *pdev, uint8_t dev_addr)
 515:Src/usbd_conf.c **** {
 516:Src/usbd_conf.c ****   HAL_StatusTypeDef hal_status = HAL_OK;
 517:Src/usbd_conf.c ****   USBD_StatusTypeDef usb_status = USBD_OK;
 518:Src/usbd_conf.c ****   
 519:Src/usbd_conf.c ****   hal_status = HAL_PCD_SetAddress(pdev->pData, dev_addr);
 520:Src/usbd_conf.c ****      
 521:Src/usbd_conf.c ****   usb_status =  USBD_Get_USB_Status(hal_status);
 522:Src/usbd_conf.c ****  
 523:Src/usbd_conf.c ****   return usb_status;  
 524:Src/usbd_conf.c **** }
 525:Src/usbd_conf.c **** 
 526:Src/usbd_conf.c **** /**
 527:Src/usbd_conf.c ****   * @brief  Transmits data over an endpoint.
 528:Src/usbd_conf.c ****   * @param  pdev: Device handle
 529:Src/usbd_conf.c ****   * @param  ep_addr: Endpoint number
 530:Src/usbd_conf.c ****   * @param  pbuf: Pointer to data to be sent
 531:Src/usbd_conf.c ****   * @param  size: Data size    
 532:Src/usbd_conf.c ****   * @retval USBD status
 533:Src/usbd_conf.c ****   */
 534:Src/usbd_conf.c **** USBD_StatusTypeDef USBD_LL_Transmit(USBD_HandleTypeDef *pdev, uint8_t ep_addr, uint8_t *pbuf, uint1
 535:Src/usbd_conf.c **** {
 536:Src/usbd_conf.c ****   HAL_StatusTypeDef hal_status = HAL_OK;
 537:Src/usbd_conf.c ****   USBD_StatusTypeDef usb_status = USBD_OK;
 538:Src/usbd_conf.c **** 
 539:Src/usbd_conf.c ****   hal_status = HAL_PCD_EP_Transmit(pdev->pData, ep_addr, pbuf, size);
 540:Src/usbd_conf.c ****      
 541:Src/usbd_conf.c ****   usb_status =  USBD_Get_USB_Status(hal_status);
 542:Src/usbd_conf.c ****   
 543:Src/usbd_conf.c ****   return usb_status;    
 544:Src/usbd_conf.c **** }
 545:Src/usbd_conf.c **** 
ARM GAS  /tmp/ccSHmBiG.s 			page 11


 546:Src/usbd_conf.c **** /**
 547:Src/usbd_conf.c ****   * @brief  Prepares an endpoint for reception.
 548:Src/usbd_conf.c ****   * @param  pdev: Device handle
 549:Src/usbd_conf.c ****   * @param  ep_addr: Endpoint number
 550:Src/usbd_conf.c ****   * @param  pbuf: Pointer to data to be received
 551:Src/usbd_conf.c ****   * @param  size: Data size
 552:Src/usbd_conf.c ****   * @retval USBD status
 553:Src/usbd_conf.c ****   */
 554:Src/usbd_conf.c **** USBD_StatusTypeDef USBD_LL_PrepareReceive(USBD_HandleTypeDef *pdev, uint8_t ep_addr, uint8_t *pbuf,
 555:Src/usbd_conf.c **** {
 556:Src/usbd_conf.c ****   HAL_StatusTypeDef hal_status = HAL_OK;
 557:Src/usbd_conf.c ****   USBD_StatusTypeDef usb_status = USBD_OK;
 558:Src/usbd_conf.c **** 
 559:Src/usbd_conf.c ****   hal_status = HAL_PCD_EP_Receive(pdev->pData, ep_addr, pbuf, size);
 560:Src/usbd_conf.c ****      
 561:Src/usbd_conf.c ****   usb_status =  USBD_Get_USB_Status(hal_status);
 562:Src/usbd_conf.c ****   	
 563:Src/usbd_conf.c ****   return usb_status; 
 564:Src/usbd_conf.c **** }
 565:Src/usbd_conf.c **** 
 566:Src/usbd_conf.c **** /**
 567:Src/usbd_conf.c ****   * @brief  Returns the last transfered packet size.
 568:Src/usbd_conf.c ****   * @param  pdev: Device handle
 569:Src/usbd_conf.c ****   * @param  ep_addr: Endpoint number
 570:Src/usbd_conf.c ****   * @retval Recived Data Size
 571:Src/usbd_conf.c ****   */
 572:Src/usbd_conf.c **** uint32_t USBD_LL_GetRxDataSize(USBD_HandleTypeDef *pdev, uint8_t ep_addr)
 573:Src/usbd_conf.c **** {
 574:Src/usbd_conf.c ****   return HAL_PCD_EP_GetRxCount((PCD_HandleTypeDef*) pdev->pData, ep_addr);
 575:Src/usbd_conf.c **** }
 576:Src/usbd_conf.c **** 
 577:Src/usbd_conf.c **** /**
 578:Src/usbd_conf.c ****   * @brief  Delays routine for the USB device library.
 579:Src/usbd_conf.c ****   * @param  Delay: Delay in ms
 580:Src/usbd_conf.c ****   * @retval None
 581:Src/usbd_conf.c ****   */
 582:Src/usbd_conf.c **** void USBD_LL_Delay(uint32_t Delay)
 583:Src/usbd_conf.c **** {
 584:Src/usbd_conf.c ****   HAL_Delay(Delay);
 585:Src/usbd_conf.c **** }
 586:Src/usbd_conf.c **** 
 587:Src/usbd_conf.c **** /**
 588:Src/usbd_conf.c ****   * @brief  Static single allocation.
 589:Src/usbd_conf.c ****   * @param  size: Size of allocated memory
 590:Src/usbd_conf.c ****   * @retval None
 591:Src/usbd_conf.c ****   */
 592:Src/usbd_conf.c **** void *USBD_static_malloc(uint32_t size)
 593:Src/usbd_conf.c **** {
 594:Src/usbd_conf.c ****   static uint32_t mem[(sizeof(USBD_MSC_BOT_HandleTypeDef)/4)+1];/* On 32-bit boundary */
 595:Src/usbd_conf.c ****   return mem;
 596:Src/usbd_conf.c **** }
 597:Src/usbd_conf.c **** 
 598:Src/usbd_conf.c **** /**
 599:Src/usbd_conf.c ****   * @brief  Dummy memory free
 600:Src/usbd_conf.c ****   * @param  p: Pointer to allocated  memory address
 601:Src/usbd_conf.c ****   * @retval None
 602:Src/usbd_conf.c ****   */
ARM GAS  /tmp/ccSHmBiG.s 			page 12


 603:Src/usbd_conf.c **** void USBD_static_free(void *p)
 604:Src/usbd_conf.c **** {
 605:Src/usbd_conf.c **** 
 606:Src/usbd_conf.c **** }
 607:Src/usbd_conf.c **** 
 608:Src/usbd_conf.c **** /* USER CODE BEGIN 5 */
 609:Src/usbd_conf.c **** /**
 610:Src/usbd_conf.c ****   * @brief  Configures system clock after wake-up from USB Resume CallBack:
 611:Src/usbd_conf.c ****   *         enable HSI, PLL and select PLL as system clock source.
 612:Src/usbd_conf.c ****   * @retval None
 613:Src/usbd_conf.c ****   */
 614:Src/usbd_conf.c **** static void SystemClockConfig_Resume(void)
 615:Src/usbd_conf.c **** {
 616:Src/usbd_conf.c ****   SystemClock_Config();
 617:Src/usbd_conf.c **** }
 618:Src/usbd_conf.c **** /* USER CODE END 5 */
 619:Src/usbd_conf.c **** 
 620:Src/usbd_conf.c **** /**
 621:Src/usbd_conf.c ****   * @brief  Retuns the USB status depending on the HAL status:
 622:Src/usbd_conf.c ****   * @param  hal_status: HAL status
 623:Src/usbd_conf.c ****   * @retval USB status
 624:Src/usbd_conf.c ****   */
 625:Src/usbd_conf.c **** USBD_StatusTypeDef USBD_Get_USB_Status(HAL_StatusTypeDef hal_status)
 626:Src/usbd_conf.c **** {
  27              		.loc 1 626 1 view -0
  28              		.cfi_startproc
  29              		@ args = 0, pretend = 0, frame = 0
  30              		@ frame_needed = 0, uses_anonymous_args = 0
  31              		@ link register save eliminated.
 627:Src/usbd_conf.c ****   USBD_StatusTypeDef usb_status = USBD_OK;
  32              		.loc 1 627 3 view .LVU1
 628:Src/usbd_conf.c **** 
 629:Src/usbd_conf.c ****   switch (hal_status)
  33              		.loc 1 629 3 view .LVU2
  34 0000 0228     		cmp	r0, #2
  35 0002 04D0     		beq	.L3
  36 0004 05D8     		bhi	.L4
  37 0006 0028     		cmp	r0, #0
  38 0008 00D0     		beq	.L2
 630:Src/usbd_conf.c ****   {
 631:Src/usbd_conf.c ****     case HAL_OK :
 632:Src/usbd_conf.c ****       usb_status = USBD_OK;
 633:Src/usbd_conf.c ****     break;
 634:Src/usbd_conf.c ****     case HAL_ERROR :
 635:Src/usbd_conf.c ****       usb_status = USBD_FAIL;
  39              		.loc 1 635 18 is_stmt 0 view .LVU3
  40 000a 0220     		movs	r0, #2
  41              	.LVL1:
  42              	.L2:
 636:Src/usbd_conf.c ****     break;
 637:Src/usbd_conf.c ****     case HAL_BUSY :
 638:Src/usbd_conf.c ****       usb_status = USBD_BUSY;
 639:Src/usbd_conf.c ****     break;
 640:Src/usbd_conf.c ****     case HAL_TIMEOUT :
 641:Src/usbd_conf.c ****       usb_status = USBD_FAIL;
 642:Src/usbd_conf.c ****     break;
 643:Src/usbd_conf.c ****     default :
ARM GAS  /tmp/ccSHmBiG.s 			page 13


 644:Src/usbd_conf.c ****       usb_status = USBD_FAIL;
 645:Src/usbd_conf.c ****     break;
 646:Src/usbd_conf.c ****   }
 647:Src/usbd_conf.c ****   return usb_status;
  43              		.loc 1 647 3 is_stmt 1 view .LVU4
 648:Src/usbd_conf.c **** }
  44              		.loc 1 648 1 is_stmt 0 view .LVU5
  45              		@ sp needed
  46 000c 7047     		bx	lr
  47              	.LVL2:
  48              	.L3:
 638:Src/usbd_conf.c ****     break;
  49              		.loc 1 638 18 view .LVU6
  50 000e 0120     		movs	r0, #1
  51              	.LVL3:
 638:Src/usbd_conf.c ****     break;
  52              		.loc 1 638 18 view .LVU7
  53 0010 FCE7     		b	.L2
  54              	.LVL4:
  55              	.L4:
 641:Src/usbd_conf.c ****     break;
  56              		.loc 1 641 18 view .LVU8
  57 0012 0220     		movs	r0, #2
  58              	.LVL5:
 641:Src/usbd_conf.c ****     break;
  59              		.loc 1 641 18 view .LVU9
  60 0014 FAE7     		b	.L2
  61              		.cfi_endproc
  62              	.LFE74:
  64              		.section	.text.SystemClockConfig_Resume,"ax",%progbits
  65              		.align	1
  66              		.syntax unified
  67              		.code	16
  68              		.thumb_func
  69              		.fpu softvfp
  71              	SystemClockConfig_Resume:
  72              	.LFB73:
 615:Src/usbd_conf.c ****   SystemClock_Config();
  73              		.loc 1 615 1 is_stmt 1 view -0
  74              		.cfi_startproc
  75              		@ args = 0, pretend = 0, frame = 0
  76              		@ frame_needed = 0, uses_anonymous_args = 0
  77 0000 10B5     		push	{r4, lr}
  78              	.LCFI0:
  79              		.cfi_def_cfa_offset 8
  80              		.cfi_offset 4, -8
  81              		.cfi_offset 14, -4
 616:Src/usbd_conf.c **** }
  82              		.loc 1 616 3 view .LVU11
  83 0002 FFF7FEFF 		bl	SystemClock_Config
  84              	.LVL6:
 617:Src/usbd_conf.c **** /* USER CODE END 5 */
  85              		.loc 1 617 1 is_stmt 0 view .LVU12
  86              		@ sp needed
  87 0006 10BD     		pop	{r4, pc}
  88              		.cfi_endproc
  89              	.LFE73:
ARM GAS  /tmp/ccSHmBiG.s 			page 14


  91              		.section	.text.HAL_PCD_MspInit,"ax",%progbits
  92              		.align	1
  93              		.global	HAL_PCD_MspInit
  94              		.syntax unified
  95              		.code	16
  96              		.thumb_func
  97              		.fpu softvfp
  99              	HAL_PCD_MspInit:
 100              	.LVL7:
 101              	.LFB43:
  67:Src/usbd_conf.c ****   if(pcdHandle->Instance==USB)
 102              		.loc 1 67 1 is_stmt 1 view -0
 103              		.cfi_startproc
 104              		@ args = 0, pretend = 0, frame = 8
 105              		@ frame_needed = 0, uses_anonymous_args = 0
  67:Src/usbd_conf.c ****   if(pcdHandle->Instance==USB)
 106              		.loc 1 67 1 is_stmt 0 view .LVU14
 107 0000 00B5     		push	{lr}
 108              	.LCFI1:
 109              		.cfi_def_cfa_offset 4
 110              		.cfi_offset 14, -4
 111 0002 83B0     		sub	sp, sp, #12
 112              	.LCFI2:
 113              		.cfi_def_cfa_offset 16
  68:Src/usbd_conf.c ****   {
 114              		.loc 1 68 3 is_stmt 1 view .LVU15
  68:Src/usbd_conf.c ****   {
 115              		.loc 1 68 15 is_stmt 0 view .LVU16
 116 0004 0268     		ldr	r2, [r0]
  68:Src/usbd_conf.c ****   {
 117              		.loc 1 68 5 view .LVU17
 118 0006 0C4B     		ldr	r3, .L10
 119 0008 9A42     		cmp	r2, r3
 120 000a 01D0     		beq	.L9
 121              	.LVL8:
 122              	.L7:
  83:Src/usbd_conf.c **** 
 123              		.loc 1 83 1 view .LVU18
 124 000c 03B0     		add	sp, sp, #12
 125              		@ sp needed
 126 000e 00BD     		pop	{pc}
 127              	.LVL9:
 128              	.L9:
  74:Src/usbd_conf.c **** 
 129              		.loc 1 74 5 is_stmt 1 view .LVU19
 130              	.LBB2:
  74:Src/usbd_conf.c **** 
 131              		.loc 1 74 5 view .LVU20
  74:Src/usbd_conf.c **** 
 132              		.loc 1 74 5 view .LVU21
 133 0010 0A4A     		ldr	r2, .L10+4
 134 0012 D169     		ldr	r1, [r2, #28]
 135 0014 8020     		movs	r0, #128
 136              	.LVL10:
  74:Src/usbd_conf.c **** 
 137              		.loc 1 74 5 is_stmt 0 view .LVU22
 138 0016 0004     		lsls	r0, r0, #16
ARM GAS  /tmp/ccSHmBiG.s 			page 15


 139 0018 0143     		orrs	r1, r0
 140 001a D161     		str	r1, [r2, #28]
  74:Src/usbd_conf.c **** 
 141              		.loc 1 74 5 is_stmt 1 view .LVU23
 142 001c D369     		ldr	r3, [r2, #28]
 143 001e 0340     		ands	r3, r0
 144 0020 0193     		str	r3, [sp, #4]
  74:Src/usbd_conf.c **** 
 145              		.loc 1 74 5 view .LVU24
 146 0022 019B     		ldr	r3, [sp, #4]
 147              	.LBE2:
  74:Src/usbd_conf.c **** 
 148              		.loc 1 74 5 view .LVU25
  77:Src/usbd_conf.c ****     HAL_NVIC_EnableIRQ(USB_IRQn);
 149              		.loc 1 77 5 view .LVU26
 150 0024 0022     		movs	r2, #0
 151 0026 0021     		movs	r1, #0
 152 0028 1F20     		movs	r0, #31
 153 002a FFF7FEFF 		bl	HAL_NVIC_SetPriority
 154              	.LVL11:
  78:Src/usbd_conf.c ****   /* USER CODE BEGIN USB_MspInit 1 */
 155              		.loc 1 78 5 view .LVU27
 156 002e 1F20     		movs	r0, #31
 157 0030 FFF7FEFF 		bl	HAL_NVIC_EnableIRQ
 158              	.LVL12:
  83:Src/usbd_conf.c **** 
 159              		.loc 1 83 1 is_stmt 0 view .LVU28
 160 0034 EAE7     		b	.L7
 161              	.L11:
 162 0036 C046     		.align	2
 163              	.L10:
 164 0038 005C0040 		.word	1073765376
 165 003c 00100240 		.word	1073876992
 166              		.cfi_endproc
 167              	.LFE43:
 169              		.section	.text.HAL_PCD_MspDeInit,"ax",%progbits
 170              		.align	1
 171              		.global	HAL_PCD_MspDeInit
 172              		.syntax unified
 173              		.code	16
 174              		.thumb_func
 175              		.fpu softvfp
 177              	HAL_PCD_MspDeInit:
 178              	.LVL13:
 179              	.LFB44:
  86:Src/usbd_conf.c ****   if(pcdHandle->Instance==USB)
 180              		.loc 1 86 1 is_stmt 1 view -0
 181              		.cfi_startproc
 182              		@ args = 0, pretend = 0, frame = 0
 183              		@ frame_needed = 0, uses_anonymous_args = 0
  86:Src/usbd_conf.c ****   if(pcdHandle->Instance==USB)
 184              		.loc 1 86 1 is_stmt 0 view .LVU30
 185 0000 10B5     		push	{r4, lr}
 186              	.LCFI3:
 187              		.cfi_def_cfa_offset 8
 188              		.cfi_offset 4, -8
 189              		.cfi_offset 14, -4
ARM GAS  /tmp/ccSHmBiG.s 			page 16


  87:Src/usbd_conf.c ****   {
 190              		.loc 1 87 3 is_stmt 1 view .LVU31
  87:Src/usbd_conf.c ****   {
 191              		.loc 1 87 15 is_stmt 0 view .LVU32
 192 0002 0268     		ldr	r2, [r0]
  87:Src/usbd_conf.c ****   {
 193              		.loc 1 87 5 view .LVU33
 194 0004 064B     		ldr	r3, .L15
 195 0006 9A42     		cmp	r2, r3
 196 0008 00D0     		beq	.L14
 197              	.LVL14:
 198              	.L12:
 102:Src/usbd_conf.c **** 
 199              		.loc 1 102 1 view .LVU34
 200              		@ sp needed
 201 000a 10BD     		pop	{r4, pc}
 202              	.LVL15:
 203              	.L14:
  93:Src/usbd_conf.c **** 
 204              		.loc 1 93 5 is_stmt 1 view .LVU35
 205 000c 054A     		ldr	r2, .L15+4
 206 000e D369     		ldr	r3, [r2, #28]
 207 0010 0549     		ldr	r1, .L15+8
 208 0012 0B40     		ands	r3, r1
 209 0014 D361     		str	r3, [r2, #28]
  96:Src/usbd_conf.c **** 
 210              		.loc 1 96 5 view .LVU36
 211 0016 1F20     		movs	r0, #31
 212              	.LVL16:
  96:Src/usbd_conf.c **** 
 213              		.loc 1 96 5 is_stmt 0 view .LVU37
 214 0018 FFF7FEFF 		bl	HAL_NVIC_DisableIRQ
 215              	.LVL17:
 102:Src/usbd_conf.c **** 
 216              		.loc 1 102 1 view .LVU38
 217 001c F5E7     		b	.L12
 218              	.L16:
 219 001e C046     		.align	2
 220              	.L15:
 221 0020 005C0040 		.word	1073765376
 222 0024 00100240 		.word	1073876992
 223 0028 FFFF7FFF 		.word	-8388609
 224              		.cfi_endproc
 225              	.LFE44:
 227              		.section	.text.HAL_PCD_SetupStageCallback,"ax",%progbits
 228              		.align	1
 229              		.global	HAL_PCD_SetupStageCallback
 230              		.syntax unified
 231              		.code	16
 232              		.thumb_func
 233              		.fpu softvfp
 235              	HAL_PCD_SetupStageCallback:
 236              	.LVL18:
 237              	.LFB45:
 114:Src/usbd_conf.c ****   USBD_LL_SetupStage((USBD_HandleTypeDef*)hpcd->pData, (uint8_t *)hpcd->Setup);
 238              		.loc 1 114 1 is_stmt 1 view -0
 239              		.cfi_startproc
ARM GAS  /tmp/ccSHmBiG.s 			page 17


 240              		@ args = 0, pretend = 0, frame = 0
 241              		@ frame_needed = 0, uses_anonymous_args = 0
 114:Src/usbd_conf.c ****   USBD_LL_SetupStage((USBD_HandleTypeDef*)hpcd->pData, (uint8_t *)hpcd->Setup);
 242              		.loc 1 114 1 is_stmt 0 view .LVU40
 243 0000 10B5     		push	{r4, lr}
 244              	.LCFI4:
 245              		.cfi_def_cfa_offset 8
 246              		.cfi_offset 4, -8
 247              		.cfi_offset 14, -4
 248 0002 0100     		movs	r1, r0
 115:Src/usbd_conf.c **** }
 249              		.loc 1 115 3 is_stmt 1 view .LVU41
 115:Src/usbd_conf.c **** }
 250              		.loc 1 115 47 is_stmt 0 view .LVU42
 251 0004 9C23     		movs	r3, #156
 252 0006 9B00     		lsls	r3, r3, #2
 253 0008 C058     		ldr	r0, [r0, r3]
 254              	.LVL19:
 115:Src/usbd_conf.c **** }
 255              		.loc 1 115 67 view .LVU43
 256 000a 403B     		subs	r3, r3, #64
 257 000c 9C46     		mov	ip, r3
 258 000e 6144     		add	r1, r1, ip
 259              	.LVL20:
 115:Src/usbd_conf.c **** }
 260              		.loc 1 115 3 view .LVU44
 261 0010 FFF7FEFF 		bl	USBD_LL_SetupStage
 262              	.LVL21:
 116:Src/usbd_conf.c **** 
 263              		.loc 1 116 1 view .LVU45
 264              		@ sp needed
 265 0014 10BD     		pop	{r4, pc}
 266              		.cfi_endproc
 267              	.LFE45:
 269              		.section	.text.HAL_PCD_DataOutStageCallback,"ax",%progbits
 270              		.align	1
 271              		.global	HAL_PCD_DataOutStageCallback
 272              		.syntax unified
 273              		.code	16
 274              		.thumb_func
 275              		.fpu softvfp
 277              	HAL_PCD_DataOutStageCallback:
 278              	.LVL22:
 279              	.LFB46:
 129:Src/usbd_conf.c ****   USBD_LL_DataOutStage((USBD_HandleTypeDef*)hpcd->pData, epnum, hpcd->OUT_ep[epnum].xfer_buff);
 280              		.loc 1 129 1 is_stmt 1 view -0
 281              		.cfi_startproc
 282              		@ args = 0, pretend = 0, frame = 0
 283              		@ frame_needed = 0, uses_anonymous_args = 0
 129:Src/usbd_conf.c ****   USBD_LL_DataOutStage((USBD_HandleTypeDef*)hpcd->pData, epnum, hpcd->OUT_ep[epnum].xfer_buff);
 284              		.loc 1 129 1 is_stmt 0 view .LVU47
 285 0000 10B5     		push	{r4, lr}
 286              	.LCFI5:
 287              		.cfi_def_cfa_offset 8
 288              		.cfi_offset 4, -8
 289              		.cfi_offset 14, -4
 290 0002 0300     		movs	r3, r0
ARM GAS  /tmp/ccSHmBiG.s 			page 18


 130:Src/usbd_conf.c **** }
 291              		.loc 1 130 3 is_stmt 1 view .LVU48
 130:Src/usbd_conf.c **** }
 292              		.loc 1 130 49 is_stmt 0 view .LVU49
 293 0004 9C22     		movs	r2, #156
 294 0006 9200     		lsls	r2, r2, #2
 295 0008 8058     		ldr	r0, [r0, r2]
 296              	.LVL23:
 130:Src/usbd_conf.c **** }
 297              		.loc 1 130 3 view .LVU50
 298 000a 4A01     		lsls	r2, r1, #5
 299 000c 9B18     		adds	r3, r3, r2
 300              	.LVL24:
 130:Src/usbd_conf.c **** }
 301              		.loc 1 130 3 view .LVU51
 302 000e 3D33     		adds	r3, r3, #61
 303 0010 FF33     		adds	r3, r3, #255
 304 0012 1A68     		ldr	r2, [r3]
 305 0014 FFF7FEFF 		bl	USBD_LL_DataOutStage
 306              	.LVL25:
 131:Src/usbd_conf.c **** 
 307              		.loc 1 131 1 view .LVU52
 308              		@ sp needed
 309 0018 10BD     		pop	{r4, pc}
 310              		.cfi_endproc
 311              	.LFE46:
 313              		.section	.text.HAL_PCD_DataInStageCallback,"ax",%progbits
 314              		.align	1
 315              		.global	HAL_PCD_DataInStageCallback
 316              		.syntax unified
 317              		.code	16
 318              		.thumb_func
 319              		.fpu softvfp
 321              	HAL_PCD_DataInStageCallback:
 322              	.LVL26:
 323              	.LFB47:
 144:Src/usbd_conf.c ****   USBD_LL_DataInStage((USBD_HandleTypeDef*)hpcd->pData, epnum, hpcd->IN_ep[epnum].xfer_buff);
 324              		.loc 1 144 1 is_stmt 1 view -0
 325              		.cfi_startproc
 326              		@ args = 0, pretend = 0, frame = 0
 327              		@ frame_needed = 0, uses_anonymous_args = 0
 144:Src/usbd_conf.c ****   USBD_LL_DataInStage((USBD_HandleTypeDef*)hpcd->pData, epnum, hpcd->IN_ep[epnum].xfer_buff);
 328              		.loc 1 144 1 is_stmt 0 view .LVU54
 329 0000 10B5     		push	{r4, lr}
 330              	.LCFI6:
 331              		.cfi_def_cfa_offset 8
 332              		.cfi_offset 4, -8
 333              		.cfi_offset 14, -4
 334 0002 0300     		movs	r3, r0
 145:Src/usbd_conf.c **** }
 335              		.loc 1 145 3 is_stmt 1 view .LVU55
 145:Src/usbd_conf.c **** }
 336              		.loc 1 145 48 is_stmt 0 view .LVU56
 337 0004 9C22     		movs	r2, #156
 338 0006 9200     		lsls	r2, r2, #2
 339 0008 8058     		ldr	r0, [r0, r2]
 340              	.LVL27:
ARM GAS  /tmp/ccSHmBiG.s 			page 19


 145:Src/usbd_conf.c **** }
 341              		.loc 1 145 3 view .LVU57
 342 000a 4A01     		lsls	r2, r1, #5
 343 000c 9B18     		adds	r3, r3, r2
 344              	.LVL28:
 145:Src/usbd_conf.c **** }
 345              		.loc 1 145 3 view .LVU58
 346 000e DA6B     		ldr	r2, [r3, #60]
 347 0010 FFF7FEFF 		bl	USBD_LL_DataInStage
 348              	.LVL29:
 146:Src/usbd_conf.c **** 
 349              		.loc 1 146 1 view .LVU59
 350              		@ sp needed
 351 0014 10BD     		pop	{r4, pc}
 352              		.cfi_endproc
 353              	.LFE47:
 355              		.section	.text.HAL_PCD_SOFCallback,"ax",%progbits
 356              		.align	1
 357              		.global	HAL_PCD_SOFCallback
 358              		.syntax unified
 359              		.code	16
 360              		.thumb_func
 361              		.fpu softvfp
 363              	HAL_PCD_SOFCallback:
 364              	.LVL30:
 365              	.LFB48:
 158:Src/usbd_conf.c ****   USBD_LL_SOF((USBD_HandleTypeDef*)hpcd->pData);
 366              		.loc 1 158 1 is_stmt 1 view -0
 367              		.cfi_startproc
 368              		@ args = 0, pretend = 0, frame = 0
 369              		@ frame_needed = 0, uses_anonymous_args = 0
 158:Src/usbd_conf.c ****   USBD_LL_SOF((USBD_HandleTypeDef*)hpcd->pData);
 370              		.loc 1 158 1 is_stmt 0 view .LVU61
 371 0000 10B5     		push	{r4, lr}
 372              	.LCFI7:
 373              		.cfi_def_cfa_offset 8
 374              		.cfi_offset 4, -8
 375              		.cfi_offset 14, -4
 159:Src/usbd_conf.c **** }
 376              		.loc 1 159 3 is_stmt 1 view .LVU62
 159:Src/usbd_conf.c **** }
 377              		.loc 1 159 40 is_stmt 0 view .LVU63
 378 0002 9C23     		movs	r3, #156
 379 0004 9B00     		lsls	r3, r3, #2
 380 0006 C058     		ldr	r0, [r0, r3]
 381              	.LVL31:
 159:Src/usbd_conf.c **** }
 382              		.loc 1 159 3 view .LVU64
 383 0008 FFF7FEFF 		bl	USBD_LL_SOF
 384              	.LVL32:
 160:Src/usbd_conf.c **** 
 385              		.loc 1 160 1 view .LVU65
 386              		@ sp needed
 387 000c 10BD     		pop	{r4, pc}
 388              		.cfi_endproc
 389              	.LFE48:
 391              		.section	.text.HAL_PCD_ResetCallback,"ax",%progbits
ARM GAS  /tmp/ccSHmBiG.s 			page 20


 392              		.align	1
 393              		.global	HAL_PCD_ResetCallback
 394              		.syntax unified
 395              		.code	16
 396              		.thumb_func
 397              		.fpu softvfp
 399              	HAL_PCD_ResetCallback:
 400              	.LVL33:
 401              	.LFB49:
 172:Src/usbd_conf.c ****   USBD_SpeedTypeDef speed = USBD_SPEED_FULL;
 402              		.loc 1 172 1 is_stmt 1 view -0
 403              		.cfi_startproc
 404              		@ args = 0, pretend = 0, frame = 0
 405              		@ frame_needed = 0, uses_anonymous_args = 0
 172:Src/usbd_conf.c ****   USBD_SpeedTypeDef speed = USBD_SPEED_FULL;
 406              		.loc 1 172 1 is_stmt 0 view .LVU67
 407 0000 70B5     		push	{r4, r5, r6, lr}
 408              	.LCFI8:
 409              		.cfi_def_cfa_offset 16
 410              		.cfi_offset 4, -16
 411              		.cfi_offset 5, -12
 412              		.cfi_offset 6, -8
 413              		.cfi_offset 14, -4
 414 0002 0400     		movs	r4, r0
 173:Src/usbd_conf.c **** 
 415              		.loc 1 173 3 is_stmt 1 view .LVU68
 416              	.LVL34:
 175:Src/usbd_conf.c ****   {
 417              		.loc 1 175 3 view .LVU69
 175:Src/usbd_conf.c ****   {
 418              		.loc 1 175 6 is_stmt 0 view .LVU70
 419 0004 8368     		ldr	r3, [r0, #8]
 420 0006 022B     		cmp	r3, #2
 421 0008 09D1     		bne	.L23
 422              	.LVL35:
 423              	.L22:
 180:Src/usbd_conf.c **** 
 424              		.loc 1 180 3 is_stmt 1 view .LVU71
 180:Src/usbd_conf.c **** 
 425              		.loc 1 180 45 is_stmt 0 view .LVU72
 426 000a 9C25     		movs	r5, #156
 427 000c AD00     		lsls	r5, r5, #2
 180:Src/usbd_conf.c **** 
 428              		.loc 1 180 3 view .LVU73
 429 000e 0121     		movs	r1, #1
 430 0010 6059     		ldr	r0, [r4, r5]
 431 0012 FFF7FEFF 		bl	USBD_LL_SetSpeed
 432              	.LVL36:
 183:Src/usbd_conf.c **** }
 433              		.loc 1 183 3 is_stmt 1 view .LVU74
 183:Src/usbd_conf.c **** }
 434              		.loc 1 183 42 is_stmt 0 view .LVU75
 435 0016 6059     		ldr	r0, [r4, r5]
 183:Src/usbd_conf.c **** }
 436              		.loc 1 183 3 view .LVU76
 437 0018 FFF7FEFF 		bl	USBD_LL_Reset
 438              	.LVL37:
ARM GAS  /tmp/ccSHmBiG.s 			page 21


 184:Src/usbd_conf.c **** 
 439              		.loc 1 184 1 view .LVU77
 440              		@ sp needed
 441              	.LVL38:
 184:Src/usbd_conf.c **** 
 442              		.loc 1 184 1 view .LVU78
 443 001c 70BD     		pop	{r4, r5, r6, pc}
 444              	.LVL39:
 445              	.L23:
 177:Src/usbd_conf.c ****   }
 446              		.loc 1 177 5 is_stmt 1 view .LVU79
 447 001e FFF7FEFF 		bl	Error_Handler
 448              	.LVL40:
 177:Src/usbd_conf.c ****   }
 449              		.loc 1 177 5 is_stmt 0 view .LVU80
 450 0022 F2E7     		b	.L22
 451              		.cfi_endproc
 452              	.LFE49:
 454              		.section	.text.HAL_PCD_SuspendCallback,"ax",%progbits
 455              		.align	1
 456              		.global	HAL_PCD_SuspendCallback
 457              		.syntax unified
 458              		.code	16
 459              		.thumb_func
 460              		.fpu softvfp
 462              	HAL_PCD_SuspendCallback:
 463              	.LVL41:
 464              	.LFB50:
 197:Src/usbd_conf.c ****   /* Inform USB library that core enters in suspend Mode. */
 465              		.loc 1 197 1 is_stmt 1 view -0
 466              		.cfi_startproc
 467              		@ args = 0, pretend = 0, frame = 0
 468              		@ frame_needed = 0, uses_anonymous_args = 0
 197:Src/usbd_conf.c ****   /* Inform USB library that core enters in suspend Mode. */
 469              		.loc 1 197 1 is_stmt 0 view .LVU82
 470 0000 10B5     		push	{r4, lr}
 471              	.LCFI9:
 472              		.cfi_def_cfa_offset 8
 473              		.cfi_offset 4, -8
 474              		.cfi_offset 14, -4
 475 0002 0400     		movs	r4, r0
 199:Src/usbd_conf.c ****   /* Enter in STOP mode. */
 476              		.loc 1 199 3 is_stmt 1 view .LVU83
 199:Src/usbd_conf.c ****   /* Enter in STOP mode. */
 477              		.loc 1 199 44 is_stmt 0 view .LVU84
 478 0004 9C23     		movs	r3, #156
 479 0006 9B00     		lsls	r3, r3, #2
 480 0008 C058     		ldr	r0, [r0, r3]
 481              	.LVL42:
 199:Src/usbd_conf.c ****   /* Enter in STOP mode. */
 482              		.loc 1 199 3 view .LVU85
 483 000a FFF7FEFF 		bl	USBD_LL_Suspend
 484              	.LVL43:
 202:Src/usbd_conf.c ****   {
 485              		.loc 1 202 3 is_stmt 1 view .LVU86
 202:Src/usbd_conf.c ****   {
 486              		.loc 1 202 17 is_stmt 0 view .LVU87
ARM GAS  /tmp/ccSHmBiG.s 			page 22


 487 000e A369     		ldr	r3, [r4, #24]
 202:Src/usbd_conf.c ****   {
 488              		.loc 1 202 6 view .LVU88
 489 0010 002B     		cmp	r3, #0
 490 0012 04D0     		beq	.L24
 205:Src/usbd_conf.c ****   }
 491              		.loc 1 205 5 is_stmt 1 view .LVU89
 205:Src/usbd_conf.c ****   }
 492              		.loc 1 205 14 is_stmt 0 view .LVU90
 493 0014 024A     		ldr	r2, .L26
 494 0016 1369     		ldr	r3, [r2, #16]
 495 0018 0621     		movs	r1, #6
 496 001a 0B43     		orrs	r3, r1
 497 001c 1361     		str	r3, [r2, #16]
 498              	.L24:
 208:Src/usbd_conf.c **** 
 499              		.loc 1 208 1 view .LVU91
 500              		@ sp needed
 501              	.LVL44:
 208:Src/usbd_conf.c **** 
 502              		.loc 1 208 1 view .LVU92
 503 001e 10BD     		pop	{r4, pc}
 504              	.L27:
 505              		.align	2
 506              	.L26:
 507 0020 00ED00E0 		.word	-536810240
 508              		.cfi_endproc
 509              	.LFE50:
 511              		.section	.text.HAL_PCD_ResumeCallback,"ax",%progbits
 512              		.align	1
 513              		.global	HAL_PCD_ResumeCallback
 514              		.syntax unified
 515              		.code	16
 516              		.thumb_func
 517              		.fpu softvfp
 519              	HAL_PCD_ResumeCallback:
 520              	.LVL45:
 521              	.LFB51:
 221:Src/usbd_conf.c ****   /* USER CODE BEGIN 3 */
 522              		.loc 1 221 1 is_stmt 1 view -0
 523              		.cfi_startproc
 524              		@ args = 0, pretend = 0, frame = 0
 525              		@ frame_needed = 0, uses_anonymous_args = 0
 221:Src/usbd_conf.c ****   /* USER CODE BEGIN 3 */
 526              		.loc 1 221 1 is_stmt 0 view .LVU94
 527 0000 10B5     		push	{r4, lr}
 528              	.LCFI10:
 529              		.cfi_def_cfa_offset 8
 530              		.cfi_offset 4, -8
 531              		.cfi_offset 14, -4
 532 0002 0400     		movs	r4, r0
 223:Src/usbd_conf.c ****   {
 533              		.loc 1 223 3 is_stmt 1 view .LVU95
 223:Src/usbd_conf.c ****   {
 534              		.loc 1 223 6 is_stmt 0 view .LVU96
 535 0004 8369     		ldr	r3, [r0, #24]
 536 0006 002B     		cmp	r3, #0
ARM GAS  /tmp/ccSHmBiG.s 			page 23


 537 0008 05D1     		bne	.L30
 538              	.LVL46:
 539              	.L29:
 230:Src/usbd_conf.c **** }
 540              		.loc 1 230 3 is_stmt 1 view .LVU97
 230:Src/usbd_conf.c **** }
 541              		.loc 1 230 43 is_stmt 0 view .LVU98
 542 000a 9C23     		movs	r3, #156
 543 000c 9B00     		lsls	r3, r3, #2
 544 000e E058     		ldr	r0, [r4, r3]
 230:Src/usbd_conf.c **** }
 545              		.loc 1 230 3 view .LVU99
 546 0010 FFF7FEFF 		bl	USBD_LL_Resume
 547              	.LVL47:
 231:Src/usbd_conf.c **** 
 548              		.loc 1 231 1 view .LVU100
 549              		@ sp needed
 550              	.LVL48:
 231:Src/usbd_conf.c **** 
 551              		.loc 1 231 1 view .LVU101
 552 0014 10BD     		pop	{r4, pc}
 553              	.LVL49:
 554              	.L30:
 226:Src/usbd_conf.c ****     SystemClockConfig_Resume();
 555              		.loc 1 226 5 is_stmt 1 view .LVU102
 226:Src/usbd_conf.c ****     SystemClockConfig_Resume();
 556              		.loc 1 226 14 is_stmt 0 view .LVU103
 557 0016 044A     		ldr	r2, .L31
 558 0018 1369     		ldr	r3, [r2, #16]
 559 001a 0621     		movs	r1, #6
 560 001c 8B43     		bics	r3, r1
 561 001e 1361     		str	r3, [r2, #16]
 227:Src/usbd_conf.c ****   }
 562              		.loc 1 227 5 is_stmt 1 view .LVU104
 563 0020 FFF7FEFF 		bl	SystemClockConfig_Resume
 564              	.LVL50:
 227:Src/usbd_conf.c ****   }
 565              		.loc 1 227 5 is_stmt 0 view .LVU105
 566 0024 F1E7     		b	.L29
 567              	.L32:
 568 0026 C046     		.align	2
 569              	.L31:
 570 0028 00ED00E0 		.word	-536810240
 571              		.cfi_endproc
 572              	.LFE51:
 574              		.section	.text.HAL_PCD_ISOOUTIncompleteCallback,"ax",%progbits
 575              		.align	1
 576              		.global	HAL_PCD_ISOOUTIncompleteCallback
 577              		.syntax unified
 578              		.code	16
 579              		.thumb_func
 580              		.fpu softvfp
 582              	HAL_PCD_ISOOUTIncompleteCallback:
 583              	.LVL51:
 584              	.LFB52:
 244:Src/usbd_conf.c ****   USBD_LL_IsoOUTIncomplete((USBD_HandleTypeDef*)hpcd->pData, epnum);
 585              		.loc 1 244 1 is_stmt 1 view -0
ARM GAS  /tmp/ccSHmBiG.s 			page 24


 586              		.cfi_startproc
 587              		@ args = 0, pretend = 0, frame = 0
 588              		@ frame_needed = 0, uses_anonymous_args = 0
 244:Src/usbd_conf.c ****   USBD_LL_IsoOUTIncomplete((USBD_HandleTypeDef*)hpcd->pData, epnum);
 589              		.loc 1 244 1 is_stmt 0 view .LVU107
 590 0000 10B5     		push	{r4, lr}
 591              	.LCFI11:
 592              		.cfi_def_cfa_offset 8
 593              		.cfi_offset 4, -8
 594              		.cfi_offset 14, -4
 245:Src/usbd_conf.c **** }
 595              		.loc 1 245 3 is_stmt 1 view .LVU108
 245:Src/usbd_conf.c **** }
 596              		.loc 1 245 53 is_stmt 0 view .LVU109
 597 0002 9C23     		movs	r3, #156
 598 0004 9B00     		lsls	r3, r3, #2
 599 0006 C058     		ldr	r0, [r0, r3]
 600              	.LVL52:
 245:Src/usbd_conf.c **** }
 601              		.loc 1 245 3 view .LVU110
 602 0008 FFF7FEFF 		bl	USBD_LL_IsoOUTIncomplete
 603              	.LVL53:
 246:Src/usbd_conf.c **** 
 604              		.loc 1 246 1 view .LVU111
 605              		@ sp needed
 606 000c 10BD     		pop	{r4, pc}
 607              		.cfi_endproc
 608              	.LFE52:
 610              		.section	.text.HAL_PCD_ISOINIncompleteCallback,"ax",%progbits
 611              		.align	1
 612              		.global	HAL_PCD_ISOINIncompleteCallback
 613              		.syntax unified
 614              		.code	16
 615              		.thumb_func
 616              		.fpu softvfp
 618              	HAL_PCD_ISOINIncompleteCallback:
 619              	.LVL54:
 620              	.LFB53:
 259:Src/usbd_conf.c ****   USBD_LL_IsoINIncomplete((USBD_HandleTypeDef*)hpcd->pData, epnum);
 621              		.loc 1 259 1 is_stmt 1 view -0
 622              		.cfi_startproc
 623              		@ args = 0, pretend = 0, frame = 0
 624              		@ frame_needed = 0, uses_anonymous_args = 0
 259:Src/usbd_conf.c ****   USBD_LL_IsoINIncomplete((USBD_HandleTypeDef*)hpcd->pData, epnum);
 625              		.loc 1 259 1 is_stmt 0 view .LVU113
 626 0000 10B5     		push	{r4, lr}
 627              	.LCFI12:
 628              		.cfi_def_cfa_offset 8
 629              		.cfi_offset 4, -8
 630              		.cfi_offset 14, -4
 260:Src/usbd_conf.c **** }
 631              		.loc 1 260 3 is_stmt 1 view .LVU114
 260:Src/usbd_conf.c **** }
 632              		.loc 1 260 52 is_stmt 0 view .LVU115
 633 0002 9C23     		movs	r3, #156
 634 0004 9B00     		lsls	r3, r3, #2
 635 0006 C058     		ldr	r0, [r0, r3]
ARM GAS  /tmp/ccSHmBiG.s 			page 25


 636              	.LVL55:
 260:Src/usbd_conf.c **** }
 637              		.loc 1 260 3 view .LVU116
 638 0008 FFF7FEFF 		bl	USBD_LL_IsoINIncomplete
 639              	.LVL56:
 261:Src/usbd_conf.c **** 
 640              		.loc 1 261 1 view .LVU117
 641              		@ sp needed
 642 000c 10BD     		pop	{r4, pc}
 643              		.cfi_endproc
 644              	.LFE53:
 646              		.section	.text.HAL_PCD_ConnectCallback,"ax",%progbits
 647              		.align	1
 648              		.global	HAL_PCD_ConnectCallback
 649              		.syntax unified
 650              		.code	16
 651              		.thumb_func
 652              		.fpu softvfp
 654              	HAL_PCD_ConnectCallback:
 655              	.LVL57:
 656              	.LFB54:
 273:Src/usbd_conf.c ****   USBD_LL_DevConnected((USBD_HandleTypeDef*)hpcd->pData);
 657              		.loc 1 273 1 is_stmt 1 view -0
 658              		.cfi_startproc
 659              		@ args = 0, pretend = 0, frame = 0
 660              		@ frame_needed = 0, uses_anonymous_args = 0
 273:Src/usbd_conf.c ****   USBD_LL_DevConnected((USBD_HandleTypeDef*)hpcd->pData);
 661              		.loc 1 273 1 is_stmt 0 view .LVU119
 662 0000 10B5     		push	{r4, lr}
 663              	.LCFI13:
 664              		.cfi_def_cfa_offset 8
 665              		.cfi_offset 4, -8
 666              		.cfi_offset 14, -4
 274:Src/usbd_conf.c **** }
 667              		.loc 1 274 3 is_stmt 1 view .LVU120
 274:Src/usbd_conf.c **** }
 668              		.loc 1 274 49 is_stmt 0 view .LVU121
 669 0002 9C23     		movs	r3, #156
 670 0004 9B00     		lsls	r3, r3, #2
 671 0006 C058     		ldr	r0, [r0, r3]
 672              	.LVL58:
 274:Src/usbd_conf.c **** }
 673              		.loc 1 274 3 view .LVU122
 674 0008 FFF7FEFF 		bl	USBD_LL_DevConnected
 675              	.LVL59:
 275:Src/usbd_conf.c **** 
 676              		.loc 1 275 1 view .LVU123
 677              		@ sp needed
 678 000c 10BD     		pop	{r4, pc}
 679              		.cfi_endproc
 680              	.LFE54:
 682              		.section	.text.HAL_PCD_DisconnectCallback,"ax",%progbits
 683              		.align	1
 684              		.global	HAL_PCD_DisconnectCallback
 685              		.syntax unified
 686              		.code	16
 687              		.thumb_func
ARM GAS  /tmp/ccSHmBiG.s 			page 26


 688              		.fpu softvfp
 690              	HAL_PCD_DisconnectCallback:
 691              	.LVL60:
 692              	.LFB55:
 287:Src/usbd_conf.c ****   USBD_LL_DevDisconnected((USBD_HandleTypeDef*)hpcd->pData);
 693              		.loc 1 287 1 is_stmt 1 view -0
 694              		.cfi_startproc
 695              		@ args = 0, pretend = 0, frame = 0
 696              		@ frame_needed = 0, uses_anonymous_args = 0
 287:Src/usbd_conf.c ****   USBD_LL_DevDisconnected((USBD_HandleTypeDef*)hpcd->pData);
 697              		.loc 1 287 1 is_stmt 0 view .LVU125
 698 0000 10B5     		push	{r4, lr}
 699              	.LCFI14:
 700              		.cfi_def_cfa_offset 8
 701              		.cfi_offset 4, -8
 702              		.cfi_offset 14, -4
 288:Src/usbd_conf.c **** }
 703              		.loc 1 288 3 is_stmt 1 view .LVU126
 288:Src/usbd_conf.c **** }
 704              		.loc 1 288 52 is_stmt 0 view .LVU127
 705 0002 9C23     		movs	r3, #156
 706 0004 9B00     		lsls	r3, r3, #2
 707 0006 C058     		ldr	r0, [r0, r3]
 708              	.LVL61:
 288:Src/usbd_conf.c **** }
 709              		.loc 1 288 3 view .LVU128
 710 0008 FFF7FEFF 		bl	USBD_LL_DevDisconnected
 711              	.LVL62:
 289:Src/usbd_conf.c **** 
 712              		.loc 1 289 1 view .LVU129
 713              		@ sp needed
 714 000c 10BD     		pop	{r4, pc}
 715              		.cfi_endproc
 716              	.LFE55:
 718              		.section	.text.USBD_LL_Init,"ax",%progbits
 719              		.align	1
 720              		.global	USBD_LL_Init
 721              		.syntax unified
 722              		.code	16
 723              		.thumb_func
 724              		.fpu softvfp
 726              	USBD_LL_Init:
 727              	.LVL63:
 728              	.LFB56:
 301:Src/usbd_conf.c ****   /* Init USB Ip. */
 729              		.loc 1 301 1 is_stmt 1 view -0
 730              		.cfi_startproc
 731              		@ args = 0, pretend = 0, frame = 0
 732              		@ frame_needed = 0, uses_anonymous_args = 0
 301:Src/usbd_conf.c ****   /* Init USB Ip. */
 733              		.loc 1 301 1 is_stmt 0 view .LVU131
 734 0000 70B5     		push	{r4, r5, r6, lr}
 735              	.LCFI15:
 736              		.cfi_def_cfa_offset 16
 737              		.cfi_offset 4, -16
 738              		.cfi_offset 5, -12
 739              		.cfi_offset 6, -8
ARM GAS  /tmp/ccSHmBiG.s 			page 27


 740              		.cfi_offset 14, -4
 741 0002 0400     		movs	r4, r0
 304:Src/usbd_conf.c ****   pdev->pData = &hpcd_USB_FS;
 742              		.loc 1 304 3 is_stmt 1 view .LVU132
 304:Src/usbd_conf.c ****   pdev->pData = &hpcd_USB_FS;
 743              		.loc 1 304 21 is_stmt 0 view .LVU133
 744 0004 1948     		ldr	r0, .L40
 745              	.LVL64:
 304:Src/usbd_conf.c ****   pdev->pData = &hpcd_USB_FS;
 746              		.loc 1 304 21 view .LVU134
 747 0006 9C23     		movs	r3, #156
 748 0008 9B00     		lsls	r3, r3, #2
 749 000a C450     		str	r4, [r0, r3]
 305:Src/usbd_conf.c **** 
 750              		.loc 1 305 3 is_stmt 1 view .LVU135
 305:Src/usbd_conf.c **** 
 751              		.loc 1 305 15 is_stmt 0 view .LVU136
 752 000c 5033     		adds	r3, r3, #80
 753 000e E050     		str	r0, [r4, r3]
 307:Src/usbd_conf.c ****   hpcd_USB_FS.Init.dev_endpoints = 8;
 754              		.loc 1 307 3 is_stmt 1 view .LVU137
 307:Src/usbd_conf.c ****   hpcd_USB_FS.Init.dev_endpoints = 8;
 755              		.loc 1 307 24 is_stmt 0 view .LVU138
 756 0010 174B     		ldr	r3, .L40+4
 757 0012 0360     		str	r3, [r0]
 308:Src/usbd_conf.c ****   hpcd_USB_FS.Init.speed = PCD_SPEED_FULL;
 758              		.loc 1 308 3 is_stmt 1 view .LVU139
 308:Src/usbd_conf.c ****   hpcd_USB_FS.Init.speed = PCD_SPEED_FULL;
 759              		.loc 1 308 34 is_stmt 0 view .LVU140
 760 0014 0823     		movs	r3, #8
 761 0016 4360     		str	r3, [r0, #4]
 309:Src/usbd_conf.c ****   hpcd_USB_FS.Init.phy_itface = PCD_PHY_EMBEDDED;
 762              		.loc 1 309 3 is_stmt 1 view .LVU141
 309:Src/usbd_conf.c ****   hpcd_USB_FS.Init.phy_itface = PCD_PHY_EMBEDDED;
 763              		.loc 1 309 26 is_stmt 0 view .LVU142
 764 0018 063B     		subs	r3, r3, #6
 765 001a 8360     		str	r3, [r0, #8]
 310:Src/usbd_conf.c ****   hpcd_USB_FS.Init.low_power_enable = DISABLE;
 766              		.loc 1 310 3 is_stmt 1 view .LVU143
 310:Src/usbd_conf.c ****   hpcd_USB_FS.Init.low_power_enable = DISABLE;
 767              		.loc 1 310 31 is_stmt 0 view .LVU144
 768 001c 0361     		str	r3, [r0, #16]
 311:Src/usbd_conf.c ****   hpcd_USB_FS.Init.lpm_enable = DISABLE;
 769              		.loc 1 311 3 is_stmt 1 view .LVU145
 311:Src/usbd_conf.c ****   hpcd_USB_FS.Init.lpm_enable = DISABLE;
 770              		.loc 1 311 37 is_stmt 0 view .LVU146
 771 001e 0023     		movs	r3, #0
 772 0020 8361     		str	r3, [r0, #24]
 312:Src/usbd_conf.c ****   hpcd_USB_FS.Init.battery_charging_enable = DISABLE;
 773              		.loc 1 312 3 is_stmt 1 view .LVU147
 312:Src/usbd_conf.c ****   hpcd_USB_FS.Init.battery_charging_enable = DISABLE;
 774              		.loc 1 312 31 is_stmt 0 view .LVU148
 775 0022 C361     		str	r3, [r0, #28]
 313:Src/usbd_conf.c ****   if (HAL_PCD_Init(&hpcd_USB_FS) != HAL_OK)
 776              		.loc 1 313 3 is_stmt 1 view .LVU149
 313:Src/usbd_conf.c ****   if (HAL_PCD_Init(&hpcd_USB_FS) != HAL_OK)
 777              		.loc 1 313 44 is_stmt 0 view .LVU150
ARM GAS  /tmp/ccSHmBiG.s 			page 28


 778 0024 0362     		str	r3, [r0, #32]
 314:Src/usbd_conf.c ****   {
 779              		.loc 1 314 3 is_stmt 1 view .LVU151
 314:Src/usbd_conf.c ****   {
 780              		.loc 1 314 7 is_stmt 0 view .LVU152
 781 0026 FFF7FEFF 		bl	HAL_PCD_Init
 782              	.LVL65:
 314:Src/usbd_conf.c ****   {
 783              		.loc 1 314 6 view .LVU153
 784 002a 0028     		cmp	r0, #0
 785 002c 1BD1     		bne	.L39
 786              	.L38:
 335:Src/usbd_conf.c ****   HAL_PCDEx_PMAConfig((PCD_HandleTypeDef*)pdev->pData , 0x80 , PCD_SNG_BUF, 0x58);
 787              		.loc 1 335 3 is_stmt 1 view .LVU154
 335:Src/usbd_conf.c ****   HAL_PCDEx_PMAConfig((PCD_HandleTypeDef*)pdev->pData , 0x80 , PCD_SNG_BUF, 0x58);
 788              		.loc 1 335 47 is_stmt 0 view .LVU155
 789 002e B025     		movs	r5, #176
 790 0030 AD00     		lsls	r5, r5, #2
 335:Src/usbd_conf.c ****   HAL_PCDEx_PMAConfig((PCD_HandleTypeDef*)pdev->pData , 0x80 , PCD_SNG_BUF, 0x58);
 791              		.loc 1 335 3 view .LVU156
 792 0032 1823     		movs	r3, #24
 793 0034 0022     		movs	r2, #0
 794 0036 0021     		movs	r1, #0
 795 0038 6059     		ldr	r0, [r4, r5]
 796 003a FFF7FEFF 		bl	HAL_PCDEx_PMAConfig
 797              	.LVL66:
 336:Src/usbd_conf.c ****   /* USER CODE END EndPoint_Configuration */
 798              		.loc 1 336 3 is_stmt 1 view .LVU157
 799 003e 5823     		movs	r3, #88
 800 0040 0022     		movs	r2, #0
 801 0042 8021     		movs	r1, #128
 802 0044 6059     		ldr	r0, [r4, r5]
 803 0046 FFF7FEFF 		bl	HAL_PCDEx_PMAConfig
 804              	.LVL67:
 339:Src/usbd_conf.c ****   HAL_PCDEx_PMAConfig((PCD_HandleTypeDef*)pdev->pData , 0x01 , PCD_SNG_BUF, 0xD8);
 805              		.loc 1 339 3 view .LVU158
 806 004a 9823     		movs	r3, #152
 807 004c 0022     		movs	r2, #0
 808 004e 8121     		movs	r1, #129
 809 0050 6059     		ldr	r0, [r4, r5]
 810 0052 FFF7FEFF 		bl	HAL_PCDEx_PMAConfig
 811              	.LVL68:
 340:Src/usbd_conf.c ****   /* USER CODE END EndPoint_Configuration_MSC */
 812              		.loc 1 340 3 view .LVU159
 340:Src/usbd_conf.c ****   /* USER CODE END EndPoint_Configuration_MSC */
 813              		.loc 1 340 47 is_stmt 0 view .LVU160
 814 0056 6059     		ldr	r0, [r4, r5]
 340:Src/usbd_conf.c ****   /* USER CODE END EndPoint_Configuration_MSC */
 815              		.loc 1 340 3 view .LVU161
 816 0058 D823     		movs	r3, #216
 817 005a 0022     		movs	r2, #0
 818 005c 0121     		movs	r1, #1
 819 005e FFF7FEFF 		bl	HAL_PCDEx_PMAConfig
 820              	.LVL69:
 342:Src/usbd_conf.c **** }
 821              		.loc 1 342 3 is_stmt 1 view .LVU162
 343:Src/usbd_conf.c **** 
ARM GAS  /tmp/ccSHmBiG.s 			page 29


 822              		.loc 1 343 1 is_stmt 0 view .LVU163
 823 0062 0020     		movs	r0, #0
 824              		@ sp needed
 825              	.LVL70:
 343:Src/usbd_conf.c **** 
 826              		.loc 1 343 1 view .LVU164
 827 0064 70BD     		pop	{r4, r5, r6, pc}
 828              	.LVL71:
 829              	.L39:
 316:Src/usbd_conf.c ****   }
 830              		.loc 1 316 5 is_stmt 1 view .LVU165
 831 0066 FFF7FEFF 		bl	Error_Handler
 832              	.LVL72:
 833 006a E0E7     		b	.L38
 834              	.L41:
 835              		.align	2
 836              	.L40:
 837 006c 00000000 		.word	hpcd_USB_FS
 838 0070 005C0040 		.word	1073765376
 839              		.cfi_endproc
 840              	.LFE56:
 842              		.section	.text.USBD_LL_DeInit,"ax",%progbits
 843              		.align	1
 844              		.global	USBD_LL_DeInit
 845              		.syntax unified
 846              		.code	16
 847              		.thumb_func
 848              		.fpu softvfp
 850              	USBD_LL_DeInit:
 851              	.LVL73:
 852              	.LFB57:
 351:Src/usbd_conf.c ****   HAL_StatusTypeDef hal_status = HAL_OK;
 853              		.loc 1 351 1 view -0
 854              		.cfi_startproc
 855              		@ args = 0, pretend = 0, frame = 0
 856              		@ frame_needed = 0, uses_anonymous_args = 0
 351:Src/usbd_conf.c ****   HAL_StatusTypeDef hal_status = HAL_OK;
 857              		.loc 1 351 1 is_stmt 0 view .LVU167
 858 0000 10B5     		push	{r4, lr}
 859              	.LCFI16:
 860              		.cfi_def_cfa_offset 8
 861              		.cfi_offset 4, -8
 862              		.cfi_offset 14, -4
 352:Src/usbd_conf.c ****   USBD_StatusTypeDef usb_status = USBD_OK;
 863              		.loc 1 352 3 is_stmt 1 view .LVU168
 864              	.LVL74:
 353:Src/usbd_conf.c **** 
 865              		.loc 1 353 3 view .LVU169
 355:Src/usbd_conf.c **** 
 866              		.loc 1 355 3 view .LVU170
 355:Src/usbd_conf.c **** 
 867              		.loc 1 355 35 is_stmt 0 view .LVU171
 868 0002 B023     		movs	r3, #176
 869 0004 9B00     		lsls	r3, r3, #2
 870 0006 C058     		ldr	r0, [r0, r3]
 871              	.LVL75:
 355:Src/usbd_conf.c **** 
ARM GAS  /tmp/ccSHmBiG.s 			page 30


 872              		.loc 1 355 16 view .LVU172
 873 0008 FFF7FEFF 		bl	HAL_PCD_DeInit
 874              	.LVL76:
 357:Src/usbd_conf.c ****  
 875              		.loc 1 357 3 is_stmt 1 view .LVU173
 357:Src/usbd_conf.c ****  
 876              		.loc 1 357 17 is_stmt 0 view .LVU174
 877 000c FFF7FEFF 		bl	USBD_Get_USB_Status
 878              	.LVL77:
 359:Src/usbd_conf.c **** }
 879              		.loc 1 359 3 is_stmt 1 view .LVU175
 360:Src/usbd_conf.c **** 
 880              		.loc 1 360 1 is_stmt 0 view .LVU176
 881              		@ sp needed
 882 0010 10BD     		pop	{r4, pc}
 883              		.cfi_endproc
 884              	.LFE57:
 886              		.section	.text.USBD_LL_Start,"ax",%progbits
 887              		.align	1
 888              		.global	USBD_LL_Start
 889              		.syntax unified
 890              		.code	16
 891              		.thumb_func
 892              		.fpu softvfp
 894              	USBD_LL_Start:
 895              	.LVL78:
 896              	.LFB58:
 368:Src/usbd_conf.c ****   HAL_StatusTypeDef hal_status = HAL_OK;
 897              		.loc 1 368 1 is_stmt 1 view -0
 898              		.cfi_startproc
 899              		@ args = 0, pretend = 0, frame = 0
 900              		@ frame_needed = 0, uses_anonymous_args = 0
 368:Src/usbd_conf.c ****   HAL_StatusTypeDef hal_status = HAL_OK;
 901              		.loc 1 368 1 is_stmt 0 view .LVU178
 902 0000 10B5     		push	{r4, lr}
 903              	.LCFI17:
 904              		.cfi_def_cfa_offset 8
 905              		.cfi_offset 4, -8
 906              		.cfi_offset 14, -4
 369:Src/usbd_conf.c ****   USBD_StatusTypeDef usb_status = USBD_OK;
 907              		.loc 1 369 3 is_stmt 1 view .LVU179
 908              	.LVL79:
 370:Src/usbd_conf.c ****  
 909              		.loc 1 370 3 view .LVU180
 372:Src/usbd_conf.c ****      
 910              		.loc 1 372 3 view .LVU181
 372:Src/usbd_conf.c ****      
 911              		.loc 1 372 34 is_stmt 0 view .LVU182
 912 0002 B023     		movs	r3, #176
 913 0004 9B00     		lsls	r3, r3, #2
 914 0006 C058     		ldr	r0, [r0, r3]
 915              	.LVL80:
 372:Src/usbd_conf.c ****      
 916              		.loc 1 372 16 view .LVU183
 917 0008 FFF7FEFF 		bl	HAL_PCD_Start
 918              	.LVL81:
 374:Src/usbd_conf.c ****   
ARM GAS  /tmp/ccSHmBiG.s 			page 31


 919              		.loc 1 374 3 is_stmt 1 view .LVU184
 374:Src/usbd_conf.c ****   
 920              		.loc 1 374 17 is_stmt 0 view .LVU185
 921 000c FFF7FEFF 		bl	USBD_Get_USB_Status
 922              	.LVL82:
 376:Src/usbd_conf.c **** }
 923              		.loc 1 376 3 is_stmt 1 view .LVU186
 377:Src/usbd_conf.c **** 
 924              		.loc 1 377 1 is_stmt 0 view .LVU187
 925              		@ sp needed
 926 0010 10BD     		pop	{r4, pc}
 927              		.cfi_endproc
 928              	.LFE58:
 930              		.section	.text.USBD_LL_Stop,"ax",%progbits
 931              		.align	1
 932              		.global	USBD_LL_Stop
 933              		.syntax unified
 934              		.code	16
 935              		.thumb_func
 936              		.fpu softvfp
 938              	USBD_LL_Stop:
 939              	.LVL83:
 940              	.LFB59:
 385:Src/usbd_conf.c ****   HAL_StatusTypeDef hal_status = HAL_OK;
 941              		.loc 1 385 1 is_stmt 1 view -0
 942              		.cfi_startproc
 943              		@ args = 0, pretend = 0, frame = 0
 944              		@ frame_needed = 0, uses_anonymous_args = 0
 385:Src/usbd_conf.c ****   HAL_StatusTypeDef hal_status = HAL_OK;
 945              		.loc 1 385 1 is_stmt 0 view .LVU189
 946 0000 10B5     		push	{r4, lr}
 947              	.LCFI18:
 948              		.cfi_def_cfa_offset 8
 949              		.cfi_offset 4, -8
 950              		.cfi_offset 14, -4
 386:Src/usbd_conf.c ****   USBD_StatusTypeDef usb_status = USBD_OK;
 951              		.loc 1 386 3 is_stmt 1 view .LVU190
 952              	.LVL84:
 387:Src/usbd_conf.c **** 
 953              		.loc 1 387 3 view .LVU191
 389:Src/usbd_conf.c **** 
 954              		.loc 1 389 3 view .LVU192
 389:Src/usbd_conf.c **** 
 955              		.loc 1 389 33 is_stmt 0 view .LVU193
 956 0002 B023     		movs	r3, #176
 957 0004 9B00     		lsls	r3, r3, #2
 958 0006 C058     		ldr	r0, [r0, r3]
 959              	.LVL85:
 389:Src/usbd_conf.c **** 
 960              		.loc 1 389 16 view .LVU194
 961 0008 FFF7FEFF 		bl	HAL_PCD_Stop
 962              	.LVL86:
 391:Src/usbd_conf.c ****   
 963              		.loc 1 391 3 is_stmt 1 view .LVU195
 391:Src/usbd_conf.c ****   
 964              		.loc 1 391 17 is_stmt 0 view .LVU196
 965 000c FFF7FEFF 		bl	USBD_Get_USB_Status
ARM GAS  /tmp/ccSHmBiG.s 			page 32


 966              	.LVL87:
 393:Src/usbd_conf.c **** }
 967              		.loc 1 393 3 is_stmt 1 view .LVU197
 394:Src/usbd_conf.c **** 
 968              		.loc 1 394 1 is_stmt 0 view .LVU198
 969              		@ sp needed
 970 0010 10BD     		pop	{r4, pc}
 971              		.cfi_endproc
 972              	.LFE59:
 974              		.section	.text.USBD_LL_OpenEP,"ax",%progbits
 975              		.align	1
 976              		.global	USBD_LL_OpenEP
 977              		.syntax unified
 978              		.code	16
 979              		.thumb_func
 980              		.fpu softvfp
 982              	USBD_LL_OpenEP:
 983              	.LVL88:
 984              	.LFB60:
 405:Src/usbd_conf.c ****   HAL_StatusTypeDef hal_status = HAL_OK;
 985              		.loc 1 405 1 is_stmt 1 view -0
 986              		.cfi_startproc
 987              		@ args = 0, pretend = 0, frame = 0
 988              		@ frame_needed = 0, uses_anonymous_args = 0
 405:Src/usbd_conf.c ****   HAL_StatusTypeDef hal_status = HAL_OK;
 989              		.loc 1 405 1 is_stmt 0 view .LVU200
 990 0000 10B5     		push	{r4, lr}
 991              	.LCFI19:
 992              		.cfi_def_cfa_offset 8
 993              		.cfi_offset 4, -8
 994              		.cfi_offset 14, -4
 995 0002 1400     		movs	r4, r2
 996 0004 1A00     		movs	r2, r3
 997              	.LVL89:
 406:Src/usbd_conf.c ****   USBD_StatusTypeDef usb_status = USBD_OK;
 998              		.loc 1 406 3 is_stmt 1 view .LVU201
 407:Src/usbd_conf.c **** 
 999              		.loc 1 407 3 view .LVU202
 409:Src/usbd_conf.c **** 
 1000              		.loc 1 409 3 view .LVU203
 409:Src/usbd_conf.c **** 
 1001              		.loc 1 409 36 is_stmt 0 view .LVU204
 1002 0006 B023     		movs	r3, #176
 1003              	.LVL90:
 409:Src/usbd_conf.c **** 
 1004              		.loc 1 409 36 view .LVU205
 1005 0008 9B00     		lsls	r3, r3, #2
 1006 000a C058     		ldr	r0, [r0, r3]
 1007              	.LVL91:
 409:Src/usbd_conf.c **** 
 1008              		.loc 1 409 16 view .LVU206
 1009 000c 2300     		movs	r3, r4
 1010 000e FFF7FEFF 		bl	HAL_PCD_EP_Open
 1011              	.LVL92:
 411:Src/usbd_conf.c ****  
 1012              		.loc 1 411 3 is_stmt 1 view .LVU207
 411:Src/usbd_conf.c ****  
ARM GAS  /tmp/ccSHmBiG.s 			page 33


 1013              		.loc 1 411 17 is_stmt 0 view .LVU208
 1014 0012 FFF7FEFF 		bl	USBD_Get_USB_Status
 1015              	.LVL93:
 413:Src/usbd_conf.c **** }
 1016              		.loc 1 413 3 is_stmt 1 view .LVU209
 414:Src/usbd_conf.c **** 
 1017              		.loc 1 414 1 is_stmt 0 view .LVU210
 1018              		@ sp needed
 1019 0016 10BD     		pop	{r4, pc}
 1020              		.cfi_endproc
 1021              	.LFE60:
 1023              		.section	.text.USBD_LL_CloseEP,"ax",%progbits
 1024              		.align	1
 1025              		.global	USBD_LL_CloseEP
 1026              		.syntax unified
 1027              		.code	16
 1028              		.thumb_func
 1029              		.fpu softvfp
 1031              	USBD_LL_CloseEP:
 1032              	.LVL94:
 1033              	.LFB61:
 423:Src/usbd_conf.c ****   HAL_StatusTypeDef hal_status = HAL_OK;
 1034              		.loc 1 423 1 is_stmt 1 view -0
 1035              		.cfi_startproc
 1036              		@ args = 0, pretend = 0, frame = 0
 1037              		@ frame_needed = 0, uses_anonymous_args = 0
 423:Src/usbd_conf.c ****   HAL_StatusTypeDef hal_status = HAL_OK;
 1038              		.loc 1 423 1 is_stmt 0 view .LVU212
 1039 0000 10B5     		push	{r4, lr}
 1040              	.LCFI20:
 1041              		.cfi_def_cfa_offset 8
 1042              		.cfi_offset 4, -8
 1043              		.cfi_offset 14, -4
 424:Src/usbd_conf.c ****   USBD_StatusTypeDef usb_status = USBD_OK;
 1044              		.loc 1 424 3 is_stmt 1 view .LVU213
 1045              	.LVL95:
 425:Src/usbd_conf.c ****   
 1046              		.loc 1 425 3 view .LVU214
 427:Src/usbd_conf.c ****       
 1047              		.loc 1 427 3 view .LVU215
 427:Src/usbd_conf.c ****       
 1048              		.loc 1 427 37 is_stmt 0 view .LVU216
 1049 0002 B023     		movs	r3, #176
 1050 0004 9B00     		lsls	r3, r3, #2
 1051 0006 C058     		ldr	r0, [r0, r3]
 1052              	.LVL96:
 427:Src/usbd_conf.c ****       
 1053              		.loc 1 427 16 view .LVU217
 1054 0008 FFF7FEFF 		bl	HAL_PCD_EP_Close
 1055              	.LVL97:
 429:Src/usbd_conf.c **** 
 1056              		.loc 1 429 3 is_stmt 1 view .LVU218
 429:Src/usbd_conf.c **** 
 1057              		.loc 1 429 17 is_stmt 0 view .LVU219
 1058 000c FFF7FEFF 		bl	USBD_Get_USB_Status
 1059              	.LVL98:
 431:Src/usbd_conf.c **** }
ARM GAS  /tmp/ccSHmBiG.s 			page 34


 1060              		.loc 1 431 3 is_stmt 1 view .LVU220
 432:Src/usbd_conf.c **** 
 1061              		.loc 1 432 1 is_stmt 0 view .LVU221
 1062              		@ sp needed
 1063 0010 10BD     		pop	{r4, pc}
 1064              		.cfi_endproc
 1065              	.LFE61:
 1067              		.section	.text.USBD_LL_FlushEP,"ax",%progbits
 1068              		.align	1
 1069              		.global	USBD_LL_FlushEP
 1070              		.syntax unified
 1071              		.code	16
 1072              		.thumb_func
 1073              		.fpu softvfp
 1075              	USBD_LL_FlushEP:
 1076              	.LVL99:
 1077              	.LFB62:
 441:Src/usbd_conf.c ****   HAL_StatusTypeDef hal_status = HAL_OK;
 1078              		.loc 1 441 1 is_stmt 1 view -0
 1079              		.cfi_startproc
 1080              		@ args = 0, pretend = 0, frame = 0
 1081              		@ frame_needed = 0, uses_anonymous_args = 0
 441:Src/usbd_conf.c ****   HAL_StatusTypeDef hal_status = HAL_OK;
 1082              		.loc 1 441 1 is_stmt 0 view .LVU223
 1083 0000 10B5     		push	{r4, lr}
 1084              	.LCFI21:
 1085              		.cfi_def_cfa_offset 8
 1086              		.cfi_offset 4, -8
 1087              		.cfi_offset 14, -4
 442:Src/usbd_conf.c ****   USBD_StatusTypeDef usb_status = USBD_OK;
 1088              		.loc 1 442 3 is_stmt 1 view .LVU224
 1089              	.LVL100:
 443:Src/usbd_conf.c ****   
 1090              		.loc 1 443 3 view .LVU225
 445:Src/usbd_conf.c ****       
 1091              		.loc 1 445 3 view .LVU226
 445:Src/usbd_conf.c ****       
 1092              		.loc 1 445 37 is_stmt 0 view .LVU227
 1093 0002 B023     		movs	r3, #176
 1094 0004 9B00     		lsls	r3, r3, #2
 1095 0006 C058     		ldr	r0, [r0, r3]
 1096              	.LVL101:
 445:Src/usbd_conf.c ****       
 1097              		.loc 1 445 16 view .LVU228
 1098 0008 FFF7FEFF 		bl	HAL_PCD_EP_Flush
 1099              	.LVL102:
 447:Src/usbd_conf.c ****   
 1100              		.loc 1 447 3 is_stmt 1 view .LVU229
 447:Src/usbd_conf.c ****   
 1101              		.loc 1 447 17 is_stmt 0 view .LVU230
 1102 000c FFF7FEFF 		bl	USBD_Get_USB_Status
 1103              	.LVL103:
 449:Src/usbd_conf.c **** }
 1104              		.loc 1 449 3 is_stmt 1 view .LVU231
 450:Src/usbd_conf.c **** 
 1105              		.loc 1 450 1 is_stmt 0 view .LVU232
 1106              		@ sp needed
ARM GAS  /tmp/ccSHmBiG.s 			page 35


 1107 0010 10BD     		pop	{r4, pc}
 1108              		.cfi_endproc
 1109              	.LFE62:
 1111              		.section	.text.USBD_LL_StallEP,"ax",%progbits
 1112              		.align	1
 1113              		.global	USBD_LL_StallEP
 1114              		.syntax unified
 1115              		.code	16
 1116              		.thumb_func
 1117              		.fpu softvfp
 1119              	USBD_LL_StallEP:
 1120              	.LVL104:
 1121              	.LFB63:
 459:Src/usbd_conf.c ****   HAL_StatusTypeDef hal_status = HAL_OK;
 1122              		.loc 1 459 1 is_stmt 1 view -0
 1123              		.cfi_startproc
 1124              		@ args = 0, pretend = 0, frame = 0
 1125              		@ frame_needed = 0, uses_anonymous_args = 0
 459:Src/usbd_conf.c ****   HAL_StatusTypeDef hal_status = HAL_OK;
 1126              		.loc 1 459 1 is_stmt 0 view .LVU234
 1127 0000 10B5     		push	{r4, lr}
 1128              	.LCFI22:
 1129              		.cfi_def_cfa_offset 8
 1130              		.cfi_offset 4, -8
 1131              		.cfi_offset 14, -4
 460:Src/usbd_conf.c ****   USBD_StatusTypeDef usb_status = USBD_OK;
 1132              		.loc 1 460 3 is_stmt 1 view .LVU235
 1133              	.LVL105:
 461:Src/usbd_conf.c ****   
 1134              		.loc 1 461 3 view .LVU236
 463:Src/usbd_conf.c **** 
 1135              		.loc 1 463 3 view .LVU237
 463:Src/usbd_conf.c **** 
 1136              		.loc 1 463 40 is_stmt 0 view .LVU238
 1137 0002 B023     		movs	r3, #176
 1138 0004 9B00     		lsls	r3, r3, #2
 1139 0006 C058     		ldr	r0, [r0, r3]
 1140              	.LVL106:
 463:Src/usbd_conf.c **** 
 1141              		.loc 1 463 16 view .LVU239
 1142 0008 FFF7FEFF 		bl	HAL_PCD_EP_SetStall
 1143              	.LVL107:
 465:Src/usbd_conf.c ****  
 1144              		.loc 1 465 3 is_stmt 1 view .LVU240
 465:Src/usbd_conf.c ****  
 1145              		.loc 1 465 17 is_stmt 0 view .LVU241
 1146 000c FFF7FEFF 		bl	USBD_Get_USB_Status
 1147              	.LVL108:
 467:Src/usbd_conf.c **** }
 1148              		.loc 1 467 3 is_stmt 1 view .LVU242
 468:Src/usbd_conf.c **** 
 1149              		.loc 1 468 1 is_stmt 0 view .LVU243
 1150              		@ sp needed
 1151 0010 10BD     		pop	{r4, pc}
 1152              		.cfi_endproc
 1153              	.LFE63:
 1155              		.section	.text.USBD_LL_ClearStallEP,"ax",%progbits
ARM GAS  /tmp/ccSHmBiG.s 			page 36


 1156              		.align	1
 1157              		.global	USBD_LL_ClearStallEP
 1158              		.syntax unified
 1159              		.code	16
 1160              		.thumb_func
 1161              		.fpu softvfp
 1163              	USBD_LL_ClearStallEP:
 1164              	.LVL109:
 1165              	.LFB64:
 477:Src/usbd_conf.c ****   HAL_StatusTypeDef hal_status = HAL_OK;
 1166              		.loc 1 477 1 is_stmt 1 view -0
 1167              		.cfi_startproc
 1168              		@ args = 0, pretend = 0, frame = 0
 1169              		@ frame_needed = 0, uses_anonymous_args = 0
 477:Src/usbd_conf.c ****   HAL_StatusTypeDef hal_status = HAL_OK;
 1170              		.loc 1 477 1 is_stmt 0 view .LVU245
 1171 0000 10B5     		push	{r4, lr}
 1172              	.LCFI23:
 1173              		.cfi_def_cfa_offset 8
 1174              		.cfi_offset 4, -8
 1175              		.cfi_offset 14, -4
 478:Src/usbd_conf.c ****   USBD_StatusTypeDef usb_status = USBD_OK;
 1176              		.loc 1 478 3 is_stmt 1 view .LVU246
 1177              	.LVL110:
 479:Src/usbd_conf.c ****   
 1178              		.loc 1 479 3 view .LVU247
 481:Src/usbd_conf.c ****      
 1179              		.loc 1 481 3 view .LVU248
 481:Src/usbd_conf.c ****      
 1180              		.loc 1 481 40 is_stmt 0 view .LVU249
 1181 0002 B023     		movs	r3, #176
 1182 0004 9B00     		lsls	r3, r3, #2
 1183 0006 C058     		ldr	r0, [r0, r3]
 1184              	.LVL111:
 481:Src/usbd_conf.c ****      
 1185              		.loc 1 481 16 view .LVU250
 1186 0008 FFF7FEFF 		bl	HAL_PCD_EP_ClrStall
 1187              	.LVL112:
 483:Src/usbd_conf.c **** 
 1188              		.loc 1 483 3 is_stmt 1 view .LVU251
 483:Src/usbd_conf.c **** 
 1189              		.loc 1 483 17 is_stmt 0 view .LVU252
 1190 000c FFF7FEFF 		bl	USBD_Get_USB_Status
 1191              	.LVL113:
 485:Src/usbd_conf.c **** }
 1192              		.loc 1 485 3 is_stmt 1 view .LVU253
 486:Src/usbd_conf.c **** 
 1193              		.loc 1 486 1 is_stmt 0 view .LVU254
 1194              		@ sp needed
 1195 0010 10BD     		pop	{r4, pc}
 1196              		.cfi_endproc
 1197              	.LFE64:
 1199              		.section	.text.USBD_LL_IsStallEP,"ax",%progbits
 1200              		.align	1
 1201              		.global	USBD_LL_IsStallEP
 1202              		.syntax unified
 1203              		.code	16
ARM GAS  /tmp/ccSHmBiG.s 			page 37


 1204              		.thumb_func
 1205              		.fpu softvfp
 1207              	USBD_LL_IsStallEP:
 1208              	.LVL114:
 1209              	.LFB65:
 495:Src/usbd_conf.c ****   PCD_HandleTypeDef *hpcd = (PCD_HandleTypeDef*) pdev->pData;
 1210              		.loc 1 495 1 is_stmt 1 view -0
 1211              		.cfi_startproc
 1212              		@ args = 0, pretend = 0, frame = 0
 1213              		@ frame_needed = 0, uses_anonymous_args = 0
 1214              		@ link register save eliminated.
 496:Src/usbd_conf.c ****   
 1215              		.loc 1 496 3 view .LVU256
 496:Src/usbd_conf.c ****   
 1216              		.loc 1 496 22 is_stmt 0 view .LVU257
 1217 0000 B023     		movs	r3, #176
 1218 0002 9B00     		lsls	r3, r3, #2
 1219 0004 C358     		ldr	r3, [r0, r3]
 1220              	.LVL115:
 498:Src/usbd_conf.c ****   {
 1221              		.loc 1 498 3 is_stmt 1 view .LVU258
 498:Src/usbd_conf.c ****   {
 1222              		.loc 1 498 23 is_stmt 0 view .LVU259
 1223 0006 4AB2     		sxtb	r2, r1
 498:Src/usbd_conf.c ****   {
 1224              		.loc 1 498 5 view .LVU260
 1225 0008 002A     		cmp	r2, #0
 1226 000a 07DB     		blt	.L53
 504:Src/usbd_conf.c ****   }
 1227              		.loc 1 504 5 is_stmt 1 view .LVU261
 504:Src/usbd_conf.c ****   }
 1228              		.loc 1 504 33 is_stmt 0 view .LVU262
 1229 000c 7F22     		movs	r2, #127
 1230 000e 1140     		ands	r1, r2
 1231              	.LVL116:
 504:Src/usbd_conf.c ****   }
 1232              		.loc 1 504 40 view .LVU263
 1233 0010 4901     		lsls	r1, r1, #5
 1234 0012 5B18     		adds	r3, r3, r1
 1235              	.LVL117:
 504:Src/usbd_conf.c ****   }
 1236              		.loc 1 504 40 view .LVU264
 1237 0014 2B33     		adds	r3, r3, #43
 1238 0016 FF33     		adds	r3, r3, #255
 1239 0018 1878     		ldrb	r0, [r3]
 1240              	.LVL118:
 1241              	.L52:
 506:Src/usbd_conf.c **** 
 1242              		.loc 1 506 1 view .LVU265
 1243              		@ sp needed
 1244 001a 7047     		bx	lr
 1245              	.LVL119:
 1246              	.L53:
 500:Src/usbd_conf.c ****   }
 1247              		.loc 1 500 5 is_stmt 1 view .LVU266
 500:Src/usbd_conf.c ****   }
 1248              		.loc 1 500 32 is_stmt 0 view .LVU267
ARM GAS  /tmp/ccSHmBiG.s 			page 38


 1249 001c 7F22     		movs	r2, #127
 1250 001e 1140     		ands	r1, r2
 1251              	.LVL120:
 500:Src/usbd_conf.c ****   }
 1252              		.loc 1 500 39 view .LVU268
 1253 0020 4901     		lsls	r1, r1, #5
 1254 0022 5B18     		adds	r3, r3, r1
 1255              	.LVL121:
 500:Src/usbd_conf.c ****   }
 1256              		.loc 1 500 39 view .LVU269
 1257 0024 2A33     		adds	r3, r3, #42
 1258 0026 1878     		ldrb	r0, [r3]
 1259              	.LVL122:
 500:Src/usbd_conf.c ****   }
 1260              		.loc 1 500 39 view .LVU270
 1261 0028 F7E7     		b	.L52
 1262              		.cfi_endproc
 1263              	.LFE65:
 1265              		.section	.text.USBD_LL_SetUSBAddress,"ax",%progbits
 1266              		.align	1
 1267              		.global	USBD_LL_SetUSBAddress
 1268              		.syntax unified
 1269              		.code	16
 1270              		.thumb_func
 1271              		.fpu softvfp
 1273              	USBD_LL_SetUSBAddress:
 1274              	.LVL123:
 1275              	.LFB66:
 515:Src/usbd_conf.c ****   HAL_StatusTypeDef hal_status = HAL_OK;
 1276              		.loc 1 515 1 is_stmt 1 view -0
 1277              		.cfi_startproc
 1278              		@ args = 0, pretend = 0, frame = 0
 1279              		@ frame_needed = 0, uses_anonymous_args = 0
 515:Src/usbd_conf.c ****   HAL_StatusTypeDef hal_status = HAL_OK;
 1280              		.loc 1 515 1 is_stmt 0 view .LVU272
 1281 0000 10B5     		push	{r4, lr}
 1282              	.LCFI24:
 1283              		.cfi_def_cfa_offset 8
 1284              		.cfi_offset 4, -8
 1285              		.cfi_offset 14, -4
 516:Src/usbd_conf.c ****   USBD_StatusTypeDef usb_status = USBD_OK;
 1286              		.loc 1 516 3 is_stmt 1 view .LVU273
 1287              	.LVL124:
 517:Src/usbd_conf.c ****   
 1288              		.loc 1 517 3 view .LVU274
 519:Src/usbd_conf.c ****      
 1289              		.loc 1 519 3 view .LVU275
 519:Src/usbd_conf.c ****      
 1290              		.loc 1 519 39 is_stmt 0 view .LVU276
 1291 0002 B023     		movs	r3, #176
 1292 0004 9B00     		lsls	r3, r3, #2
 1293 0006 C058     		ldr	r0, [r0, r3]
 1294              	.LVL125:
 519:Src/usbd_conf.c ****      
 1295              		.loc 1 519 16 view .LVU277
 1296 0008 FFF7FEFF 		bl	HAL_PCD_SetAddress
 1297              	.LVL126:
ARM GAS  /tmp/ccSHmBiG.s 			page 39


 521:Src/usbd_conf.c ****  
 1298              		.loc 1 521 3 is_stmt 1 view .LVU278
 521:Src/usbd_conf.c ****  
 1299              		.loc 1 521 17 is_stmt 0 view .LVU279
 1300 000c FFF7FEFF 		bl	USBD_Get_USB_Status
 1301              	.LVL127:
 523:Src/usbd_conf.c **** }
 1302              		.loc 1 523 3 is_stmt 1 view .LVU280
 524:Src/usbd_conf.c **** 
 1303              		.loc 1 524 1 is_stmt 0 view .LVU281
 1304              		@ sp needed
 1305 0010 10BD     		pop	{r4, pc}
 1306              		.cfi_endproc
 1307              	.LFE66:
 1309              		.section	.text.USBD_LL_Transmit,"ax",%progbits
 1310              		.align	1
 1311              		.global	USBD_LL_Transmit
 1312              		.syntax unified
 1313              		.code	16
 1314              		.thumb_func
 1315              		.fpu softvfp
 1317              	USBD_LL_Transmit:
 1318              	.LVL128:
 1319              	.LFB67:
 535:Src/usbd_conf.c ****   HAL_StatusTypeDef hal_status = HAL_OK;
 1320              		.loc 1 535 1 is_stmt 1 view -0
 1321              		.cfi_startproc
 1322              		@ args = 0, pretend = 0, frame = 0
 1323              		@ frame_needed = 0, uses_anonymous_args = 0
 535:Src/usbd_conf.c ****   HAL_StatusTypeDef hal_status = HAL_OK;
 1324              		.loc 1 535 1 is_stmt 0 view .LVU283
 1325 0000 10B5     		push	{r4, lr}
 1326              	.LCFI25:
 1327              		.cfi_def_cfa_offset 8
 1328              		.cfi_offset 4, -8
 1329              		.cfi_offset 14, -4
 536:Src/usbd_conf.c ****   USBD_StatusTypeDef usb_status = USBD_OK;
 1330              		.loc 1 536 3 is_stmt 1 view .LVU284
 1331              	.LVL129:
 537:Src/usbd_conf.c **** 
 1332              		.loc 1 537 3 view .LVU285
 539:Src/usbd_conf.c ****      
 1333              		.loc 1 539 3 view .LVU286
 539:Src/usbd_conf.c ****      
 1334              		.loc 1 539 40 is_stmt 0 view .LVU287
 1335 0002 B024     		movs	r4, #176
 1336 0004 A400     		lsls	r4, r4, #2
 1337 0006 0059     		ldr	r0, [r0, r4]
 1338              	.LVL130:
 539:Src/usbd_conf.c ****      
 1339              		.loc 1 539 16 view .LVU288
 1340 0008 FFF7FEFF 		bl	HAL_PCD_EP_Transmit
 1341              	.LVL131:
 541:Src/usbd_conf.c ****   
 1342              		.loc 1 541 3 is_stmt 1 view .LVU289
 541:Src/usbd_conf.c ****   
 1343              		.loc 1 541 17 is_stmt 0 view .LVU290
ARM GAS  /tmp/ccSHmBiG.s 			page 40


 1344 000c FFF7FEFF 		bl	USBD_Get_USB_Status
 1345              	.LVL132:
 543:Src/usbd_conf.c **** }
 1346              		.loc 1 543 3 is_stmt 1 view .LVU291
 544:Src/usbd_conf.c **** 
 1347              		.loc 1 544 1 is_stmt 0 view .LVU292
 1348              		@ sp needed
 1349 0010 10BD     		pop	{r4, pc}
 1350              		.cfi_endproc
 1351              	.LFE67:
 1353              		.section	.text.USBD_LL_PrepareReceive,"ax",%progbits
 1354              		.align	1
 1355              		.global	USBD_LL_PrepareReceive
 1356              		.syntax unified
 1357              		.code	16
 1358              		.thumb_func
 1359              		.fpu softvfp
 1361              	USBD_LL_PrepareReceive:
 1362              	.LVL133:
 1363              	.LFB68:
 555:Src/usbd_conf.c ****   HAL_StatusTypeDef hal_status = HAL_OK;
 1364              		.loc 1 555 1 is_stmt 1 view -0
 1365              		.cfi_startproc
 1366              		@ args = 0, pretend = 0, frame = 0
 1367              		@ frame_needed = 0, uses_anonymous_args = 0
 555:Src/usbd_conf.c ****   HAL_StatusTypeDef hal_status = HAL_OK;
 1368              		.loc 1 555 1 is_stmt 0 view .LVU294
 1369 0000 10B5     		push	{r4, lr}
 1370              	.LCFI26:
 1371              		.cfi_def_cfa_offset 8
 1372              		.cfi_offset 4, -8
 1373              		.cfi_offset 14, -4
 556:Src/usbd_conf.c ****   USBD_StatusTypeDef usb_status = USBD_OK;
 1374              		.loc 1 556 3 is_stmt 1 view .LVU295
 1375              	.LVL134:
 557:Src/usbd_conf.c **** 
 1376              		.loc 1 557 3 view .LVU296
 559:Src/usbd_conf.c ****      
 1377              		.loc 1 559 3 view .LVU297
 559:Src/usbd_conf.c ****      
 1378              		.loc 1 559 39 is_stmt 0 view .LVU298
 1379 0002 B024     		movs	r4, #176
 1380 0004 A400     		lsls	r4, r4, #2
 1381 0006 0059     		ldr	r0, [r0, r4]
 1382              	.LVL135:
 559:Src/usbd_conf.c ****      
 1383              		.loc 1 559 16 view .LVU299
 1384 0008 FFF7FEFF 		bl	HAL_PCD_EP_Receive
 1385              	.LVL136:
 561:Src/usbd_conf.c ****   	
 1386              		.loc 1 561 3 is_stmt 1 view .LVU300
 561:Src/usbd_conf.c ****   	
 1387              		.loc 1 561 17 is_stmt 0 view .LVU301
 1388 000c FFF7FEFF 		bl	USBD_Get_USB_Status
 1389              	.LVL137:
 563:Src/usbd_conf.c **** }
 1390              		.loc 1 563 3 is_stmt 1 view .LVU302
ARM GAS  /tmp/ccSHmBiG.s 			page 41


 564:Src/usbd_conf.c **** 
 1391              		.loc 1 564 1 is_stmt 0 view .LVU303
 1392              		@ sp needed
 1393 0010 10BD     		pop	{r4, pc}
 1394              		.cfi_endproc
 1395              	.LFE68:
 1397              		.section	.text.USBD_LL_GetRxDataSize,"ax",%progbits
 1398              		.align	1
 1399              		.global	USBD_LL_GetRxDataSize
 1400              		.syntax unified
 1401              		.code	16
 1402              		.thumb_func
 1403              		.fpu softvfp
 1405              	USBD_LL_GetRxDataSize:
 1406              	.LVL138:
 1407              	.LFB69:
 573:Src/usbd_conf.c ****   return HAL_PCD_EP_GetRxCount((PCD_HandleTypeDef*) pdev->pData, ep_addr);
 1408              		.loc 1 573 1 is_stmt 1 view -0
 1409              		.cfi_startproc
 1410              		@ args = 0, pretend = 0, frame = 0
 1411              		@ frame_needed = 0, uses_anonymous_args = 0
 573:Src/usbd_conf.c ****   return HAL_PCD_EP_GetRxCount((PCD_HandleTypeDef*) pdev->pData, ep_addr);
 1412              		.loc 1 573 1 is_stmt 0 view .LVU305
 1413 0000 10B5     		push	{r4, lr}
 1414              	.LCFI27:
 1415              		.cfi_def_cfa_offset 8
 1416              		.cfi_offset 4, -8
 1417              		.cfi_offset 14, -4
 574:Src/usbd_conf.c **** }
 1418              		.loc 1 574 3 is_stmt 1 view .LVU306
 574:Src/usbd_conf.c **** }
 1419              		.loc 1 574 57 is_stmt 0 view .LVU307
 1420 0002 B023     		movs	r3, #176
 1421 0004 9B00     		lsls	r3, r3, #2
 1422 0006 C058     		ldr	r0, [r0, r3]
 1423              	.LVL139:
 574:Src/usbd_conf.c **** }
 1424              		.loc 1 574 10 view .LVU308
 1425 0008 FFF7FEFF 		bl	HAL_PCD_EP_GetRxCount
 1426              	.LVL140:
 575:Src/usbd_conf.c **** 
 1427              		.loc 1 575 1 view .LVU309
 1428              		@ sp needed
 1429 000c 10BD     		pop	{r4, pc}
 1430              		.cfi_endproc
 1431              	.LFE69:
 1433              		.section	.text.USBD_LL_Delay,"ax",%progbits
 1434              		.align	1
 1435              		.global	USBD_LL_Delay
 1436              		.syntax unified
 1437              		.code	16
 1438              		.thumb_func
 1439              		.fpu softvfp
 1441              	USBD_LL_Delay:
 1442              	.LVL141:
 1443              	.LFB70:
 583:Src/usbd_conf.c ****   HAL_Delay(Delay);
ARM GAS  /tmp/ccSHmBiG.s 			page 42


 1444              		.loc 1 583 1 is_stmt 1 view -0
 1445              		.cfi_startproc
 1446              		@ args = 0, pretend = 0, frame = 0
 1447              		@ frame_needed = 0, uses_anonymous_args = 0
 583:Src/usbd_conf.c ****   HAL_Delay(Delay);
 1448              		.loc 1 583 1 is_stmt 0 view .LVU311
 1449 0000 10B5     		push	{r4, lr}
 1450              	.LCFI28:
 1451              		.cfi_def_cfa_offset 8
 1452              		.cfi_offset 4, -8
 1453              		.cfi_offset 14, -4
 584:Src/usbd_conf.c **** }
 1454              		.loc 1 584 3 is_stmt 1 view .LVU312
 1455 0002 FFF7FEFF 		bl	HAL_Delay
 1456              	.LVL142:
 585:Src/usbd_conf.c **** 
 1457              		.loc 1 585 1 is_stmt 0 view .LVU313
 1458              		@ sp needed
 1459 0006 10BD     		pop	{r4, pc}
 1460              		.cfi_endproc
 1461              	.LFE70:
 1463              		.section	.text.USBD_static_malloc,"ax",%progbits
 1464              		.align	1
 1465              		.global	USBD_static_malloc
 1466              		.syntax unified
 1467              		.code	16
 1468              		.thumb_func
 1469              		.fpu softvfp
 1471              	USBD_static_malloc:
 1472              	.LVL143:
 1473              	.LFB71:
 593:Src/usbd_conf.c ****   static uint32_t mem[(sizeof(USBD_MSC_BOT_HandleTypeDef)/4)+1];/* On 32-bit boundary */
 1474              		.loc 1 593 1 is_stmt 1 view -0
 1475              		.cfi_startproc
 1476              		@ args = 0, pretend = 0, frame = 0
 1477              		@ frame_needed = 0, uses_anonymous_args = 0
 1478              		@ link register save eliminated.
 594:Src/usbd_conf.c ****   return mem;
 1479              		.loc 1 594 3 view .LVU315
 595:Src/usbd_conf.c **** }
 1480              		.loc 1 595 3 view .LVU316
 596:Src/usbd_conf.c **** 
 1481              		.loc 1 596 1 is_stmt 0 view .LVU317
 1482 0000 0048     		ldr	r0, .L60
 1483              	.LVL144:
 596:Src/usbd_conf.c **** 
 1484              		.loc 1 596 1 view .LVU318
 1485              		@ sp needed
 1486 0002 7047     		bx	lr
 1487              	.L61:
 1488              		.align	2
 1489              	.L60:
 1490 0004 00000000 		.word	mem.7920
 1491              		.cfi_endproc
 1492              	.LFE71:
 1494              		.section	.text.USBD_static_free,"ax",%progbits
 1495              		.align	1
ARM GAS  /tmp/ccSHmBiG.s 			page 43


 1496              		.global	USBD_static_free
 1497              		.syntax unified
 1498              		.code	16
 1499              		.thumb_func
 1500              		.fpu softvfp
 1502              	USBD_static_free:
 1503              	.LVL145:
 1504              	.LFB72:
 604:Src/usbd_conf.c **** 
 1505              		.loc 1 604 1 is_stmt 1 view -0
 1506              		.cfi_startproc
 1507              		@ args = 0, pretend = 0, frame = 0
 1508              		@ frame_needed = 0, uses_anonymous_args = 0
 1509              		@ link register save eliminated.
 606:Src/usbd_conf.c **** 
 1510              		.loc 1 606 1 view .LVU320
 1511              		@ sp needed
 1512 0000 7047     		bx	lr
 1513              		.cfi_endproc
 1514              	.LFE72:
 1516              		.comm	hpcd_USB_FS,628,4
 1517              		.section	.bss.mem.7920,"aw",%nobits
 1518              		.align	2
 1521              	mem.7920:
 1522 0000 00000000 		.space	624
 1522      00000000 
 1522      00000000 
 1522      00000000 
 1522      00000000 
 1523              		.text
 1524              	.Letext0:
 1525              		.file 2 "/usr/arm-none-eabi/include/machine/_default_types.h"
 1526              		.file 3 "/usr/arm-none-eabi/include/sys/_stdint.h"
 1527              		.file 4 "Drivers/CMSIS/Include/core_cm0.h"
 1528              		.file 5 "Drivers/CMSIS/Device/ST/STM32F0xx/Include/system_stm32f0xx.h"
 1529              		.file 6 "Drivers/CMSIS/Device/ST/STM32F0xx/Include/stm32f042x6.h"
 1530              		.file 7 "Drivers/CMSIS/Device/ST/STM32F0xx/Include/stm32f0xx.h"
 1531              		.file 8 "Drivers/STM32F0xx_HAL_Driver/Inc/stm32f0xx_hal_def.h"
 1532              		.file 9 "Drivers/STM32F0xx_HAL_Driver/Inc/stm32f0xx_ll_usb.h"
 1533              		.file 10 "Drivers/STM32F0xx_HAL_Driver/Inc/stm32f0xx_hal_pcd.h"
 1534              		.file 11 "Drivers/STM32F0xx_HAL_Driver/Inc/stm32f0xx_hal.h"
 1535              		.file 12 "/usr/arm-none-eabi/include/sys/lock.h"
 1536              		.file 13 "/usr/arm-none-eabi/include/sys/_types.h"
 1537              		.file 14 "/usr/lib/gcc/arm-none-eabi/9.2.0/include/stddef.h"
 1538              		.file 15 "/usr/arm-none-eabi/include/sys/reent.h"
 1539              		.file 16 "/usr/arm-none-eabi/include/stdlib.h"
 1540              		.file 17 "Middlewares/ST/STM32_USB_Device_Library/Core/Inc/usbd_def.h"
 1541              		.file 18 "Middlewares/ST/STM32_USB_Device_Library/Class/MSC/Inc/usbd_msc_scsi.h"
 1542              		.file 19 "Middlewares/ST/STM32_USB_Device_Library/Class/MSC/Inc/usbd_msc.h"
 1543              		.file 20 "Drivers/STM32F0xx_HAL_Driver/Inc/stm32f0xx_hal_pcd_ex.h"
 1544              		.file 21 "Middlewares/ST/STM32_USB_Device_Library/Core/Inc/usbd_core.h"
 1545              		.file 22 "Drivers/STM32F0xx_HAL_Driver/Inc/stm32f0xx_hal_cortex.h"
ARM GAS  /tmp/ccSHmBiG.s 			page 44

