ARM GAS  /tmp/ccelyxFt.s 			page 1


   1              		.cpu cortex-m0plus
   2              		.eabi_attribute 20, 1
   3              		.eabi_attribute 21, 1
   4              		.eabi_attribute 23, 3
   5              		.eabi_attribute 24, 1
   6              		.eabi_attribute 25, 1
   7              		.eabi_attribute 26, 1
   8              		.eabi_attribute 30, 1
   9              		.eabi_attribute 34, 0
  10              		.eabi_attribute 18, 4
  11              		.file	"stm32l0xx_hal_dma.c"
  12              		.text
  13              	.Ltext0:
  14              		.cfi_sections	.debug_frame
  15              		.section	.text.DMA_SetConfig,"ax",%progbits
  16              		.align	1
  17              		.arch armv6s-m
  18              		.syntax unified
  19              		.code	16
  20              		.thumb_func
  21              		.fpu softvfp
  23              	DMA_SetConfig:
  24              	.LVL0:
  25              	.LFB46:
  26              		.file 1 "Drivers/STM32L0xx_HAL_Driver/Src/stm32l0xx_hal_dma.c"
   1:Drivers/STM32L0xx_HAL_Driver/Src/stm32l0xx_hal_dma.c **** /**
   2:Drivers/STM32L0xx_HAL_Driver/Src/stm32l0xx_hal_dma.c ****   ******************************************************************************
   3:Drivers/STM32L0xx_HAL_Driver/Src/stm32l0xx_hal_dma.c ****   * @file    stm32l0xx_hal_dma.c
   4:Drivers/STM32L0xx_HAL_Driver/Src/stm32l0xx_hal_dma.c ****   * @author  MCD Application Team
   5:Drivers/STM32L0xx_HAL_Driver/Src/stm32l0xx_hal_dma.c ****   * @brief   DMA HAL module driver.
   6:Drivers/STM32L0xx_HAL_Driver/Src/stm32l0xx_hal_dma.c ****   *         This file provides firmware functions to manage the following
   7:Drivers/STM32L0xx_HAL_Driver/Src/stm32l0xx_hal_dma.c ****   *         functionalities of the Direct Memory Access (DMA) peripheral:
   8:Drivers/STM32L0xx_HAL_Driver/Src/stm32l0xx_hal_dma.c ****   *           + Initialization and de-initialization functions
   9:Drivers/STM32L0xx_HAL_Driver/Src/stm32l0xx_hal_dma.c ****   *           + IO operation functions
  10:Drivers/STM32L0xx_HAL_Driver/Src/stm32l0xx_hal_dma.c ****   *           + Peripheral State and errors functions
  11:Drivers/STM32L0xx_HAL_Driver/Src/stm32l0xx_hal_dma.c ****   @verbatim
  12:Drivers/STM32L0xx_HAL_Driver/Src/stm32l0xx_hal_dma.c ****   ==============================================================================
  13:Drivers/STM32L0xx_HAL_Driver/Src/stm32l0xx_hal_dma.c ****                         ##### How to use this driver #####
  14:Drivers/STM32L0xx_HAL_Driver/Src/stm32l0xx_hal_dma.c ****   ==============================================================================
  15:Drivers/STM32L0xx_HAL_Driver/Src/stm32l0xx_hal_dma.c ****   [..]
  16:Drivers/STM32L0xx_HAL_Driver/Src/stm32l0xx_hal_dma.c ****    (#) Enable and configure the peripheral to be connected to the DMA Channel
  17:Drivers/STM32L0xx_HAL_Driver/Src/stm32l0xx_hal_dma.c ****        (except for internal SRAM / FLASH memories: no initialization is
  18:Drivers/STM32L0xx_HAL_Driver/Src/stm32l0xx_hal_dma.c ****        necessary).
  19:Drivers/STM32L0xx_HAL_Driver/Src/stm32l0xx_hal_dma.c **** 
  20:Drivers/STM32L0xx_HAL_Driver/Src/stm32l0xx_hal_dma.c ****    (#) For a given Channel, program the required configuration through the following parameters:
  21:Drivers/STM32L0xx_HAL_Driver/Src/stm32l0xx_hal_dma.c ****        Channel request, Transfer Direction, Source and Destination data formats,
  22:Drivers/STM32L0xx_HAL_Driver/Src/stm32l0xx_hal_dma.c ****        Circular or Normal mode, Channel Priority level, Source and Destination Increment mode
  23:Drivers/STM32L0xx_HAL_Driver/Src/stm32l0xx_hal_dma.c ****        using HAL_DMA_Init() function.
  24:Drivers/STM32L0xx_HAL_Driver/Src/stm32l0xx_hal_dma.c **** 
  25:Drivers/STM32L0xx_HAL_Driver/Src/stm32l0xx_hal_dma.c ****    (#) Use HAL_DMA_GetState() function to return the DMA state and HAL_DMA_GetError() in case of er
  26:Drivers/STM32L0xx_HAL_Driver/Src/stm32l0xx_hal_dma.c ****        detection.
  27:Drivers/STM32L0xx_HAL_Driver/Src/stm32l0xx_hal_dma.c **** 
  28:Drivers/STM32L0xx_HAL_Driver/Src/stm32l0xx_hal_dma.c ****    (#) Use HAL_DMA_Abort() function to abort the current transfer
  29:Drivers/STM32L0xx_HAL_Driver/Src/stm32l0xx_hal_dma.c **** 
  30:Drivers/STM32L0xx_HAL_Driver/Src/stm32l0xx_hal_dma.c ****      -@-   In Memory-to-Memory transfer mode, Circular mode is not allowed.
  31:Drivers/STM32L0xx_HAL_Driver/Src/stm32l0xx_hal_dma.c **** 
  32:Drivers/STM32L0xx_HAL_Driver/Src/stm32l0xx_hal_dma.c ****      *** Polling mode IO operation ***
ARM GAS  /tmp/ccelyxFt.s 			page 2


  33:Drivers/STM32L0xx_HAL_Driver/Src/stm32l0xx_hal_dma.c ****      =================================
  34:Drivers/STM32L0xx_HAL_Driver/Src/stm32l0xx_hal_dma.c ****     [..]
  35:Drivers/STM32L0xx_HAL_Driver/Src/stm32l0xx_hal_dma.c ****           (+) Use HAL_DMA_Start() to start DMA transfer after the configuration of Source
  36:Drivers/STM32L0xx_HAL_Driver/Src/stm32l0xx_hal_dma.c ****               address and destination address and the Length of data to be transferred
  37:Drivers/STM32L0xx_HAL_Driver/Src/stm32l0xx_hal_dma.c ****           (+) Use HAL_DMA_PollForTransfer() to poll for the end of current transfer, in this
  38:Drivers/STM32L0xx_HAL_Driver/Src/stm32l0xx_hal_dma.c ****               case a fixed Timeout can be configured by User depending from his application.
  39:Drivers/STM32L0xx_HAL_Driver/Src/stm32l0xx_hal_dma.c **** 
  40:Drivers/STM32L0xx_HAL_Driver/Src/stm32l0xx_hal_dma.c ****      *** Interrupt mode IO operation ***
  41:Drivers/STM32L0xx_HAL_Driver/Src/stm32l0xx_hal_dma.c ****      ===================================
  42:Drivers/STM32L0xx_HAL_Driver/Src/stm32l0xx_hal_dma.c ****     [..]
  43:Drivers/STM32L0xx_HAL_Driver/Src/stm32l0xx_hal_dma.c ****           (+) Configure the DMA interrupt priority using HAL_NVIC_SetPriority()
  44:Drivers/STM32L0xx_HAL_Driver/Src/stm32l0xx_hal_dma.c ****           (+) Enable the DMA IRQ handler using HAL_NVIC_EnableIRQ()
  45:Drivers/STM32L0xx_HAL_Driver/Src/stm32l0xx_hal_dma.c ****           (+) Use HAL_DMA_Start_IT() to start DMA transfer after the configuration of
  46:Drivers/STM32L0xx_HAL_Driver/Src/stm32l0xx_hal_dma.c ****               Source address and destination address and the Length of data to be transferred.
  47:Drivers/STM32L0xx_HAL_Driver/Src/stm32l0xx_hal_dma.c ****               In this case the DMA interrupt is configured
  48:Drivers/STM32L0xx_HAL_Driver/Src/stm32l0xx_hal_dma.c ****           (+) Use HAL_DMA_IRQHandler() called under DMA_IRQHandler() Interrupt subroutine
  49:Drivers/STM32L0xx_HAL_Driver/Src/stm32l0xx_hal_dma.c ****           (+) At the end of data transfer HAL_DMA_IRQHandler() function is executed and user can
  50:Drivers/STM32L0xx_HAL_Driver/Src/stm32l0xx_hal_dma.c ****               add his own function to register callbacks with HAL_DMA_RegisterCallback().
  51:Drivers/STM32L0xx_HAL_Driver/Src/stm32l0xx_hal_dma.c **** 
  52:Drivers/STM32L0xx_HAL_Driver/Src/stm32l0xx_hal_dma.c ****      *** DMA HAL driver macros list ***
  53:Drivers/STM32L0xx_HAL_Driver/Src/stm32l0xx_hal_dma.c ****      =============================================
  54:Drivers/STM32L0xx_HAL_Driver/Src/stm32l0xx_hal_dma.c ****       [..]
  55:Drivers/STM32L0xx_HAL_Driver/Src/stm32l0xx_hal_dma.c ****        Below the list of macros in DMA HAL driver.
  56:Drivers/STM32L0xx_HAL_Driver/Src/stm32l0xx_hal_dma.c **** 
  57:Drivers/STM32L0xx_HAL_Driver/Src/stm32l0xx_hal_dma.c ****        (+) __HAL_DMA_ENABLE: Enable the specified DMA Channel.
  58:Drivers/STM32L0xx_HAL_Driver/Src/stm32l0xx_hal_dma.c ****        (+) __HAL_DMA_DISABLE: Disable the specified DMA Channel.
  59:Drivers/STM32L0xx_HAL_Driver/Src/stm32l0xx_hal_dma.c ****        (+) __HAL_DMA_GET_FLAG: Get the DMA Channel pending flags.
  60:Drivers/STM32L0xx_HAL_Driver/Src/stm32l0xx_hal_dma.c ****        (+) __HAL_DMA_CLEAR_FLAG: Clear the DMA Channel pending flags.
  61:Drivers/STM32L0xx_HAL_Driver/Src/stm32l0xx_hal_dma.c ****        (+) __HAL_DMA_ENABLE_IT: Enable the specified DMA Channel interrupts.
  62:Drivers/STM32L0xx_HAL_Driver/Src/stm32l0xx_hal_dma.c ****        (+) __HAL_DMA_DISABLE_IT: Disable the specified DMA Channel interrupts.
  63:Drivers/STM32L0xx_HAL_Driver/Src/stm32l0xx_hal_dma.c ****        (+) __HAL_DMA_GET_IT_SOURCE: Check whether the specified DMA Channel interrupt has occurred 
  64:Drivers/STM32L0xx_HAL_Driver/Src/stm32l0xx_hal_dma.c **** 
  65:Drivers/STM32L0xx_HAL_Driver/Src/stm32l0xx_hal_dma.c ****      [..]
  66:Drivers/STM32L0xx_HAL_Driver/Src/stm32l0xx_hal_dma.c ****       (@) You can refer to the DMA HAL driver header file for more useful macros
  67:Drivers/STM32L0xx_HAL_Driver/Src/stm32l0xx_hal_dma.c **** 
  68:Drivers/STM32L0xx_HAL_Driver/Src/stm32l0xx_hal_dma.c ****   @endverbatim
  69:Drivers/STM32L0xx_HAL_Driver/Src/stm32l0xx_hal_dma.c ****   ******************************************************************************
  70:Drivers/STM32L0xx_HAL_Driver/Src/stm32l0xx_hal_dma.c ****   * @attention
  71:Drivers/STM32L0xx_HAL_Driver/Src/stm32l0xx_hal_dma.c ****   *
  72:Drivers/STM32L0xx_HAL_Driver/Src/stm32l0xx_hal_dma.c ****   * <h2><center>&copy; COPYRIGHT(c) 2016 STMicroelectronics.
  73:Drivers/STM32L0xx_HAL_Driver/Src/stm32l0xx_hal_dma.c ****   * All rights reserved.</center></h2>
  74:Drivers/STM32L0xx_HAL_Driver/Src/stm32l0xx_hal_dma.c ****   *
  75:Drivers/STM32L0xx_HAL_Driver/Src/stm32l0xx_hal_dma.c ****   * This software component is licensed by ST under BSD 3-Clause license,
  76:Drivers/STM32L0xx_HAL_Driver/Src/stm32l0xx_hal_dma.c ****   * the "License"; You may not use this file except in compliance with the
  77:Drivers/STM32L0xx_HAL_Driver/Src/stm32l0xx_hal_dma.c ****   * License. You may obtain a copy of the License at:
  78:Drivers/STM32L0xx_HAL_Driver/Src/stm32l0xx_hal_dma.c ****   *                        opensource.org/licenses/BSD-3-Clause
  79:Drivers/STM32L0xx_HAL_Driver/Src/stm32l0xx_hal_dma.c ****   *
  80:Drivers/STM32L0xx_HAL_Driver/Src/stm32l0xx_hal_dma.c ****   ******************************************************************************
  81:Drivers/STM32L0xx_HAL_Driver/Src/stm32l0xx_hal_dma.c ****   */
  82:Drivers/STM32L0xx_HAL_Driver/Src/stm32l0xx_hal_dma.c **** 
  83:Drivers/STM32L0xx_HAL_Driver/Src/stm32l0xx_hal_dma.c **** /* Includes ------------------------------------------------------------------*/
  84:Drivers/STM32L0xx_HAL_Driver/Src/stm32l0xx_hal_dma.c **** #include "stm32l0xx_hal.h"
  85:Drivers/STM32L0xx_HAL_Driver/Src/stm32l0xx_hal_dma.c **** 
  86:Drivers/STM32L0xx_HAL_Driver/Src/stm32l0xx_hal_dma.c **** /** @addtogroup STM32L0xx_HAL_Driver
  87:Drivers/STM32L0xx_HAL_Driver/Src/stm32l0xx_hal_dma.c ****   * @{
  88:Drivers/STM32L0xx_HAL_Driver/Src/stm32l0xx_hal_dma.c ****   */
  89:Drivers/STM32L0xx_HAL_Driver/Src/stm32l0xx_hal_dma.c **** 
ARM GAS  /tmp/ccelyxFt.s 			page 3


  90:Drivers/STM32L0xx_HAL_Driver/Src/stm32l0xx_hal_dma.c **** /** @defgroup DMA DMA
  91:Drivers/STM32L0xx_HAL_Driver/Src/stm32l0xx_hal_dma.c ****   * @brief DMA HAL module driver
  92:Drivers/STM32L0xx_HAL_Driver/Src/stm32l0xx_hal_dma.c ****   * @{
  93:Drivers/STM32L0xx_HAL_Driver/Src/stm32l0xx_hal_dma.c ****   */
  94:Drivers/STM32L0xx_HAL_Driver/Src/stm32l0xx_hal_dma.c **** 
  95:Drivers/STM32L0xx_HAL_Driver/Src/stm32l0xx_hal_dma.c **** #ifdef HAL_DMA_MODULE_ENABLED
  96:Drivers/STM32L0xx_HAL_Driver/Src/stm32l0xx_hal_dma.c **** 
  97:Drivers/STM32L0xx_HAL_Driver/Src/stm32l0xx_hal_dma.c **** /* Private typedef -----------------------------------------------------------*/
  98:Drivers/STM32L0xx_HAL_Driver/Src/stm32l0xx_hal_dma.c **** /** @defgroup DMA_Private_Functions DMA Private Functions
  99:Drivers/STM32L0xx_HAL_Driver/Src/stm32l0xx_hal_dma.c ****   * @{
 100:Drivers/STM32L0xx_HAL_Driver/Src/stm32l0xx_hal_dma.c ****   */
 101:Drivers/STM32L0xx_HAL_Driver/Src/stm32l0xx_hal_dma.c **** 
 102:Drivers/STM32L0xx_HAL_Driver/Src/stm32l0xx_hal_dma.c **** static void DMA_SetConfig(DMA_HandleTypeDef *hdma, uint32_t SrcAddress, uint32_t DstAddress, uint32
 103:Drivers/STM32L0xx_HAL_Driver/Src/stm32l0xx_hal_dma.c **** /**
 104:Drivers/STM32L0xx_HAL_Driver/Src/stm32l0xx_hal_dma.c ****   * @}
 105:Drivers/STM32L0xx_HAL_Driver/Src/stm32l0xx_hal_dma.c ****   */
 106:Drivers/STM32L0xx_HAL_Driver/Src/stm32l0xx_hal_dma.c **** 
 107:Drivers/STM32L0xx_HAL_Driver/Src/stm32l0xx_hal_dma.c **** /* Exported functions ---------------------------------------------------------*/
 108:Drivers/STM32L0xx_HAL_Driver/Src/stm32l0xx_hal_dma.c **** 
 109:Drivers/STM32L0xx_HAL_Driver/Src/stm32l0xx_hal_dma.c **** /** @defgroup DMA_Exported_Functions DMA Exported Functions
 110:Drivers/STM32L0xx_HAL_Driver/Src/stm32l0xx_hal_dma.c ****   * @{
 111:Drivers/STM32L0xx_HAL_Driver/Src/stm32l0xx_hal_dma.c ****   */
 112:Drivers/STM32L0xx_HAL_Driver/Src/stm32l0xx_hal_dma.c **** 
 113:Drivers/STM32L0xx_HAL_Driver/Src/stm32l0xx_hal_dma.c **** /** @defgroup DMA_Exported_Functions_Group1 Initialization and de-initialization functions
 114:Drivers/STM32L0xx_HAL_Driver/Src/stm32l0xx_hal_dma.c ****  *  @brief   Initialization and de-initialization functions
 115:Drivers/STM32L0xx_HAL_Driver/Src/stm32l0xx_hal_dma.c ****  *
 116:Drivers/STM32L0xx_HAL_Driver/Src/stm32l0xx_hal_dma.c **** @verbatim
 117:Drivers/STM32L0xx_HAL_Driver/Src/stm32l0xx_hal_dma.c ****  ===============================================================================
 118:Drivers/STM32L0xx_HAL_Driver/Src/stm32l0xx_hal_dma.c ****              ##### Initialization and de-initialization functions  #####
 119:Drivers/STM32L0xx_HAL_Driver/Src/stm32l0xx_hal_dma.c ****  ===============================================================================
 120:Drivers/STM32L0xx_HAL_Driver/Src/stm32l0xx_hal_dma.c ****     [..]
 121:Drivers/STM32L0xx_HAL_Driver/Src/stm32l0xx_hal_dma.c ****     This section provides functions allowing to initialize the DMA Channel source
 122:Drivers/STM32L0xx_HAL_Driver/Src/stm32l0xx_hal_dma.c ****     and destination addresses, incrementation and data sizes, transfer direction,
 123:Drivers/STM32L0xx_HAL_Driver/Src/stm32l0xx_hal_dma.c ****     circular/normal mode selection, memory-to-memory mode selection and Channel priority value.
 124:Drivers/STM32L0xx_HAL_Driver/Src/stm32l0xx_hal_dma.c ****     [..]
 125:Drivers/STM32L0xx_HAL_Driver/Src/stm32l0xx_hal_dma.c ****     The HAL_DMA_Init() function follows the DMA configuration procedures as described in
 126:Drivers/STM32L0xx_HAL_Driver/Src/stm32l0xx_hal_dma.c ****     reference manual.
 127:Drivers/STM32L0xx_HAL_Driver/Src/stm32l0xx_hal_dma.c **** 
 128:Drivers/STM32L0xx_HAL_Driver/Src/stm32l0xx_hal_dma.c **** @endverbatim
 129:Drivers/STM32L0xx_HAL_Driver/Src/stm32l0xx_hal_dma.c ****   * @{
 130:Drivers/STM32L0xx_HAL_Driver/Src/stm32l0xx_hal_dma.c ****   */
 131:Drivers/STM32L0xx_HAL_Driver/Src/stm32l0xx_hal_dma.c **** 
 132:Drivers/STM32L0xx_HAL_Driver/Src/stm32l0xx_hal_dma.c **** /**
 133:Drivers/STM32L0xx_HAL_Driver/Src/stm32l0xx_hal_dma.c ****   * @brief  Initialize the DMA according to the specified
 134:Drivers/STM32L0xx_HAL_Driver/Src/stm32l0xx_hal_dma.c ****   *         parameters in the DMA_InitTypeDef and initialize the associated handle.
 135:Drivers/STM32L0xx_HAL_Driver/Src/stm32l0xx_hal_dma.c ****   * @param  hdma Pointer to a DMA_HandleTypeDef structure that contains
 136:Drivers/STM32L0xx_HAL_Driver/Src/stm32l0xx_hal_dma.c ****   *               the configuration information for the specified DMA Channel.
 137:Drivers/STM32L0xx_HAL_Driver/Src/stm32l0xx_hal_dma.c ****   * @retval HAL status
 138:Drivers/STM32L0xx_HAL_Driver/Src/stm32l0xx_hal_dma.c ****   */
 139:Drivers/STM32L0xx_HAL_Driver/Src/stm32l0xx_hal_dma.c **** HAL_StatusTypeDef HAL_DMA_Init(DMA_HandleTypeDef *hdma)
 140:Drivers/STM32L0xx_HAL_Driver/Src/stm32l0xx_hal_dma.c **** {
 141:Drivers/STM32L0xx_HAL_Driver/Src/stm32l0xx_hal_dma.c ****   uint32_t tmp;
 142:Drivers/STM32L0xx_HAL_Driver/Src/stm32l0xx_hal_dma.c **** 
 143:Drivers/STM32L0xx_HAL_Driver/Src/stm32l0xx_hal_dma.c ****   /* Check the DMA handle allocation */
 144:Drivers/STM32L0xx_HAL_Driver/Src/stm32l0xx_hal_dma.c ****   if(hdma == NULL)
 145:Drivers/STM32L0xx_HAL_Driver/Src/stm32l0xx_hal_dma.c ****   {
 146:Drivers/STM32L0xx_HAL_Driver/Src/stm32l0xx_hal_dma.c ****     return HAL_ERROR;
ARM GAS  /tmp/ccelyxFt.s 			page 4


 147:Drivers/STM32L0xx_HAL_Driver/Src/stm32l0xx_hal_dma.c ****   }
 148:Drivers/STM32L0xx_HAL_Driver/Src/stm32l0xx_hal_dma.c **** 
 149:Drivers/STM32L0xx_HAL_Driver/Src/stm32l0xx_hal_dma.c ****   /* Check the parameters */
 150:Drivers/STM32L0xx_HAL_Driver/Src/stm32l0xx_hal_dma.c ****   assert_param(IS_DMA_ALL_INSTANCE(hdma->Instance));
 151:Drivers/STM32L0xx_HAL_Driver/Src/stm32l0xx_hal_dma.c ****   assert_param(IS_DMA_ALL_REQUEST(hdma->Init.Request));
 152:Drivers/STM32L0xx_HAL_Driver/Src/stm32l0xx_hal_dma.c ****   assert_param(IS_DMA_DIRECTION(hdma->Init.Direction));
 153:Drivers/STM32L0xx_HAL_Driver/Src/stm32l0xx_hal_dma.c ****   assert_param(IS_DMA_PERIPHERAL_INC_STATE(hdma->Init.PeriphInc));
 154:Drivers/STM32L0xx_HAL_Driver/Src/stm32l0xx_hal_dma.c ****   assert_param(IS_DMA_MEMORY_INC_STATE(hdma->Init.MemInc));
 155:Drivers/STM32L0xx_HAL_Driver/Src/stm32l0xx_hal_dma.c ****   assert_param(IS_DMA_PERIPHERAL_DATA_SIZE(hdma->Init.PeriphDataAlignment));
 156:Drivers/STM32L0xx_HAL_Driver/Src/stm32l0xx_hal_dma.c ****   assert_param(IS_DMA_MEMORY_DATA_SIZE(hdma->Init.MemDataAlignment));
 157:Drivers/STM32L0xx_HAL_Driver/Src/stm32l0xx_hal_dma.c ****   assert_param(IS_DMA_MODE(hdma->Init.Mode));
 158:Drivers/STM32L0xx_HAL_Driver/Src/stm32l0xx_hal_dma.c ****   assert_param(IS_DMA_PRIORITY(hdma->Init.Priority));
 159:Drivers/STM32L0xx_HAL_Driver/Src/stm32l0xx_hal_dma.c **** 
 160:Drivers/STM32L0xx_HAL_Driver/Src/stm32l0xx_hal_dma.c ****   /* Compute the channel index */
 161:Drivers/STM32L0xx_HAL_Driver/Src/stm32l0xx_hal_dma.c ****   /* Only one DMA: DMA1 */
 162:Drivers/STM32L0xx_HAL_Driver/Src/stm32l0xx_hal_dma.c ****   hdma->ChannelIndex = (((uint32_t)hdma->Instance - (uint32_t)DMA1_Channel1) / ((uint32_t)DMA1_Chan
 163:Drivers/STM32L0xx_HAL_Driver/Src/stm32l0xx_hal_dma.c ****   hdma->DmaBaseAddress = DMA1;
 164:Drivers/STM32L0xx_HAL_Driver/Src/stm32l0xx_hal_dma.c **** 
 165:Drivers/STM32L0xx_HAL_Driver/Src/stm32l0xx_hal_dma.c ****   /* Change DMA peripheral state */
 166:Drivers/STM32L0xx_HAL_Driver/Src/stm32l0xx_hal_dma.c ****   hdma->State = HAL_DMA_STATE_BUSY;
 167:Drivers/STM32L0xx_HAL_Driver/Src/stm32l0xx_hal_dma.c **** 
 168:Drivers/STM32L0xx_HAL_Driver/Src/stm32l0xx_hal_dma.c ****   /* Get the CR register value */
 169:Drivers/STM32L0xx_HAL_Driver/Src/stm32l0xx_hal_dma.c ****   tmp = hdma->Instance->CCR;
 170:Drivers/STM32L0xx_HAL_Driver/Src/stm32l0xx_hal_dma.c **** 
 171:Drivers/STM32L0xx_HAL_Driver/Src/stm32l0xx_hal_dma.c ****   /* Clear PL, MSIZE, PSIZE, MINC, PINC, CIRC, DIR and MEM2MEM bits */
 172:Drivers/STM32L0xx_HAL_Driver/Src/stm32l0xx_hal_dma.c ****   tmp &= ((uint32_t)~(DMA_CCR_PL    | DMA_CCR_MSIZE  | DMA_CCR_PSIZE  |
 173:Drivers/STM32L0xx_HAL_Driver/Src/stm32l0xx_hal_dma.c ****                       DMA_CCR_MINC  | DMA_CCR_PINC   | DMA_CCR_CIRC   |
 174:Drivers/STM32L0xx_HAL_Driver/Src/stm32l0xx_hal_dma.c ****                       DMA_CCR_DIR   | DMA_CCR_MEM2MEM));
 175:Drivers/STM32L0xx_HAL_Driver/Src/stm32l0xx_hal_dma.c **** 
 176:Drivers/STM32L0xx_HAL_Driver/Src/stm32l0xx_hal_dma.c ****   /* Prepare the DMA Channel configuration */
 177:Drivers/STM32L0xx_HAL_Driver/Src/stm32l0xx_hal_dma.c ****   tmp |=  hdma->Init.Direction        |
 178:Drivers/STM32L0xx_HAL_Driver/Src/stm32l0xx_hal_dma.c ****           hdma->Init.PeriphInc           | hdma->Init.MemInc           |
 179:Drivers/STM32L0xx_HAL_Driver/Src/stm32l0xx_hal_dma.c ****           hdma->Init.PeriphDataAlignment | hdma->Init.MemDataAlignment |
 180:Drivers/STM32L0xx_HAL_Driver/Src/stm32l0xx_hal_dma.c ****           hdma->Init.Mode                | hdma->Init.Priority;
 181:Drivers/STM32L0xx_HAL_Driver/Src/stm32l0xx_hal_dma.c **** 
 182:Drivers/STM32L0xx_HAL_Driver/Src/stm32l0xx_hal_dma.c ****   /* Write to DMA Channel CR register */
 183:Drivers/STM32L0xx_HAL_Driver/Src/stm32l0xx_hal_dma.c ****   hdma->Instance->CCR = tmp;
 184:Drivers/STM32L0xx_HAL_Driver/Src/stm32l0xx_hal_dma.c **** 
 185:Drivers/STM32L0xx_HAL_Driver/Src/stm32l0xx_hal_dma.c ****   /* Set request selection */
 186:Drivers/STM32L0xx_HAL_Driver/Src/stm32l0xx_hal_dma.c ****   if(hdma->Init.Direction != DMA_MEMORY_TO_MEMORY)
 187:Drivers/STM32L0xx_HAL_Driver/Src/stm32l0xx_hal_dma.c ****   {
 188:Drivers/STM32L0xx_HAL_Driver/Src/stm32l0xx_hal_dma.c ****     /* Write to DMA channel selection register */
 189:Drivers/STM32L0xx_HAL_Driver/Src/stm32l0xx_hal_dma.c ****     /* Reset request selection for DMA1 Channelx */
 190:Drivers/STM32L0xx_HAL_Driver/Src/stm32l0xx_hal_dma.c ****     DMA1_CSELR->CSELR &= ~(DMA_CSELR_C1S << (hdma->ChannelIndex & 0x1cU));
 191:Drivers/STM32L0xx_HAL_Driver/Src/stm32l0xx_hal_dma.c **** 
 192:Drivers/STM32L0xx_HAL_Driver/Src/stm32l0xx_hal_dma.c ****     /* Configure request selection for DMA1 Channelx */
 193:Drivers/STM32L0xx_HAL_Driver/Src/stm32l0xx_hal_dma.c ****     DMA1_CSELR->CSELR |= (uint32_t) (hdma->Init.Request << (hdma->ChannelIndex & 0x1cU));
 194:Drivers/STM32L0xx_HAL_Driver/Src/stm32l0xx_hal_dma.c ****   }
 195:Drivers/STM32L0xx_HAL_Driver/Src/stm32l0xx_hal_dma.c **** 
 196:Drivers/STM32L0xx_HAL_Driver/Src/stm32l0xx_hal_dma.c ****   /* Initialise the error code */
 197:Drivers/STM32L0xx_HAL_Driver/Src/stm32l0xx_hal_dma.c ****   hdma->ErrorCode = HAL_DMA_ERROR_NONE;
 198:Drivers/STM32L0xx_HAL_Driver/Src/stm32l0xx_hal_dma.c **** 
 199:Drivers/STM32L0xx_HAL_Driver/Src/stm32l0xx_hal_dma.c ****   /* Initialize the DMA state*/
 200:Drivers/STM32L0xx_HAL_Driver/Src/stm32l0xx_hal_dma.c ****   hdma->State  = HAL_DMA_STATE_READY;
 201:Drivers/STM32L0xx_HAL_Driver/Src/stm32l0xx_hal_dma.c **** 
 202:Drivers/STM32L0xx_HAL_Driver/Src/stm32l0xx_hal_dma.c ****   /* Allocate lock resource and initialize it */
 203:Drivers/STM32L0xx_HAL_Driver/Src/stm32l0xx_hal_dma.c ****   hdma->Lock = HAL_UNLOCKED;
ARM GAS  /tmp/ccelyxFt.s 			page 5


 204:Drivers/STM32L0xx_HAL_Driver/Src/stm32l0xx_hal_dma.c **** 
 205:Drivers/STM32L0xx_HAL_Driver/Src/stm32l0xx_hal_dma.c ****   return HAL_OK;
 206:Drivers/STM32L0xx_HAL_Driver/Src/stm32l0xx_hal_dma.c **** }
 207:Drivers/STM32L0xx_HAL_Driver/Src/stm32l0xx_hal_dma.c **** 
 208:Drivers/STM32L0xx_HAL_Driver/Src/stm32l0xx_hal_dma.c **** /**
 209:Drivers/STM32L0xx_HAL_Driver/Src/stm32l0xx_hal_dma.c ****   * @brief  DeInitialize the DMA peripheral.
 210:Drivers/STM32L0xx_HAL_Driver/Src/stm32l0xx_hal_dma.c ****   * @param  hdma pointer to a DMA_HandleTypeDef structure that contains
 211:Drivers/STM32L0xx_HAL_Driver/Src/stm32l0xx_hal_dma.c ****   *               the configuration information for the specified DMA Channel.
 212:Drivers/STM32L0xx_HAL_Driver/Src/stm32l0xx_hal_dma.c ****   * @retval HAL status
 213:Drivers/STM32L0xx_HAL_Driver/Src/stm32l0xx_hal_dma.c ****   */
 214:Drivers/STM32L0xx_HAL_Driver/Src/stm32l0xx_hal_dma.c **** HAL_StatusTypeDef HAL_DMA_DeInit(DMA_HandleTypeDef *hdma)
 215:Drivers/STM32L0xx_HAL_Driver/Src/stm32l0xx_hal_dma.c **** {
 216:Drivers/STM32L0xx_HAL_Driver/Src/stm32l0xx_hal_dma.c **** 
 217:Drivers/STM32L0xx_HAL_Driver/Src/stm32l0xx_hal_dma.c ****   /* Check the DMA handle allocation */
 218:Drivers/STM32L0xx_HAL_Driver/Src/stm32l0xx_hal_dma.c ****   if (NULL == hdma )
 219:Drivers/STM32L0xx_HAL_Driver/Src/stm32l0xx_hal_dma.c ****   {
 220:Drivers/STM32L0xx_HAL_Driver/Src/stm32l0xx_hal_dma.c ****     return HAL_ERROR;
 221:Drivers/STM32L0xx_HAL_Driver/Src/stm32l0xx_hal_dma.c ****   }
 222:Drivers/STM32L0xx_HAL_Driver/Src/stm32l0xx_hal_dma.c **** 
 223:Drivers/STM32L0xx_HAL_Driver/Src/stm32l0xx_hal_dma.c ****   /* Check the parameters */
 224:Drivers/STM32L0xx_HAL_Driver/Src/stm32l0xx_hal_dma.c ****   assert_param(IS_DMA_ALL_INSTANCE(hdma->Instance));
 225:Drivers/STM32L0xx_HAL_Driver/Src/stm32l0xx_hal_dma.c **** 
 226:Drivers/STM32L0xx_HAL_Driver/Src/stm32l0xx_hal_dma.c ****   /* Disable the selected DMA Channelx */
 227:Drivers/STM32L0xx_HAL_Driver/Src/stm32l0xx_hal_dma.c ****   __HAL_DMA_DISABLE(hdma);
 228:Drivers/STM32L0xx_HAL_Driver/Src/stm32l0xx_hal_dma.c **** 
 229:Drivers/STM32L0xx_HAL_Driver/Src/stm32l0xx_hal_dma.c ****   /* Compute the channel index */
 230:Drivers/STM32L0xx_HAL_Driver/Src/stm32l0xx_hal_dma.c ****   /* DMA1 */
 231:Drivers/STM32L0xx_HAL_Driver/Src/stm32l0xx_hal_dma.c ****   hdma->ChannelIndex = (((uint32_t)hdma->Instance - (uint32_t)DMA1_Channel1) / ((uint32_t)DMA1_Chan
 232:Drivers/STM32L0xx_HAL_Driver/Src/stm32l0xx_hal_dma.c ****   hdma->DmaBaseAddress = DMA1;
 233:Drivers/STM32L0xx_HAL_Driver/Src/stm32l0xx_hal_dma.c **** 
 234:Drivers/STM32L0xx_HAL_Driver/Src/stm32l0xx_hal_dma.c ****   /* Reset DMA Channel control register */
 235:Drivers/STM32L0xx_HAL_Driver/Src/stm32l0xx_hal_dma.c ****   hdma->Instance->CCR  = 0U;
 236:Drivers/STM32L0xx_HAL_Driver/Src/stm32l0xx_hal_dma.c **** 
 237:Drivers/STM32L0xx_HAL_Driver/Src/stm32l0xx_hal_dma.c ****   /* Clear all flags */
 238:Drivers/STM32L0xx_HAL_Driver/Src/stm32l0xx_hal_dma.c ****   hdma->DmaBaseAddress->IFCR = (DMA_ISR_GIF1 << (hdma->ChannelIndex & 0x1cU));
 239:Drivers/STM32L0xx_HAL_Driver/Src/stm32l0xx_hal_dma.c **** 
 240:Drivers/STM32L0xx_HAL_Driver/Src/stm32l0xx_hal_dma.c ****   /* Reset DMA channel selection register */
 241:Drivers/STM32L0xx_HAL_Driver/Src/stm32l0xx_hal_dma.c ****   /* DMA1 */
 242:Drivers/STM32L0xx_HAL_Driver/Src/stm32l0xx_hal_dma.c ****   DMA1_CSELR->CSELR &= ~(DMA_CSELR_C1S << (hdma->ChannelIndex & 0x1cU));
 243:Drivers/STM32L0xx_HAL_Driver/Src/stm32l0xx_hal_dma.c **** 
 244:Drivers/STM32L0xx_HAL_Driver/Src/stm32l0xx_hal_dma.c ****   /* Clean callbacks */
 245:Drivers/STM32L0xx_HAL_Driver/Src/stm32l0xx_hal_dma.c ****   hdma->XferCpltCallback = NULL;
 246:Drivers/STM32L0xx_HAL_Driver/Src/stm32l0xx_hal_dma.c ****   hdma->XferHalfCpltCallback = NULL;
 247:Drivers/STM32L0xx_HAL_Driver/Src/stm32l0xx_hal_dma.c ****   hdma->XferErrorCallback = NULL;
 248:Drivers/STM32L0xx_HAL_Driver/Src/stm32l0xx_hal_dma.c ****   hdma->XferAbortCallback = NULL;
 249:Drivers/STM32L0xx_HAL_Driver/Src/stm32l0xx_hal_dma.c **** 
 250:Drivers/STM32L0xx_HAL_Driver/Src/stm32l0xx_hal_dma.c ****   /* Initialise the error code */
 251:Drivers/STM32L0xx_HAL_Driver/Src/stm32l0xx_hal_dma.c ****   hdma->ErrorCode = HAL_DMA_ERROR_NONE;
 252:Drivers/STM32L0xx_HAL_Driver/Src/stm32l0xx_hal_dma.c **** 
 253:Drivers/STM32L0xx_HAL_Driver/Src/stm32l0xx_hal_dma.c ****   /* Initialize the DMA state */
 254:Drivers/STM32L0xx_HAL_Driver/Src/stm32l0xx_hal_dma.c ****   hdma->State = HAL_DMA_STATE_RESET;
 255:Drivers/STM32L0xx_HAL_Driver/Src/stm32l0xx_hal_dma.c **** 
 256:Drivers/STM32L0xx_HAL_Driver/Src/stm32l0xx_hal_dma.c ****   /* Release Lock */
 257:Drivers/STM32L0xx_HAL_Driver/Src/stm32l0xx_hal_dma.c ****   __HAL_UNLOCK(hdma);
 258:Drivers/STM32L0xx_HAL_Driver/Src/stm32l0xx_hal_dma.c **** 
 259:Drivers/STM32L0xx_HAL_Driver/Src/stm32l0xx_hal_dma.c ****   return HAL_OK;
 260:Drivers/STM32L0xx_HAL_Driver/Src/stm32l0xx_hal_dma.c **** }
ARM GAS  /tmp/ccelyxFt.s 			page 6


 261:Drivers/STM32L0xx_HAL_Driver/Src/stm32l0xx_hal_dma.c **** 
 262:Drivers/STM32L0xx_HAL_Driver/Src/stm32l0xx_hal_dma.c **** /**
 263:Drivers/STM32L0xx_HAL_Driver/Src/stm32l0xx_hal_dma.c ****   * @}
 264:Drivers/STM32L0xx_HAL_Driver/Src/stm32l0xx_hal_dma.c ****   */
 265:Drivers/STM32L0xx_HAL_Driver/Src/stm32l0xx_hal_dma.c **** 
 266:Drivers/STM32L0xx_HAL_Driver/Src/stm32l0xx_hal_dma.c **** /** @defgroup DMA_Exported_Functions_Group2 Input and Output operation functions
 267:Drivers/STM32L0xx_HAL_Driver/Src/stm32l0xx_hal_dma.c ****  *  @brief   Input and Output operation functions
 268:Drivers/STM32L0xx_HAL_Driver/Src/stm32l0xx_hal_dma.c ****  *
 269:Drivers/STM32L0xx_HAL_Driver/Src/stm32l0xx_hal_dma.c **** @verbatim
 270:Drivers/STM32L0xx_HAL_Driver/Src/stm32l0xx_hal_dma.c ****  ===============================================================================
 271:Drivers/STM32L0xx_HAL_Driver/Src/stm32l0xx_hal_dma.c ****                       #####  IO operation functions  #####
 272:Drivers/STM32L0xx_HAL_Driver/Src/stm32l0xx_hal_dma.c ****  ===============================================================================
 273:Drivers/STM32L0xx_HAL_Driver/Src/stm32l0xx_hal_dma.c ****     [..]  This section provides functions allowing to:
 274:Drivers/STM32L0xx_HAL_Driver/Src/stm32l0xx_hal_dma.c ****       (+) Configure the source, destination address and data length and Start DMA transfer
 275:Drivers/STM32L0xx_HAL_Driver/Src/stm32l0xx_hal_dma.c ****       (+) Configure the source, destination address and data length and
 276:Drivers/STM32L0xx_HAL_Driver/Src/stm32l0xx_hal_dma.c ****           Start DMA transfer with interrupt
 277:Drivers/STM32L0xx_HAL_Driver/Src/stm32l0xx_hal_dma.c ****       (+) Abort DMA transfer
 278:Drivers/STM32L0xx_HAL_Driver/Src/stm32l0xx_hal_dma.c ****       (+) Poll for transfer complete
 279:Drivers/STM32L0xx_HAL_Driver/Src/stm32l0xx_hal_dma.c ****       (+) Handle DMA interrupt request
 280:Drivers/STM32L0xx_HAL_Driver/Src/stm32l0xx_hal_dma.c **** 
 281:Drivers/STM32L0xx_HAL_Driver/Src/stm32l0xx_hal_dma.c **** @endverbatim
 282:Drivers/STM32L0xx_HAL_Driver/Src/stm32l0xx_hal_dma.c ****   * @{
 283:Drivers/STM32L0xx_HAL_Driver/Src/stm32l0xx_hal_dma.c ****   */
 284:Drivers/STM32L0xx_HAL_Driver/Src/stm32l0xx_hal_dma.c **** 
 285:Drivers/STM32L0xx_HAL_Driver/Src/stm32l0xx_hal_dma.c **** /**
 286:Drivers/STM32L0xx_HAL_Driver/Src/stm32l0xx_hal_dma.c ****   * @brief  Start the DMA Transfer.
 287:Drivers/STM32L0xx_HAL_Driver/Src/stm32l0xx_hal_dma.c ****   * @param  hdma pointer to a DMA_HandleTypeDef structure that contains
 288:Drivers/STM32L0xx_HAL_Driver/Src/stm32l0xx_hal_dma.c ****   *               the configuration information for the specified DMA Channel.
 289:Drivers/STM32L0xx_HAL_Driver/Src/stm32l0xx_hal_dma.c ****   * @param  SrcAddress The source memory Buffer address
 290:Drivers/STM32L0xx_HAL_Driver/Src/stm32l0xx_hal_dma.c ****   * @param  DstAddress The destination memory Buffer address
 291:Drivers/STM32L0xx_HAL_Driver/Src/stm32l0xx_hal_dma.c ****   * @param  DataLength The length of data to be transferred from source to destination
 292:Drivers/STM32L0xx_HAL_Driver/Src/stm32l0xx_hal_dma.c ****   * @retval HAL status
 293:Drivers/STM32L0xx_HAL_Driver/Src/stm32l0xx_hal_dma.c ****   */
 294:Drivers/STM32L0xx_HAL_Driver/Src/stm32l0xx_hal_dma.c **** HAL_StatusTypeDef HAL_DMA_Start(DMA_HandleTypeDef *hdma, uint32_t SrcAddress, uint32_t DstAddress, 
 295:Drivers/STM32L0xx_HAL_Driver/Src/stm32l0xx_hal_dma.c **** {
 296:Drivers/STM32L0xx_HAL_Driver/Src/stm32l0xx_hal_dma.c ****   HAL_StatusTypeDef status = HAL_OK;
 297:Drivers/STM32L0xx_HAL_Driver/Src/stm32l0xx_hal_dma.c **** 
 298:Drivers/STM32L0xx_HAL_Driver/Src/stm32l0xx_hal_dma.c ****   /* Check the parameters */
 299:Drivers/STM32L0xx_HAL_Driver/Src/stm32l0xx_hal_dma.c ****   assert_param(IS_DMA_BUFFER_SIZE(DataLength));
 300:Drivers/STM32L0xx_HAL_Driver/Src/stm32l0xx_hal_dma.c **** 
 301:Drivers/STM32L0xx_HAL_Driver/Src/stm32l0xx_hal_dma.c ****   /* Process locked */
 302:Drivers/STM32L0xx_HAL_Driver/Src/stm32l0xx_hal_dma.c ****   __HAL_LOCK(hdma);
 303:Drivers/STM32L0xx_HAL_Driver/Src/stm32l0xx_hal_dma.c **** 
 304:Drivers/STM32L0xx_HAL_Driver/Src/stm32l0xx_hal_dma.c ****   if(HAL_DMA_STATE_READY == hdma->State)
 305:Drivers/STM32L0xx_HAL_Driver/Src/stm32l0xx_hal_dma.c ****   {
 306:Drivers/STM32L0xx_HAL_Driver/Src/stm32l0xx_hal_dma.c ****     /* Change DMA peripheral state */
 307:Drivers/STM32L0xx_HAL_Driver/Src/stm32l0xx_hal_dma.c ****     hdma->State = HAL_DMA_STATE_BUSY;
 308:Drivers/STM32L0xx_HAL_Driver/Src/stm32l0xx_hal_dma.c ****     hdma->ErrorCode = HAL_DMA_ERROR_NONE;
 309:Drivers/STM32L0xx_HAL_Driver/Src/stm32l0xx_hal_dma.c **** 
 310:Drivers/STM32L0xx_HAL_Driver/Src/stm32l0xx_hal_dma.c ****     /* Disable the peripheral */
 311:Drivers/STM32L0xx_HAL_Driver/Src/stm32l0xx_hal_dma.c ****     __HAL_DMA_DISABLE(hdma);
 312:Drivers/STM32L0xx_HAL_Driver/Src/stm32l0xx_hal_dma.c **** 
 313:Drivers/STM32L0xx_HAL_Driver/Src/stm32l0xx_hal_dma.c ****     /* Configure the source, destination address and the data length & clear flags*/
 314:Drivers/STM32L0xx_HAL_Driver/Src/stm32l0xx_hal_dma.c ****     DMA_SetConfig(hdma, SrcAddress, DstAddress, DataLength);
 315:Drivers/STM32L0xx_HAL_Driver/Src/stm32l0xx_hal_dma.c **** 
 316:Drivers/STM32L0xx_HAL_Driver/Src/stm32l0xx_hal_dma.c ****     /* Enable the Peripheral */
 317:Drivers/STM32L0xx_HAL_Driver/Src/stm32l0xx_hal_dma.c ****     __HAL_DMA_ENABLE(hdma);
ARM GAS  /tmp/ccelyxFt.s 			page 7


 318:Drivers/STM32L0xx_HAL_Driver/Src/stm32l0xx_hal_dma.c ****   }
 319:Drivers/STM32L0xx_HAL_Driver/Src/stm32l0xx_hal_dma.c ****   else
 320:Drivers/STM32L0xx_HAL_Driver/Src/stm32l0xx_hal_dma.c ****   {
 321:Drivers/STM32L0xx_HAL_Driver/Src/stm32l0xx_hal_dma.c ****     /* Process Unlocked */
 322:Drivers/STM32L0xx_HAL_Driver/Src/stm32l0xx_hal_dma.c ****     __HAL_UNLOCK(hdma);
 323:Drivers/STM32L0xx_HAL_Driver/Src/stm32l0xx_hal_dma.c ****     status = HAL_BUSY;
 324:Drivers/STM32L0xx_HAL_Driver/Src/stm32l0xx_hal_dma.c ****   }
 325:Drivers/STM32L0xx_HAL_Driver/Src/stm32l0xx_hal_dma.c ****   return status;
 326:Drivers/STM32L0xx_HAL_Driver/Src/stm32l0xx_hal_dma.c **** }
 327:Drivers/STM32L0xx_HAL_Driver/Src/stm32l0xx_hal_dma.c **** 
 328:Drivers/STM32L0xx_HAL_Driver/Src/stm32l0xx_hal_dma.c **** /**
 329:Drivers/STM32L0xx_HAL_Driver/Src/stm32l0xx_hal_dma.c ****   * @brief  Start the DMA Transfer with interrupt enabled.
 330:Drivers/STM32L0xx_HAL_Driver/Src/stm32l0xx_hal_dma.c ****   * @param  hdma pointer to a DMA_HandleTypeDef structure that contains
 331:Drivers/STM32L0xx_HAL_Driver/Src/stm32l0xx_hal_dma.c ****   *               the configuration information for the specified DMA Channel.
 332:Drivers/STM32L0xx_HAL_Driver/Src/stm32l0xx_hal_dma.c ****   * @param  SrcAddress The source memory Buffer address
 333:Drivers/STM32L0xx_HAL_Driver/Src/stm32l0xx_hal_dma.c ****   * @param  DstAddress The destination memory Buffer address
 334:Drivers/STM32L0xx_HAL_Driver/Src/stm32l0xx_hal_dma.c ****   * @param  DataLength The length of data to be transferred from source to destination
 335:Drivers/STM32L0xx_HAL_Driver/Src/stm32l0xx_hal_dma.c ****   * @retval HAL status
 336:Drivers/STM32L0xx_HAL_Driver/Src/stm32l0xx_hal_dma.c ****   */
 337:Drivers/STM32L0xx_HAL_Driver/Src/stm32l0xx_hal_dma.c **** HAL_StatusTypeDef HAL_DMA_Start_IT(DMA_HandleTypeDef *hdma, uint32_t SrcAddress, uint32_t DstAddres
 338:Drivers/STM32L0xx_HAL_Driver/Src/stm32l0xx_hal_dma.c **** {
 339:Drivers/STM32L0xx_HAL_Driver/Src/stm32l0xx_hal_dma.c ****   HAL_StatusTypeDef status = HAL_OK;
 340:Drivers/STM32L0xx_HAL_Driver/Src/stm32l0xx_hal_dma.c **** 
 341:Drivers/STM32L0xx_HAL_Driver/Src/stm32l0xx_hal_dma.c ****   /* Check the parameters */
 342:Drivers/STM32L0xx_HAL_Driver/Src/stm32l0xx_hal_dma.c ****   assert_param(IS_DMA_BUFFER_SIZE(DataLength));
 343:Drivers/STM32L0xx_HAL_Driver/Src/stm32l0xx_hal_dma.c **** 
 344:Drivers/STM32L0xx_HAL_Driver/Src/stm32l0xx_hal_dma.c ****   /* Process locked */
 345:Drivers/STM32L0xx_HAL_Driver/Src/stm32l0xx_hal_dma.c ****   __HAL_LOCK(hdma);
 346:Drivers/STM32L0xx_HAL_Driver/Src/stm32l0xx_hal_dma.c **** 
 347:Drivers/STM32L0xx_HAL_Driver/Src/stm32l0xx_hal_dma.c ****   if(HAL_DMA_STATE_READY == hdma->State)
 348:Drivers/STM32L0xx_HAL_Driver/Src/stm32l0xx_hal_dma.c ****   {
 349:Drivers/STM32L0xx_HAL_Driver/Src/stm32l0xx_hal_dma.c ****     /* Change DMA peripheral state */
 350:Drivers/STM32L0xx_HAL_Driver/Src/stm32l0xx_hal_dma.c ****     hdma->State = HAL_DMA_STATE_BUSY;
 351:Drivers/STM32L0xx_HAL_Driver/Src/stm32l0xx_hal_dma.c ****     hdma->ErrorCode = HAL_DMA_ERROR_NONE;
 352:Drivers/STM32L0xx_HAL_Driver/Src/stm32l0xx_hal_dma.c **** 
 353:Drivers/STM32L0xx_HAL_Driver/Src/stm32l0xx_hal_dma.c ****     /* Disable the peripheral */
 354:Drivers/STM32L0xx_HAL_Driver/Src/stm32l0xx_hal_dma.c ****     __HAL_DMA_DISABLE(hdma);
 355:Drivers/STM32L0xx_HAL_Driver/Src/stm32l0xx_hal_dma.c **** 
 356:Drivers/STM32L0xx_HAL_Driver/Src/stm32l0xx_hal_dma.c ****     /* Configure the source, destination address and the data length & clear flags*/
 357:Drivers/STM32L0xx_HAL_Driver/Src/stm32l0xx_hal_dma.c ****     DMA_SetConfig(hdma, SrcAddress, DstAddress, DataLength);
 358:Drivers/STM32L0xx_HAL_Driver/Src/stm32l0xx_hal_dma.c **** 
 359:Drivers/STM32L0xx_HAL_Driver/Src/stm32l0xx_hal_dma.c ****     /* Enable the transfer complete interrupt */
 360:Drivers/STM32L0xx_HAL_Driver/Src/stm32l0xx_hal_dma.c ****     /* Enable the transfer Error interrupt */
 361:Drivers/STM32L0xx_HAL_Driver/Src/stm32l0xx_hal_dma.c ****     if(NULL != hdma->XferHalfCpltCallback )
 362:Drivers/STM32L0xx_HAL_Driver/Src/stm32l0xx_hal_dma.c ****     {
 363:Drivers/STM32L0xx_HAL_Driver/Src/stm32l0xx_hal_dma.c ****       /* Enable the Half transfer complete interrupt as well */
 364:Drivers/STM32L0xx_HAL_Driver/Src/stm32l0xx_hal_dma.c ****       __HAL_DMA_ENABLE_IT(hdma, (DMA_IT_TC | DMA_IT_HT | DMA_IT_TE));
 365:Drivers/STM32L0xx_HAL_Driver/Src/stm32l0xx_hal_dma.c ****     }
 366:Drivers/STM32L0xx_HAL_Driver/Src/stm32l0xx_hal_dma.c ****     else
 367:Drivers/STM32L0xx_HAL_Driver/Src/stm32l0xx_hal_dma.c ****     {
 368:Drivers/STM32L0xx_HAL_Driver/Src/stm32l0xx_hal_dma.c ****       __HAL_DMA_DISABLE_IT(hdma, DMA_IT_HT);
 369:Drivers/STM32L0xx_HAL_Driver/Src/stm32l0xx_hal_dma.c ****       __HAL_DMA_ENABLE_IT(hdma, (DMA_IT_TC | DMA_IT_TE));
 370:Drivers/STM32L0xx_HAL_Driver/Src/stm32l0xx_hal_dma.c ****     }
 371:Drivers/STM32L0xx_HAL_Driver/Src/stm32l0xx_hal_dma.c **** 
 372:Drivers/STM32L0xx_HAL_Driver/Src/stm32l0xx_hal_dma.c ****     /* Enable the Peripheral */
 373:Drivers/STM32L0xx_HAL_Driver/Src/stm32l0xx_hal_dma.c ****     __HAL_DMA_ENABLE(hdma);
 374:Drivers/STM32L0xx_HAL_Driver/Src/stm32l0xx_hal_dma.c ****   }
ARM GAS  /tmp/ccelyxFt.s 			page 8


 375:Drivers/STM32L0xx_HAL_Driver/Src/stm32l0xx_hal_dma.c ****   else
 376:Drivers/STM32L0xx_HAL_Driver/Src/stm32l0xx_hal_dma.c ****   {
 377:Drivers/STM32L0xx_HAL_Driver/Src/stm32l0xx_hal_dma.c ****     /* Process Unlocked */
 378:Drivers/STM32L0xx_HAL_Driver/Src/stm32l0xx_hal_dma.c ****     __HAL_UNLOCK(hdma);
 379:Drivers/STM32L0xx_HAL_Driver/Src/stm32l0xx_hal_dma.c **** 
 380:Drivers/STM32L0xx_HAL_Driver/Src/stm32l0xx_hal_dma.c ****     /* Remain BUSY */
 381:Drivers/STM32L0xx_HAL_Driver/Src/stm32l0xx_hal_dma.c ****     status = HAL_BUSY;
 382:Drivers/STM32L0xx_HAL_Driver/Src/stm32l0xx_hal_dma.c ****   }
 383:Drivers/STM32L0xx_HAL_Driver/Src/stm32l0xx_hal_dma.c ****   return status;
 384:Drivers/STM32L0xx_HAL_Driver/Src/stm32l0xx_hal_dma.c **** }
 385:Drivers/STM32L0xx_HAL_Driver/Src/stm32l0xx_hal_dma.c **** 
 386:Drivers/STM32L0xx_HAL_Driver/Src/stm32l0xx_hal_dma.c **** /**
 387:Drivers/STM32L0xx_HAL_Driver/Src/stm32l0xx_hal_dma.c ****   * @brief  Abort the DMA Transfer.
 388:Drivers/STM32L0xx_HAL_Driver/Src/stm32l0xx_hal_dma.c ****   * @param  hdma pointer to a DMA_HandleTypeDef structure that contains
 389:Drivers/STM32L0xx_HAL_Driver/Src/stm32l0xx_hal_dma.c ****   *               the configuration information for the specified DMA Channel.
 390:Drivers/STM32L0xx_HAL_Driver/Src/stm32l0xx_hal_dma.c ****     * @retval HAL status
 391:Drivers/STM32L0xx_HAL_Driver/Src/stm32l0xx_hal_dma.c ****   */
 392:Drivers/STM32L0xx_HAL_Driver/Src/stm32l0xx_hal_dma.c **** HAL_StatusTypeDef HAL_DMA_Abort(DMA_HandleTypeDef *hdma)
 393:Drivers/STM32L0xx_HAL_Driver/Src/stm32l0xx_hal_dma.c **** {
 394:Drivers/STM32L0xx_HAL_Driver/Src/stm32l0xx_hal_dma.c ****   HAL_StatusTypeDef status = HAL_OK;
 395:Drivers/STM32L0xx_HAL_Driver/Src/stm32l0xx_hal_dma.c **** 
 396:Drivers/STM32L0xx_HAL_Driver/Src/stm32l0xx_hal_dma.c ****   /* Check the DMA peripheral state */
 397:Drivers/STM32L0xx_HAL_Driver/Src/stm32l0xx_hal_dma.c ****   if(hdma->State != HAL_DMA_STATE_BUSY)
 398:Drivers/STM32L0xx_HAL_Driver/Src/stm32l0xx_hal_dma.c ****   {
 399:Drivers/STM32L0xx_HAL_Driver/Src/stm32l0xx_hal_dma.c ****     hdma->ErrorCode = HAL_DMA_ERROR_NO_XFER;
 400:Drivers/STM32L0xx_HAL_Driver/Src/stm32l0xx_hal_dma.c **** 
 401:Drivers/STM32L0xx_HAL_Driver/Src/stm32l0xx_hal_dma.c ****     /* Process Unlocked */
 402:Drivers/STM32L0xx_HAL_Driver/Src/stm32l0xx_hal_dma.c ****     __HAL_UNLOCK(hdma);
 403:Drivers/STM32L0xx_HAL_Driver/Src/stm32l0xx_hal_dma.c **** 
 404:Drivers/STM32L0xx_HAL_Driver/Src/stm32l0xx_hal_dma.c ****     return HAL_ERROR;
 405:Drivers/STM32L0xx_HAL_Driver/Src/stm32l0xx_hal_dma.c ****   }
 406:Drivers/STM32L0xx_HAL_Driver/Src/stm32l0xx_hal_dma.c ****   else
 407:Drivers/STM32L0xx_HAL_Driver/Src/stm32l0xx_hal_dma.c ****   {
 408:Drivers/STM32L0xx_HAL_Driver/Src/stm32l0xx_hal_dma.c ****     /* Disable DMA IT */
 409:Drivers/STM32L0xx_HAL_Driver/Src/stm32l0xx_hal_dma.c ****     __HAL_DMA_DISABLE_IT(hdma, (DMA_IT_TC | DMA_IT_HT | DMA_IT_TE));
 410:Drivers/STM32L0xx_HAL_Driver/Src/stm32l0xx_hal_dma.c **** 
 411:Drivers/STM32L0xx_HAL_Driver/Src/stm32l0xx_hal_dma.c ****     /* Disable the channel */
 412:Drivers/STM32L0xx_HAL_Driver/Src/stm32l0xx_hal_dma.c ****     __HAL_DMA_DISABLE(hdma);
 413:Drivers/STM32L0xx_HAL_Driver/Src/stm32l0xx_hal_dma.c **** 
 414:Drivers/STM32L0xx_HAL_Driver/Src/stm32l0xx_hal_dma.c ****     /* Clear all flags */
 415:Drivers/STM32L0xx_HAL_Driver/Src/stm32l0xx_hal_dma.c ****     hdma->DmaBaseAddress->IFCR = (DMA_ISR_GIF1 << (hdma->ChannelIndex & 0x1cU));
 416:Drivers/STM32L0xx_HAL_Driver/Src/stm32l0xx_hal_dma.c **** 
 417:Drivers/STM32L0xx_HAL_Driver/Src/stm32l0xx_hal_dma.c ****     /* Change the DMA state */
 418:Drivers/STM32L0xx_HAL_Driver/Src/stm32l0xx_hal_dma.c ****     hdma->State = HAL_DMA_STATE_READY;
 419:Drivers/STM32L0xx_HAL_Driver/Src/stm32l0xx_hal_dma.c **** 
 420:Drivers/STM32L0xx_HAL_Driver/Src/stm32l0xx_hal_dma.c ****     /* Process Unlocked */
 421:Drivers/STM32L0xx_HAL_Driver/Src/stm32l0xx_hal_dma.c ****     __HAL_UNLOCK(hdma);
 422:Drivers/STM32L0xx_HAL_Driver/Src/stm32l0xx_hal_dma.c **** 
 423:Drivers/STM32L0xx_HAL_Driver/Src/stm32l0xx_hal_dma.c ****     return status;
 424:Drivers/STM32L0xx_HAL_Driver/Src/stm32l0xx_hal_dma.c ****   }
 425:Drivers/STM32L0xx_HAL_Driver/Src/stm32l0xx_hal_dma.c **** }
 426:Drivers/STM32L0xx_HAL_Driver/Src/stm32l0xx_hal_dma.c **** 
 427:Drivers/STM32L0xx_HAL_Driver/Src/stm32l0xx_hal_dma.c **** /**
 428:Drivers/STM32L0xx_HAL_Driver/Src/stm32l0xx_hal_dma.c ****   * @brief  Aborts the DMA Transfer in Interrupt mode.
 429:Drivers/STM32L0xx_HAL_Driver/Src/stm32l0xx_hal_dma.c ****   * @param  hdma pointer to a DMA_HandleTypeDef structure that contains
 430:Drivers/STM32L0xx_HAL_Driver/Src/stm32l0xx_hal_dma.c ****   *                 the configuration information for the specified DMA Channel.
 431:Drivers/STM32L0xx_HAL_Driver/Src/stm32l0xx_hal_dma.c ****   * @retval HAL status
ARM GAS  /tmp/ccelyxFt.s 			page 9


 432:Drivers/STM32L0xx_HAL_Driver/Src/stm32l0xx_hal_dma.c ****   */
 433:Drivers/STM32L0xx_HAL_Driver/Src/stm32l0xx_hal_dma.c **** HAL_StatusTypeDef HAL_DMA_Abort_IT(DMA_HandleTypeDef *hdma)
 434:Drivers/STM32L0xx_HAL_Driver/Src/stm32l0xx_hal_dma.c **** {
 435:Drivers/STM32L0xx_HAL_Driver/Src/stm32l0xx_hal_dma.c ****   HAL_StatusTypeDef status = HAL_OK;
 436:Drivers/STM32L0xx_HAL_Driver/Src/stm32l0xx_hal_dma.c **** 
 437:Drivers/STM32L0xx_HAL_Driver/Src/stm32l0xx_hal_dma.c ****   if(HAL_DMA_STATE_BUSY != hdma->State)
 438:Drivers/STM32L0xx_HAL_Driver/Src/stm32l0xx_hal_dma.c ****   {
 439:Drivers/STM32L0xx_HAL_Driver/Src/stm32l0xx_hal_dma.c ****     /* no transfer ongoing */
 440:Drivers/STM32L0xx_HAL_Driver/Src/stm32l0xx_hal_dma.c ****     hdma->ErrorCode = HAL_DMA_ERROR_NO_XFER;
 441:Drivers/STM32L0xx_HAL_Driver/Src/stm32l0xx_hal_dma.c **** 
 442:Drivers/STM32L0xx_HAL_Driver/Src/stm32l0xx_hal_dma.c ****     status = HAL_ERROR;
 443:Drivers/STM32L0xx_HAL_Driver/Src/stm32l0xx_hal_dma.c ****   }
 444:Drivers/STM32L0xx_HAL_Driver/Src/stm32l0xx_hal_dma.c ****   else
 445:Drivers/STM32L0xx_HAL_Driver/Src/stm32l0xx_hal_dma.c ****   {
 446:Drivers/STM32L0xx_HAL_Driver/Src/stm32l0xx_hal_dma.c ****     /* Disable DMA IT */
 447:Drivers/STM32L0xx_HAL_Driver/Src/stm32l0xx_hal_dma.c ****     __HAL_DMA_DISABLE_IT(hdma, (DMA_IT_TC | DMA_IT_HT | DMA_IT_TE));
 448:Drivers/STM32L0xx_HAL_Driver/Src/stm32l0xx_hal_dma.c **** 
 449:Drivers/STM32L0xx_HAL_Driver/Src/stm32l0xx_hal_dma.c ****     /* Disable the channel */
 450:Drivers/STM32L0xx_HAL_Driver/Src/stm32l0xx_hal_dma.c ****     __HAL_DMA_DISABLE(hdma);
 451:Drivers/STM32L0xx_HAL_Driver/Src/stm32l0xx_hal_dma.c **** 
 452:Drivers/STM32L0xx_HAL_Driver/Src/stm32l0xx_hal_dma.c ****     /* Clear all flags */
 453:Drivers/STM32L0xx_HAL_Driver/Src/stm32l0xx_hal_dma.c ****     hdma->DmaBaseAddress->IFCR = (DMA_ISR_GIF1 << (hdma->ChannelIndex & 0x1cU));
 454:Drivers/STM32L0xx_HAL_Driver/Src/stm32l0xx_hal_dma.c **** 
 455:Drivers/STM32L0xx_HAL_Driver/Src/stm32l0xx_hal_dma.c ****     /* Change the DMA state */
 456:Drivers/STM32L0xx_HAL_Driver/Src/stm32l0xx_hal_dma.c ****     hdma->State = HAL_DMA_STATE_READY;
 457:Drivers/STM32L0xx_HAL_Driver/Src/stm32l0xx_hal_dma.c **** 
 458:Drivers/STM32L0xx_HAL_Driver/Src/stm32l0xx_hal_dma.c ****     /* Process Unlocked */
 459:Drivers/STM32L0xx_HAL_Driver/Src/stm32l0xx_hal_dma.c ****     __HAL_UNLOCK(hdma);
 460:Drivers/STM32L0xx_HAL_Driver/Src/stm32l0xx_hal_dma.c **** 
 461:Drivers/STM32L0xx_HAL_Driver/Src/stm32l0xx_hal_dma.c ****     /* Call User Abort callback */
 462:Drivers/STM32L0xx_HAL_Driver/Src/stm32l0xx_hal_dma.c ****     if(hdma->XferAbortCallback != NULL)
 463:Drivers/STM32L0xx_HAL_Driver/Src/stm32l0xx_hal_dma.c ****     {
 464:Drivers/STM32L0xx_HAL_Driver/Src/stm32l0xx_hal_dma.c ****       hdma->XferAbortCallback(hdma);
 465:Drivers/STM32L0xx_HAL_Driver/Src/stm32l0xx_hal_dma.c ****     }
 466:Drivers/STM32L0xx_HAL_Driver/Src/stm32l0xx_hal_dma.c ****   }
 467:Drivers/STM32L0xx_HAL_Driver/Src/stm32l0xx_hal_dma.c ****   return status;
 468:Drivers/STM32L0xx_HAL_Driver/Src/stm32l0xx_hal_dma.c **** }
 469:Drivers/STM32L0xx_HAL_Driver/Src/stm32l0xx_hal_dma.c **** 
 470:Drivers/STM32L0xx_HAL_Driver/Src/stm32l0xx_hal_dma.c **** /**
 471:Drivers/STM32L0xx_HAL_Driver/Src/stm32l0xx_hal_dma.c ****   * @brief  Polling for transfer complete.
 472:Drivers/STM32L0xx_HAL_Driver/Src/stm32l0xx_hal_dma.c ****   * @param  hdma pointer to a DMA_HandleTypeDef structure that contains
 473:Drivers/STM32L0xx_HAL_Driver/Src/stm32l0xx_hal_dma.c ****   *                  the configuration information for the specified DMA Channel.
 474:Drivers/STM32L0xx_HAL_Driver/Src/stm32l0xx_hal_dma.c ****   * @param  CompleteLevel Specifies the DMA level complete.
 475:Drivers/STM32L0xx_HAL_Driver/Src/stm32l0xx_hal_dma.c ****   * @param  Timeout       Timeout duration.
 476:Drivers/STM32L0xx_HAL_Driver/Src/stm32l0xx_hal_dma.c ****   * @retval HAL status
 477:Drivers/STM32L0xx_HAL_Driver/Src/stm32l0xx_hal_dma.c ****   */
 478:Drivers/STM32L0xx_HAL_Driver/Src/stm32l0xx_hal_dma.c **** HAL_StatusTypeDef HAL_DMA_PollForTransfer(DMA_HandleTypeDef *hdma, HAL_DMA_LevelCompleteTypeDef Com
 479:Drivers/STM32L0xx_HAL_Driver/Src/stm32l0xx_hal_dma.c **** {
 480:Drivers/STM32L0xx_HAL_Driver/Src/stm32l0xx_hal_dma.c ****   uint32_t temp;
 481:Drivers/STM32L0xx_HAL_Driver/Src/stm32l0xx_hal_dma.c ****   uint32_t tickstart;
 482:Drivers/STM32L0xx_HAL_Driver/Src/stm32l0xx_hal_dma.c **** 
 483:Drivers/STM32L0xx_HAL_Driver/Src/stm32l0xx_hal_dma.c ****   if(HAL_DMA_STATE_BUSY != hdma->State)
 484:Drivers/STM32L0xx_HAL_Driver/Src/stm32l0xx_hal_dma.c ****   {
 485:Drivers/STM32L0xx_HAL_Driver/Src/stm32l0xx_hal_dma.c ****     /* no transfer ongoing */
 486:Drivers/STM32L0xx_HAL_Driver/Src/stm32l0xx_hal_dma.c ****     hdma->ErrorCode = HAL_DMA_ERROR_NO_XFER;
 487:Drivers/STM32L0xx_HAL_Driver/Src/stm32l0xx_hal_dma.c ****     __HAL_UNLOCK(hdma);
 488:Drivers/STM32L0xx_HAL_Driver/Src/stm32l0xx_hal_dma.c ****     return HAL_ERROR;
ARM GAS  /tmp/ccelyxFt.s 			page 10


 489:Drivers/STM32L0xx_HAL_Driver/Src/stm32l0xx_hal_dma.c ****   }
 490:Drivers/STM32L0xx_HAL_Driver/Src/stm32l0xx_hal_dma.c **** 
 491:Drivers/STM32L0xx_HAL_Driver/Src/stm32l0xx_hal_dma.c ****   /* Polling mode not supported in circular mode */
 492:Drivers/STM32L0xx_HAL_Driver/Src/stm32l0xx_hal_dma.c ****   if (0U != (hdma->Instance->CCR & DMA_CCR_CIRC))
 493:Drivers/STM32L0xx_HAL_Driver/Src/stm32l0xx_hal_dma.c ****   {
 494:Drivers/STM32L0xx_HAL_Driver/Src/stm32l0xx_hal_dma.c ****     hdma->ErrorCode = HAL_DMA_ERROR_NOT_SUPPORTED;
 495:Drivers/STM32L0xx_HAL_Driver/Src/stm32l0xx_hal_dma.c ****     return HAL_ERROR;
 496:Drivers/STM32L0xx_HAL_Driver/Src/stm32l0xx_hal_dma.c ****   }
 497:Drivers/STM32L0xx_HAL_Driver/Src/stm32l0xx_hal_dma.c **** 
 498:Drivers/STM32L0xx_HAL_Driver/Src/stm32l0xx_hal_dma.c ****   /* Get the level transfer complete flag */
 499:Drivers/STM32L0xx_HAL_Driver/Src/stm32l0xx_hal_dma.c ****   if (HAL_DMA_FULL_TRANSFER == CompleteLevel)
 500:Drivers/STM32L0xx_HAL_Driver/Src/stm32l0xx_hal_dma.c ****   {
 501:Drivers/STM32L0xx_HAL_Driver/Src/stm32l0xx_hal_dma.c ****     /* Transfer Complete flag */
 502:Drivers/STM32L0xx_HAL_Driver/Src/stm32l0xx_hal_dma.c ****     temp = DMA_FLAG_TC1 << (hdma->ChannelIndex & 0x1cU);
 503:Drivers/STM32L0xx_HAL_Driver/Src/stm32l0xx_hal_dma.c ****   }
 504:Drivers/STM32L0xx_HAL_Driver/Src/stm32l0xx_hal_dma.c ****   else
 505:Drivers/STM32L0xx_HAL_Driver/Src/stm32l0xx_hal_dma.c ****   {
 506:Drivers/STM32L0xx_HAL_Driver/Src/stm32l0xx_hal_dma.c ****     /* Half Transfer Complete flag */
 507:Drivers/STM32L0xx_HAL_Driver/Src/stm32l0xx_hal_dma.c ****     temp = DMA_FLAG_HT1 << (hdma->ChannelIndex & 0x1cU);
 508:Drivers/STM32L0xx_HAL_Driver/Src/stm32l0xx_hal_dma.c ****   }
 509:Drivers/STM32L0xx_HAL_Driver/Src/stm32l0xx_hal_dma.c **** 
 510:Drivers/STM32L0xx_HAL_Driver/Src/stm32l0xx_hal_dma.c ****   /* Get tick */
 511:Drivers/STM32L0xx_HAL_Driver/Src/stm32l0xx_hal_dma.c ****   tickstart = HAL_GetTick();
 512:Drivers/STM32L0xx_HAL_Driver/Src/stm32l0xx_hal_dma.c **** 
 513:Drivers/STM32L0xx_HAL_Driver/Src/stm32l0xx_hal_dma.c ****   while(0U == (hdma->DmaBaseAddress->ISR & temp))
 514:Drivers/STM32L0xx_HAL_Driver/Src/stm32l0xx_hal_dma.c ****   {
 515:Drivers/STM32L0xx_HAL_Driver/Src/stm32l0xx_hal_dma.c ****     if((0U != (hdma->DmaBaseAddress->ISR & (DMA_FLAG_TE1 << (hdma->ChannelIndex& 0x1cU)))))
 516:Drivers/STM32L0xx_HAL_Driver/Src/stm32l0xx_hal_dma.c ****     {
 517:Drivers/STM32L0xx_HAL_Driver/Src/stm32l0xx_hal_dma.c ****       /* When a DMA transfer error occurs */
 518:Drivers/STM32L0xx_HAL_Driver/Src/stm32l0xx_hal_dma.c ****       /* A hardware clear of its EN bits is performed */
 519:Drivers/STM32L0xx_HAL_Driver/Src/stm32l0xx_hal_dma.c ****       /* Clear all flags */
 520:Drivers/STM32L0xx_HAL_Driver/Src/stm32l0xx_hal_dma.c ****       hdma->DmaBaseAddress->IFCR = (DMA_ISR_GIF1 << (hdma->ChannelIndex & 0x1cU));
 521:Drivers/STM32L0xx_HAL_Driver/Src/stm32l0xx_hal_dma.c **** 
 522:Drivers/STM32L0xx_HAL_Driver/Src/stm32l0xx_hal_dma.c ****       /* Update error code */
 523:Drivers/STM32L0xx_HAL_Driver/Src/stm32l0xx_hal_dma.c ****       hdma->ErrorCode = HAL_DMA_ERROR_TE;
 524:Drivers/STM32L0xx_HAL_Driver/Src/stm32l0xx_hal_dma.c **** 
 525:Drivers/STM32L0xx_HAL_Driver/Src/stm32l0xx_hal_dma.c ****       /* Change the DMA state */
 526:Drivers/STM32L0xx_HAL_Driver/Src/stm32l0xx_hal_dma.c ****       hdma->State= HAL_DMA_STATE_READY;
 527:Drivers/STM32L0xx_HAL_Driver/Src/stm32l0xx_hal_dma.c **** 
 528:Drivers/STM32L0xx_HAL_Driver/Src/stm32l0xx_hal_dma.c ****       /* Process Unlocked */
 529:Drivers/STM32L0xx_HAL_Driver/Src/stm32l0xx_hal_dma.c ****       __HAL_UNLOCK(hdma);
 530:Drivers/STM32L0xx_HAL_Driver/Src/stm32l0xx_hal_dma.c **** 
 531:Drivers/STM32L0xx_HAL_Driver/Src/stm32l0xx_hal_dma.c ****       return HAL_ERROR;
 532:Drivers/STM32L0xx_HAL_Driver/Src/stm32l0xx_hal_dma.c ****     }
 533:Drivers/STM32L0xx_HAL_Driver/Src/stm32l0xx_hal_dma.c ****     /* Check for the Timeout */
 534:Drivers/STM32L0xx_HAL_Driver/Src/stm32l0xx_hal_dma.c ****     if(Timeout != HAL_MAX_DELAY)
 535:Drivers/STM32L0xx_HAL_Driver/Src/stm32l0xx_hal_dma.c ****     {
 536:Drivers/STM32L0xx_HAL_Driver/Src/stm32l0xx_hal_dma.c ****       if(((HAL_GetTick() - tickstart) > Timeout) ||  (Timeout == 0U))
 537:Drivers/STM32L0xx_HAL_Driver/Src/stm32l0xx_hal_dma.c ****       {
 538:Drivers/STM32L0xx_HAL_Driver/Src/stm32l0xx_hal_dma.c ****         /* Update error code */
 539:Drivers/STM32L0xx_HAL_Driver/Src/stm32l0xx_hal_dma.c ****         hdma->ErrorCode = HAL_DMA_ERROR_TIMEOUT;
 540:Drivers/STM32L0xx_HAL_Driver/Src/stm32l0xx_hal_dma.c **** 
 541:Drivers/STM32L0xx_HAL_Driver/Src/stm32l0xx_hal_dma.c ****         /* Change the DMA state */
 542:Drivers/STM32L0xx_HAL_Driver/Src/stm32l0xx_hal_dma.c ****         hdma->State = HAL_DMA_STATE_READY;
 543:Drivers/STM32L0xx_HAL_Driver/Src/stm32l0xx_hal_dma.c **** 
 544:Drivers/STM32L0xx_HAL_Driver/Src/stm32l0xx_hal_dma.c ****         /* Process Unlocked */
 545:Drivers/STM32L0xx_HAL_Driver/Src/stm32l0xx_hal_dma.c ****         __HAL_UNLOCK(hdma);
ARM GAS  /tmp/ccelyxFt.s 			page 11


 546:Drivers/STM32L0xx_HAL_Driver/Src/stm32l0xx_hal_dma.c **** 
 547:Drivers/STM32L0xx_HAL_Driver/Src/stm32l0xx_hal_dma.c ****         return HAL_ERROR;
 548:Drivers/STM32L0xx_HAL_Driver/Src/stm32l0xx_hal_dma.c ****       }
 549:Drivers/STM32L0xx_HAL_Driver/Src/stm32l0xx_hal_dma.c ****     }
 550:Drivers/STM32L0xx_HAL_Driver/Src/stm32l0xx_hal_dma.c ****   }
 551:Drivers/STM32L0xx_HAL_Driver/Src/stm32l0xx_hal_dma.c **** 
 552:Drivers/STM32L0xx_HAL_Driver/Src/stm32l0xx_hal_dma.c ****   if(HAL_DMA_FULL_TRANSFER == CompleteLevel)
 553:Drivers/STM32L0xx_HAL_Driver/Src/stm32l0xx_hal_dma.c ****   {
 554:Drivers/STM32L0xx_HAL_Driver/Src/stm32l0xx_hal_dma.c ****     /* Clear the transfer complete flag */
 555:Drivers/STM32L0xx_HAL_Driver/Src/stm32l0xx_hal_dma.c ****     hdma->DmaBaseAddress->IFCR = (DMA_FLAG_TC1 << (hdma->ChannelIndex& 0x1cU));
 556:Drivers/STM32L0xx_HAL_Driver/Src/stm32l0xx_hal_dma.c **** 
 557:Drivers/STM32L0xx_HAL_Driver/Src/stm32l0xx_hal_dma.c ****     /* The selected Channelx EN bit is cleared (DMA is disabled and
 558:Drivers/STM32L0xx_HAL_Driver/Src/stm32l0xx_hal_dma.c ****     all transfers are complete) */
 559:Drivers/STM32L0xx_HAL_Driver/Src/stm32l0xx_hal_dma.c ****     hdma->State = HAL_DMA_STATE_READY;
 560:Drivers/STM32L0xx_HAL_Driver/Src/stm32l0xx_hal_dma.c ****   }
 561:Drivers/STM32L0xx_HAL_Driver/Src/stm32l0xx_hal_dma.c ****   else
 562:Drivers/STM32L0xx_HAL_Driver/Src/stm32l0xx_hal_dma.c ****   {
 563:Drivers/STM32L0xx_HAL_Driver/Src/stm32l0xx_hal_dma.c ****     /* Clear the half transfer complete flag */
 564:Drivers/STM32L0xx_HAL_Driver/Src/stm32l0xx_hal_dma.c ****     hdma->DmaBaseAddress->IFCR = (DMA_FLAG_HT1 << (hdma->ChannelIndex & 0x1cU));
 565:Drivers/STM32L0xx_HAL_Driver/Src/stm32l0xx_hal_dma.c ****   }
 566:Drivers/STM32L0xx_HAL_Driver/Src/stm32l0xx_hal_dma.c **** 
 567:Drivers/STM32L0xx_HAL_Driver/Src/stm32l0xx_hal_dma.c ****   /* Process unlocked */
 568:Drivers/STM32L0xx_HAL_Driver/Src/stm32l0xx_hal_dma.c ****   __HAL_UNLOCK(hdma);
 569:Drivers/STM32L0xx_HAL_Driver/Src/stm32l0xx_hal_dma.c **** 
 570:Drivers/STM32L0xx_HAL_Driver/Src/stm32l0xx_hal_dma.c ****   return HAL_OK;
 571:Drivers/STM32L0xx_HAL_Driver/Src/stm32l0xx_hal_dma.c **** }
 572:Drivers/STM32L0xx_HAL_Driver/Src/stm32l0xx_hal_dma.c **** 
 573:Drivers/STM32L0xx_HAL_Driver/Src/stm32l0xx_hal_dma.c **** /**
 574:Drivers/STM32L0xx_HAL_Driver/Src/stm32l0xx_hal_dma.c ****   * @brief  Handle DMA interrupt request.
 575:Drivers/STM32L0xx_HAL_Driver/Src/stm32l0xx_hal_dma.c ****   * @param  hdma pointer to a DMA_HandleTypeDef structure that contains
 576:Drivers/STM32L0xx_HAL_Driver/Src/stm32l0xx_hal_dma.c ****   *               the configuration information for the specified DMA Channel.
 577:Drivers/STM32L0xx_HAL_Driver/Src/stm32l0xx_hal_dma.c ****   * @retval None
 578:Drivers/STM32L0xx_HAL_Driver/Src/stm32l0xx_hal_dma.c ****   */
 579:Drivers/STM32L0xx_HAL_Driver/Src/stm32l0xx_hal_dma.c **** void HAL_DMA_IRQHandler(DMA_HandleTypeDef *hdma)
 580:Drivers/STM32L0xx_HAL_Driver/Src/stm32l0xx_hal_dma.c **** {
 581:Drivers/STM32L0xx_HAL_Driver/Src/stm32l0xx_hal_dma.c ****   uint32_t flag_it = hdma->DmaBaseAddress->ISR;
 582:Drivers/STM32L0xx_HAL_Driver/Src/stm32l0xx_hal_dma.c ****   uint32_t source_it = hdma->Instance->CCR;
 583:Drivers/STM32L0xx_HAL_Driver/Src/stm32l0xx_hal_dma.c **** 
 584:Drivers/STM32L0xx_HAL_Driver/Src/stm32l0xx_hal_dma.c ****   /* Half Transfer Complete Interrupt management ******************************/
 585:Drivers/STM32L0xx_HAL_Driver/Src/stm32l0xx_hal_dma.c ****   if ((0U != (flag_it & (DMA_FLAG_HT1 << (hdma->ChannelIndex & 0x1cU)))) && (0U != (source_it & DMA
 586:Drivers/STM32L0xx_HAL_Driver/Src/stm32l0xx_hal_dma.c ****   {
 587:Drivers/STM32L0xx_HAL_Driver/Src/stm32l0xx_hal_dma.c ****       /* Disable the half transfer interrupt if the DMA mode is not CIRCULAR */
 588:Drivers/STM32L0xx_HAL_Driver/Src/stm32l0xx_hal_dma.c ****       if((hdma->Instance->CCR & DMA_CCR_CIRC) == 0U)
 589:Drivers/STM32L0xx_HAL_Driver/Src/stm32l0xx_hal_dma.c ****       {
 590:Drivers/STM32L0xx_HAL_Driver/Src/stm32l0xx_hal_dma.c ****         /* Disable the half transfer interrupt */
 591:Drivers/STM32L0xx_HAL_Driver/Src/stm32l0xx_hal_dma.c ****         __HAL_DMA_DISABLE_IT(hdma, DMA_IT_HT);
 592:Drivers/STM32L0xx_HAL_Driver/Src/stm32l0xx_hal_dma.c ****       }
 593:Drivers/STM32L0xx_HAL_Driver/Src/stm32l0xx_hal_dma.c ****       /* Clear the half transfer complete flag */
 594:Drivers/STM32L0xx_HAL_Driver/Src/stm32l0xx_hal_dma.c ****       hdma->DmaBaseAddress->IFCR = DMA_ISR_HTIF1 << (hdma->ChannelIndex & 0x1cU);
 595:Drivers/STM32L0xx_HAL_Driver/Src/stm32l0xx_hal_dma.c **** 
 596:Drivers/STM32L0xx_HAL_Driver/Src/stm32l0xx_hal_dma.c ****       /* DMA peripheral state is not updated in Half Transfer */
 597:Drivers/STM32L0xx_HAL_Driver/Src/stm32l0xx_hal_dma.c ****       /* but in Transfer Complete case */
 598:Drivers/STM32L0xx_HAL_Driver/Src/stm32l0xx_hal_dma.c **** 
 599:Drivers/STM32L0xx_HAL_Driver/Src/stm32l0xx_hal_dma.c ****      if(hdma->XferHalfCpltCallback != NULL)
 600:Drivers/STM32L0xx_HAL_Driver/Src/stm32l0xx_hal_dma.c ****       {
 601:Drivers/STM32L0xx_HAL_Driver/Src/stm32l0xx_hal_dma.c ****         /* Half transfer callback */
 602:Drivers/STM32L0xx_HAL_Driver/Src/stm32l0xx_hal_dma.c ****         hdma->XferHalfCpltCallback(hdma);
ARM GAS  /tmp/ccelyxFt.s 			page 12


 603:Drivers/STM32L0xx_HAL_Driver/Src/stm32l0xx_hal_dma.c ****       }
 604:Drivers/STM32L0xx_HAL_Driver/Src/stm32l0xx_hal_dma.c ****   }
 605:Drivers/STM32L0xx_HAL_Driver/Src/stm32l0xx_hal_dma.c **** 
 606:Drivers/STM32L0xx_HAL_Driver/Src/stm32l0xx_hal_dma.c ****   /* Transfer Complete Interrupt management ***********************************/
 607:Drivers/STM32L0xx_HAL_Driver/Src/stm32l0xx_hal_dma.c ****   else if ((0U != (flag_it & (DMA_FLAG_TC1 << (hdma->ChannelIndex & 0x1cU)))) && (0U != (source_it 
 608:Drivers/STM32L0xx_HAL_Driver/Src/stm32l0xx_hal_dma.c ****   {
 609:Drivers/STM32L0xx_HAL_Driver/Src/stm32l0xx_hal_dma.c ****     if((hdma->Instance->CCR & DMA_CCR_CIRC) == 0U)
 610:Drivers/STM32L0xx_HAL_Driver/Src/stm32l0xx_hal_dma.c ****     {
 611:Drivers/STM32L0xx_HAL_Driver/Src/stm32l0xx_hal_dma.c ****       /* Disable the transfer complete and error interrupt */
 612:Drivers/STM32L0xx_HAL_Driver/Src/stm32l0xx_hal_dma.c ****       __HAL_DMA_DISABLE_IT(hdma, DMA_IT_TE | DMA_IT_TC);
 613:Drivers/STM32L0xx_HAL_Driver/Src/stm32l0xx_hal_dma.c **** 
 614:Drivers/STM32L0xx_HAL_Driver/Src/stm32l0xx_hal_dma.c ****       /* Change the DMA state */
 615:Drivers/STM32L0xx_HAL_Driver/Src/stm32l0xx_hal_dma.c ****       hdma->State = HAL_DMA_STATE_READY;
 616:Drivers/STM32L0xx_HAL_Driver/Src/stm32l0xx_hal_dma.c ****     }
 617:Drivers/STM32L0xx_HAL_Driver/Src/stm32l0xx_hal_dma.c ****     /* Clear the transfer complete flag */
 618:Drivers/STM32L0xx_HAL_Driver/Src/stm32l0xx_hal_dma.c ****     hdma->DmaBaseAddress->IFCR = (DMA_ISR_TCIF1 << (hdma->ChannelIndex & 0x1cU));
 619:Drivers/STM32L0xx_HAL_Driver/Src/stm32l0xx_hal_dma.c **** 
 620:Drivers/STM32L0xx_HAL_Driver/Src/stm32l0xx_hal_dma.c ****     /* Process Unlocked */
 621:Drivers/STM32L0xx_HAL_Driver/Src/stm32l0xx_hal_dma.c ****     __HAL_UNLOCK(hdma);
 622:Drivers/STM32L0xx_HAL_Driver/Src/stm32l0xx_hal_dma.c **** 
 623:Drivers/STM32L0xx_HAL_Driver/Src/stm32l0xx_hal_dma.c ****     if(hdma->XferCpltCallback != NULL)
 624:Drivers/STM32L0xx_HAL_Driver/Src/stm32l0xx_hal_dma.c ****     {
 625:Drivers/STM32L0xx_HAL_Driver/Src/stm32l0xx_hal_dma.c ****       /* Transfer complete callback */
 626:Drivers/STM32L0xx_HAL_Driver/Src/stm32l0xx_hal_dma.c ****       hdma->XferCpltCallback(hdma);
 627:Drivers/STM32L0xx_HAL_Driver/Src/stm32l0xx_hal_dma.c ****     }
 628:Drivers/STM32L0xx_HAL_Driver/Src/stm32l0xx_hal_dma.c ****   }
 629:Drivers/STM32L0xx_HAL_Driver/Src/stm32l0xx_hal_dma.c **** 
 630:Drivers/STM32L0xx_HAL_Driver/Src/stm32l0xx_hal_dma.c ****   /* Transfer Error Interrupt management **************************************/
 631:Drivers/STM32L0xx_HAL_Driver/Src/stm32l0xx_hal_dma.c ****   else if ((0U != (flag_it & (DMA_FLAG_TE1 << (hdma->ChannelIndex & 0x1cU)))) && (0U != (source_it 
 632:Drivers/STM32L0xx_HAL_Driver/Src/stm32l0xx_hal_dma.c ****   {
 633:Drivers/STM32L0xx_HAL_Driver/Src/stm32l0xx_hal_dma.c ****     /* When a DMA transfer error occurs */
 634:Drivers/STM32L0xx_HAL_Driver/Src/stm32l0xx_hal_dma.c ****     /* A hardware clear of its EN bits is performed */
 635:Drivers/STM32L0xx_HAL_Driver/Src/stm32l0xx_hal_dma.c ****     /* Disable ALL DMA IT */
 636:Drivers/STM32L0xx_HAL_Driver/Src/stm32l0xx_hal_dma.c ****     __HAL_DMA_DISABLE_IT(hdma, (DMA_IT_TC | DMA_IT_HT | DMA_IT_TE));
 637:Drivers/STM32L0xx_HAL_Driver/Src/stm32l0xx_hal_dma.c **** 
 638:Drivers/STM32L0xx_HAL_Driver/Src/stm32l0xx_hal_dma.c ****     /* Clear all flags */
 639:Drivers/STM32L0xx_HAL_Driver/Src/stm32l0xx_hal_dma.c ****     hdma->DmaBaseAddress->IFCR = (DMA_ISR_GIF1 << (hdma->ChannelIndex & 0x1cU));
 640:Drivers/STM32L0xx_HAL_Driver/Src/stm32l0xx_hal_dma.c **** 
 641:Drivers/STM32L0xx_HAL_Driver/Src/stm32l0xx_hal_dma.c ****     /* Update error code */
 642:Drivers/STM32L0xx_HAL_Driver/Src/stm32l0xx_hal_dma.c ****     hdma->ErrorCode = HAL_DMA_ERROR_TE;
 643:Drivers/STM32L0xx_HAL_Driver/Src/stm32l0xx_hal_dma.c **** 
 644:Drivers/STM32L0xx_HAL_Driver/Src/stm32l0xx_hal_dma.c ****     /* Change the DMA state */
 645:Drivers/STM32L0xx_HAL_Driver/Src/stm32l0xx_hal_dma.c ****     hdma->State = HAL_DMA_STATE_READY;
 646:Drivers/STM32L0xx_HAL_Driver/Src/stm32l0xx_hal_dma.c **** 
 647:Drivers/STM32L0xx_HAL_Driver/Src/stm32l0xx_hal_dma.c ****     /* Process Unlocked */
 648:Drivers/STM32L0xx_HAL_Driver/Src/stm32l0xx_hal_dma.c ****     __HAL_UNLOCK(hdma);
 649:Drivers/STM32L0xx_HAL_Driver/Src/stm32l0xx_hal_dma.c **** 
 650:Drivers/STM32L0xx_HAL_Driver/Src/stm32l0xx_hal_dma.c ****     if (hdma->XferErrorCallback != NULL)
 651:Drivers/STM32L0xx_HAL_Driver/Src/stm32l0xx_hal_dma.c ****     {
 652:Drivers/STM32L0xx_HAL_Driver/Src/stm32l0xx_hal_dma.c ****       /* Transfer error callback */
 653:Drivers/STM32L0xx_HAL_Driver/Src/stm32l0xx_hal_dma.c ****       hdma->XferErrorCallback(hdma);
 654:Drivers/STM32L0xx_HAL_Driver/Src/stm32l0xx_hal_dma.c ****     }
 655:Drivers/STM32L0xx_HAL_Driver/Src/stm32l0xx_hal_dma.c ****   }
 656:Drivers/STM32L0xx_HAL_Driver/Src/stm32l0xx_hal_dma.c ****   else
 657:Drivers/STM32L0xx_HAL_Driver/Src/stm32l0xx_hal_dma.c ****   {
 658:Drivers/STM32L0xx_HAL_Driver/Src/stm32l0xx_hal_dma.c ****     /* Nothing To Do */
 659:Drivers/STM32L0xx_HAL_Driver/Src/stm32l0xx_hal_dma.c ****   }
ARM GAS  /tmp/ccelyxFt.s 			page 13


 660:Drivers/STM32L0xx_HAL_Driver/Src/stm32l0xx_hal_dma.c ****   return;
 661:Drivers/STM32L0xx_HAL_Driver/Src/stm32l0xx_hal_dma.c **** }
 662:Drivers/STM32L0xx_HAL_Driver/Src/stm32l0xx_hal_dma.c **** 
 663:Drivers/STM32L0xx_HAL_Driver/Src/stm32l0xx_hal_dma.c **** /**
 664:Drivers/STM32L0xx_HAL_Driver/Src/stm32l0xx_hal_dma.c ****   * @brief  Register callbacks
 665:Drivers/STM32L0xx_HAL_Driver/Src/stm32l0xx_hal_dma.c ****   * @param  hdma                 pointer to a DMA_HandleTypeDef structure that contains
 666:Drivers/STM32L0xx_HAL_Driver/Src/stm32l0xx_hal_dma.c ****   *                               the configuration information for the specified DMA Channel.
 667:Drivers/STM32L0xx_HAL_Driver/Src/stm32l0xx_hal_dma.c ****   * @param  CallbackID           User Callback identifer
 668:Drivers/STM32L0xx_HAL_Driver/Src/stm32l0xx_hal_dma.c ****   *                               a HAL_DMA_CallbackIDTypeDef ENUM as parameter.
 669:Drivers/STM32L0xx_HAL_Driver/Src/stm32l0xx_hal_dma.c ****   * @param  pCallback            pointer to private callbacsk function which has pointer to
 670:Drivers/STM32L0xx_HAL_Driver/Src/stm32l0xx_hal_dma.c ****   *                               a DMA_HandleTypeDef structure as parameter.
 671:Drivers/STM32L0xx_HAL_Driver/Src/stm32l0xx_hal_dma.c ****   * @retval HAL status
 672:Drivers/STM32L0xx_HAL_Driver/Src/stm32l0xx_hal_dma.c ****   */
 673:Drivers/STM32L0xx_HAL_Driver/Src/stm32l0xx_hal_dma.c **** HAL_StatusTypeDef HAL_DMA_RegisterCallback(DMA_HandleTypeDef *hdma, HAL_DMA_CallbackIDTypeDef Callb
 674:Drivers/STM32L0xx_HAL_Driver/Src/stm32l0xx_hal_dma.c **** {
 675:Drivers/STM32L0xx_HAL_Driver/Src/stm32l0xx_hal_dma.c ****   HAL_StatusTypeDef status = HAL_OK;
 676:Drivers/STM32L0xx_HAL_Driver/Src/stm32l0xx_hal_dma.c **** 
 677:Drivers/STM32L0xx_HAL_Driver/Src/stm32l0xx_hal_dma.c ****   /* Process locked */
 678:Drivers/STM32L0xx_HAL_Driver/Src/stm32l0xx_hal_dma.c ****   __HAL_LOCK(hdma);
 679:Drivers/STM32L0xx_HAL_Driver/Src/stm32l0xx_hal_dma.c **** 
 680:Drivers/STM32L0xx_HAL_Driver/Src/stm32l0xx_hal_dma.c ****   if(HAL_DMA_STATE_READY == hdma->State)
 681:Drivers/STM32L0xx_HAL_Driver/Src/stm32l0xx_hal_dma.c ****   {
 682:Drivers/STM32L0xx_HAL_Driver/Src/stm32l0xx_hal_dma.c ****     switch (CallbackID)
 683:Drivers/STM32L0xx_HAL_Driver/Src/stm32l0xx_hal_dma.c ****     {
 684:Drivers/STM32L0xx_HAL_Driver/Src/stm32l0xx_hal_dma.c ****      case  HAL_DMA_XFER_CPLT_CB_ID:
 685:Drivers/STM32L0xx_HAL_Driver/Src/stm32l0xx_hal_dma.c ****            hdma->XferCpltCallback = pCallback;
 686:Drivers/STM32L0xx_HAL_Driver/Src/stm32l0xx_hal_dma.c ****            break;
 687:Drivers/STM32L0xx_HAL_Driver/Src/stm32l0xx_hal_dma.c **** 
 688:Drivers/STM32L0xx_HAL_Driver/Src/stm32l0xx_hal_dma.c ****      case  HAL_DMA_XFER_HALFCPLT_CB_ID:
 689:Drivers/STM32L0xx_HAL_Driver/Src/stm32l0xx_hal_dma.c ****            hdma->XferHalfCpltCallback = pCallback;
 690:Drivers/STM32L0xx_HAL_Driver/Src/stm32l0xx_hal_dma.c ****            break;
 691:Drivers/STM32L0xx_HAL_Driver/Src/stm32l0xx_hal_dma.c **** 
 692:Drivers/STM32L0xx_HAL_Driver/Src/stm32l0xx_hal_dma.c ****      case  HAL_DMA_XFER_ERROR_CB_ID:
 693:Drivers/STM32L0xx_HAL_Driver/Src/stm32l0xx_hal_dma.c ****            hdma->XferErrorCallback = pCallback;
 694:Drivers/STM32L0xx_HAL_Driver/Src/stm32l0xx_hal_dma.c ****            break;
 695:Drivers/STM32L0xx_HAL_Driver/Src/stm32l0xx_hal_dma.c **** 
 696:Drivers/STM32L0xx_HAL_Driver/Src/stm32l0xx_hal_dma.c ****      case  HAL_DMA_XFER_ABORT_CB_ID:
 697:Drivers/STM32L0xx_HAL_Driver/Src/stm32l0xx_hal_dma.c ****            hdma->XferAbortCallback = pCallback;
 698:Drivers/STM32L0xx_HAL_Driver/Src/stm32l0xx_hal_dma.c ****            break;
 699:Drivers/STM32L0xx_HAL_Driver/Src/stm32l0xx_hal_dma.c **** 
 700:Drivers/STM32L0xx_HAL_Driver/Src/stm32l0xx_hal_dma.c ****      default:
 701:Drivers/STM32L0xx_HAL_Driver/Src/stm32l0xx_hal_dma.c ****            status = HAL_ERROR;
 702:Drivers/STM32L0xx_HAL_Driver/Src/stm32l0xx_hal_dma.c ****            break;
 703:Drivers/STM32L0xx_HAL_Driver/Src/stm32l0xx_hal_dma.c ****     }
 704:Drivers/STM32L0xx_HAL_Driver/Src/stm32l0xx_hal_dma.c ****   }
 705:Drivers/STM32L0xx_HAL_Driver/Src/stm32l0xx_hal_dma.c ****   else
 706:Drivers/STM32L0xx_HAL_Driver/Src/stm32l0xx_hal_dma.c ****   {
 707:Drivers/STM32L0xx_HAL_Driver/Src/stm32l0xx_hal_dma.c ****     status = HAL_ERROR;
 708:Drivers/STM32L0xx_HAL_Driver/Src/stm32l0xx_hal_dma.c ****   }
 709:Drivers/STM32L0xx_HAL_Driver/Src/stm32l0xx_hal_dma.c **** 
 710:Drivers/STM32L0xx_HAL_Driver/Src/stm32l0xx_hal_dma.c ****   /* Release Lock */
 711:Drivers/STM32L0xx_HAL_Driver/Src/stm32l0xx_hal_dma.c ****   __HAL_UNLOCK(hdma);
 712:Drivers/STM32L0xx_HAL_Driver/Src/stm32l0xx_hal_dma.c **** 
 713:Drivers/STM32L0xx_HAL_Driver/Src/stm32l0xx_hal_dma.c ****   return status;
 714:Drivers/STM32L0xx_HAL_Driver/Src/stm32l0xx_hal_dma.c **** }
 715:Drivers/STM32L0xx_HAL_Driver/Src/stm32l0xx_hal_dma.c **** 
 716:Drivers/STM32L0xx_HAL_Driver/Src/stm32l0xx_hal_dma.c **** /**
ARM GAS  /tmp/ccelyxFt.s 			page 14


 717:Drivers/STM32L0xx_HAL_Driver/Src/stm32l0xx_hal_dma.c ****   * @brief  UnRegister callbacks
 718:Drivers/STM32L0xx_HAL_Driver/Src/stm32l0xx_hal_dma.c ****   * @param  hdma                 pointer to a DMA_HandleTypeDef structure that contains
 719:Drivers/STM32L0xx_HAL_Driver/Src/stm32l0xx_hal_dma.c ****   *                               the configuration information for the specified DMA Channel.
 720:Drivers/STM32L0xx_HAL_Driver/Src/stm32l0xx_hal_dma.c ****   * @param  CallbackID           User Callback identifer
 721:Drivers/STM32L0xx_HAL_Driver/Src/stm32l0xx_hal_dma.c ****   *                               a HAL_DMA_CallbackIDTypeDef ENUM as parameter.
 722:Drivers/STM32L0xx_HAL_Driver/Src/stm32l0xx_hal_dma.c ****   * @retval HAL status
 723:Drivers/STM32L0xx_HAL_Driver/Src/stm32l0xx_hal_dma.c ****   */
 724:Drivers/STM32L0xx_HAL_Driver/Src/stm32l0xx_hal_dma.c **** HAL_StatusTypeDef HAL_DMA_UnRegisterCallback(DMA_HandleTypeDef *hdma, HAL_DMA_CallbackIDTypeDef Cal
 725:Drivers/STM32L0xx_HAL_Driver/Src/stm32l0xx_hal_dma.c **** {
 726:Drivers/STM32L0xx_HAL_Driver/Src/stm32l0xx_hal_dma.c ****   HAL_StatusTypeDef status = HAL_OK;
 727:Drivers/STM32L0xx_HAL_Driver/Src/stm32l0xx_hal_dma.c **** 
 728:Drivers/STM32L0xx_HAL_Driver/Src/stm32l0xx_hal_dma.c ****     /* Process locked */
 729:Drivers/STM32L0xx_HAL_Driver/Src/stm32l0xx_hal_dma.c ****   __HAL_LOCK(hdma);
 730:Drivers/STM32L0xx_HAL_Driver/Src/stm32l0xx_hal_dma.c **** 
 731:Drivers/STM32L0xx_HAL_Driver/Src/stm32l0xx_hal_dma.c ****   if(HAL_DMA_STATE_READY == hdma->State)
 732:Drivers/STM32L0xx_HAL_Driver/Src/stm32l0xx_hal_dma.c ****   {
 733:Drivers/STM32L0xx_HAL_Driver/Src/stm32l0xx_hal_dma.c ****     switch (CallbackID)
 734:Drivers/STM32L0xx_HAL_Driver/Src/stm32l0xx_hal_dma.c ****     {
 735:Drivers/STM32L0xx_HAL_Driver/Src/stm32l0xx_hal_dma.c ****      case  HAL_DMA_XFER_CPLT_CB_ID:
 736:Drivers/STM32L0xx_HAL_Driver/Src/stm32l0xx_hal_dma.c ****            hdma->XferCpltCallback = NULL;
 737:Drivers/STM32L0xx_HAL_Driver/Src/stm32l0xx_hal_dma.c ****            break;
 738:Drivers/STM32L0xx_HAL_Driver/Src/stm32l0xx_hal_dma.c **** 
 739:Drivers/STM32L0xx_HAL_Driver/Src/stm32l0xx_hal_dma.c ****      case  HAL_DMA_XFER_HALFCPLT_CB_ID:
 740:Drivers/STM32L0xx_HAL_Driver/Src/stm32l0xx_hal_dma.c ****            hdma->XferHalfCpltCallback = NULL;
 741:Drivers/STM32L0xx_HAL_Driver/Src/stm32l0xx_hal_dma.c ****            break;
 742:Drivers/STM32L0xx_HAL_Driver/Src/stm32l0xx_hal_dma.c **** 
 743:Drivers/STM32L0xx_HAL_Driver/Src/stm32l0xx_hal_dma.c ****      case  HAL_DMA_XFER_ERROR_CB_ID:
 744:Drivers/STM32L0xx_HAL_Driver/Src/stm32l0xx_hal_dma.c ****            hdma->XferErrorCallback = NULL;
 745:Drivers/STM32L0xx_HAL_Driver/Src/stm32l0xx_hal_dma.c ****            break;
 746:Drivers/STM32L0xx_HAL_Driver/Src/stm32l0xx_hal_dma.c **** 
 747:Drivers/STM32L0xx_HAL_Driver/Src/stm32l0xx_hal_dma.c ****      case  HAL_DMA_XFER_ABORT_CB_ID:
 748:Drivers/STM32L0xx_HAL_Driver/Src/stm32l0xx_hal_dma.c ****            hdma->XferAbortCallback = NULL;
 749:Drivers/STM32L0xx_HAL_Driver/Src/stm32l0xx_hal_dma.c ****            break;
 750:Drivers/STM32L0xx_HAL_Driver/Src/stm32l0xx_hal_dma.c **** 
 751:Drivers/STM32L0xx_HAL_Driver/Src/stm32l0xx_hal_dma.c ****     case   HAL_DMA_XFER_ALL_CB_ID:
 752:Drivers/STM32L0xx_HAL_Driver/Src/stm32l0xx_hal_dma.c ****            hdma->XferCpltCallback = NULL;
 753:Drivers/STM32L0xx_HAL_Driver/Src/stm32l0xx_hal_dma.c ****            hdma->XferHalfCpltCallback = NULL;
 754:Drivers/STM32L0xx_HAL_Driver/Src/stm32l0xx_hal_dma.c ****            hdma->XferErrorCallback = NULL;
 755:Drivers/STM32L0xx_HAL_Driver/Src/stm32l0xx_hal_dma.c ****            hdma->XferAbortCallback = NULL;
 756:Drivers/STM32L0xx_HAL_Driver/Src/stm32l0xx_hal_dma.c ****            break;
 757:Drivers/STM32L0xx_HAL_Driver/Src/stm32l0xx_hal_dma.c **** 
 758:Drivers/STM32L0xx_HAL_Driver/Src/stm32l0xx_hal_dma.c ****     default:
 759:Drivers/STM32L0xx_HAL_Driver/Src/stm32l0xx_hal_dma.c ****            status = HAL_ERROR;
 760:Drivers/STM32L0xx_HAL_Driver/Src/stm32l0xx_hal_dma.c ****            break;
 761:Drivers/STM32L0xx_HAL_Driver/Src/stm32l0xx_hal_dma.c ****     }
 762:Drivers/STM32L0xx_HAL_Driver/Src/stm32l0xx_hal_dma.c ****   }
 763:Drivers/STM32L0xx_HAL_Driver/Src/stm32l0xx_hal_dma.c ****   else
 764:Drivers/STM32L0xx_HAL_Driver/Src/stm32l0xx_hal_dma.c ****   {
 765:Drivers/STM32L0xx_HAL_Driver/Src/stm32l0xx_hal_dma.c ****     status = HAL_ERROR;
 766:Drivers/STM32L0xx_HAL_Driver/Src/stm32l0xx_hal_dma.c ****   }
 767:Drivers/STM32L0xx_HAL_Driver/Src/stm32l0xx_hal_dma.c **** 
 768:Drivers/STM32L0xx_HAL_Driver/Src/stm32l0xx_hal_dma.c ****   /* Release Lock */
 769:Drivers/STM32L0xx_HAL_Driver/Src/stm32l0xx_hal_dma.c ****   __HAL_UNLOCK(hdma);
 770:Drivers/STM32L0xx_HAL_Driver/Src/stm32l0xx_hal_dma.c **** 
 771:Drivers/STM32L0xx_HAL_Driver/Src/stm32l0xx_hal_dma.c ****   return status;
 772:Drivers/STM32L0xx_HAL_Driver/Src/stm32l0xx_hal_dma.c **** }
 773:Drivers/STM32L0xx_HAL_Driver/Src/stm32l0xx_hal_dma.c **** 
ARM GAS  /tmp/ccelyxFt.s 			page 15


 774:Drivers/STM32L0xx_HAL_Driver/Src/stm32l0xx_hal_dma.c **** /**
 775:Drivers/STM32L0xx_HAL_Driver/Src/stm32l0xx_hal_dma.c ****   * @}
 776:Drivers/STM32L0xx_HAL_Driver/Src/stm32l0xx_hal_dma.c ****   */
 777:Drivers/STM32L0xx_HAL_Driver/Src/stm32l0xx_hal_dma.c **** 
 778:Drivers/STM32L0xx_HAL_Driver/Src/stm32l0xx_hal_dma.c **** 
 779:Drivers/STM32L0xx_HAL_Driver/Src/stm32l0xx_hal_dma.c **** 
 780:Drivers/STM32L0xx_HAL_Driver/Src/stm32l0xx_hal_dma.c **** /** @defgroup DMA_Exported_Functions_Group3 Peripheral State and Errors functions
 781:Drivers/STM32L0xx_HAL_Driver/Src/stm32l0xx_hal_dma.c ****  *  @brief    Peripheral State and Errors functions
 782:Drivers/STM32L0xx_HAL_Driver/Src/stm32l0xx_hal_dma.c ****  *
 783:Drivers/STM32L0xx_HAL_Driver/Src/stm32l0xx_hal_dma.c **** @verbatim
 784:Drivers/STM32L0xx_HAL_Driver/Src/stm32l0xx_hal_dma.c ****  ===============================================================================
 785:Drivers/STM32L0xx_HAL_Driver/Src/stm32l0xx_hal_dma.c ****             ##### Peripheral State and Errors functions #####
 786:Drivers/STM32L0xx_HAL_Driver/Src/stm32l0xx_hal_dma.c ****  ===============================================================================
 787:Drivers/STM32L0xx_HAL_Driver/Src/stm32l0xx_hal_dma.c ****     [..]
 788:Drivers/STM32L0xx_HAL_Driver/Src/stm32l0xx_hal_dma.c ****     This subsection provides functions allowing to
 789:Drivers/STM32L0xx_HAL_Driver/Src/stm32l0xx_hal_dma.c ****       (+) Check the DMA state
 790:Drivers/STM32L0xx_HAL_Driver/Src/stm32l0xx_hal_dma.c ****       (+) Get error code
 791:Drivers/STM32L0xx_HAL_Driver/Src/stm32l0xx_hal_dma.c **** 
 792:Drivers/STM32L0xx_HAL_Driver/Src/stm32l0xx_hal_dma.c **** @endverbatim
 793:Drivers/STM32L0xx_HAL_Driver/Src/stm32l0xx_hal_dma.c ****   * @{
 794:Drivers/STM32L0xx_HAL_Driver/Src/stm32l0xx_hal_dma.c ****   */
 795:Drivers/STM32L0xx_HAL_Driver/Src/stm32l0xx_hal_dma.c **** 
 796:Drivers/STM32L0xx_HAL_Driver/Src/stm32l0xx_hal_dma.c **** /**
 797:Drivers/STM32L0xx_HAL_Driver/Src/stm32l0xx_hal_dma.c ****   * @brief  Return the DMA handle state.
 798:Drivers/STM32L0xx_HAL_Driver/Src/stm32l0xx_hal_dma.c ****   * @param  hdma pointer to a DMA_HandleTypeDef structure that contains
 799:Drivers/STM32L0xx_HAL_Driver/Src/stm32l0xx_hal_dma.c ****   *               the configuration information for the specified DMA Channel.
 800:Drivers/STM32L0xx_HAL_Driver/Src/stm32l0xx_hal_dma.c ****   * @retval HAL state
 801:Drivers/STM32L0xx_HAL_Driver/Src/stm32l0xx_hal_dma.c ****   */
 802:Drivers/STM32L0xx_HAL_Driver/Src/stm32l0xx_hal_dma.c **** HAL_DMA_StateTypeDef HAL_DMA_GetState(DMA_HandleTypeDef *hdma)
 803:Drivers/STM32L0xx_HAL_Driver/Src/stm32l0xx_hal_dma.c **** {
 804:Drivers/STM32L0xx_HAL_Driver/Src/stm32l0xx_hal_dma.c ****   /* Return DMA handle state */
 805:Drivers/STM32L0xx_HAL_Driver/Src/stm32l0xx_hal_dma.c ****   return hdma->State;
 806:Drivers/STM32L0xx_HAL_Driver/Src/stm32l0xx_hal_dma.c **** }
 807:Drivers/STM32L0xx_HAL_Driver/Src/stm32l0xx_hal_dma.c **** 
 808:Drivers/STM32L0xx_HAL_Driver/Src/stm32l0xx_hal_dma.c **** /**
 809:Drivers/STM32L0xx_HAL_Driver/Src/stm32l0xx_hal_dma.c ****   * @brief  Return the DMA error code.
 810:Drivers/STM32L0xx_HAL_Driver/Src/stm32l0xx_hal_dma.c ****   * @param  hdma : pointer to a DMA_HandleTypeDef structure that contains
 811:Drivers/STM32L0xx_HAL_Driver/Src/stm32l0xx_hal_dma.c ****   *              the configuration information for the specified DMA Channel.
 812:Drivers/STM32L0xx_HAL_Driver/Src/stm32l0xx_hal_dma.c ****   * @retval DMA Error Code
 813:Drivers/STM32L0xx_HAL_Driver/Src/stm32l0xx_hal_dma.c ****   */
 814:Drivers/STM32L0xx_HAL_Driver/Src/stm32l0xx_hal_dma.c **** uint32_t HAL_DMA_GetError(DMA_HandleTypeDef *hdma)
 815:Drivers/STM32L0xx_HAL_Driver/Src/stm32l0xx_hal_dma.c **** {
 816:Drivers/STM32L0xx_HAL_Driver/Src/stm32l0xx_hal_dma.c ****   return hdma->ErrorCode;
 817:Drivers/STM32L0xx_HAL_Driver/Src/stm32l0xx_hal_dma.c **** }
 818:Drivers/STM32L0xx_HAL_Driver/Src/stm32l0xx_hal_dma.c **** 
 819:Drivers/STM32L0xx_HAL_Driver/Src/stm32l0xx_hal_dma.c **** /**
 820:Drivers/STM32L0xx_HAL_Driver/Src/stm32l0xx_hal_dma.c ****   * @}
 821:Drivers/STM32L0xx_HAL_Driver/Src/stm32l0xx_hal_dma.c ****   */
 822:Drivers/STM32L0xx_HAL_Driver/Src/stm32l0xx_hal_dma.c **** 
 823:Drivers/STM32L0xx_HAL_Driver/Src/stm32l0xx_hal_dma.c **** /**
 824:Drivers/STM32L0xx_HAL_Driver/Src/stm32l0xx_hal_dma.c ****   * @}
 825:Drivers/STM32L0xx_HAL_Driver/Src/stm32l0xx_hal_dma.c ****   */
 826:Drivers/STM32L0xx_HAL_Driver/Src/stm32l0xx_hal_dma.c **** 
 827:Drivers/STM32L0xx_HAL_Driver/Src/stm32l0xx_hal_dma.c **** /** @addtogroup DMA_Private_Functions
 828:Drivers/STM32L0xx_HAL_Driver/Src/stm32l0xx_hal_dma.c ****   * @{
 829:Drivers/STM32L0xx_HAL_Driver/Src/stm32l0xx_hal_dma.c ****   */
 830:Drivers/STM32L0xx_HAL_Driver/Src/stm32l0xx_hal_dma.c **** 
ARM GAS  /tmp/ccelyxFt.s 			page 16


 831:Drivers/STM32L0xx_HAL_Driver/Src/stm32l0xx_hal_dma.c **** /**
 832:Drivers/STM32L0xx_HAL_Driver/Src/stm32l0xx_hal_dma.c ****   * @brief  Sets the DMA Transfer parameter.
 833:Drivers/STM32L0xx_HAL_Driver/Src/stm32l0xx_hal_dma.c ****   * @param  hdma       pointer to a DMA_HandleTypeDef structure that contains
 834:Drivers/STM32L0xx_HAL_Driver/Src/stm32l0xx_hal_dma.c ****   *                     the configuration information for the specified DMA Channel.
 835:Drivers/STM32L0xx_HAL_Driver/Src/stm32l0xx_hal_dma.c ****   * @param  SrcAddress The source memory Buffer address
 836:Drivers/STM32L0xx_HAL_Driver/Src/stm32l0xx_hal_dma.c ****   * @param  DstAddress The destination memory Buffer address
 837:Drivers/STM32L0xx_HAL_Driver/Src/stm32l0xx_hal_dma.c ****   * @param  DataLength The length of data to be transferred from source to destination
 838:Drivers/STM32L0xx_HAL_Driver/Src/stm32l0xx_hal_dma.c ****   * @retval HAL status
 839:Drivers/STM32L0xx_HAL_Driver/Src/stm32l0xx_hal_dma.c ****   */
 840:Drivers/STM32L0xx_HAL_Driver/Src/stm32l0xx_hal_dma.c **** static void DMA_SetConfig(DMA_HandleTypeDef *hdma, uint32_t SrcAddress, uint32_t DstAddress, uint32
 841:Drivers/STM32L0xx_HAL_Driver/Src/stm32l0xx_hal_dma.c **** {
  27              		.loc 1 841 1 view -0
  28              		.cfi_startproc
  29              		@ args = 0, pretend = 0, frame = 0
  30              		@ frame_needed = 0, uses_anonymous_args = 0
  31              		.loc 1 841 1 is_stmt 0 view .LVU1
  32 0000 70B5     		push	{r4, r5, r6, lr}
  33              	.LCFI0:
  34              		.cfi_def_cfa_offset 16
  35              		.cfi_offset 4, -16
  36              		.cfi_offset 5, -12
  37              		.cfi_offset 6, -8
  38              		.cfi_offset 14, -4
 842:Drivers/STM32L0xx_HAL_Driver/Src/stm32l0xx_hal_dma.c ****   /* Clear all flags */
 843:Drivers/STM32L0xx_HAL_Driver/Src/stm32l0xx_hal_dma.c ****   hdma->DmaBaseAddress->IFCR = (DMA_ISR_GIF1 << (hdma->ChannelIndex & 0x1cU));
  39              		.loc 1 843 3 is_stmt 1 view .LVU2
  40              		.loc 1 843 69 is_stmt 0 view .LVU3
  41 0002 1C25     		movs	r5, #28
  42 0004 446C     		ldr	r4, [r0, #68]
  43 0006 2540     		ands	r5, r4
  44              		.loc 1 843 7 view .LVU4
  45 0008 066C     		ldr	r6, [r0, #64]
  46              		.loc 1 843 46 view .LVU5
  47 000a 0124     		movs	r4, #1
  48 000c AC40     		lsls	r4, r4, r5
  49              		.loc 1 843 30 view .LVU6
  50 000e 7460     		str	r4, [r6, #4]
 844:Drivers/STM32L0xx_HAL_Driver/Src/stm32l0xx_hal_dma.c **** 
 845:Drivers/STM32L0xx_HAL_Driver/Src/stm32l0xx_hal_dma.c ****   /* Configure DMA Channel data length */
 846:Drivers/STM32L0xx_HAL_Driver/Src/stm32l0xx_hal_dma.c ****   hdma->Instance->CNDTR = DataLength;
  51              		.loc 1 846 3 is_stmt 1 view .LVU7
  52              		.loc 1 846 7 is_stmt 0 view .LVU8
  53 0010 0468     		ldr	r4, [r0]
  54              		.loc 1 846 25 view .LVU9
  55 0012 6360     		str	r3, [r4, #4]
 847:Drivers/STM32L0xx_HAL_Driver/Src/stm32l0xx_hal_dma.c **** 
 848:Drivers/STM32L0xx_HAL_Driver/Src/stm32l0xx_hal_dma.c ****   /* Memory to Peripheral */
 849:Drivers/STM32L0xx_HAL_Driver/Src/stm32l0xx_hal_dma.c ****   if((hdma->Init.Direction) == DMA_MEMORY_TO_PERIPH)
  56              		.loc 1 849 3 is_stmt 1 view .LVU10
  57              		.loc 1 849 5 is_stmt 0 view .LVU11
  58 0014 8368     		ldr	r3, [r0, #8]
  59              	.LVL1:
  60              		.loc 1 849 5 view .LVU12
  61 0016 102B     		cmp	r3, #16
  62 0018 04D0     		beq	.L4
 850:Drivers/STM32L0xx_HAL_Driver/Src/stm32l0xx_hal_dma.c ****   {
 851:Drivers/STM32L0xx_HAL_Driver/Src/stm32l0xx_hal_dma.c ****     /* Configure DMA Channel destination address */
ARM GAS  /tmp/ccelyxFt.s 			page 17


 852:Drivers/STM32L0xx_HAL_Driver/Src/stm32l0xx_hal_dma.c ****     hdma->Instance->CPAR = DstAddress;
 853:Drivers/STM32L0xx_HAL_Driver/Src/stm32l0xx_hal_dma.c **** 
 854:Drivers/STM32L0xx_HAL_Driver/Src/stm32l0xx_hal_dma.c ****     /* Configure DMA Channel source address */
 855:Drivers/STM32L0xx_HAL_Driver/Src/stm32l0xx_hal_dma.c ****     hdma->Instance->CMAR = SrcAddress;
 856:Drivers/STM32L0xx_HAL_Driver/Src/stm32l0xx_hal_dma.c ****   }
 857:Drivers/STM32L0xx_HAL_Driver/Src/stm32l0xx_hal_dma.c ****   /* Peripheral to Memory */
 858:Drivers/STM32L0xx_HAL_Driver/Src/stm32l0xx_hal_dma.c ****   else
 859:Drivers/STM32L0xx_HAL_Driver/Src/stm32l0xx_hal_dma.c ****   {
 860:Drivers/STM32L0xx_HAL_Driver/Src/stm32l0xx_hal_dma.c ****     /* Configure DMA Channel source address */
 861:Drivers/STM32L0xx_HAL_Driver/Src/stm32l0xx_hal_dma.c ****     hdma->Instance->CPAR = SrcAddress;
  63              		.loc 1 861 5 is_stmt 1 view .LVU13
  64              		.loc 1 861 9 is_stmt 0 view .LVU14
  65 001a 0368     		ldr	r3, [r0]
  66              		.loc 1 861 26 view .LVU15
  67 001c 9960     		str	r1, [r3, #8]
  68              	.LVL2:
 862:Drivers/STM32L0xx_HAL_Driver/Src/stm32l0xx_hal_dma.c **** 
 863:Drivers/STM32L0xx_HAL_Driver/Src/stm32l0xx_hal_dma.c ****     /* Configure DMA Channel destination address */
 864:Drivers/STM32L0xx_HAL_Driver/Src/stm32l0xx_hal_dma.c ****     hdma->Instance->CMAR = DstAddress;
  69              		.loc 1 864 5 is_stmt 1 view .LVU16
  70              		.loc 1 864 9 is_stmt 0 view .LVU17
  71 001e 0368     		ldr	r3, [r0]
  72              		.loc 1 864 26 view .LVU18
  73 0020 DA60     		str	r2, [r3, #12]
  74              	.L1:
 865:Drivers/STM32L0xx_HAL_Driver/Src/stm32l0xx_hal_dma.c ****   }
 866:Drivers/STM32L0xx_HAL_Driver/Src/stm32l0xx_hal_dma.c **** }
  75              		.loc 1 866 1 view .LVU19
  76              		@ sp needed
  77 0022 70BD     		pop	{r4, r5, r6, pc}
  78              	.LVL3:
  79              	.L4:
 852:Drivers/STM32L0xx_HAL_Driver/Src/stm32l0xx_hal_dma.c **** 
  80              		.loc 1 852 5 is_stmt 1 view .LVU20
 852:Drivers/STM32L0xx_HAL_Driver/Src/stm32l0xx_hal_dma.c **** 
  81              		.loc 1 852 9 is_stmt 0 view .LVU21
  82 0024 0368     		ldr	r3, [r0]
 852:Drivers/STM32L0xx_HAL_Driver/Src/stm32l0xx_hal_dma.c **** 
  83              		.loc 1 852 26 view .LVU22
  84 0026 9A60     		str	r2, [r3, #8]
  85              	.LVL4:
 855:Drivers/STM32L0xx_HAL_Driver/Src/stm32l0xx_hal_dma.c ****   }
  86              		.loc 1 855 5 is_stmt 1 view .LVU23
 855:Drivers/STM32L0xx_HAL_Driver/Src/stm32l0xx_hal_dma.c ****   }
  87              		.loc 1 855 9 is_stmt 0 view .LVU24
  88 0028 0368     		ldr	r3, [r0]
 855:Drivers/STM32L0xx_HAL_Driver/Src/stm32l0xx_hal_dma.c ****   }
  89              		.loc 1 855 26 view .LVU25
  90 002a D960     		str	r1, [r3, #12]
  91 002c F9E7     		b	.L1
  92              		.cfi_endproc
  93              	.LFE46:
  95              		.global	__aeabi_uidiv
  96              		.section	.text.HAL_DMA_Init,"ax",%progbits
  97              		.align	1
  98              		.global	HAL_DMA_Init
  99              		.syntax unified
ARM GAS  /tmp/ccelyxFt.s 			page 18


 100              		.code	16
 101              		.thumb_func
 102              		.fpu softvfp
 104              	HAL_DMA_Init:
 105              	.LVL5:
 106              	.LFB34:
 140:Drivers/STM32L0xx_HAL_Driver/Src/stm32l0xx_hal_dma.c ****   uint32_t tmp;
 107              		.loc 1 140 1 is_stmt 1 view -0
 108              		.cfi_startproc
 109              		@ args = 0, pretend = 0, frame = 0
 110              		@ frame_needed = 0, uses_anonymous_args = 0
 140:Drivers/STM32L0xx_HAL_Driver/Src/stm32l0xx_hal_dma.c ****   uint32_t tmp;
 111              		.loc 1 140 1 is_stmt 0 view .LVU27
 112 0000 70B5     		push	{r4, r5, r6, lr}
 113              	.LCFI1:
 114              		.cfi_def_cfa_offset 16
 115              		.cfi_offset 4, -16
 116              		.cfi_offset 5, -12
 117              		.cfi_offset 6, -8
 118              		.cfi_offset 14, -4
 119 0002 041E     		subs	r4, r0, #0
 141:Drivers/STM32L0xx_HAL_Driver/Src/stm32l0xx_hal_dma.c **** 
 120              		.loc 1 141 3 is_stmt 1 view .LVU28
 144:Drivers/STM32L0xx_HAL_Driver/Src/stm32l0xx_hal_dma.c ****   {
 121              		.loc 1 144 3 view .LVU29
 144:Drivers/STM32L0xx_HAL_Driver/Src/stm32l0xx_hal_dma.c ****   {
 122              		.loc 1 144 5 is_stmt 0 view .LVU30
 123 0004 3DD0     		beq	.L8
 150:Drivers/STM32L0xx_HAL_Driver/Src/stm32l0xx_hal_dma.c ****   assert_param(IS_DMA_ALL_REQUEST(hdma->Init.Request));
 124              		.loc 1 150 3 is_stmt 1 view .LVU31
 151:Drivers/STM32L0xx_HAL_Driver/Src/stm32l0xx_hal_dma.c ****   assert_param(IS_DMA_DIRECTION(hdma->Init.Direction));
 125              		.loc 1 151 3 view .LVU32
 152:Drivers/STM32L0xx_HAL_Driver/Src/stm32l0xx_hal_dma.c ****   assert_param(IS_DMA_PERIPHERAL_INC_STATE(hdma->Init.PeriphInc));
 126              		.loc 1 152 3 view .LVU33
 153:Drivers/STM32L0xx_HAL_Driver/Src/stm32l0xx_hal_dma.c ****   assert_param(IS_DMA_MEMORY_INC_STATE(hdma->Init.MemInc));
 127              		.loc 1 153 3 view .LVU34
 154:Drivers/STM32L0xx_HAL_Driver/Src/stm32l0xx_hal_dma.c ****   assert_param(IS_DMA_PERIPHERAL_DATA_SIZE(hdma->Init.PeriphDataAlignment));
 128              		.loc 1 154 3 view .LVU35
 155:Drivers/STM32L0xx_HAL_Driver/Src/stm32l0xx_hal_dma.c ****   assert_param(IS_DMA_MEMORY_DATA_SIZE(hdma->Init.MemDataAlignment));
 129              		.loc 1 155 3 view .LVU36
 156:Drivers/STM32L0xx_HAL_Driver/Src/stm32l0xx_hal_dma.c ****   assert_param(IS_DMA_MODE(hdma->Init.Mode));
 130              		.loc 1 156 3 view .LVU37
 157:Drivers/STM32L0xx_HAL_Driver/Src/stm32l0xx_hal_dma.c ****   assert_param(IS_DMA_PRIORITY(hdma->Init.Priority));
 131              		.loc 1 157 3 view .LVU38
 158:Drivers/STM32L0xx_HAL_Driver/Src/stm32l0xx_hal_dma.c **** 
 132              		.loc 1 158 3 view .LVU39
 162:Drivers/STM32L0xx_HAL_Driver/Src/stm32l0xx_hal_dma.c ****   hdma->DmaBaseAddress = DMA1;
 133              		.loc 1 162 3 view .LVU40
 162:Drivers/STM32L0xx_HAL_Driver/Src/stm32l0xx_hal_dma.c ****   hdma->DmaBaseAddress = DMA1;
 134              		.loc 1 162 40 is_stmt 0 view .LVU41
 135 0006 0568     		ldr	r5, [r0]
 162:Drivers/STM32L0xx_HAL_Driver/Src/stm32l0xx_hal_dma.c ****   hdma->DmaBaseAddress = DMA1;
 136              		.loc 1 162 51 view .LVU42
 137 0008 1F4B     		ldr	r3, .L9
 138 000a E818     		adds	r0, r5, r3
 139              	.LVL6:
 162:Drivers/STM32L0xx_HAL_Driver/Src/stm32l0xx_hal_dma.c ****   hdma->DmaBaseAddress = DMA1;
ARM GAS  /tmp/ccelyxFt.s 			page 19


 140              		.loc 1 162 78 view .LVU43
 141 000c 1421     		movs	r1, #20
 142 000e FFF7FEFF 		bl	__aeabi_uidiv
 143              	.LVL7:
 162:Drivers/STM32L0xx_HAL_Driver/Src/stm32l0xx_hal_dma.c ****   hdma->DmaBaseAddress = DMA1;
 144              		.loc 1 162 133 view .LVU44
 145 0012 8000     		lsls	r0, r0, #2
 162:Drivers/STM32L0xx_HAL_Driver/Src/stm32l0xx_hal_dma.c ****   hdma->DmaBaseAddress = DMA1;
 146              		.loc 1 162 22 view .LVU45
 147 0014 6064     		str	r0, [r4, #68]
 163:Drivers/STM32L0xx_HAL_Driver/Src/stm32l0xx_hal_dma.c **** 
 148              		.loc 1 163 3 is_stmt 1 view .LVU46
 163:Drivers/STM32L0xx_HAL_Driver/Src/stm32l0xx_hal_dma.c **** 
 149              		.loc 1 163 24 is_stmt 0 view .LVU47
 150 0016 1D4B     		ldr	r3, .L9+4
 151 0018 2364     		str	r3, [r4, #64]
 166:Drivers/STM32L0xx_HAL_Driver/Src/stm32l0xx_hal_dma.c **** 
 152              		.loc 1 166 3 is_stmt 1 view .LVU48
 166:Drivers/STM32L0xx_HAL_Driver/Src/stm32l0xx_hal_dma.c **** 
 153              		.loc 1 166 15 is_stmt 0 view .LVU49
 154 001a 2523     		movs	r3, #37
 155 001c 0222     		movs	r2, #2
 156 001e E254     		strb	r2, [r4, r3]
 169:Drivers/STM32L0xx_HAL_Driver/Src/stm32l0xx_hal_dma.c **** 
 157              		.loc 1 169 3 is_stmt 1 view .LVU50
 169:Drivers/STM32L0xx_HAL_Driver/Src/stm32l0xx_hal_dma.c **** 
 158              		.loc 1 169 7 is_stmt 0 view .LVU51
 159 0020 2B68     		ldr	r3, [r5]
 160              	.LVL8:
 172:Drivers/STM32L0xx_HAL_Driver/Src/stm32l0xx_hal_dma.c ****                       DMA_CCR_MINC  | DMA_CCR_PINC   | DMA_CCR_CIRC   |
 161              		.loc 1 172 3 is_stmt 1 view .LVU52
 172:Drivers/STM32L0xx_HAL_Driver/Src/stm32l0xx_hal_dma.c ****                       DMA_CCR_MINC  | DMA_CCR_PINC   | DMA_CCR_CIRC   |
 162              		.loc 1 172 7 is_stmt 0 view .LVU53
 163 0022 1B4A     		ldr	r2, .L9+8
 164 0024 1A40     		ands	r2, r3
 165              	.LVL9:
 177:Drivers/STM32L0xx_HAL_Driver/Src/stm32l0xx_hal_dma.c ****           hdma->Init.PeriphInc           | hdma->Init.MemInc           |
 166              		.loc 1 177 3 is_stmt 1 view .LVU54
 177:Drivers/STM32L0xx_HAL_Driver/Src/stm32l0xx_hal_dma.c ****           hdma->Init.PeriphInc           | hdma->Init.MemInc           |
 167              		.loc 1 177 39 is_stmt 0 view .LVU55
 168 0026 A368     		ldr	r3, [r4, #8]
 169 0028 E168     		ldr	r1, [r4, #12]
 170 002a 0B43     		orrs	r3, r1
 178:Drivers/STM32L0xx_HAL_Driver/Src/stm32l0xx_hal_dma.c ****           hdma->Init.PeriphDataAlignment | hdma->Init.MemDataAlignment |
 171              		.loc 1 178 42 view .LVU56
 172 002c 2169     		ldr	r1, [r4, #16]
 173 002e 0B43     		orrs	r3, r1
 178:Drivers/STM32L0xx_HAL_Driver/Src/stm32l0xx_hal_dma.c ****           hdma->Init.PeriphDataAlignment | hdma->Init.MemDataAlignment |
 174              		.loc 1 178 72 view .LVU57
 175 0030 6169     		ldr	r1, [r4, #20]
 176 0032 0B43     		orrs	r3, r1
 179:Drivers/STM32L0xx_HAL_Driver/Src/stm32l0xx_hal_dma.c ****           hdma->Init.Mode                | hdma->Init.Priority;
 177              		.loc 1 179 42 view .LVU58
 178 0034 A169     		ldr	r1, [r4, #24]
 179 0036 0B43     		orrs	r3, r1
 179:Drivers/STM32L0xx_HAL_Driver/Src/stm32l0xx_hal_dma.c ****           hdma->Init.Mode                | hdma->Init.Priority;
 180              		.loc 1 179 72 view .LVU59
ARM GAS  /tmp/ccelyxFt.s 			page 20


 181 0038 E169     		ldr	r1, [r4, #28]
 182 003a 0B43     		orrs	r3, r1
 180:Drivers/STM32L0xx_HAL_Driver/Src/stm32l0xx_hal_dma.c **** 
 183              		.loc 1 180 42 view .LVU60
 184 003c 216A     		ldr	r1, [r4, #32]
 185 003e 0B43     		orrs	r3, r1
 177:Drivers/STM32L0xx_HAL_Driver/Src/stm32l0xx_hal_dma.c ****           hdma->Init.PeriphInc           | hdma->Init.MemInc           |
 186              		.loc 1 177 7 view .LVU61
 187 0040 1343     		orrs	r3, r2
 188              	.LVL10:
 183:Drivers/STM32L0xx_HAL_Driver/Src/stm32l0xx_hal_dma.c **** 
 189              		.loc 1 183 3 is_stmt 1 view .LVU62
 183:Drivers/STM32L0xx_HAL_Driver/Src/stm32l0xx_hal_dma.c **** 
 190              		.loc 1 183 23 is_stmt 0 view .LVU63
 191 0042 2B60     		str	r3, [r5]
 186:Drivers/STM32L0xx_HAL_Driver/Src/stm32l0xx_hal_dma.c ****   {
 192              		.loc 1 186 3 is_stmt 1 view .LVU64
 186:Drivers/STM32L0xx_HAL_Driver/Src/stm32l0xx_hal_dma.c ****   {
 193              		.loc 1 186 5 is_stmt 0 view .LVU65
 194 0044 8023     		movs	r3, #128
 195              	.LVL11:
 186:Drivers/STM32L0xx_HAL_Driver/Src/stm32l0xx_hal_dma.c ****   {
 196              		.loc 1 186 5 view .LVU66
 197 0046 DB01     		lsls	r3, r3, #7
 198 0048 A268     		ldr	r2, [r4, #8]
 199 004a 9A42     		cmp	r2, r3
 200 004c 10D0     		beq	.L7
 190:Drivers/STM32L0xx_HAL_Driver/Src/stm32l0xx_hal_dma.c **** 
 201              		.loc 1 190 5 is_stmt 1 view .LVU67
 190:Drivers/STM32L0xx_HAL_Driver/Src/stm32l0xx_hal_dma.c **** 
 202              		.loc 1 190 23 is_stmt 0 view .LVU68
 203 004e 114B     		ldr	r3, .L9+12
 204 0050 1968     		ldr	r1, [r3]
 190:Drivers/STM32L0xx_HAL_Driver/Src/stm32l0xx_hal_dma.c **** 
 205              		.loc 1 190 65 view .LVU69
 206 0052 1C22     		movs	r2, #28
 207 0054 656C     		ldr	r5, [r4, #68]
 208              	.LVL12:
 190:Drivers/STM32L0xx_HAL_Driver/Src/stm32l0xx_hal_dma.c **** 
 209              		.loc 1 190 65 view .LVU70
 210 0056 1540     		ands	r5, r2
 190:Drivers/STM32L0xx_HAL_Driver/Src/stm32l0xx_hal_dma.c **** 
 211              		.loc 1 190 42 view .LVU71
 212 0058 0F20     		movs	r0, #15
 213 005a A840     		lsls	r0, r0, r5
 190:Drivers/STM32L0xx_HAL_Driver/Src/stm32l0xx_hal_dma.c **** 
 214              		.loc 1 190 23 view .LVU72
 215 005c 8143     		bics	r1, r0
 216 005e 1960     		str	r1, [r3]
 193:Drivers/STM32L0xx_HAL_Driver/Src/stm32l0xx_hal_dma.c ****   }
 217              		.loc 1 193 5 is_stmt 1 view .LVU73
 193:Drivers/STM32L0xx_HAL_Driver/Src/stm32l0xx_hal_dma.c ****   }
 218              		.loc 1 193 23 is_stmt 0 view .LVU74
 219 0060 1968     		ldr	r1, [r3]
 193:Drivers/STM32L0xx_HAL_Driver/Src/stm32l0xx_hal_dma.c ****   }
 220              		.loc 1 193 80 view .LVU75
 221 0062 606C     		ldr	r0, [r4, #68]
ARM GAS  /tmp/ccelyxFt.s 			page 21


 222 0064 0240     		ands	r2, r0
 193:Drivers/STM32L0xx_HAL_Driver/Src/stm32l0xx_hal_dma.c ****   }
 223              		.loc 1 193 57 view .LVU76
 224 0066 6068     		ldr	r0, [r4, #4]
 225 0068 9040     		lsls	r0, r0, r2
 226 006a 0200     		movs	r2, r0
 193:Drivers/STM32L0xx_HAL_Driver/Src/stm32l0xx_hal_dma.c ****   }
 227              		.loc 1 193 23 view .LVU77
 228 006c 0A43     		orrs	r2, r1
 229 006e 1A60     		str	r2, [r3]
 230              	.L7:
 197:Drivers/STM32L0xx_HAL_Driver/Src/stm32l0xx_hal_dma.c **** 
 231              		.loc 1 197 3 is_stmt 1 view .LVU78
 197:Drivers/STM32L0xx_HAL_Driver/Src/stm32l0xx_hal_dma.c **** 
 232              		.loc 1 197 19 is_stmt 0 view .LVU79
 233 0070 0023     		movs	r3, #0
 234 0072 E363     		str	r3, [r4, #60]
 200:Drivers/STM32L0xx_HAL_Driver/Src/stm32l0xx_hal_dma.c **** 
 235              		.loc 1 200 3 is_stmt 1 view .LVU80
 200:Drivers/STM32L0xx_HAL_Driver/Src/stm32l0xx_hal_dma.c **** 
 236              		.loc 1 200 16 is_stmt 0 view .LVU81
 237 0074 2522     		movs	r2, #37
 238 0076 0121     		movs	r1, #1
 239 0078 A154     		strb	r1, [r4, r2]
 203:Drivers/STM32L0xx_HAL_Driver/Src/stm32l0xx_hal_dma.c **** 
 240              		.loc 1 203 3 is_stmt 1 view .LVU82
 203:Drivers/STM32L0xx_HAL_Driver/Src/stm32l0xx_hal_dma.c **** 
 241              		.loc 1 203 14 is_stmt 0 view .LVU83
 242 007a 013A     		subs	r2, r2, #1
 243 007c A354     		strb	r3, [r4, r2]
 205:Drivers/STM32L0xx_HAL_Driver/Src/stm32l0xx_hal_dma.c **** }
 244              		.loc 1 205 3 is_stmt 1 view .LVU84
 205:Drivers/STM32L0xx_HAL_Driver/Src/stm32l0xx_hal_dma.c **** }
 245              		.loc 1 205 10 is_stmt 0 view .LVU85
 246 007e 0020     		movs	r0, #0
 247              	.L6:
 206:Drivers/STM32L0xx_HAL_Driver/Src/stm32l0xx_hal_dma.c **** 
 248              		.loc 1 206 1 view .LVU86
 249              		@ sp needed
 250              	.LVL13:
 206:Drivers/STM32L0xx_HAL_Driver/Src/stm32l0xx_hal_dma.c **** 
 251              		.loc 1 206 1 view .LVU87
 252 0080 70BD     		pop	{r4, r5, r6, pc}
 253              	.LVL14:
 254              	.L8:
 146:Drivers/STM32L0xx_HAL_Driver/Src/stm32l0xx_hal_dma.c ****   }
 255              		.loc 1 146 12 view .LVU88
 256 0082 0120     		movs	r0, #1
 257              	.LVL15:
 146:Drivers/STM32L0xx_HAL_Driver/Src/stm32l0xx_hal_dma.c ****   }
 258              		.loc 1 146 12 view .LVU89
 259 0084 FCE7     		b	.L6
 260              	.L10:
 261 0086 C046     		.align	2
 262              	.L9:
 263 0088 F8FFFDBF 		.word	-1073872904
 264 008c 00000240 		.word	1073872896
ARM GAS  /tmp/ccelyxFt.s 			page 22


 265 0090 0F80FFFF 		.word	-32753
 266 0094 A8000240 		.word	1073873064
 267              		.cfi_endproc
 268              	.LFE34:
 270              		.section	.text.HAL_DMA_DeInit,"ax",%progbits
 271              		.align	1
 272              		.global	HAL_DMA_DeInit
 273              		.syntax unified
 274              		.code	16
 275              		.thumb_func
 276              		.fpu softvfp
 278              	HAL_DMA_DeInit:
 279              	.LVL16:
 280              	.LFB35:
 215:Drivers/STM32L0xx_HAL_Driver/Src/stm32l0xx_hal_dma.c **** 
 281              		.loc 1 215 1 is_stmt 1 view -0
 282              		.cfi_startproc
 283              		@ args = 0, pretend = 0, frame = 0
 284              		@ frame_needed = 0, uses_anonymous_args = 0
 215:Drivers/STM32L0xx_HAL_Driver/Src/stm32l0xx_hal_dma.c **** 
 285              		.loc 1 215 1 is_stmt 0 view .LVU91
 286 0000 70B5     		push	{r4, r5, r6, lr}
 287              	.LCFI2:
 288              		.cfi_def_cfa_offset 16
 289              		.cfi_offset 4, -16
 290              		.cfi_offset 5, -12
 291              		.cfi_offset 6, -8
 292              		.cfi_offset 14, -4
 293 0002 041E     		subs	r4, r0, #0
 218:Drivers/STM32L0xx_HAL_Driver/Src/stm32l0xx_hal_dma.c ****   {
 294              		.loc 1 218 3 is_stmt 1 view .LVU92
 218:Drivers/STM32L0xx_HAL_Driver/Src/stm32l0xx_hal_dma.c ****   {
 295              		.loc 1 218 6 is_stmt 0 view .LVU93
 296 0004 29D0     		beq	.L13
 224:Drivers/STM32L0xx_HAL_Driver/Src/stm32l0xx_hal_dma.c **** 
 297              		.loc 1 224 3 is_stmt 1 view .LVU94
 227:Drivers/STM32L0xx_HAL_Driver/Src/stm32l0xx_hal_dma.c **** 
 298              		.loc 1 227 3 view .LVU95
 299 0006 0268     		ldr	r2, [r0]
 300 0008 1368     		ldr	r3, [r2]
 301 000a 0125     		movs	r5, #1
 302 000c AB43     		bics	r3, r5
 303 000e 1360     		str	r3, [r2]
 231:Drivers/STM32L0xx_HAL_Driver/Src/stm32l0xx_hal_dma.c ****   hdma->DmaBaseAddress = DMA1;
 304              		.loc 1 231 3 view .LVU96
 231:Drivers/STM32L0xx_HAL_Driver/Src/stm32l0xx_hal_dma.c ****   hdma->DmaBaseAddress = DMA1;
 305              		.loc 1 231 40 is_stmt 0 view .LVU97
 306 0010 0668     		ldr	r6, [r0]
 231:Drivers/STM32L0xx_HAL_Driver/Src/stm32l0xx_hal_dma.c ****   hdma->DmaBaseAddress = DMA1;
 307              		.loc 1 231 51 view .LVU98
 308 0012 134B     		ldr	r3, .L14
 309 0014 F018     		adds	r0, r6, r3
 310              	.LVL17:
 231:Drivers/STM32L0xx_HAL_Driver/Src/stm32l0xx_hal_dma.c ****   hdma->DmaBaseAddress = DMA1;
 311              		.loc 1 231 78 view .LVU99
 312 0016 1421     		movs	r1, #20
 313 0018 FFF7FEFF 		bl	__aeabi_uidiv
ARM GAS  /tmp/ccelyxFt.s 			page 23


 314              	.LVL18:
 231:Drivers/STM32L0xx_HAL_Driver/Src/stm32l0xx_hal_dma.c ****   hdma->DmaBaseAddress = DMA1;
 315              		.loc 1 231 133 view .LVU100
 316 001c 8000     		lsls	r0, r0, #2
 231:Drivers/STM32L0xx_HAL_Driver/Src/stm32l0xx_hal_dma.c ****   hdma->DmaBaseAddress = DMA1;
 317              		.loc 1 231 22 view .LVU101
 318 001e 6064     		str	r0, [r4, #68]
 232:Drivers/STM32L0xx_HAL_Driver/Src/stm32l0xx_hal_dma.c **** 
 319              		.loc 1 232 3 is_stmt 1 view .LVU102
 232:Drivers/STM32L0xx_HAL_Driver/Src/stm32l0xx_hal_dma.c **** 
 320              		.loc 1 232 24 is_stmt 0 view .LVU103
 321 0020 104B     		ldr	r3, .L14+4
 322 0022 2364     		str	r3, [r4, #64]
 235:Drivers/STM32L0xx_HAL_Driver/Src/stm32l0xx_hal_dma.c **** 
 323              		.loc 1 235 3 is_stmt 1 view .LVU104
 235:Drivers/STM32L0xx_HAL_Driver/Src/stm32l0xx_hal_dma.c **** 
 324              		.loc 1 235 24 is_stmt 0 view .LVU105
 325 0024 0023     		movs	r3, #0
 326 0026 3360     		str	r3, [r6]
 238:Drivers/STM32L0xx_HAL_Driver/Src/stm32l0xx_hal_dma.c **** 
 327              		.loc 1 238 3 is_stmt 1 view .LVU106
 238:Drivers/STM32L0xx_HAL_Driver/Src/stm32l0xx_hal_dma.c **** 
 328              		.loc 1 238 69 is_stmt 0 view .LVU107
 329 0028 1C22     		movs	r2, #28
 330 002a 616C     		ldr	r1, [r4, #68]
 331 002c 1140     		ands	r1, r2
 238:Drivers/STM32L0xx_HAL_Driver/Src/stm32l0xx_hal_dma.c **** 
 332              		.loc 1 238 7 view .LVU108
 333 002e 206C     		ldr	r0, [r4, #64]
 238:Drivers/STM32L0xx_HAL_Driver/Src/stm32l0xx_hal_dma.c **** 
 334              		.loc 1 238 46 view .LVU109
 335 0030 8D40     		lsls	r5, r5, r1
 238:Drivers/STM32L0xx_HAL_Driver/Src/stm32l0xx_hal_dma.c **** 
 336              		.loc 1 238 30 view .LVU110
 337 0032 4560     		str	r5, [r0, #4]
 242:Drivers/STM32L0xx_HAL_Driver/Src/stm32l0xx_hal_dma.c **** 
 338              		.loc 1 242 3 is_stmt 1 view .LVU111
 242:Drivers/STM32L0xx_HAL_Driver/Src/stm32l0xx_hal_dma.c **** 
 339              		.loc 1 242 21 is_stmt 0 view .LVU112
 340 0034 0C4D     		ldr	r5, .L14+8
 341 0036 2968     		ldr	r1, [r5]
 242:Drivers/STM32L0xx_HAL_Driver/Src/stm32l0xx_hal_dma.c **** 
 342              		.loc 1 242 63 view .LVU113
 343 0038 606C     		ldr	r0, [r4, #68]
 344 003a 0240     		ands	r2, r0
 242:Drivers/STM32L0xx_HAL_Driver/Src/stm32l0xx_hal_dma.c **** 
 345              		.loc 1 242 40 view .LVU114
 346 003c 0F20     		movs	r0, #15
 347 003e 9040     		lsls	r0, r0, r2
 242:Drivers/STM32L0xx_HAL_Driver/Src/stm32l0xx_hal_dma.c **** 
 348              		.loc 1 242 21 view .LVU115
 349 0040 8143     		bics	r1, r0
 350 0042 2960     		str	r1, [r5]
 245:Drivers/STM32L0xx_HAL_Driver/Src/stm32l0xx_hal_dma.c ****   hdma->XferHalfCpltCallback = NULL;
 351              		.loc 1 245 3 is_stmt 1 view .LVU116
 245:Drivers/STM32L0xx_HAL_Driver/Src/stm32l0xx_hal_dma.c ****   hdma->XferHalfCpltCallback = NULL;
 352              		.loc 1 245 26 is_stmt 0 view .LVU117
ARM GAS  /tmp/ccelyxFt.s 			page 24


 353 0044 E362     		str	r3, [r4, #44]
 246:Drivers/STM32L0xx_HAL_Driver/Src/stm32l0xx_hal_dma.c ****   hdma->XferErrorCallback = NULL;
 354              		.loc 1 246 3 is_stmt 1 view .LVU118
 246:Drivers/STM32L0xx_HAL_Driver/Src/stm32l0xx_hal_dma.c ****   hdma->XferErrorCallback = NULL;
 355              		.loc 1 246 30 is_stmt 0 view .LVU119
 356 0046 2363     		str	r3, [r4, #48]
 247:Drivers/STM32L0xx_HAL_Driver/Src/stm32l0xx_hal_dma.c ****   hdma->XferAbortCallback = NULL;
 357              		.loc 1 247 3 is_stmt 1 view .LVU120
 247:Drivers/STM32L0xx_HAL_Driver/Src/stm32l0xx_hal_dma.c ****   hdma->XferAbortCallback = NULL;
 358              		.loc 1 247 27 is_stmt 0 view .LVU121
 359 0048 6363     		str	r3, [r4, #52]
 248:Drivers/STM32L0xx_HAL_Driver/Src/stm32l0xx_hal_dma.c **** 
 360              		.loc 1 248 3 is_stmt 1 view .LVU122
 248:Drivers/STM32L0xx_HAL_Driver/Src/stm32l0xx_hal_dma.c **** 
 361              		.loc 1 248 27 is_stmt 0 view .LVU123
 362 004a A363     		str	r3, [r4, #56]
 251:Drivers/STM32L0xx_HAL_Driver/Src/stm32l0xx_hal_dma.c **** 
 363              		.loc 1 251 3 is_stmt 1 view .LVU124
 251:Drivers/STM32L0xx_HAL_Driver/Src/stm32l0xx_hal_dma.c **** 
 364              		.loc 1 251 19 is_stmt 0 view .LVU125
 365 004c E363     		str	r3, [r4, #60]
 254:Drivers/STM32L0xx_HAL_Driver/Src/stm32l0xx_hal_dma.c **** 
 366              		.loc 1 254 3 is_stmt 1 view .LVU126
 254:Drivers/STM32L0xx_HAL_Driver/Src/stm32l0xx_hal_dma.c **** 
 367              		.loc 1 254 15 is_stmt 0 view .LVU127
 368 004e 2522     		movs	r2, #37
 369 0050 A354     		strb	r3, [r4, r2]
 257:Drivers/STM32L0xx_HAL_Driver/Src/stm32l0xx_hal_dma.c **** 
 370              		.loc 1 257 3 is_stmt 1 view .LVU128
 257:Drivers/STM32L0xx_HAL_Driver/Src/stm32l0xx_hal_dma.c **** 
 371              		.loc 1 257 3 view .LVU129
 372 0052 013A     		subs	r2, r2, #1
 373 0054 A354     		strb	r3, [r4, r2]
 259:Drivers/STM32L0xx_HAL_Driver/Src/stm32l0xx_hal_dma.c **** }
 374              		.loc 1 259 3 view .LVU130
 259:Drivers/STM32L0xx_HAL_Driver/Src/stm32l0xx_hal_dma.c **** }
 375              		.loc 1 259 10 is_stmt 0 view .LVU131
 376 0056 0020     		movs	r0, #0
 377              	.L12:
 260:Drivers/STM32L0xx_HAL_Driver/Src/stm32l0xx_hal_dma.c **** 
 378              		.loc 1 260 1 view .LVU132
 379              		@ sp needed
 380              	.LVL19:
 260:Drivers/STM32L0xx_HAL_Driver/Src/stm32l0xx_hal_dma.c **** 
 381              		.loc 1 260 1 view .LVU133
 382 0058 70BD     		pop	{r4, r5, r6, pc}
 383              	.LVL20:
 384              	.L13:
 220:Drivers/STM32L0xx_HAL_Driver/Src/stm32l0xx_hal_dma.c ****   }
 385              		.loc 1 220 12 view .LVU134
 386 005a 0120     		movs	r0, #1
 387              	.LVL21:
 220:Drivers/STM32L0xx_HAL_Driver/Src/stm32l0xx_hal_dma.c ****   }
 388              		.loc 1 220 12 view .LVU135
 389 005c FCE7     		b	.L12
 390              	.L15:
 391 005e C046     		.align	2
ARM GAS  /tmp/ccelyxFt.s 			page 25


 392              	.L14:
 393 0060 F8FFFDBF 		.word	-1073872904
 394 0064 00000240 		.word	1073872896
 395 0068 A8000240 		.word	1073873064
 396              		.cfi_endproc
 397              	.LFE35:
 399              		.section	.text.HAL_DMA_Start,"ax",%progbits
 400              		.align	1
 401              		.global	HAL_DMA_Start
 402              		.syntax unified
 403              		.code	16
 404              		.thumb_func
 405              		.fpu softvfp
 407              	HAL_DMA_Start:
 408              	.LVL22:
 409              	.LFB36:
 295:Drivers/STM32L0xx_HAL_Driver/Src/stm32l0xx_hal_dma.c ****   HAL_StatusTypeDef status = HAL_OK;
 410              		.loc 1 295 1 is_stmt 1 view -0
 411              		.cfi_startproc
 412              		@ args = 0, pretend = 0, frame = 0
 413              		@ frame_needed = 0, uses_anonymous_args = 0
 295:Drivers/STM32L0xx_HAL_Driver/Src/stm32l0xx_hal_dma.c ****   HAL_StatusTypeDef status = HAL_OK;
 414              		.loc 1 295 1 is_stmt 0 view .LVU137
 415 0000 70B5     		push	{r4, r5, r6, lr}
 416              	.LCFI3:
 417              		.cfi_def_cfa_offset 16
 418              		.cfi_offset 4, -16
 419              		.cfi_offset 5, -12
 420              		.cfi_offset 6, -8
 421              		.cfi_offset 14, -4
 422 0002 0400     		movs	r4, r0
 296:Drivers/STM32L0xx_HAL_Driver/Src/stm32l0xx_hal_dma.c **** 
 423              		.loc 1 296 3 is_stmt 1 view .LVU138
 424              	.LVL23:
 299:Drivers/STM32L0xx_HAL_Driver/Src/stm32l0xx_hal_dma.c **** 
 425              		.loc 1 299 3 view .LVU139
 302:Drivers/STM32L0xx_HAL_Driver/Src/stm32l0xx_hal_dma.c **** 
 426              		.loc 1 302 3 view .LVU140
 302:Drivers/STM32L0xx_HAL_Driver/Src/stm32l0xx_hal_dma.c **** 
 427              		.loc 1 302 3 view .LVU141
 428 0004 2420     		movs	r0, #36
 429              	.LVL24:
 302:Drivers/STM32L0xx_HAL_Driver/Src/stm32l0xx_hal_dma.c **** 
 430              		.loc 1 302 3 is_stmt 0 view .LVU142
 431 0006 205C     		ldrb	r0, [r4, r0]
 432 0008 0128     		cmp	r0, #1
 433 000a 1ED0     		beq	.L19
 302:Drivers/STM32L0xx_HAL_Driver/Src/stm32l0xx_hal_dma.c **** 
 434              		.loc 1 302 3 is_stmt 1 discriminator 2 view .LVU143
 435 000c 2420     		movs	r0, #36
 436 000e 0125     		movs	r5, #1
 437 0010 2554     		strb	r5, [r4, r0]
 304:Drivers/STM32L0xx_HAL_Driver/Src/stm32l0xx_hal_dma.c ****   {
 438              		.loc 1 304 3 discriminator 2 view .LVU144
 304:Drivers/STM32L0xx_HAL_Driver/Src/stm32l0xx_hal_dma.c ****   {
 439              		.loc 1 304 33 is_stmt 0 discriminator 2 view .LVU145
 440 0012 0130     		adds	r0, r0, #1
ARM GAS  /tmp/ccelyxFt.s 			page 26


 441 0014 205C     		ldrb	r0, [r4, r0]
 304:Drivers/STM32L0xx_HAL_Driver/Src/stm32l0xx_hal_dma.c ****   {
 442              		.loc 1 304 5 discriminator 2 view .LVU146
 443 0016 0128     		cmp	r0, #1
 444 0018 04D0     		beq	.L20
 322:Drivers/STM32L0xx_HAL_Driver/Src/stm32l0xx_hal_dma.c ****     status = HAL_BUSY;
 445              		.loc 1 322 5 is_stmt 1 view .LVU147
 322:Drivers/STM32L0xx_HAL_Driver/Src/stm32l0xx_hal_dma.c ****     status = HAL_BUSY;
 446              		.loc 1 322 5 view .LVU148
 447 001a 2423     		movs	r3, #36
 448              	.LVL25:
 322:Drivers/STM32L0xx_HAL_Driver/Src/stm32l0xx_hal_dma.c ****     status = HAL_BUSY;
 449              		.loc 1 322 5 is_stmt 0 view .LVU149
 450 001c 0022     		movs	r2, #0
 451              	.LVL26:
 322:Drivers/STM32L0xx_HAL_Driver/Src/stm32l0xx_hal_dma.c ****     status = HAL_BUSY;
 452              		.loc 1 322 5 view .LVU150
 453 001e E254     		strb	r2, [r4, r3]
 323:Drivers/STM32L0xx_HAL_Driver/Src/stm32l0xx_hal_dma.c ****   }
 454              		.loc 1 323 5 is_stmt 1 view .LVU151
 455              	.LVL27:
 323:Drivers/STM32L0xx_HAL_Driver/Src/stm32l0xx_hal_dma.c ****   }
 456              		.loc 1 323 12 is_stmt 0 view .LVU152
 457 0020 0220     		movs	r0, #2
 458              	.LVL28:
 459              	.L17:
 326:Drivers/STM32L0xx_HAL_Driver/Src/stm32l0xx_hal_dma.c **** 
 460              		.loc 1 326 1 view .LVU153
 461              		@ sp needed
 462              	.LVL29:
 326:Drivers/STM32L0xx_HAL_Driver/Src/stm32l0xx_hal_dma.c **** 
 463              		.loc 1 326 1 view .LVU154
 464 0022 70BD     		pop	{r4, r5, r6, pc}
 465              	.LVL30:
 466              	.L20:
 307:Drivers/STM32L0xx_HAL_Driver/Src/stm32l0xx_hal_dma.c ****     hdma->ErrorCode = HAL_DMA_ERROR_NONE;
 467              		.loc 1 307 5 is_stmt 1 view .LVU155
 307:Drivers/STM32L0xx_HAL_Driver/Src/stm32l0xx_hal_dma.c ****     hdma->ErrorCode = HAL_DMA_ERROR_NONE;
 468              		.loc 1 307 17 is_stmt 0 view .LVU156
 469 0024 2430     		adds	r0, r0, #36
 470 0026 0135     		adds	r5, r5, #1
 471 0028 2554     		strb	r5, [r4, r0]
 308:Drivers/STM32L0xx_HAL_Driver/Src/stm32l0xx_hal_dma.c **** 
 472              		.loc 1 308 5 is_stmt 1 view .LVU157
 308:Drivers/STM32L0xx_HAL_Driver/Src/stm32l0xx_hal_dma.c **** 
 473              		.loc 1 308 21 is_stmt 0 view .LVU158
 474 002a 0020     		movs	r0, #0
 475 002c E063     		str	r0, [r4, #60]
 311:Drivers/STM32L0xx_HAL_Driver/Src/stm32l0xx_hal_dma.c **** 
 476              		.loc 1 311 5 is_stmt 1 view .LVU159
 477 002e 2668     		ldr	r6, [r4]
 478 0030 3068     		ldr	r0, [r6]
 479 0032 013D     		subs	r5, r5, #1
 480 0034 A843     		bics	r0, r5
 481 0036 3060     		str	r0, [r6]
 314:Drivers/STM32L0xx_HAL_Driver/Src/stm32l0xx_hal_dma.c **** 
 482              		.loc 1 314 5 view .LVU160
ARM GAS  /tmp/ccelyxFt.s 			page 27


 483 0038 2000     		movs	r0, r4
 484 003a FFF7FEFF 		bl	DMA_SetConfig
 485              	.LVL31:
 317:Drivers/STM32L0xx_HAL_Driver/Src/stm32l0xx_hal_dma.c ****   }
 486              		.loc 1 317 5 view .LVU161
 487 003e 2268     		ldr	r2, [r4]
 488 0040 1368     		ldr	r3, [r2]
 489 0042 2B43     		orrs	r3, r5
 490 0044 1360     		str	r3, [r2]
 296:Drivers/STM32L0xx_HAL_Driver/Src/stm32l0xx_hal_dma.c **** 
 491              		.loc 1 296 21 is_stmt 0 view .LVU162
 492 0046 0020     		movs	r0, #0
 493 0048 EBE7     		b	.L17
 494              	.LVL32:
 495              	.L19:
 302:Drivers/STM32L0xx_HAL_Driver/Src/stm32l0xx_hal_dma.c **** 
 496              		.loc 1 302 3 view .LVU163
 497 004a 0220     		movs	r0, #2
 498 004c E9E7     		b	.L17
 499              		.cfi_endproc
 500              	.LFE36:
 502              		.section	.text.HAL_DMA_Start_IT,"ax",%progbits
 503              		.align	1
 504              		.global	HAL_DMA_Start_IT
 505              		.syntax unified
 506              		.code	16
 507              		.thumb_func
 508              		.fpu softvfp
 510              	HAL_DMA_Start_IT:
 511              	.LVL33:
 512              	.LFB37:
 338:Drivers/STM32L0xx_HAL_Driver/Src/stm32l0xx_hal_dma.c ****   HAL_StatusTypeDef status = HAL_OK;
 513              		.loc 1 338 1 is_stmt 1 view -0
 514              		.cfi_startproc
 515              		@ args = 0, pretend = 0, frame = 0
 516              		@ frame_needed = 0, uses_anonymous_args = 0
 338:Drivers/STM32L0xx_HAL_Driver/Src/stm32l0xx_hal_dma.c ****   HAL_StatusTypeDef status = HAL_OK;
 517              		.loc 1 338 1 is_stmt 0 view .LVU165
 518 0000 70B5     		push	{r4, r5, r6, lr}
 519              	.LCFI4:
 520              		.cfi_def_cfa_offset 16
 521              		.cfi_offset 4, -16
 522              		.cfi_offset 5, -12
 523              		.cfi_offset 6, -8
 524              		.cfi_offset 14, -4
 525 0002 0400     		movs	r4, r0
 339:Drivers/STM32L0xx_HAL_Driver/Src/stm32l0xx_hal_dma.c **** 
 526              		.loc 1 339 3 is_stmt 1 view .LVU166
 527              	.LVL34:
 342:Drivers/STM32L0xx_HAL_Driver/Src/stm32l0xx_hal_dma.c **** 
 528              		.loc 1 342 3 view .LVU167
 345:Drivers/STM32L0xx_HAL_Driver/Src/stm32l0xx_hal_dma.c **** 
 529              		.loc 1 345 3 view .LVU168
 345:Drivers/STM32L0xx_HAL_Driver/Src/stm32l0xx_hal_dma.c **** 
 530              		.loc 1 345 3 view .LVU169
 531 0004 2420     		movs	r0, #36
 532              	.LVL35:
ARM GAS  /tmp/ccelyxFt.s 			page 28


 345:Drivers/STM32L0xx_HAL_Driver/Src/stm32l0xx_hal_dma.c **** 
 533              		.loc 1 345 3 is_stmt 0 view .LVU170
 534 0006 205C     		ldrb	r0, [r4, r0]
 535 0008 0128     		cmp	r0, #1
 536 000a 32D0     		beq	.L26
 345:Drivers/STM32L0xx_HAL_Driver/Src/stm32l0xx_hal_dma.c **** 
 537              		.loc 1 345 3 is_stmt 1 discriminator 2 view .LVU171
 538 000c 2420     		movs	r0, #36
 539 000e 0125     		movs	r5, #1
 540 0010 2554     		strb	r5, [r4, r0]
 347:Drivers/STM32L0xx_HAL_Driver/Src/stm32l0xx_hal_dma.c ****   {
 541              		.loc 1 347 3 discriminator 2 view .LVU172
 347:Drivers/STM32L0xx_HAL_Driver/Src/stm32l0xx_hal_dma.c ****   {
 542              		.loc 1 347 33 is_stmt 0 discriminator 2 view .LVU173
 543 0012 0130     		adds	r0, r0, #1
 544 0014 205C     		ldrb	r0, [r4, r0]
 347:Drivers/STM32L0xx_HAL_Driver/Src/stm32l0xx_hal_dma.c ****   {
 545              		.loc 1 347 5 discriminator 2 view .LVU174
 546 0016 0128     		cmp	r0, #1
 547 0018 04D0     		beq	.L27
 378:Drivers/STM32L0xx_HAL_Driver/Src/stm32l0xx_hal_dma.c **** 
 548              		.loc 1 378 5 is_stmt 1 view .LVU175
 378:Drivers/STM32L0xx_HAL_Driver/Src/stm32l0xx_hal_dma.c **** 
 549              		.loc 1 378 5 view .LVU176
 550 001a 2423     		movs	r3, #36
 551              	.LVL36:
 378:Drivers/STM32L0xx_HAL_Driver/Src/stm32l0xx_hal_dma.c **** 
 552              		.loc 1 378 5 is_stmt 0 view .LVU177
 553 001c 0022     		movs	r2, #0
 554              	.LVL37:
 378:Drivers/STM32L0xx_HAL_Driver/Src/stm32l0xx_hal_dma.c **** 
 555              		.loc 1 378 5 view .LVU178
 556 001e E254     		strb	r2, [r4, r3]
 381:Drivers/STM32L0xx_HAL_Driver/Src/stm32l0xx_hal_dma.c ****   }
 557              		.loc 1 381 5 is_stmt 1 view .LVU179
 558              	.LVL38:
 381:Drivers/STM32L0xx_HAL_Driver/Src/stm32l0xx_hal_dma.c ****   }
 559              		.loc 1 381 12 is_stmt 0 view .LVU180
 560 0020 0220     		movs	r0, #2
 561              	.LVL39:
 562              	.L22:
 384:Drivers/STM32L0xx_HAL_Driver/Src/stm32l0xx_hal_dma.c **** 
 563              		.loc 1 384 1 view .LVU181
 564              		@ sp needed
 565              	.LVL40:
 384:Drivers/STM32L0xx_HAL_Driver/Src/stm32l0xx_hal_dma.c **** 
 566              		.loc 1 384 1 view .LVU182
 567 0022 70BD     		pop	{r4, r5, r6, pc}
 568              	.LVL41:
 569              	.L27:
 350:Drivers/STM32L0xx_HAL_Driver/Src/stm32l0xx_hal_dma.c ****     hdma->ErrorCode = HAL_DMA_ERROR_NONE;
 570              		.loc 1 350 5 is_stmt 1 view .LVU183
 350:Drivers/STM32L0xx_HAL_Driver/Src/stm32l0xx_hal_dma.c ****     hdma->ErrorCode = HAL_DMA_ERROR_NONE;
 571              		.loc 1 350 17 is_stmt 0 view .LVU184
 572 0024 2430     		adds	r0, r0, #36
 573 0026 0135     		adds	r5, r5, #1
 574 0028 2554     		strb	r5, [r4, r0]
ARM GAS  /tmp/ccelyxFt.s 			page 29


 351:Drivers/STM32L0xx_HAL_Driver/Src/stm32l0xx_hal_dma.c **** 
 575              		.loc 1 351 5 is_stmt 1 view .LVU185
 351:Drivers/STM32L0xx_HAL_Driver/Src/stm32l0xx_hal_dma.c **** 
 576              		.loc 1 351 21 is_stmt 0 view .LVU186
 577 002a 0020     		movs	r0, #0
 578 002c E063     		str	r0, [r4, #60]
 354:Drivers/STM32L0xx_HAL_Driver/Src/stm32l0xx_hal_dma.c **** 
 579              		.loc 1 354 5 is_stmt 1 view .LVU187
 580 002e 2568     		ldr	r5, [r4]
 581 0030 2868     		ldr	r0, [r5]
 582 0032 0126     		movs	r6, #1
 583 0034 B043     		bics	r0, r6
 584 0036 2860     		str	r0, [r5]
 357:Drivers/STM32L0xx_HAL_Driver/Src/stm32l0xx_hal_dma.c **** 
 585              		.loc 1 357 5 view .LVU188
 586 0038 2000     		movs	r0, r4
 587 003a FFF7FEFF 		bl	DMA_SetConfig
 588              	.LVL42:
 361:Drivers/STM32L0xx_HAL_Driver/Src/stm32l0xx_hal_dma.c ****     {
 589              		.loc 1 361 5 view .LVU189
 361:Drivers/STM32L0xx_HAL_Driver/Src/stm32l0xx_hal_dma.c ****     {
 590              		.loc 1 361 7 is_stmt 0 view .LVU190
 591 003e 236B     		ldr	r3, [r4, #48]
 592 0040 002B     		cmp	r3, #0
 593 0042 0BD0     		beq	.L24
 364:Drivers/STM32L0xx_HAL_Driver/Src/stm32l0xx_hal_dma.c ****     }
 594              		.loc 1 364 7 is_stmt 1 view .LVU191
 595 0044 2268     		ldr	r2, [r4]
 596 0046 1368     		ldr	r3, [r2]
 597 0048 0E21     		movs	r1, #14
 598 004a 0B43     		orrs	r3, r1
 599 004c 1360     		str	r3, [r2]
 600              	.L25:
 373:Drivers/STM32L0xx_HAL_Driver/Src/stm32l0xx_hal_dma.c ****   }
 601              		.loc 1 373 5 view .LVU192
 602 004e 2268     		ldr	r2, [r4]
 603 0050 1368     		ldr	r3, [r2]
 604 0052 0121     		movs	r1, #1
 605 0054 0B43     		orrs	r3, r1
 606 0056 1360     		str	r3, [r2]
 339:Drivers/STM32L0xx_HAL_Driver/Src/stm32l0xx_hal_dma.c **** 
 607              		.loc 1 339 21 is_stmt 0 view .LVU193
 608 0058 0020     		movs	r0, #0
 609 005a E2E7     		b	.L22
 610              	.L24:
 368:Drivers/STM32L0xx_HAL_Driver/Src/stm32l0xx_hal_dma.c ****       __HAL_DMA_ENABLE_IT(hdma, (DMA_IT_TC | DMA_IT_TE));
 611              		.loc 1 368 7 is_stmt 1 view .LVU194
 612 005c 2268     		ldr	r2, [r4]
 613 005e 1368     		ldr	r3, [r2]
 614 0060 0421     		movs	r1, #4
 615 0062 8B43     		bics	r3, r1
 616 0064 1360     		str	r3, [r2]
 369:Drivers/STM32L0xx_HAL_Driver/Src/stm32l0xx_hal_dma.c ****     }
 617              		.loc 1 369 7 view .LVU195
 618 0066 2268     		ldr	r2, [r4]
 619 0068 1368     		ldr	r3, [r2]
 620 006a 0631     		adds	r1, r1, #6
ARM GAS  /tmp/ccelyxFt.s 			page 30


 621 006c 0B43     		orrs	r3, r1
 622 006e 1360     		str	r3, [r2]
 623 0070 EDE7     		b	.L25
 624              	.LVL43:
 625              	.L26:
 345:Drivers/STM32L0xx_HAL_Driver/Src/stm32l0xx_hal_dma.c **** 
 626              		.loc 1 345 3 is_stmt 0 view .LVU196
 627 0072 0220     		movs	r0, #2
 628 0074 D5E7     		b	.L22
 629              		.cfi_endproc
 630              	.LFE37:
 632              		.section	.text.HAL_DMA_Abort,"ax",%progbits
 633              		.align	1
 634              		.global	HAL_DMA_Abort
 635              		.syntax unified
 636              		.code	16
 637              		.thumb_func
 638              		.fpu softvfp
 640              	HAL_DMA_Abort:
 641              	.LVL44:
 642              	.LFB38:
 393:Drivers/STM32L0xx_HAL_Driver/Src/stm32l0xx_hal_dma.c ****   HAL_StatusTypeDef status = HAL_OK;
 643              		.loc 1 393 1 is_stmt 1 view -0
 644              		.cfi_startproc
 645              		@ args = 0, pretend = 0, frame = 0
 646              		@ frame_needed = 0, uses_anonymous_args = 0
 393:Drivers/STM32L0xx_HAL_Driver/Src/stm32l0xx_hal_dma.c ****   HAL_StatusTypeDef status = HAL_OK;
 647              		.loc 1 393 1 is_stmt 0 view .LVU198
 648 0000 10B5     		push	{r4, lr}
 649              	.LCFI5:
 650              		.cfi_def_cfa_offset 8
 651              		.cfi_offset 4, -8
 652              		.cfi_offset 14, -4
 394:Drivers/STM32L0xx_HAL_Driver/Src/stm32l0xx_hal_dma.c **** 
 653              		.loc 1 394 3 is_stmt 1 view .LVU199
 654              	.LVL45:
 397:Drivers/STM32L0xx_HAL_Driver/Src/stm32l0xx_hal_dma.c ****   {
 655              		.loc 1 397 3 view .LVU200
 397:Drivers/STM32L0xx_HAL_Driver/Src/stm32l0xx_hal_dma.c ****   {
 656              		.loc 1 397 10 is_stmt 0 view .LVU201
 657 0002 2523     		movs	r3, #37
 658 0004 C35C     		ldrb	r3, [r0, r3]
 397:Drivers/STM32L0xx_HAL_Driver/Src/stm32l0xx_hal_dma.c ****   {
 659              		.loc 1 397 5 view .LVU202
 660 0006 022B     		cmp	r3, #2
 661 0008 06D0     		beq	.L29
 399:Drivers/STM32L0xx_HAL_Driver/Src/stm32l0xx_hal_dma.c **** 
 662              		.loc 1 399 5 is_stmt 1 view .LVU203
 399:Drivers/STM32L0xx_HAL_Driver/Src/stm32l0xx_hal_dma.c **** 
 663              		.loc 1 399 21 is_stmt 0 view .LVU204
 664 000a 0423     		movs	r3, #4
 665 000c C363     		str	r3, [r0, #60]
 402:Drivers/STM32L0xx_HAL_Driver/Src/stm32l0xx_hal_dma.c **** 
 666              		.loc 1 402 5 is_stmt 1 view .LVU205
 402:Drivers/STM32L0xx_HAL_Driver/Src/stm32l0xx_hal_dma.c **** 
 667              		.loc 1 402 5 view .LVU206
 668 000e 2033     		adds	r3, r3, #32
ARM GAS  /tmp/ccelyxFt.s 			page 31


 669 0010 0022     		movs	r2, #0
 670 0012 C254     		strb	r2, [r0, r3]
 404:Drivers/STM32L0xx_HAL_Driver/Src/stm32l0xx_hal_dma.c ****   }
 671              		.loc 1 404 5 view .LVU207
 404:Drivers/STM32L0xx_HAL_Driver/Src/stm32l0xx_hal_dma.c ****   }
 672              		.loc 1 404 12 is_stmt 0 view .LVU208
 673 0014 0120     		movs	r0, #1
 674              	.LVL46:
 675              	.L30:
 425:Drivers/STM32L0xx_HAL_Driver/Src/stm32l0xx_hal_dma.c **** 
 676              		.loc 1 425 1 view .LVU209
 677              		@ sp needed
 678 0016 10BD     		pop	{r4, pc}
 679              	.LVL47:
 680              	.L29:
 409:Drivers/STM32L0xx_HAL_Driver/Src/stm32l0xx_hal_dma.c **** 
 681              		.loc 1 409 5 is_stmt 1 view .LVU210
 682 0018 0268     		ldr	r2, [r0]
 683 001a 1368     		ldr	r3, [r2]
 684 001c 0E21     		movs	r1, #14
 685 001e 8B43     		bics	r3, r1
 686 0020 1360     		str	r3, [r2]
 412:Drivers/STM32L0xx_HAL_Driver/Src/stm32l0xx_hal_dma.c **** 
 687              		.loc 1 412 5 view .LVU211
 688 0022 0168     		ldr	r1, [r0]
 689 0024 0A68     		ldr	r2, [r1]
 690 0026 0123     		movs	r3, #1
 691 0028 9A43     		bics	r2, r3
 692 002a 0A60     		str	r2, [r1]
 415:Drivers/STM32L0xx_HAL_Driver/Src/stm32l0xx_hal_dma.c **** 
 693              		.loc 1 415 5 view .LVU212
 415:Drivers/STM32L0xx_HAL_Driver/Src/stm32l0xx_hal_dma.c **** 
 694              		.loc 1 415 71 is_stmt 0 view .LVU213
 695 002c 1C22     		movs	r2, #28
 696 002e 416C     		ldr	r1, [r0, #68]
 697 0030 0A40     		ands	r2, r1
 415:Drivers/STM32L0xx_HAL_Driver/Src/stm32l0xx_hal_dma.c **** 
 698              		.loc 1 415 9 view .LVU214
 699 0032 016C     		ldr	r1, [r0, #64]
 415:Drivers/STM32L0xx_HAL_Driver/Src/stm32l0xx_hal_dma.c **** 
 700              		.loc 1 415 48 view .LVU215
 701 0034 1C00     		movs	r4, r3
 702 0036 9440     		lsls	r4, r4, r2
 415:Drivers/STM32L0xx_HAL_Driver/Src/stm32l0xx_hal_dma.c **** 
 703              		.loc 1 415 32 view .LVU216
 704 0038 4C60     		str	r4, [r1, #4]
 418:Drivers/STM32L0xx_HAL_Driver/Src/stm32l0xx_hal_dma.c **** 
 705              		.loc 1 418 5 is_stmt 1 view .LVU217
 418:Drivers/STM32L0xx_HAL_Driver/Src/stm32l0xx_hal_dma.c **** 
 706              		.loc 1 418 17 is_stmt 0 view .LVU218
 707 003a 2522     		movs	r2, #37
 708 003c 8354     		strb	r3, [r0, r2]
 421:Drivers/STM32L0xx_HAL_Driver/Src/stm32l0xx_hal_dma.c **** 
 709              		.loc 1 421 5 is_stmt 1 view .LVU219
 421:Drivers/STM32L0xx_HAL_Driver/Src/stm32l0xx_hal_dma.c **** 
 710              		.loc 1 421 5 view .LVU220
 711 003e 2333     		adds	r3, r3, #35
ARM GAS  /tmp/ccelyxFt.s 			page 32


 712 0040 0022     		movs	r2, #0
 713 0042 C254     		strb	r2, [r0, r3]
 423:Drivers/STM32L0xx_HAL_Driver/Src/stm32l0xx_hal_dma.c ****   }
 714              		.loc 1 423 5 view .LVU221
 423:Drivers/STM32L0xx_HAL_Driver/Src/stm32l0xx_hal_dma.c ****   }
 715              		.loc 1 423 12 is_stmt 0 view .LVU222
 716 0044 0020     		movs	r0, #0
 717              	.LVL48:
 423:Drivers/STM32L0xx_HAL_Driver/Src/stm32l0xx_hal_dma.c ****   }
 718              		.loc 1 423 12 view .LVU223
 719 0046 E6E7     		b	.L30
 720              		.cfi_endproc
 721              	.LFE38:
 723              		.section	.text.HAL_DMA_Abort_IT,"ax",%progbits
 724              		.align	1
 725              		.global	HAL_DMA_Abort_IT
 726              		.syntax unified
 727              		.code	16
 728              		.thumb_func
 729              		.fpu softvfp
 731              	HAL_DMA_Abort_IT:
 732              	.LVL49:
 733              	.LFB39:
 434:Drivers/STM32L0xx_HAL_Driver/Src/stm32l0xx_hal_dma.c ****   HAL_StatusTypeDef status = HAL_OK;
 734              		.loc 1 434 1 is_stmt 1 view -0
 735              		.cfi_startproc
 736              		@ args = 0, pretend = 0, frame = 0
 737              		@ frame_needed = 0, uses_anonymous_args = 0
 434:Drivers/STM32L0xx_HAL_Driver/Src/stm32l0xx_hal_dma.c ****   HAL_StatusTypeDef status = HAL_OK;
 738              		.loc 1 434 1 is_stmt 0 view .LVU225
 739 0000 10B5     		push	{r4, lr}
 740              	.LCFI6:
 741              		.cfi_def_cfa_offset 8
 742              		.cfi_offset 4, -8
 743              		.cfi_offset 14, -4
 435:Drivers/STM32L0xx_HAL_Driver/Src/stm32l0xx_hal_dma.c **** 
 744              		.loc 1 435 3 is_stmt 1 view .LVU226
 745              	.LVL50:
 437:Drivers/STM32L0xx_HAL_Driver/Src/stm32l0xx_hal_dma.c ****   {
 746              		.loc 1 437 3 view .LVU227
 437:Drivers/STM32L0xx_HAL_Driver/Src/stm32l0xx_hal_dma.c ****   {
 747              		.loc 1 437 32 is_stmt 0 view .LVU228
 748 0002 2523     		movs	r3, #37
 749 0004 C35C     		ldrb	r3, [r0, r3]
 437:Drivers/STM32L0xx_HAL_Driver/Src/stm32l0xx_hal_dma.c ****   {
 750              		.loc 1 437 5 view .LVU229
 751 0006 022B     		cmp	r3, #2
 752 0008 03D0     		beq	.L32
 440:Drivers/STM32L0xx_HAL_Driver/Src/stm32l0xx_hal_dma.c **** 
 753              		.loc 1 440 5 is_stmt 1 view .LVU230
 440:Drivers/STM32L0xx_HAL_Driver/Src/stm32l0xx_hal_dma.c **** 
 754              		.loc 1 440 21 is_stmt 0 view .LVU231
 755 000a 0423     		movs	r3, #4
 756 000c C363     		str	r3, [r0, #60]
 442:Drivers/STM32L0xx_HAL_Driver/Src/stm32l0xx_hal_dma.c ****   }
 757              		.loc 1 442 5 is_stmt 1 view .LVU232
 758              	.LVL51:
ARM GAS  /tmp/ccelyxFt.s 			page 33


 442:Drivers/STM32L0xx_HAL_Driver/Src/stm32l0xx_hal_dma.c ****   }
 759              		.loc 1 442 12 is_stmt 0 view .LVU233
 760 000e 0120     		movs	r0, #1
 761              	.LVL52:
 762              	.L33:
 467:Drivers/STM32L0xx_HAL_Driver/Src/stm32l0xx_hal_dma.c **** }
 763              		.loc 1 467 3 is_stmt 1 view .LVU234
 468:Drivers/STM32L0xx_HAL_Driver/Src/stm32l0xx_hal_dma.c **** 
 764              		.loc 1 468 1 is_stmt 0 view .LVU235
 765              		@ sp needed
 766 0010 10BD     		pop	{r4, pc}
 767              	.LVL53:
 768              	.L32:
 447:Drivers/STM32L0xx_HAL_Driver/Src/stm32l0xx_hal_dma.c **** 
 769              		.loc 1 447 5 is_stmt 1 view .LVU236
 770 0012 0268     		ldr	r2, [r0]
 771 0014 1368     		ldr	r3, [r2]
 772 0016 0E21     		movs	r1, #14
 773 0018 8B43     		bics	r3, r1
 774 001a 1360     		str	r3, [r2]
 450:Drivers/STM32L0xx_HAL_Driver/Src/stm32l0xx_hal_dma.c **** 
 775              		.loc 1 450 5 view .LVU237
 776 001c 0168     		ldr	r1, [r0]
 777 001e 0A68     		ldr	r2, [r1]
 778 0020 0123     		movs	r3, #1
 779 0022 9A43     		bics	r2, r3
 780 0024 0A60     		str	r2, [r1]
 453:Drivers/STM32L0xx_HAL_Driver/Src/stm32l0xx_hal_dma.c **** 
 781              		.loc 1 453 5 view .LVU238
 453:Drivers/STM32L0xx_HAL_Driver/Src/stm32l0xx_hal_dma.c **** 
 782              		.loc 1 453 71 is_stmt 0 view .LVU239
 783 0026 1C22     		movs	r2, #28
 784 0028 416C     		ldr	r1, [r0, #68]
 785 002a 0A40     		ands	r2, r1
 453:Drivers/STM32L0xx_HAL_Driver/Src/stm32l0xx_hal_dma.c **** 
 786              		.loc 1 453 9 view .LVU240
 787 002c 016C     		ldr	r1, [r0, #64]
 453:Drivers/STM32L0xx_HAL_Driver/Src/stm32l0xx_hal_dma.c **** 
 788              		.loc 1 453 48 view .LVU241
 789 002e 1C00     		movs	r4, r3
 790 0030 9440     		lsls	r4, r4, r2
 453:Drivers/STM32L0xx_HAL_Driver/Src/stm32l0xx_hal_dma.c **** 
 791              		.loc 1 453 32 view .LVU242
 792 0032 4C60     		str	r4, [r1, #4]
 456:Drivers/STM32L0xx_HAL_Driver/Src/stm32l0xx_hal_dma.c **** 
 793              		.loc 1 456 5 is_stmt 1 view .LVU243
 456:Drivers/STM32L0xx_HAL_Driver/Src/stm32l0xx_hal_dma.c **** 
 794              		.loc 1 456 17 is_stmt 0 view .LVU244
 795 0034 2522     		movs	r2, #37
 796 0036 8354     		strb	r3, [r0, r2]
 459:Drivers/STM32L0xx_HAL_Driver/Src/stm32l0xx_hal_dma.c **** 
 797              		.loc 1 459 5 is_stmt 1 view .LVU245
 459:Drivers/STM32L0xx_HAL_Driver/Src/stm32l0xx_hal_dma.c **** 
 798              		.loc 1 459 5 view .LVU246
 799 0038 2333     		adds	r3, r3, #35
 800 003a 0022     		movs	r2, #0
 801 003c C254     		strb	r2, [r0, r3]
ARM GAS  /tmp/ccelyxFt.s 			page 34


 462:Drivers/STM32L0xx_HAL_Driver/Src/stm32l0xx_hal_dma.c ****     {
 802              		.loc 1 462 5 view .LVU247
 462:Drivers/STM32L0xx_HAL_Driver/Src/stm32l0xx_hal_dma.c ****     {
 803              		.loc 1 462 12 is_stmt 0 view .LVU248
 804 003e 836B     		ldr	r3, [r0, #56]
 462:Drivers/STM32L0xx_HAL_Driver/Src/stm32l0xx_hal_dma.c ****     {
 805              		.loc 1 462 7 view .LVU249
 806 0040 002B     		cmp	r3, #0
 807 0042 02D0     		beq	.L34
 464:Drivers/STM32L0xx_HAL_Driver/Src/stm32l0xx_hal_dma.c ****     }
 808              		.loc 1 464 7 is_stmt 1 view .LVU250
 809 0044 9847     		blx	r3
 810              	.LVL54:
 435:Drivers/STM32L0xx_HAL_Driver/Src/stm32l0xx_hal_dma.c **** 
 811              		.loc 1 435 21 is_stmt 0 view .LVU251
 812 0046 0020     		movs	r0, #0
 813 0048 E2E7     		b	.L33
 814              	.LVL55:
 815              	.L34:
 435:Drivers/STM32L0xx_HAL_Driver/Src/stm32l0xx_hal_dma.c **** 
 816              		.loc 1 435 21 view .LVU252
 817 004a 0020     		movs	r0, #0
 818              	.LVL56:
 435:Drivers/STM32L0xx_HAL_Driver/Src/stm32l0xx_hal_dma.c **** 
 819              		.loc 1 435 21 view .LVU253
 820 004c E0E7     		b	.L33
 821              		.cfi_endproc
 822              	.LFE39:
 824              		.section	.text.HAL_DMA_PollForTransfer,"ax",%progbits
 825              		.align	1
 826              		.global	HAL_DMA_PollForTransfer
 827              		.syntax unified
 828              		.code	16
 829              		.thumb_func
 830              		.fpu softvfp
 832              	HAL_DMA_PollForTransfer:
 833              	.LVL57:
 834              	.LFB40:
 479:Drivers/STM32L0xx_HAL_Driver/Src/stm32l0xx_hal_dma.c ****   uint32_t temp;
 835              		.loc 1 479 1 is_stmt 1 view -0
 836              		.cfi_startproc
 837              		@ args = 0, pretend = 0, frame = 8
 838              		@ frame_needed = 0, uses_anonymous_args = 0
 479:Drivers/STM32L0xx_HAL_Driver/Src/stm32l0xx_hal_dma.c ****   uint32_t temp;
 839              		.loc 1 479 1 is_stmt 0 view .LVU255
 840 0000 F0B5     		push	{r4, r5, r6, r7, lr}
 841              	.LCFI7:
 842              		.cfi_def_cfa_offset 20
 843              		.cfi_offset 4, -20
 844              		.cfi_offset 5, -16
 845              		.cfi_offset 6, -12
 846              		.cfi_offset 7, -8
 847              		.cfi_offset 14, -4
 848 0002 83B0     		sub	sp, sp, #12
 849              	.LCFI8:
 850              		.cfi_def_cfa_offset 32
 851 0004 0600     		movs	r6, r0
ARM GAS  /tmp/ccelyxFt.s 			page 35


 852 0006 0C00     		movs	r4, r1
 853 0008 1700     		movs	r7, r2
 480:Drivers/STM32L0xx_HAL_Driver/Src/stm32l0xx_hal_dma.c ****   uint32_t tickstart;
 854              		.loc 1 480 3 is_stmt 1 view .LVU256
 481:Drivers/STM32L0xx_HAL_Driver/Src/stm32l0xx_hal_dma.c **** 
 855              		.loc 1 481 3 view .LVU257
 483:Drivers/STM32L0xx_HAL_Driver/Src/stm32l0xx_hal_dma.c ****   {
 856              		.loc 1 483 3 view .LVU258
 483:Drivers/STM32L0xx_HAL_Driver/Src/stm32l0xx_hal_dma.c ****   {
 857              		.loc 1 483 32 is_stmt 0 view .LVU259
 858 000a 2523     		movs	r3, #37
 859 000c C35C     		ldrb	r3, [r0, r3]
 483:Drivers/STM32L0xx_HAL_Driver/Src/stm32l0xx_hal_dma.c ****   {
 860              		.loc 1 483 5 view .LVU260
 861 000e 022B     		cmp	r3, #2
 862 0010 07D0     		beq	.L36
 486:Drivers/STM32L0xx_HAL_Driver/Src/stm32l0xx_hal_dma.c ****     __HAL_UNLOCK(hdma);
 863              		.loc 1 486 5 is_stmt 1 view .LVU261
 486:Drivers/STM32L0xx_HAL_Driver/Src/stm32l0xx_hal_dma.c ****     __HAL_UNLOCK(hdma);
 864              		.loc 1 486 21 is_stmt 0 view .LVU262
 865 0012 0423     		movs	r3, #4
 866 0014 C363     		str	r3, [r0, #60]
 487:Drivers/STM32L0xx_HAL_Driver/Src/stm32l0xx_hal_dma.c ****     return HAL_ERROR;
 867              		.loc 1 487 5 is_stmt 1 view .LVU263
 487:Drivers/STM32L0xx_HAL_Driver/Src/stm32l0xx_hal_dma.c ****     return HAL_ERROR;
 868              		.loc 1 487 5 view .LVU264
 869 0016 2033     		adds	r3, r3, #32
 870 0018 0022     		movs	r2, #0
 871              	.LVL58:
 487:Drivers/STM32L0xx_HAL_Driver/Src/stm32l0xx_hal_dma.c ****     return HAL_ERROR;
 872              		.loc 1 487 5 is_stmt 0 view .LVU265
 873 001a C254     		strb	r2, [r0, r3]
 488:Drivers/STM32L0xx_HAL_Driver/Src/stm32l0xx_hal_dma.c ****   }
 874              		.loc 1 488 5 is_stmt 1 view .LVU266
 488:Drivers/STM32L0xx_HAL_Driver/Src/stm32l0xx_hal_dma.c ****   }
 875              		.loc 1 488 12 is_stmt 0 view .LVU267
 876 001c 0120     		movs	r0, #1
 877              	.LVL59:
 878              	.L37:
 571:Drivers/STM32L0xx_HAL_Driver/Src/stm32l0xx_hal_dma.c **** 
 879              		.loc 1 571 1 view .LVU268
 880 001e 03B0     		add	sp, sp, #12
 881              		@ sp needed
 882              	.LVL60:
 883              	.LVL61:
 571:Drivers/STM32L0xx_HAL_Driver/Src/stm32l0xx_hal_dma.c **** 
 884              		.loc 1 571 1 view .LVU269
 885 0020 F0BD     		pop	{r4, r5, r6, r7, pc}
 886              	.LVL62:
 887              	.L36:
 492:Drivers/STM32L0xx_HAL_Driver/Src/stm32l0xx_hal_dma.c ****   {
 888              		.loc 1 492 3 is_stmt 1 view .LVU270
 492:Drivers/STM32L0xx_HAL_Driver/Src/stm32l0xx_hal_dma.c ****   {
 889              		.loc 1 492 18 is_stmt 0 view .LVU271
 890 0022 0368     		ldr	r3, [r0]
 492:Drivers/STM32L0xx_HAL_Driver/Src/stm32l0xx_hal_dma.c ****   {
 891              		.loc 1 492 28 view .LVU272
ARM GAS  /tmp/ccelyxFt.s 			page 36


 892 0024 1B68     		ldr	r3, [r3]
 492:Drivers/STM32L0xx_HAL_Driver/Src/stm32l0xx_hal_dma.c ****   {
 893              		.loc 1 492 6 view .LVU273
 894 0026 9B06     		lsls	r3, r3, #26
 895 0028 29D4     		bmi	.L48
 499:Drivers/STM32L0xx_HAL_Driver/Src/stm32l0xx_hal_dma.c ****   {
 896              		.loc 1 499 3 is_stmt 1 view .LVU274
 499:Drivers/STM32L0xx_HAL_Driver/Src/stm32l0xx_hal_dma.c ****   {
 897              		.loc 1 499 6 is_stmt 0 view .LVU275
 898 002a 0029     		cmp	r1, #0
 899 002c 2CD1     		bne	.L39
 502:Drivers/STM32L0xx_HAL_Driver/Src/stm32l0xx_hal_dma.c ****   }
 900              		.loc 1 502 5 is_stmt 1 view .LVU276
 502:Drivers/STM32L0xx_HAL_Driver/Src/stm32l0xx_hal_dma.c ****   }
 901              		.loc 1 502 48 is_stmt 0 view .LVU277
 902 002e 1C23     		movs	r3, #28
 903 0030 426C     		ldr	r2, [r0, #68]
 904              	.LVL63:
 502:Drivers/STM32L0xx_HAL_Driver/Src/stm32l0xx_hal_dma.c ****   }
 905              		.loc 1 502 48 view .LVU278
 906 0032 1340     		ands	r3, r2
 502:Drivers/STM32L0xx_HAL_Driver/Src/stm32l0xx_hal_dma.c ****   }
 907              		.loc 1 502 10 view .LVU279
 908 0034 0225     		movs	r5, #2
 909 0036 9D40     		lsls	r5, r5, r3
 910              	.LVL64:
 911              	.L40:
 511:Drivers/STM32L0xx_HAL_Driver/Src/stm32l0xx_hal_dma.c **** 
 912              		.loc 1 511 3 is_stmt 1 view .LVU280
 511:Drivers/STM32L0xx_HAL_Driver/Src/stm32l0xx_hal_dma.c **** 
 913              		.loc 1 511 15 is_stmt 0 view .LVU281
 914 0038 FFF7FEFF 		bl	HAL_GetTick
 915              	.LVL65:
 511:Drivers/STM32L0xx_HAL_Driver/Src/stm32l0xx_hal_dma.c **** 
 916              		.loc 1 511 15 view .LVU282
 917 003c 0190     		str	r0, [sp, #4]
 918              	.LVL66:
 513:Drivers/STM32L0xx_HAL_Driver/Src/stm32l0xx_hal_dma.c ****   {
 919              		.loc 1 513 3 is_stmt 1 view .LVU283
 920              	.L43:
 513:Drivers/STM32L0xx_HAL_Driver/Src/stm32l0xx_hal_dma.c ****   {
 921              		.loc 1 513 20 is_stmt 0 view .LVU284
 922 003e 326C     		ldr	r2, [r6, #64]
 513:Drivers/STM32L0xx_HAL_Driver/Src/stm32l0xx_hal_dma.c ****   {
 923              		.loc 1 513 36 view .LVU285
 924 0040 1368     		ldr	r3, [r2]
 513:Drivers/STM32L0xx_HAL_Driver/Src/stm32l0xx_hal_dma.c ****   {
 925              		.loc 1 513 8 view .LVU286
 926 0042 1D42     		tst	r5, r3
 927 0044 32D1     		bne	.L49
 515:Drivers/STM32L0xx_HAL_Driver/Src/stm32l0xx_hal_dma.c ****     {
 928              		.loc 1 515 5 is_stmt 1 view .LVU287
 515:Drivers/STM32L0xx_HAL_Driver/Src/stm32l0xx_hal_dma.c ****     {
 929              		.loc 1 515 36 is_stmt 0 view .LVU288
 930 0046 1068     		ldr	r0, [r2]
 515:Drivers/STM32L0xx_HAL_Driver/Src/stm32l0xx_hal_dma.c ****     {
 931              		.loc 1 515 80 view .LVU289
ARM GAS  /tmp/ccelyxFt.s 			page 37


 932 0048 1C23     		movs	r3, #28
 933 004a 716C     		ldr	r1, [r6, #68]
 934 004c 0B40     		ands	r3, r1
 515:Drivers/STM32L0xx_HAL_Driver/Src/stm32l0xx_hal_dma.c ****     {
 935              		.loc 1 515 58 view .LVU290
 936 004e 0821     		movs	r1, #8
 937 0050 9940     		lsls	r1, r1, r3
 515:Drivers/STM32L0xx_HAL_Driver/Src/stm32l0xx_hal_dma.c ****     {
 938              		.loc 1 515 7 view .LVU291
 939 0052 0142     		tst	r1, r0
 940 0054 1ED1     		bne	.L50
 534:Drivers/STM32L0xx_HAL_Driver/Src/stm32l0xx_hal_dma.c ****     {
 941              		.loc 1 534 5 is_stmt 1 view .LVU292
 534:Drivers/STM32L0xx_HAL_Driver/Src/stm32l0xx_hal_dma.c ****     {
 942              		.loc 1 534 7 is_stmt 0 view .LVU293
 943 0056 7B1C     		adds	r3, r7, #1
 944 0058 F1D0     		beq	.L43
 536:Drivers/STM32L0xx_HAL_Driver/Src/stm32l0xx_hal_dma.c ****       {
 945              		.loc 1 536 7 is_stmt 1 view .LVU294
 536:Drivers/STM32L0xx_HAL_Driver/Src/stm32l0xx_hal_dma.c ****       {
 946              		.loc 1 536 12 is_stmt 0 view .LVU295
 947 005a FFF7FEFF 		bl	HAL_GetTick
 948              	.LVL67:
 536:Drivers/STM32L0xx_HAL_Driver/Src/stm32l0xx_hal_dma.c ****       {
 949              		.loc 1 536 26 view .LVU296
 950 005e 019B     		ldr	r3, [sp, #4]
 951 0060 C01A     		subs	r0, r0, r3
 536:Drivers/STM32L0xx_HAL_Driver/Src/stm32l0xx_hal_dma.c ****       {
 952              		.loc 1 536 9 view .LVU297
 953 0062 B842     		cmp	r0, r7
 954 0064 01D8     		bhi	.L44
 536:Drivers/STM32L0xx_HAL_Driver/Src/stm32l0xx_hal_dma.c ****       {
 955              		.loc 1 536 50 discriminator 1 view .LVU298
 956 0066 002F     		cmp	r7, #0
 957 0068 E9D1     		bne	.L43
 958              	.L44:
 539:Drivers/STM32L0xx_HAL_Driver/Src/stm32l0xx_hal_dma.c **** 
 959              		.loc 1 539 9 is_stmt 1 view .LVU299
 539:Drivers/STM32L0xx_HAL_Driver/Src/stm32l0xx_hal_dma.c **** 
 960              		.loc 1 539 25 is_stmt 0 view .LVU300
 961 006a 2023     		movs	r3, #32
 962 006c F363     		str	r3, [r6, #60]
 542:Drivers/STM32L0xx_HAL_Driver/Src/stm32l0xx_hal_dma.c **** 
 963              		.loc 1 542 9 is_stmt 1 view .LVU301
 542:Drivers/STM32L0xx_HAL_Driver/Src/stm32l0xx_hal_dma.c **** 
 964              		.loc 1 542 21 is_stmt 0 view .LVU302
 965 006e 0533     		adds	r3, r3, #5
 966 0070 0122     		movs	r2, #1
 967 0072 F254     		strb	r2, [r6, r3]
 545:Drivers/STM32L0xx_HAL_Driver/Src/stm32l0xx_hal_dma.c **** 
 968              		.loc 1 545 9 is_stmt 1 view .LVU303
 545:Drivers/STM32L0xx_HAL_Driver/Src/stm32l0xx_hal_dma.c **** 
 969              		.loc 1 545 9 view .LVU304
 970 0074 013B     		subs	r3, r3, #1
 971 0076 0022     		movs	r2, #0
 972 0078 F254     		strb	r2, [r6, r3]
 547:Drivers/STM32L0xx_HAL_Driver/Src/stm32l0xx_hal_dma.c ****       }
ARM GAS  /tmp/ccelyxFt.s 			page 38


 973              		.loc 1 547 9 view .LVU305
 547:Drivers/STM32L0xx_HAL_Driver/Src/stm32l0xx_hal_dma.c ****       }
 974              		.loc 1 547 16 is_stmt 0 view .LVU306
 975 007a 0120     		movs	r0, #1
 976 007c CFE7     		b	.L37
 977              	.LVL68:
 978              	.L48:
 494:Drivers/STM32L0xx_HAL_Driver/Src/stm32l0xx_hal_dma.c ****     return HAL_ERROR;
 979              		.loc 1 494 5 is_stmt 1 view .LVU307
 494:Drivers/STM32L0xx_HAL_Driver/Src/stm32l0xx_hal_dma.c ****     return HAL_ERROR;
 980              		.loc 1 494 21 is_stmt 0 view .LVU308
 981 007e 8023     		movs	r3, #128
 982 0080 5B00     		lsls	r3, r3, #1
 983 0082 C363     		str	r3, [r0, #60]
 495:Drivers/STM32L0xx_HAL_Driver/Src/stm32l0xx_hal_dma.c ****   }
 984              		.loc 1 495 5 is_stmt 1 view .LVU309
 495:Drivers/STM32L0xx_HAL_Driver/Src/stm32l0xx_hal_dma.c ****   }
 985              		.loc 1 495 12 is_stmt 0 view .LVU310
 986 0084 0120     		movs	r0, #1
 987              	.LVL69:
 495:Drivers/STM32L0xx_HAL_Driver/Src/stm32l0xx_hal_dma.c ****   }
 988              		.loc 1 495 12 view .LVU311
 989 0086 CAE7     		b	.L37
 990              	.LVL70:
 991              	.L39:
 507:Drivers/STM32L0xx_HAL_Driver/Src/stm32l0xx_hal_dma.c ****   }
 992              		.loc 1 507 5 is_stmt 1 view .LVU312
 507:Drivers/STM32L0xx_HAL_Driver/Src/stm32l0xx_hal_dma.c ****   }
 993              		.loc 1 507 48 is_stmt 0 view .LVU313
 994 0088 1C23     		movs	r3, #28
 995 008a 426C     		ldr	r2, [r0, #68]
 996              	.LVL71:
 507:Drivers/STM32L0xx_HAL_Driver/Src/stm32l0xx_hal_dma.c ****   }
 997              		.loc 1 507 48 view .LVU314
 998 008c 1340     		ands	r3, r2
 507:Drivers/STM32L0xx_HAL_Driver/Src/stm32l0xx_hal_dma.c ****   }
 999              		.loc 1 507 10 view .LVU315
 1000 008e 0425     		movs	r5, #4
 1001 0090 9D40     		lsls	r5, r5, r3
 1002              	.LVL72:
 507:Drivers/STM32L0xx_HAL_Driver/Src/stm32l0xx_hal_dma.c ****   }
 1003              		.loc 1 507 10 view .LVU316
 1004 0092 D1E7     		b	.L40
 1005              	.LVL73:
 1006              	.L50:
 520:Drivers/STM32L0xx_HAL_Driver/Src/stm32l0xx_hal_dma.c **** 
 1007              		.loc 1 520 7 is_stmt 1 view .LVU317
 520:Drivers/STM32L0xx_HAL_Driver/Src/stm32l0xx_hal_dma.c **** 
 1008              		.loc 1 520 50 is_stmt 0 view .LVU318
 1009 0094 0121     		movs	r1, #1
 1010 0096 0800     		movs	r0, r1
 1011 0098 9840     		lsls	r0, r0, r3
 520:Drivers/STM32L0xx_HAL_Driver/Src/stm32l0xx_hal_dma.c **** 
 1012              		.loc 1 520 34 view .LVU319
 1013 009a 5060     		str	r0, [r2, #4]
 523:Drivers/STM32L0xx_HAL_Driver/Src/stm32l0xx_hal_dma.c **** 
 1014              		.loc 1 523 7 is_stmt 1 view .LVU320
ARM GAS  /tmp/ccelyxFt.s 			page 39


 523:Drivers/STM32L0xx_HAL_Driver/Src/stm32l0xx_hal_dma.c **** 
 1015              		.loc 1 523 23 is_stmt 0 view .LVU321
 1016 009c F163     		str	r1, [r6, #60]
 526:Drivers/STM32L0xx_HAL_Driver/Src/stm32l0xx_hal_dma.c **** 
 1017              		.loc 1 526 7 is_stmt 1 view .LVU322
 526:Drivers/STM32L0xx_HAL_Driver/Src/stm32l0xx_hal_dma.c **** 
 1018              		.loc 1 526 18 is_stmt 0 view .LVU323
 1019 009e 2523     		movs	r3, #37
 1020 00a0 F154     		strb	r1, [r6, r3]
 529:Drivers/STM32L0xx_HAL_Driver/Src/stm32l0xx_hal_dma.c **** 
 1021              		.loc 1 529 7 is_stmt 1 view .LVU324
 529:Drivers/STM32L0xx_HAL_Driver/Src/stm32l0xx_hal_dma.c **** 
 1022              		.loc 1 529 7 view .LVU325
 1023 00a2 013B     		subs	r3, r3, #1
 1024 00a4 0022     		movs	r2, #0
 1025 00a6 F254     		strb	r2, [r6, r3]
 531:Drivers/STM32L0xx_HAL_Driver/Src/stm32l0xx_hal_dma.c ****     }
 1026              		.loc 1 531 7 view .LVU326
 531:Drivers/STM32L0xx_HAL_Driver/Src/stm32l0xx_hal_dma.c ****     }
 1027              		.loc 1 531 14 is_stmt 0 view .LVU327
 1028 00a8 0120     		movs	r0, #1
 1029 00aa B8E7     		b	.L37
 1030              	.L49:
 552:Drivers/STM32L0xx_HAL_Driver/Src/stm32l0xx_hal_dma.c ****   {
 1031              		.loc 1 552 3 is_stmt 1 view .LVU328
 552:Drivers/STM32L0xx_HAL_Driver/Src/stm32l0xx_hal_dma.c ****   {
 1032              		.loc 1 552 5 is_stmt 0 view .LVU329
 1033 00ac 002C     		cmp	r4, #0
 1034 00ae 0DD1     		bne	.L46
 555:Drivers/STM32L0xx_HAL_Driver/Src/stm32l0xx_hal_dma.c **** 
 1035              		.loc 1 555 5 is_stmt 1 view .LVU330
 555:Drivers/STM32L0xx_HAL_Driver/Src/stm32l0xx_hal_dma.c **** 
 1036              		.loc 1 555 70 is_stmt 0 view .LVU331
 1037 00b0 1C21     		movs	r1, #28
 1038 00b2 736C     		ldr	r3, [r6, #68]
 1039 00b4 1940     		ands	r1, r3
 555:Drivers/STM32L0xx_HAL_Driver/Src/stm32l0xx_hal_dma.c **** 
 1040              		.loc 1 555 48 view .LVU332
 1041 00b6 0223     		movs	r3, #2
 1042 00b8 8B40     		lsls	r3, r3, r1
 555:Drivers/STM32L0xx_HAL_Driver/Src/stm32l0xx_hal_dma.c **** 
 1043              		.loc 1 555 32 view .LVU333
 1044 00ba 5360     		str	r3, [r2, #4]
 559:Drivers/STM32L0xx_HAL_Driver/Src/stm32l0xx_hal_dma.c ****   }
 1045              		.loc 1 559 5 is_stmt 1 view .LVU334
 559:Drivers/STM32L0xx_HAL_Driver/Src/stm32l0xx_hal_dma.c ****   }
 1046              		.loc 1 559 17 is_stmt 0 view .LVU335
 1047 00bc 2523     		movs	r3, #37
 1048 00be 0122     		movs	r2, #1
 1049 00c0 F254     		strb	r2, [r6, r3]
 1050              	.L47:
 568:Drivers/STM32L0xx_HAL_Driver/Src/stm32l0xx_hal_dma.c **** 
 1051              		.loc 1 568 3 is_stmt 1 view .LVU336
 568:Drivers/STM32L0xx_HAL_Driver/Src/stm32l0xx_hal_dma.c **** 
 1052              		.loc 1 568 3 view .LVU337
 1053 00c2 2423     		movs	r3, #36
 1054 00c4 0022     		movs	r2, #0
ARM GAS  /tmp/ccelyxFt.s 			page 40


 1055 00c6 F254     		strb	r2, [r6, r3]
 570:Drivers/STM32L0xx_HAL_Driver/Src/stm32l0xx_hal_dma.c **** }
 1056              		.loc 1 570 3 view .LVU338
 570:Drivers/STM32L0xx_HAL_Driver/Src/stm32l0xx_hal_dma.c **** }
 1057              		.loc 1 570 10 is_stmt 0 view .LVU339
 1058 00c8 0020     		movs	r0, #0
 1059 00ca A8E7     		b	.L37
 1060              	.L46:
 564:Drivers/STM32L0xx_HAL_Driver/Src/stm32l0xx_hal_dma.c ****   }
 1061              		.loc 1 564 5 is_stmt 1 view .LVU340
 564:Drivers/STM32L0xx_HAL_Driver/Src/stm32l0xx_hal_dma.c ****   }
 1062              		.loc 1 564 71 is_stmt 0 view .LVU341
 1063 00cc 1C21     		movs	r1, #28
 1064 00ce 736C     		ldr	r3, [r6, #68]
 1065 00d0 1940     		ands	r1, r3
 564:Drivers/STM32L0xx_HAL_Driver/Src/stm32l0xx_hal_dma.c ****   }
 1066              		.loc 1 564 48 view .LVU342
 1067 00d2 0423     		movs	r3, #4
 1068 00d4 8B40     		lsls	r3, r3, r1
 564:Drivers/STM32L0xx_HAL_Driver/Src/stm32l0xx_hal_dma.c ****   }
 1069              		.loc 1 564 32 view .LVU343
 1070 00d6 5360     		str	r3, [r2, #4]
 1071 00d8 F3E7     		b	.L47
 1072              		.cfi_endproc
 1073              	.LFE40:
 1075              		.section	.text.HAL_DMA_IRQHandler,"ax",%progbits
 1076              		.align	1
 1077              		.global	HAL_DMA_IRQHandler
 1078              		.syntax unified
 1079              		.code	16
 1080              		.thumb_func
 1081              		.fpu softvfp
 1083              	HAL_DMA_IRQHandler:
 1084              	.LVL74:
 1085              	.LFB41:
 580:Drivers/STM32L0xx_HAL_Driver/Src/stm32l0xx_hal_dma.c ****   uint32_t flag_it = hdma->DmaBaseAddress->ISR;
 1086              		.loc 1 580 1 is_stmt 1 view -0
 1087              		.cfi_startproc
 1088              		@ args = 0, pretend = 0, frame = 0
 1089              		@ frame_needed = 0, uses_anonymous_args = 0
 580:Drivers/STM32L0xx_HAL_Driver/Src/stm32l0xx_hal_dma.c ****   uint32_t flag_it = hdma->DmaBaseAddress->ISR;
 1090              		.loc 1 580 1 is_stmt 0 view .LVU345
 1091 0000 70B5     		push	{r4, r5, r6, lr}
 1092              	.LCFI9:
 1093              		.cfi_def_cfa_offset 16
 1094              		.cfi_offset 4, -16
 1095              		.cfi_offset 5, -12
 1096              		.cfi_offset 6, -8
 1097              		.cfi_offset 14, -4
 581:Drivers/STM32L0xx_HAL_Driver/Src/stm32l0xx_hal_dma.c ****   uint32_t source_it = hdma->Instance->CCR;
 1098              		.loc 1 581 3 is_stmt 1 view .LVU346
 581:Drivers/STM32L0xx_HAL_Driver/Src/stm32l0xx_hal_dma.c ****   uint32_t source_it = hdma->Instance->CCR;
 1099              		.loc 1 581 26 is_stmt 0 view .LVU347
 1100 0002 036C     		ldr	r3, [r0, #64]
 581:Drivers/STM32L0xx_HAL_Driver/Src/stm32l0xx_hal_dma.c ****   uint32_t source_it = hdma->Instance->CCR;
 1101              		.loc 1 581 12 view .LVU348
 1102 0004 1968     		ldr	r1, [r3]
ARM GAS  /tmp/ccelyxFt.s 			page 41


 1103              	.LVL75:
 582:Drivers/STM32L0xx_HAL_Driver/Src/stm32l0xx_hal_dma.c **** 
 1104              		.loc 1 582 3 is_stmt 1 view .LVU349
 582:Drivers/STM32L0xx_HAL_Driver/Src/stm32l0xx_hal_dma.c **** 
 1105              		.loc 1 582 28 is_stmt 0 view .LVU350
 1106 0006 0468     		ldr	r4, [r0]
 582:Drivers/STM32L0xx_HAL_Driver/Src/stm32l0xx_hal_dma.c **** 
 1107              		.loc 1 582 12 view .LVU351
 1108 0008 2568     		ldr	r5, [r4]
 1109              	.LVL76:
 585:Drivers/STM32L0xx_HAL_Driver/Src/stm32l0xx_hal_dma.c ****   {
 1110              		.loc 1 585 3 is_stmt 1 view .LVU352
 585:Drivers/STM32L0xx_HAL_Driver/Src/stm32l0xx_hal_dma.c ****   {
 1111              		.loc 1 585 62 is_stmt 0 view .LVU353
 1112 000a 1C23     		movs	r3, #28
 1113 000c 426C     		ldr	r2, [r0, #68]
 1114 000e 1340     		ands	r3, r2
 585:Drivers/STM32L0xx_HAL_Driver/Src/stm32l0xx_hal_dma.c ****   {
 1115              		.loc 1 585 39 view .LVU354
 1116 0010 0422     		movs	r2, #4
 1117 0012 9A40     		lsls	r2, r2, r3
 585:Drivers/STM32L0xx_HAL_Driver/Src/stm32l0xx_hal_dma.c ****   {
 1118              		.loc 1 585 6 view .LVU355
 1119 0014 1142     		tst	r1, r2
 1120 0016 14D0     		beq	.L52
 585:Drivers/STM32L0xx_HAL_Driver/Src/stm32l0xx_hal_dma.c ****   {
 1121              		.loc 1 585 74 discriminator 1 view .LVU356
 1122 0018 6A07     		lsls	r2, r5, #29
 1123 001a 12D5     		bpl	.L52
 588:Drivers/STM32L0xx_HAL_Driver/Src/stm32l0xx_hal_dma.c ****       {
 1124              		.loc 1 588 7 is_stmt 1 view .LVU357
 588:Drivers/STM32L0xx_HAL_Driver/Src/stm32l0xx_hal_dma.c ****       {
 1125              		.loc 1 588 25 is_stmt 0 view .LVU358
 1126 001c 2368     		ldr	r3, [r4]
 588:Drivers/STM32L0xx_HAL_Driver/Src/stm32l0xx_hal_dma.c ****       {
 1127              		.loc 1 588 9 view .LVU359
 1128 001e 9B06     		lsls	r3, r3, #26
 1129 0020 03D4     		bmi	.L53
 591:Drivers/STM32L0xx_HAL_Driver/Src/stm32l0xx_hal_dma.c ****       }
 1130              		.loc 1 591 9 is_stmt 1 view .LVU360
 1131 0022 2368     		ldr	r3, [r4]
 1132 0024 0422     		movs	r2, #4
 1133 0026 9343     		bics	r3, r2
 1134 0028 2360     		str	r3, [r4]
 1135              	.L53:
 594:Drivers/STM32L0xx_HAL_Driver/Src/stm32l0xx_hal_dma.c **** 
 1136              		.loc 1 594 7 view .LVU361
 594:Drivers/STM32L0xx_HAL_Driver/Src/stm32l0xx_hal_dma.c **** 
 1137              		.loc 1 594 73 is_stmt 0 view .LVU362
 1138 002a 1C22     		movs	r2, #28
 1139 002c 436C     		ldr	r3, [r0, #68]
 1140 002e 1A40     		ands	r2, r3
 594:Drivers/STM32L0xx_HAL_Driver/Src/stm32l0xx_hal_dma.c **** 
 1141              		.loc 1 594 11 view .LVU363
 1142 0030 016C     		ldr	r1, [r0, #64]
 1143              	.LVL77:
 594:Drivers/STM32L0xx_HAL_Driver/Src/stm32l0xx_hal_dma.c **** 
ARM GAS  /tmp/ccelyxFt.s 			page 42


 1144              		.loc 1 594 50 view .LVU364
 1145 0032 0423     		movs	r3, #4
 1146 0034 9340     		lsls	r3, r3, r2
 594:Drivers/STM32L0xx_HAL_Driver/Src/stm32l0xx_hal_dma.c **** 
 1147              		.loc 1 594 34 view .LVU365
 1148 0036 4B60     		str	r3, [r1, #4]
 599:Drivers/STM32L0xx_HAL_Driver/Src/stm32l0xx_hal_dma.c ****       {
 1149              		.loc 1 599 6 is_stmt 1 view .LVU366
 599:Drivers/STM32L0xx_HAL_Driver/Src/stm32l0xx_hal_dma.c ****       {
 1150              		.loc 1 599 13 is_stmt 0 view .LVU367
 1151 0038 036B     		ldr	r3, [r0, #48]
 599:Drivers/STM32L0xx_HAL_Driver/Src/stm32l0xx_hal_dma.c ****       {
 1152              		.loc 1 599 8 view .LVU368
 1153 003a 002B     		cmp	r3, #0
 1154 003c 00D0     		beq	.L51
 602:Drivers/STM32L0xx_HAL_Driver/Src/stm32l0xx_hal_dma.c ****       }
 1155              		.loc 1 602 9 is_stmt 1 view .LVU369
 1156 003e 9847     		blx	r3
 1157              	.LVL78:
 1158              	.L51:
 661:Drivers/STM32L0xx_HAL_Driver/Src/stm32l0xx_hal_dma.c **** 
 1159              		.loc 1 661 1 is_stmt 0 view .LVU370
 1160              		@ sp needed
 1161              	.LVL79:
 661:Drivers/STM32L0xx_HAL_Driver/Src/stm32l0xx_hal_dma.c **** 
 1162              		.loc 1 661 1 view .LVU371
 1163 0040 70BD     		pop	{r4, r5, r6, pc}
 1164              	.LVL80:
 1165              	.L52:
 607:Drivers/STM32L0xx_HAL_Driver/Src/stm32l0xx_hal_dma.c ****   {
 1166              		.loc 1 607 8 is_stmt 1 view .LVU372
 607:Drivers/STM32L0xx_HAL_Driver/Src/stm32l0xx_hal_dma.c ****   {
 1167              		.loc 1 607 44 is_stmt 0 view .LVU373
 1168 0042 0222     		movs	r2, #2
 1169 0044 9A40     		lsls	r2, r2, r3
 607:Drivers/STM32L0xx_HAL_Driver/Src/stm32l0xx_hal_dma.c ****   {
 1170              		.loc 1 607 11 view .LVU374
 1171 0046 1142     		tst	r1, r2
 1172 0048 1AD0     		beq	.L55
 607:Drivers/STM32L0xx_HAL_Driver/Src/stm32l0xx_hal_dma.c ****   {
 1173              		.loc 1 607 79 discriminator 1 view .LVU375
 1174 004a AA07     		lsls	r2, r5, #30
 1175 004c 18D5     		bpl	.L55
 609:Drivers/STM32L0xx_HAL_Driver/Src/stm32l0xx_hal_dma.c ****     {
 1176              		.loc 1 609 5 is_stmt 1 view .LVU376
 609:Drivers/STM32L0xx_HAL_Driver/Src/stm32l0xx_hal_dma.c ****     {
 1177              		.loc 1 609 23 is_stmt 0 view .LVU377
 1178 004e 2368     		ldr	r3, [r4]
 609:Drivers/STM32L0xx_HAL_Driver/Src/stm32l0xx_hal_dma.c ****     {
 1179              		.loc 1 609 7 view .LVU378
 1180 0050 9B06     		lsls	r3, r3, #26
 1181 0052 06D4     		bmi	.L56
 612:Drivers/STM32L0xx_HAL_Driver/Src/stm32l0xx_hal_dma.c **** 
 1182              		.loc 1 612 7 is_stmt 1 view .LVU379
 1183 0054 2368     		ldr	r3, [r4]
 1184 0056 0A22     		movs	r2, #10
 1185 0058 9343     		bics	r3, r2
ARM GAS  /tmp/ccelyxFt.s 			page 43


 1186 005a 2360     		str	r3, [r4]
 615:Drivers/STM32L0xx_HAL_Driver/Src/stm32l0xx_hal_dma.c ****     }
 1187              		.loc 1 615 7 view .LVU380
 615:Drivers/STM32L0xx_HAL_Driver/Src/stm32l0xx_hal_dma.c ****     }
 1188              		.loc 1 615 19 is_stmt 0 view .LVU381
 1189 005c 2523     		movs	r3, #37
 1190 005e 093A     		subs	r2, r2, #9
 1191 0060 C254     		strb	r2, [r0, r3]
 1192              	.L56:
 618:Drivers/STM32L0xx_HAL_Driver/Src/stm32l0xx_hal_dma.c **** 
 1193              		.loc 1 618 5 is_stmt 1 view .LVU382
 618:Drivers/STM32L0xx_HAL_Driver/Src/stm32l0xx_hal_dma.c **** 
 1194              		.loc 1 618 72 is_stmt 0 view .LVU383
 1195 0062 1C22     		movs	r2, #28
 1196 0064 436C     		ldr	r3, [r0, #68]
 1197 0066 1A40     		ands	r2, r3
 618:Drivers/STM32L0xx_HAL_Driver/Src/stm32l0xx_hal_dma.c **** 
 1198              		.loc 1 618 9 view .LVU384
 1199 0068 016C     		ldr	r1, [r0, #64]
 1200              	.LVL81:
 618:Drivers/STM32L0xx_HAL_Driver/Src/stm32l0xx_hal_dma.c **** 
 1201              		.loc 1 618 49 view .LVU385
 1202 006a 0223     		movs	r3, #2
 1203 006c 9340     		lsls	r3, r3, r2
 618:Drivers/STM32L0xx_HAL_Driver/Src/stm32l0xx_hal_dma.c **** 
 1204              		.loc 1 618 32 view .LVU386
 1205 006e 4B60     		str	r3, [r1, #4]
 621:Drivers/STM32L0xx_HAL_Driver/Src/stm32l0xx_hal_dma.c **** 
 1206              		.loc 1 621 5 is_stmt 1 view .LVU387
 621:Drivers/STM32L0xx_HAL_Driver/Src/stm32l0xx_hal_dma.c **** 
 1207              		.loc 1 621 5 view .LVU388
 1208 0070 2423     		movs	r3, #36
 1209 0072 0022     		movs	r2, #0
 1210 0074 C254     		strb	r2, [r0, r3]
 623:Drivers/STM32L0xx_HAL_Driver/Src/stm32l0xx_hal_dma.c ****     {
 1211              		.loc 1 623 5 view .LVU389
 623:Drivers/STM32L0xx_HAL_Driver/Src/stm32l0xx_hal_dma.c ****     {
 1212              		.loc 1 623 12 is_stmt 0 view .LVU390
 1213 0076 C36A     		ldr	r3, [r0, #44]
 623:Drivers/STM32L0xx_HAL_Driver/Src/stm32l0xx_hal_dma.c ****     {
 1214              		.loc 1 623 7 view .LVU391
 1215 0078 002B     		cmp	r3, #0
 1216 007a E1D0     		beq	.L51
 626:Drivers/STM32L0xx_HAL_Driver/Src/stm32l0xx_hal_dma.c ****     }
 1217              		.loc 1 626 7 is_stmt 1 view .LVU392
 1218 007c 9847     		blx	r3
 1219              	.LVL82:
 626:Drivers/STM32L0xx_HAL_Driver/Src/stm32l0xx_hal_dma.c ****     }
 1220              		.loc 1 626 7 is_stmt 0 view .LVU393
 1221 007e DFE7     		b	.L51
 1222              	.LVL83:
 1223              	.L55:
 631:Drivers/STM32L0xx_HAL_Driver/Src/stm32l0xx_hal_dma.c ****   {
 1224              		.loc 1 631 8 is_stmt 1 view .LVU394
 631:Drivers/STM32L0xx_HAL_Driver/Src/stm32l0xx_hal_dma.c ****   {
 1225              		.loc 1 631 44 is_stmt 0 view .LVU395
 1226 0080 0822     		movs	r2, #8
ARM GAS  /tmp/ccelyxFt.s 			page 44


 1227 0082 9A40     		lsls	r2, r2, r3
 631:Drivers/STM32L0xx_HAL_Driver/Src/stm32l0xx_hal_dma.c ****   {
 1228              		.loc 1 631 11 view .LVU396
 1229 0084 1142     		tst	r1, r2
 1230 0086 DBD0     		beq	.L51
 631:Drivers/STM32L0xx_HAL_Driver/Src/stm32l0xx_hal_dma.c ****   {
 1231              		.loc 1 631 79 discriminator 1 view .LVU397
 1232 0088 2B07     		lsls	r3, r5, #28
 1233 008a D9D5     		bpl	.L51
 636:Drivers/STM32L0xx_HAL_Driver/Src/stm32l0xx_hal_dma.c **** 
 1234              		.loc 1 636 5 is_stmt 1 view .LVU398
 1235 008c 2368     		ldr	r3, [r4]
 1236 008e 0E22     		movs	r2, #14
 1237 0090 9343     		bics	r3, r2
 1238 0092 2360     		str	r3, [r4]
 639:Drivers/STM32L0xx_HAL_Driver/Src/stm32l0xx_hal_dma.c **** 
 1239              		.loc 1 639 5 view .LVU399
 639:Drivers/STM32L0xx_HAL_Driver/Src/stm32l0xx_hal_dma.c **** 
 1240              		.loc 1 639 71 is_stmt 0 view .LVU400
 1241 0094 0E32     		adds	r2, r2, #14
 1242 0096 436C     		ldr	r3, [r0, #68]
 1243 0098 1A40     		ands	r2, r3
 639:Drivers/STM32L0xx_HAL_Driver/Src/stm32l0xx_hal_dma.c **** 
 1244              		.loc 1 639 9 view .LVU401
 1245 009a 016C     		ldr	r1, [r0, #64]
 1246              	.LVL84:
 639:Drivers/STM32L0xx_HAL_Driver/Src/stm32l0xx_hal_dma.c **** 
 1247              		.loc 1 639 48 view .LVU402
 1248 009c 0123     		movs	r3, #1
 1249 009e 1C00     		movs	r4, r3
 1250 00a0 9440     		lsls	r4, r4, r2
 639:Drivers/STM32L0xx_HAL_Driver/Src/stm32l0xx_hal_dma.c **** 
 1251              		.loc 1 639 32 view .LVU403
 1252 00a2 4C60     		str	r4, [r1, #4]
 642:Drivers/STM32L0xx_HAL_Driver/Src/stm32l0xx_hal_dma.c **** 
 1253              		.loc 1 642 5 is_stmt 1 view .LVU404
 642:Drivers/STM32L0xx_HAL_Driver/Src/stm32l0xx_hal_dma.c **** 
 1254              		.loc 1 642 21 is_stmt 0 view .LVU405
 1255 00a4 C363     		str	r3, [r0, #60]
 645:Drivers/STM32L0xx_HAL_Driver/Src/stm32l0xx_hal_dma.c **** 
 1256              		.loc 1 645 5 is_stmt 1 view .LVU406
 645:Drivers/STM32L0xx_HAL_Driver/Src/stm32l0xx_hal_dma.c **** 
 1257              		.loc 1 645 17 is_stmt 0 view .LVU407
 1258 00a6 2522     		movs	r2, #37
 1259 00a8 8354     		strb	r3, [r0, r2]
 648:Drivers/STM32L0xx_HAL_Driver/Src/stm32l0xx_hal_dma.c **** 
 1260              		.loc 1 648 5 is_stmt 1 view .LVU408
 648:Drivers/STM32L0xx_HAL_Driver/Src/stm32l0xx_hal_dma.c **** 
 1261              		.loc 1 648 5 view .LVU409
 1262 00aa 2333     		adds	r3, r3, #35
 1263 00ac 0022     		movs	r2, #0
 1264 00ae C254     		strb	r2, [r0, r3]
 650:Drivers/STM32L0xx_HAL_Driver/Src/stm32l0xx_hal_dma.c ****     {
 1265              		.loc 1 650 5 view .LVU410
 650:Drivers/STM32L0xx_HAL_Driver/Src/stm32l0xx_hal_dma.c ****     {
 1266              		.loc 1 650 13 is_stmt 0 view .LVU411
 1267 00b0 436B     		ldr	r3, [r0, #52]
ARM GAS  /tmp/ccelyxFt.s 			page 45


 650:Drivers/STM32L0xx_HAL_Driver/Src/stm32l0xx_hal_dma.c ****     {
 1268              		.loc 1 650 8 view .LVU412
 1269 00b2 002B     		cmp	r3, #0
 1270 00b4 C4D0     		beq	.L51
 653:Drivers/STM32L0xx_HAL_Driver/Src/stm32l0xx_hal_dma.c ****     }
 1271              		.loc 1 653 7 is_stmt 1 view .LVU413
 1272 00b6 9847     		blx	r3
 1273              	.LVL85:
 659:Drivers/STM32L0xx_HAL_Driver/Src/stm32l0xx_hal_dma.c ****   return;
 1274              		.loc 1 659 3 view .LVU414
 660:Drivers/STM32L0xx_HAL_Driver/Src/stm32l0xx_hal_dma.c **** }
 1275              		.loc 1 660 3 view .LVU415
 1276 00b8 C2E7     		b	.L51
 1277              		.cfi_endproc
 1278              	.LFE41:
 1280              		.section	.text.HAL_DMA_RegisterCallback,"ax",%progbits
 1281              		.align	1
 1282              		.global	HAL_DMA_RegisterCallback
 1283              		.syntax unified
 1284              		.code	16
 1285              		.thumb_func
 1286              		.fpu softvfp
 1288              	HAL_DMA_RegisterCallback:
 1289              	.LVL86:
 1290              	.LFB42:
 674:Drivers/STM32L0xx_HAL_Driver/Src/stm32l0xx_hal_dma.c ****   HAL_StatusTypeDef status = HAL_OK;
 1291              		.loc 1 674 1 view -0
 1292              		.cfi_startproc
 1293              		@ args = 0, pretend = 0, frame = 0
 1294              		@ frame_needed = 0, uses_anonymous_args = 0
 674:Drivers/STM32L0xx_HAL_Driver/Src/stm32l0xx_hal_dma.c ****   HAL_StatusTypeDef status = HAL_OK;
 1295              		.loc 1 674 1 is_stmt 0 view .LVU417
 1296 0000 10B5     		push	{r4, lr}
 1297              	.LCFI10:
 1298              		.cfi_def_cfa_offset 8
 1299              		.cfi_offset 4, -8
 1300              		.cfi_offset 14, -4
 1301 0002 0300     		movs	r3, r0
 675:Drivers/STM32L0xx_HAL_Driver/Src/stm32l0xx_hal_dma.c **** 
 1302              		.loc 1 675 3 is_stmt 1 view .LVU418
 1303              	.LVL87:
 678:Drivers/STM32L0xx_HAL_Driver/Src/stm32l0xx_hal_dma.c **** 
 1304              		.loc 1 678 3 view .LVU419
 678:Drivers/STM32L0xx_HAL_Driver/Src/stm32l0xx_hal_dma.c **** 
 1305              		.loc 1 678 3 view .LVU420
 1306 0004 2420     		movs	r0, #36
 1307              	.LVL88:
 678:Drivers/STM32L0xx_HAL_Driver/Src/stm32l0xx_hal_dma.c **** 
 1308              		.loc 1 678 3 is_stmt 0 view .LVU421
 1309 0006 185C     		ldrb	r0, [r3, r0]
 1310 0008 0128     		cmp	r0, #1
 1311 000a 1ED0     		beq	.L65
 678:Drivers/STM32L0xx_HAL_Driver/Src/stm32l0xx_hal_dma.c **** 
 1312              		.loc 1 678 3 is_stmt 1 discriminator 2 view .LVU422
 680:Drivers/STM32L0xx_HAL_Driver/Src/stm32l0xx_hal_dma.c ****   {
 1313              		.loc 1 680 3 discriminator 2 view .LVU423
 680:Drivers/STM32L0xx_HAL_Driver/Src/stm32l0xx_hal_dma.c ****   {
ARM GAS  /tmp/ccelyxFt.s 			page 46


 1314              		.loc 1 680 33 is_stmt 0 discriminator 2 view .LVU424
 1315 000c 2520     		movs	r0, #37
 1316 000e 1C5C     		ldrb	r4, [r3, r0]
 1317 0010 E0B2     		uxtb	r0, r4
 680:Drivers/STM32L0xx_HAL_Driver/Src/stm32l0xx_hal_dma.c ****   {
 1318              		.loc 1 680 5 discriminator 2 view .LVU425
 1319 0012 012C     		cmp	r4, #1
 1320 0014 04D0     		beq	.L67
 707:Drivers/STM32L0xx_HAL_Driver/Src/stm32l0xx_hal_dma.c ****   }
 1321              		.loc 1 707 12 view .LVU426
 1322 0016 0120     		movs	r0, #1
 1323              	.L59:
 1324              	.LVL89:
 711:Drivers/STM32L0xx_HAL_Driver/Src/stm32l0xx_hal_dma.c **** 
 1325              		.loc 1 711 3 is_stmt 1 view .LVU427
 711:Drivers/STM32L0xx_HAL_Driver/Src/stm32l0xx_hal_dma.c **** 
 1326              		.loc 1 711 3 view .LVU428
 1327 0018 2422     		movs	r2, #36
 1328              	.LVL90:
 711:Drivers/STM32L0xx_HAL_Driver/Src/stm32l0xx_hal_dma.c **** 
 1329              		.loc 1 711 3 is_stmt 0 view .LVU429
 1330 001a 0021     		movs	r1, #0
 1331              	.LVL91:
 711:Drivers/STM32L0xx_HAL_Driver/Src/stm32l0xx_hal_dma.c **** 
 1332              		.loc 1 711 3 view .LVU430
 1333 001c 9954     		strb	r1, [r3, r2]
 713:Drivers/STM32L0xx_HAL_Driver/Src/stm32l0xx_hal_dma.c **** }
 1334              		.loc 1 713 3 is_stmt 1 view .LVU431
 1335              	.LVL92:
 1336              	.L58:
 714:Drivers/STM32L0xx_HAL_Driver/Src/stm32l0xx_hal_dma.c **** 
 1337              		.loc 1 714 1 is_stmt 0 view .LVU432
 1338              		@ sp needed
 1339 001e 10BD     		pop	{r4, pc}
 1340              	.LVL93:
 1341              	.L67:
 682:Drivers/STM32L0xx_HAL_Driver/Src/stm32l0xx_hal_dma.c ****     {
 1342              		.loc 1 682 5 is_stmt 1 view .LVU433
 1343 0020 0229     		cmp	r1, #2
 1344 0022 0FD0     		beq	.L60
 1345 0024 06D8     		bhi	.L61
 1346 0026 0029     		cmp	r1, #0
 1347 0028 09D0     		beq	.L62
 1348 002a 0129     		cmp	r1, #1
 1349 002c F4D1     		bne	.L59
 689:Drivers/STM32L0xx_HAL_Driver/Src/stm32l0xx_hal_dma.c ****            break;
 1350              		.loc 1 689 12 view .LVU434
 689:Drivers/STM32L0xx_HAL_Driver/Src/stm32l0xx_hal_dma.c ****            break;
 1351              		.loc 1 689 39 is_stmt 0 view .LVU435
 1352 002e 1A63     		str	r2, [r3, #48]
 690:Drivers/STM32L0xx_HAL_Driver/Src/stm32l0xx_hal_dma.c **** 
 1353              		.loc 1 690 12 is_stmt 1 view .LVU436
 675:Drivers/STM32L0xx_HAL_Driver/Src/stm32l0xx_hal_dma.c **** 
 1354              		.loc 1 675 21 is_stmt 0 view .LVU437
 1355 0030 0020     		movs	r0, #0
 690:Drivers/STM32L0xx_HAL_Driver/Src/stm32l0xx_hal_dma.c **** 
 1356              		.loc 1 690 12 view .LVU438
ARM GAS  /tmp/ccelyxFt.s 			page 47


 1357 0032 F1E7     		b	.L59
 1358              	.L61:
 682:Drivers/STM32L0xx_HAL_Driver/Src/stm32l0xx_hal_dma.c ****     {
 1359              		.loc 1 682 5 view .LVU439
 1360 0034 0329     		cmp	r1, #3
 1361 0036 EFD1     		bne	.L59
 697:Drivers/STM32L0xx_HAL_Driver/Src/stm32l0xx_hal_dma.c ****            break;
 1362              		.loc 1 697 12 is_stmt 1 view .LVU440
 697:Drivers/STM32L0xx_HAL_Driver/Src/stm32l0xx_hal_dma.c ****            break;
 1363              		.loc 1 697 36 is_stmt 0 view .LVU441
 1364 0038 9A63     		str	r2, [r3, #56]
 698:Drivers/STM32L0xx_HAL_Driver/Src/stm32l0xx_hal_dma.c **** 
 1365              		.loc 1 698 12 is_stmt 1 view .LVU442
 675:Drivers/STM32L0xx_HAL_Driver/Src/stm32l0xx_hal_dma.c **** 
 1366              		.loc 1 675 21 is_stmt 0 view .LVU443
 1367 003a 0020     		movs	r0, #0
 698:Drivers/STM32L0xx_HAL_Driver/Src/stm32l0xx_hal_dma.c **** 
 1368              		.loc 1 698 12 view .LVU444
 1369 003c ECE7     		b	.L59
 1370              	.L62:
 685:Drivers/STM32L0xx_HAL_Driver/Src/stm32l0xx_hal_dma.c ****            break;
 1371              		.loc 1 685 12 is_stmt 1 view .LVU445
 685:Drivers/STM32L0xx_HAL_Driver/Src/stm32l0xx_hal_dma.c ****            break;
 1372              		.loc 1 685 35 is_stmt 0 view .LVU446
 1373 003e DA62     		str	r2, [r3, #44]
 686:Drivers/STM32L0xx_HAL_Driver/Src/stm32l0xx_hal_dma.c **** 
 1374              		.loc 1 686 12 is_stmt 1 view .LVU447
 675:Drivers/STM32L0xx_HAL_Driver/Src/stm32l0xx_hal_dma.c **** 
 1375              		.loc 1 675 21 is_stmt 0 view .LVU448
 1376 0040 0800     		movs	r0, r1
 686:Drivers/STM32L0xx_HAL_Driver/Src/stm32l0xx_hal_dma.c **** 
 1377              		.loc 1 686 12 view .LVU449
 1378 0042 E9E7     		b	.L59
 1379              	.L60:
 693:Drivers/STM32L0xx_HAL_Driver/Src/stm32l0xx_hal_dma.c ****            break;
 1380              		.loc 1 693 12 is_stmt 1 view .LVU450
 693:Drivers/STM32L0xx_HAL_Driver/Src/stm32l0xx_hal_dma.c ****            break;
 1381              		.loc 1 693 36 is_stmt 0 view .LVU451
 1382 0044 5A63     		str	r2, [r3, #52]
 694:Drivers/STM32L0xx_HAL_Driver/Src/stm32l0xx_hal_dma.c **** 
 1383              		.loc 1 694 12 is_stmt 1 view .LVU452
 675:Drivers/STM32L0xx_HAL_Driver/Src/stm32l0xx_hal_dma.c **** 
 1384              		.loc 1 675 21 is_stmt 0 view .LVU453
 1385 0046 0020     		movs	r0, #0
 694:Drivers/STM32L0xx_HAL_Driver/Src/stm32l0xx_hal_dma.c **** 
 1386              		.loc 1 694 12 view .LVU454
 1387 0048 E6E7     		b	.L59
 1388              	.L65:
 678:Drivers/STM32L0xx_HAL_Driver/Src/stm32l0xx_hal_dma.c **** 
 1389              		.loc 1 678 3 view .LVU455
 1390 004a 0220     		movs	r0, #2
 1391 004c E7E7     		b	.L58
 1392              		.cfi_endproc
 1393              	.LFE42:
 1395              		.section	.text.HAL_DMA_UnRegisterCallback,"ax",%progbits
 1396              		.align	1
 1397              		.global	HAL_DMA_UnRegisterCallback
ARM GAS  /tmp/ccelyxFt.s 			page 48


 1398              		.syntax unified
 1399              		.code	16
 1400              		.thumb_func
 1401              		.fpu softvfp
 1403              	HAL_DMA_UnRegisterCallback:
 1404              	.LVL94:
 1405              	.LFB43:
 725:Drivers/STM32L0xx_HAL_Driver/Src/stm32l0xx_hal_dma.c ****   HAL_StatusTypeDef status = HAL_OK;
 1406              		.loc 1 725 1 is_stmt 1 view -0
 1407              		.cfi_startproc
 1408              		@ args = 0, pretend = 0, frame = 0
 1409              		@ frame_needed = 0, uses_anonymous_args = 0
 1410              		@ link register save eliminated.
 725:Drivers/STM32L0xx_HAL_Driver/Src/stm32l0xx_hal_dma.c ****   HAL_StatusTypeDef status = HAL_OK;
 1411              		.loc 1 725 1 is_stmt 0 view .LVU457
 1412 0000 0300     		movs	r3, r0
 726:Drivers/STM32L0xx_HAL_Driver/Src/stm32l0xx_hal_dma.c **** 
 1413              		.loc 1 726 3 is_stmt 1 view .LVU458
 1414              	.LVL95:
 729:Drivers/STM32L0xx_HAL_Driver/Src/stm32l0xx_hal_dma.c **** 
 1415              		.loc 1 729 3 view .LVU459
 729:Drivers/STM32L0xx_HAL_Driver/Src/stm32l0xx_hal_dma.c **** 
 1416              		.loc 1 729 3 view .LVU460
 1417 0002 2422     		movs	r2, #36
 1418 0004 825C     		ldrb	r2, [r0, r2]
 1419 0006 012A     		cmp	r2, #1
 1420 0008 29D0     		beq	.L77
 729:Drivers/STM32L0xx_HAL_Driver/Src/stm32l0xx_hal_dma.c **** 
 1421              		.loc 1 729 3 discriminator 2 view .LVU461
 1422 000a 2422     		movs	r2, #36
 1423 000c 0120     		movs	r0, #1
 1424              	.LVL96:
 729:Drivers/STM32L0xx_HAL_Driver/Src/stm32l0xx_hal_dma.c **** 
 1425              		.loc 1 729 3 is_stmt 0 discriminator 2 view .LVU462
 1426 000e 9854     		strb	r0, [r3, r2]
 731:Drivers/STM32L0xx_HAL_Driver/Src/stm32l0xx_hal_dma.c ****   {
 1427              		.loc 1 731 3 is_stmt 1 discriminator 2 view .LVU463
 731:Drivers/STM32L0xx_HAL_Driver/Src/stm32l0xx_hal_dma.c ****   {
 1428              		.loc 1 731 33 is_stmt 0 discriminator 2 view .LVU464
 1429 0010 0132     		adds	r2, r2, #1
 1430 0012 9A5C     		ldrb	r2, [r3, r2]
 1431 0014 D0B2     		uxtb	r0, r2
 731:Drivers/STM32L0xx_HAL_Driver/Src/stm32l0xx_hal_dma.c ****   {
 1432              		.loc 1 731 5 discriminator 2 view .LVU465
 1433 0016 012A     		cmp	r2, #1
 1434 0018 04D0     		beq	.L79
 765:Drivers/STM32L0xx_HAL_Driver/Src/stm32l0xx_hal_dma.c ****   }
 1435              		.loc 1 765 12 view .LVU466
 1436 001a 0120     		movs	r0, #1
 1437              	.L70:
 1438              	.LVL97:
 769:Drivers/STM32L0xx_HAL_Driver/Src/stm32l0xx_hal_dma.c **** 
 1439              		.loc 1 769 3 is_stmt 1 view .LVU467
 769:Drivers/STM32L0xx_HAL_Driver/Src/stm32l0xx_hal_dma.c **** 
 1440              		.loc 1 769 3 view .LVU468
 1441 001c 2422     		movs	r2, #36
 1442 001e 0021     		movs	r1, #0
ARM GAS  /tmp/ccelyxFt.s 			page 49


 1443              	.LVL98:
 769:Drivers/STM32L0xx_HAL_Driver/Src/stm32l0xx_hal_dma.c **** 
 1444              		.loc 1 769 3 is_stmt 0 view .LVU469
 1445 0020 9954     		strb	r1, [r3, r2]
 771:Drivers/STM32L0xx_HAL_Driver/Src/stm32l0xx_hal_dma.c **** }
 1446              		.loc 1 771 3 is_stmt 1 view .LVU470
 1447              	.LVL99:
 1448              	.L69:
 772:Drivers/STM32L0xx_HAL_Driver/Src/stm32l0xx_hal_dma.c **** 
 1449              		.loc 1 772 1 is_stmt 0 view .LVU471
 1450              		@ sp needed
 1451 0022 7047     		bx	lr
 1452              	.LVL100:
 1453              	.L79:
 733:Drivers/STM32L0xx_HAL_Driver/Src/stm32l0xx_hal_dma.c ****     {
 1454              		.loc 1 733 5 is_stmt 1 view .LVU472
 1455 0024 0429     		cmp	r1, #4
 1456 0026 F9D8     		bhi	.L70
 1457 0028 8A00     		lsls	r2, r1, #2
 1458 002a 0E48     		ldr	r0, .L80
 1459 002c 8258     		ldr	r2, [r0, r2]
 1460 002e 9746     		mov	pc, r2
 1461              		.section	.rodata.HAL_DMA_UnRegisterCallback,"a",%progbits
 1462              		.align	2
 1463              	.L72:
 1464 0000 30000000 		.word	.L76
 1465 0004 38000000 		.word	.L75
 1466 0008 40000000 		.word	.L74
 1467 000c 48000000 		.word	.L73
 1468 0010 50000000 		.word	.L71
 1469              		.section	.text.HAL_DMA_UnRegisterCallback
 1470              	.L76:
 736:Drivers/STM32L0xx_HAL_Driver/Src/stm32l0xx_hal_dma.c ****            break;
 1471              		.loc 1 736 12 view .LVU473
 736:Drivers/STM32L0xx_HAL_Driver/Src/stm32l0xx_hal_dma.c ****            break;
 1472              		.loc 1 736 35 is_stmt 0 view .LVU474
 1473 0030 0022     		movs	r2, #0
 1474 0032 DA62     		str	r2, [r3, #44]
 737:Drivers/STM32L0xx_HAL_Driver/Src/stm32l0xx_hal_dma.c **** 
 1475              		.loc 1 737 12 is_stmt 1 view .LVU475
 726:Drivers/STM32L0xx_HAL_Driver/Src/stm32l0xx_hal_dma.c **** 
 1476              		.loc 1 726 21 is_stmt 0 view .LVU476
 1477 0034 0800     		movs	r0, r1
 737:Drivers/STM32L0xx_HAL_Driver/Src/stm32l0xx_hal_dma.c **** 
 1478              		.loc 1 737 12 view .LVU477
 1479 0036 F1E7     		b	.L70
 1480              	.L75:
 740:Drivers/STM32L0xx_HAL_Driver/Src/stm32l0xx_hal_dma.c ****            break;
 1481              		.loc 1 740 12 is_stmt 1 view .LVU478
 740:Drivers/STM32L0xx_HAL_Driver/Src/stm32l0xx_hal_dma.c ****            break;
 1482              		.loc 1 740 39 is_stmt 0 view .LVU479
 1483 0038 0022     		movs	r2, #0
 1484 003a 1A63     		str	r2, [r3, #48]
 741:Drivers/STM32L0xx_HAL_Driver/Src/stm32l0xx_hal_dma.c **** 
 1485              		.loc 1 741 12 is_stmt 1 view .LVU480
 726:Drivers/STM32L0xx_HAL_Driver/Src/stm32l0xx_hal_dma.c **** 
 1486              		.loc 1 726 21 is_stmt 0 view .LVU481
ARM GAS  /tmp/ccelyxFt.s 			page 50


 1487 003c 0020     		movs	r0, #0
 741:Drivers/STM32L0xx_HAL_Driver/Src/stm32l0xx_hal_dma.c **** 
 1488              		.loc 1 741 12 view .LVU482
 1489 003e EDE7     		b	.L70
 1490              	.L74:
 744:Drivers/STM32L0xx_HAL_Driver/Src/stm32l0xx_hal_dma.c ****            break;
 1491              		.loc 1 744 12 is_stmt 1 view .LVU483
 744:Drivers/STM32L0xx_HAL_Driver/Src/stm32l0xx_hal_dma.c ****            break;
 1492              		.loc 1 744 36 is_stmt 0 view .LVU484
 1493 0040 0022     		movs	r2, #0
 1494 0042 5A63     		str	r2, [r3, #52]
 745:Drivers/STM32L0xx_HAL_Driver/Src/stm32l0xx_hal_dma.c **** 
 1495              		.loc 1 745 12 is_stmt 1 view .LVU485
 726:Drivers/STM32L0xx_HAL_Driver/Src/stm32l0xx_hal_dma.c **** 
 1496              		.loc 1 726 21 is_stmt 0 view .LVU486
 1497 0044 0020     		movs	r0, #0
 745:Drivers/STM32L0xx_HAL_Driver/Src/stm32l0xx_hal_dma.c **** 
 1498              		.loc 1 745 12 view .LVU487
 1499 0046 E9E7     		b	.L70
 1500              	.L73:
 748:Drivers/STM32L0xx_HAL_Driver/Src/stm32l0xx_hal_dma.c ****            break;
 1501              		.loc 1 748 12 is_stmt 1 view .LVU488
 748:Drivers/STM32L0xx_HAL_Driver/Src/stm32l0xx_hal_dma.c ****            break;
 1502              		.loc 1 748 36 is_stmt 0 view .LVU489
 1503 0048 0022     		movs	r2, #0
 1504 004a 9A63     		str	r2, [r3, #56]
 749:Drivers/STM32L0xx_HAL_Driver/Src/stm32l0xx_hal_dma.c **** 
 1505              		.loc 1 749 12 is_stmt 1 view .LVU490
 726:Drivers/STM32L0xx_HAL_Driver/Src/stm32l0xx_hal_dma.c **** 
 1506              		.loc 1 726 21 is_stmt 0 view .LVU491
 1507 004c 0020     		movs	r0, #0
 749:Drivers/STM32L0xx_HAL_Driver/Src/stm32l0xx_hal_dma.c **** 
 1508              		.loc 1 749 12 view .LVU492
 1509 004e E5E7     		b	.L70
 1510              	.L71:
 752:Drivers/STM32L0xx_HAL_Driver/Src/stm32l0xx_hal_dma.c ****            hdma->XferHalfCpltCallback = NULL;
 1511              		.loc 1 752 12 is_stmt 1 view .LVU493
 752:Drivers/STM32L0xx_HAL_Driver/Src/stm32l0xx_hal_dma.c ****            hdma->XferHalfCpltCallback = NULL;
 1512              		.loc 1 752 35 is_stmt 0 view .LVU494
 1513 0050 0022     		movs	r2, #0
 1514 0052 DA62     		str	r2, [r3, #44]
 753:Drivers/STM32L0xx_HAL_Driver/Src/stm32l0xx_hal_dma.c ****            hdma->XferErrorCallback = NULL;
 1515              		.loc 1 753 12 is_stmt 1 view .LVU495
 753:Drivers/STM32L0xx_HAL_Driver/Src/stm32l0xx_hal_dma.c ****            hdma->XferErrorCallback = NULL;
 1516              		.loc 1 753 39 is_stmt 0 view .LVU496
 1517 0054 1A63     		str	r2, [r3, #48]
 754:Drivers/STM32L0xx_HAL_Driver/Src/stm32l0xx_hal_dma.c ****            hdma->XferAbortCallback = NULL;
 1518              		.loc 1 754 12 is_stmt 1 view .LVU497
 754:Drivers/STM32L0xx_HAL_Driver/Src/stm32l0xx_hal_dma.c ****            hdma->XferAbortCallback = NULL;
 1519              		.loc 1 754 36 is_stmt 0 view .LVU498
 1520 0056 5A63     		str	r2, [r3, #52]
 755:Drivers/STM32L0xx_HAL_Driver/Src/stm32l0xx_hal_dma.c ****            break;
 1521              		.loc 1 755 12 is_stmt 1 view .LVU499
 755:Drivers/STM32L0xx_HAL_Driver/Src/stm32l0xx_hal_dma.c ****            break;
 1522              		.loc 1 755 36 is_stmt 0 view .LVU500
 1523 0058 9A63     		str	r2, [r3, #56]
 756:Drivers/STM32L0xx_HAL_Driver/Src/stm32l0xx_hal_dma.c **** 
ARM GAS  /tmp/ccelyxFt.s 			page 51


 1524              		.loc 1 756 12 is_stmt 1 view .LVU501
 726:Drivers/STM32L0xx_HAL_Driver/Src/stm32l0xx_hal_dma.c **** 
 1525              		.loc 1 726 21 is_stmt 0 view .LVU502
 1526 005a 0020     		movs	r0, #0
 756:Drivers/STM32L0xx_HAL_Driver/Src/stm32l0xx_hal_dma.c **** 
 1527              		.loc 1 756 12 view .LVU503
 1528 005c DEE7     		b	.L70
 1529              	.LVL101:
 1530              	.L77:
 729:Drivers/STM32L0xx_HAL_Driver/Src/stm32l0xx_hal_dma.c **** 
 1531              		.loc 1 729 3 view .LVU504
 1532 005e 0220     		movs	r0, #2
 1533              	.LVL102:
 729:Drivers/STM32L0xx_HAL_Driver/Src/stm32l0xx_hal_dma.c **** 
 1534              		.loc 1 729 3 view .LVU505
 1535 0060 DFE7     		b	.L69
 1536              	.L81:
 1537 0062 C046     		.align	2
 1538              	.L80:
 1539 0064 00000000 		.word	.L72
 1540              		.cfi_endproc
 1541              	.LFE43:
 1543              		.section	.text.HAL_DMA_GetState,"ax",%progbits
 1544              		.align	1
 1545              		.global	HAL_DMA_GetState
 1546              		.syntax unified
 1547              		.code	16
 1548              		.thumb_func
 1549              		.fpu softvfp
 1551              	HAL_DMA_GetState:
 1552              	.LVL103:
 1553              	.LFB44:
 803:Drivers/STM32L0xx_HAL_Driver/Src/stm32l0xx_hal_dma.c ****   /* Return DMA handle state */
 1554              		.loc 1 803 1 is_stmt 1 view -0
 1555              		.cfi_startproc
 1556              		@ args = 0, pretend = 0, frame = 0
 1557              		@ frame_needed = 0, uses_anonymous_args = 0
 1558              		@ link register save eliminated.
 805:Drivers/STM32L0xx_HAL_Driver/Src/stm32l0xx_hal_dma.c **** }
 1559              		.loc 1 805 3 view .LVU507
 805:Drivers/STM32L0xx_HAL_Driver/Src/stm32l0xx_hal_dma.c **** }
 1560              		.loc 1 805 14 is_stmt 0 view .LVU508
 1561 0000 2523     		movs	r3, #37
 1562 0002 C05C     		ldrb	r0, [r0, r3]
 1563              	.LVL104:
 805:Drivers/STM32L0xx_HAL_Driver/Src/stm32l0xx_hal_dma.c **** }
 1564              		.loc 1 805 14 view .LVU509
 1565 0004 C0B2     		uxtb	r0, r0
 806:Drivers/STM32L0xx_HAL_Driver/Src/stm32l0xx_hal_dma.c **** 
 1566              		.loc 1 806 1 view .LVU510
 1567              		@ sp needed
 1568 0006 7047     		bx	lr
 1569              		.cfi_endproc
 1570              	.LFE44:
 1572              		.section	.text.HAL_DMA_GetError,"ax",%progbits
 1573              		.align	1
 1574              		.global	HAL_DMA_GetError
ARM GAS  /tmp/ccelyxFt.s 			page 52


 1575              		.syntax unified
 1576              		.code	16
 1577              		.thumb_func
 1578              		.fpu softvfp
 1580              	HAL_DMA_GetError:
 1581              	.LVL105:
 1582              	.LFB45:
 815:Drivers/STM32L0xx_HAL_Driver/Src/stm32l0xx_hal_dma.c ****   return hdma->ErrorCode;
 1583              		.loc 1 815 1 is_stmt 1 view -0
 1584              		.cfi_startproc
 1585              		@ args = 0, pretend = 0, frame = 0
 1586              		@ frame_needed = 0, uses_anonymous_args = 0
 1587              		@ link register save eliminated.
 816:Drivers/STM32L0xx_HAL_Driver/Src/stm32l0xx_hal_dma.c **** }
 1588              		.loc 1 816 3 view .LVU512
 816:Drivers/STM32L0xx_HAL_Driver/Src/stm32l0xx_hal_dma.c **** }
 1589              		.loc 1 816 14 is_stmt 0 view .LVU513
 1590 0000 C06B     		ldr	r0, [r0, #60]
 1591              	.LVL106:
 817:Drivers/STM32L0xx_HAL_Driver/Src/stm32l0xx_hal_dma.c **** 
 1592              		.loc 1 817 1 view .LVU514
 1593              		@ sp needed
 1594 0002 7047     		bx	lr
 1595              		.cfi_endproc
 1596              	.LFE45:
 1598              		.text
 1599              	.Letext0:
 1600              		.file 2 "/usr/arm-none-eabi/include/machine/_default_types.h"
 1601              		.file 3 "/usr/arm-none-eabi/include/sys/_stdint.h"
 1602              		.file 4 "Drivers/CMSIS/Device/ST/STM32L0xx/Include/system_stm32l0xx.h"
 1603              		.file 5 "Drivers/CMSIS/Device/ST/STM32L0xx/Include/stm32l052xx.h"
 1604              		.file 6 "Drivers/STM32L0xx_HAL_Driver/Inc/stm32l0xx_hal_def.h"
 1605              		.file 7 "Drivers/STM32L0xx_HAL_Driver/Inc/stm32l0xx_hal_dma.h"
 1606              		.file 8 "Drivers/STM32L0xx_HAL_Driver/Inc/stm32l0xx_hal.h"
ARM GAS  /tmp/ccelyxFt.s 			page 53

