ARM GAS  /tmp/ccLokM46.s 			page 1


   1              		.cpu cortex-m0plus
   2              		.eabi_attribute 20, 1
   3              		.eabi_attribute 21, 1
   4              		.eabi_attribute 23, 3
   5              		.eabi_attribute 24, 1
   6              		.eabi_attribute 25, 1
   7              		.eabi_attribute 26, 1
   8              		.eabi_attribute 30, 1
   9              		.eabi_attribute 34, 0
  10              		.eabi_attribute 18, 4
  11              		.file	"stm32l0xx_hal.c"
  12              		.text
  13              	.Ltext0:
  14              		.cfi_sections	.debug_frame
  15              		.section	.text.HAL_MspInit,"ax",%progbits
  16              		.align	1
  17              		.weak	HAL_MspInit
  18              		.arch armv6s-m
  19              		.syntax unified
  20              		.code	16
  21              		.thumb_func
  22              		.fpu softvfp
  24              	HAL_MspInit:
  25              	.LFB36:
  26              		.file 1 "Drivers/STM32L0xx_HAL_Driver/Src/stm32l0xx_hal.c"
   1:Drivers/STM32L0xx_HAL_Driver/Src/stm32l0xx_hal.c **** /**
   2:Drivers/STM32L0xx_HAL_Driver/Src/stm32l0xx_hal.c ****   ******************************************************************************
   3:Drivers/STM32L0xx_HAL_Driver/Src/stm32l0xx_hal.c ****   * @file    stm32l0xx_hal.c
   4:Drivers/STM32L0xx_HAL_Driver/Src/stm32l0xx_hal.c ****   * @author  MCD Application Team
   5:Drivers/STM32L0xx_HAL_Driver/Src/stm32l0xx_hal.c ****   * @brief   HAL module driver.
   6:Drivers/STM32L0xx_HAL_Driver/Src/stm32l0xx_hal.c ****   *          This is the common part of the HAL initialization
   7:Drivers/STM32L0xx_HAL_Driver/Src/stm32l0xx_hal.c ****   *
   8:Drivers/STM32L0xx_HAL_Driver/Src/stm32l0xx_hal.c ****   @verbatim
   9:Drivers/STM32L0xx_HAL_Driver/Src/stm32l0xx_hal.c ****   ==============================================================================
  10:Drivers/STM32L0xx_HAL_Driver/Src/stm32l0xx_hal.c ****                      ##### How to use this driver #####
  11:Drivers/STM32L0xx_HAL_Driver/Src/stm32l0xx_hal.c ****   ==============================================================================
  12:Drivers/STM32L0xx_HAL_Driver/Src/stm32l0xx_hal.c ****     [..]
  13:Drivers/STM32L0xx_HAL_Driver/Src/stm32l0xx_hal.c ****     The common HAL driver contains a set of generic and common APIs that can be
  14:Drivers/STM32L0xx_HAL_Driver/Src/stm32l0xx_hal.c ****     used by the PPP peripheral drivers and the user to start using the HAL.
  15:Drivers/STM32L0xx_HAL_Driver/Src/stm32l0xx_hal.c ****     [..]
  16:Drivers/STM32L0xx_HAL_Driver/Src/stm32l0xx_hal.c ****     The HAL contains two APIs categories:
  17:Drivers/STM32L0xx_HAL_Driver/Src/stm32l0xx_hal.c ****          (+) Common HAL APIs
  18:Drivers/STM32L0xx_HAL_Driver/Src/stm32l0xx_hal.c ****          (+) Services HAL APIs
  19:Drivers/STM32L0xx_HAL_Driver/Src/stm32l0xx_hal.c **** 
  20:Drivers/STM32L0xx_HAL_Driver/Src/stm32l0xx_hal.c ****   @endverbatim
  21:Drivers/STM32L0xx_HAL_Driver/Src/stm32l0xx_hal.c ****   ******************************************************************************
  22:Drivers/STM32L0xx_HAL_Driver/Src/stm32l0xx_hal.c ****   * @attention
  23:Drivers/STM32L0xx_HAL_Driver/Src/stm32l0xx_hal.c ****   *
  24:Drivers/STM32L0xx_HAL_Driver/Src/stm32l0xx_hal.c ****   * <h2><center>&copy; Copyright (c) 2016 STMicroelectronics.
  25:Drivers/STM32L0xx_HAL_Driver/Src/stm32l0xx_hal.c ****   * All rights reserved.</center></h2>
  26:Drivers/STM32L0xx_HAL_Driver/Src/stm32l0xx_hal.c ****   *
  27:Drivers/STM32L0xx_HAL_Driver/Src/stm32l0xx_hal.c ****   * This software component is licensed by ST under BSD 3-Clause license,
  28:Drivers/STM32L0xx_HAL_Driver/Src/stm32l0xx_hal.c ****   * the "License"; You may not use this file except in compliance with the
  29:Drivers/STM32L0xx_HAL_Driver/Src/stm32l0xx_hal.c ****   * License. You may obtain a copy of the License at:
  30:Drivers/STM32L0xx_HAL_Driver/Src/stm32l0xx_hal.c ****   *                        opensource.org/licenses/BSD-3-Clause
  31:Drivers/STM32L0xx_HAL_Driver/Src/stm32l0xx_hal.c ****   *
  32:Drivers/STM32L0xx_HAL_Driver/Src/stm32l0xx_hal.c ****   ******************************************************************************
ARM GAS  /tmp/ccLokM46.s 			page 2


  33:Drivers/STM32L0xx_HAL_Driver/Src/stm32l0xx_hal.c ****   */
  34:Drivers/STM32L0xx_HAL_Driver/Src/stm32l0xx_hal.c **** 
  35:Drivers/STM32L0xx_HAL_Driver/Src/stm32l0xx_hal.c **** /* Includes ------------------------------------------------------------------*/
  36:Drivers/STM32L0xx_HAL_Driver/Src/stm32l0xx_hal.c **** #include "stm32l0xx_hal.h"
  37:Drivers/STM32L0xx_HAL_Driver/Src/stm32l0xx_hal.c **** 
  38:Drivers/STM32L0xx_HAL_Driver/Src/stm32l0xx_hal.c **** /** @addtogroup STM32L0xx_HAL_Driver
  39:Drivers/STM32L0xx_HAL_Driver/Src/stm32l0xx_hal.c ****   * @{
  40:Drivers/STM32L0xx_HAL_Driver/Src/stm32l0xx_hal.c ****   */
  41:Drivers/STM32L0xx_HAL_Driver/Src/stm32l0xx_hal.c **** 
  42:Drivers/STM32L0xx_HAL_Driver/Src/stm32l0xx_hal.c **** #ifdef HAL_MODULE_ENABLED
  43:Drivers/STM32L0xx_HAL_Driver/Src/stm32l0xx_hal.c **** 
  44:Drivers/STM32L0xx_HAL_Driver/Src/stm32l0xx_hal.c **** /** @addtogroup HAL
  45:Drivers/STM32L0xx_HAL_Driver/Src/stm32l0xx_hal.c ****   * @brief HAL module driver.
  46:Drivers/STM32L0xx_HAL_Driver/Src/stm32l0xx_hal.c ****   * @{
  47:Drivers/STM32L0xx_HAL_Driver/Src/stm32l0xx_hal.c ****   */
  48:Drivers/STM32L0xx_HAL_Driver/Src/stm32l0xx_hal.c **** 
  49:Drivers/STM32L0xx_HAL_Driver/Src/stm32l0xx_hal.c **** /** @addtogroup HAL_Exported_Constants
  50:Drivers/STM32L0xx_HAL_Driver/Src/stm32l0xx_hal.c ****   * @{
  51:Drivers/STM32L0xx_HAL_Driver/Src/stm32l0xx_hal.c ****   */
  52:Drivers/STM32L0xx_HAL_Driver/Src/stm32l0xx_hal.c **** 
  53:Drivers/STM32L0xx_HAL_Driver/Src/stm32l0xx_hal.c **** /** @defgroup HAL_Version HAL Version
  54:Drivers/STM32L0xx_HAL_Driver/Src/stm32l0xx_hal.c ****   * @{
  55:Drivers/STM32L0xx_HAL_Driver/Src/stm32l0xx_hal.c ****   */
  56:Drivers/STM32L0xx_HAL_Driver/Src/stm32l0xx_hal.c **** 
  57:Drivers/STM32L0xx_HAL_Driver/Src/stm32l0xx_hal.c **** /**
  58:Drivers/STM32L0xx_HAL_Driver/Src/stm32l0xx_hal.c ****  * @brief STM32L0xx HAL Driver version number
  59:Drivers/STM32L0xx_HAL_Driver/Src/stm32l0xx_hal.c ****  */
  60:Drivers/STM32L0xx_HAL_Driver/Src/stm32l0xx_hal.c **** #define __STM32L0xx_HAL_VERSION_MAIN   (0x01U) /*!< [31:24] main version */
  61:Drivers/STM32L0xx_HAL_Driver/Src/stm32l0xx_hal.c **** #define __STM32L0xx_HAL_VERSION_SUB1   (0x0AU) /*!< [23:16] sub1 version */
  62:Drivers/STM32L0xx_HAL_Driver/Src/stm32l0xx_hal.c **** #define __STM32L0xx_HAL_VERSION_SUB2   (0x02U) /*!< [15:8]  sub2 version */
  63:Drivers/STM32L0xx_HAL_Driver/Src/stm32l0xx_hal.c **** #define __STM32L0xx_HAL_VERSION_RC     (0x00U) /*!< [7:0]  release candidate */
  64:Drivers/STM32L0xx_HAL_Driver/Src/stm32l0xx_hal.c **** #define __STM32L0xx_HAL_VERSION         ((__STM32L0xx_HAL_VERSION_MAIN << 24U)\
  65:Drivers/STM32L0xx_HAL_Driver/Src/stm32l0xx_hal.c ****                                         |(__STM32L0xx_HAL_VERSION_SUB1 << 16U)\
  66:Drivers/STM32L0xx_HAL_Driver/Src/stm32l0xx_hal.c ****                                         |(__STM32L0xx_HAL_VERSION_SUB2 << 8U )\
  67:Drivers/STM32L0xx_HAL_Driver/Src/stm32l0xx_hal.c ****                                         |(__STM32L0xx_HAL_VERSION_RC))
  68:Drivers/STM32L0xx_HAL_Driver/Src/stm32l0xx_hal.c **** 
  69:Drivers/STM32L0xx_HAL_Driver/Src/stm32l0xx_hal.c **** #define IDCODE_DEVID_MASK    ((uint32_t)0x00000FFFU)
  70:Drivers/STM32L0xx_HAL_Driver/Src/stm32l0xx_hal.c **** 
  71:Drivers/STM32L0xx_HAL_Driver/Src/stm32l0xx_hal.c **** /**
  72:Drivers/STM32L0xx_HAL_Driver/Src/stm32l0xx_hal.c ****   * @}
  73:Drivers/STM32L0xx_HAL_Driver/Src/stm32l0xx_hal.c ****   */
  74:Drivers/STM32L0xx_HAL_Driver/Src/stm32l0xx_hal.c **** 
  75:Drivers/STM32L0xx_HAL_Driver/Src/stm32l0xx_hal.c **** /**
  76:Drivers/STM32L0xx_HAL_Driver/Src/stm32l0xx_hal.c ****   * @}
  77:Drivers/STM32L0xx_HAL_Driver/Src/stm32l0xx_hal.c ****   */
  78:Drivers/STM32L0xx_HAL_Driver/Src/stm32l0xx_hal.c **** 
  79:Drivers/STM32L0xx_HAL_Driver/Src/stm32l0xx_hal.c **** /* Exported variables --------------------------------------------------------*/
  80:Drivers/STM32L0xx_HAL_Driver/Src/stm32l0xx_hal.c **** /** @addtogroup HAL_Exported_Variables
  81:Drivers/STM32L0xx_HAL_Driver/Src/stm32l0xx_hal.c ****   * @{
  82:Drivers/STM32L0xx_HAL_Driver/Src/stm32l0xx_hal.c ****   */
  83:Drivers/STM32L0xx_HAL_Driver/Src/stm32l0xx_hal.c **** __IO uint32_t uwTick;
  84:Drivers/STM32L0xx_HAL_Driver/Src/stm32l0xx_hal.c **** /**
  85:Drivers/STM32L0xx_HAL_Driver/Src/stm32l0xx_hal.c ****   * @}
  86:Drivers/STM32L0xx_HAL_Driver/Src/stm32l0xx_hal.c ****   */
  87:Drivers/STM32L0xx_HAL_Driver/Src/stm32l0xx_hal.c **** 
  88:Drivers/STM32L0xx_HAL_Driver/Src/stm32l0xx_hal.c **** /* Exported functions --------------------------------------------------------*/
  89:Drivers/STM32L0xx_HAL_Driver/Src/stm32l0xx_hal.c **** /** @addtogroup HAL_Exported_Functions
ARM GAS  /tmp/ccLokM46.s 			page 3


  90:Drivers/STM32L0xx_HAL_Driver/Src/stm32l0xx_hal.c ****   * @{
  91:Drivers/STM32L0xx_HAL_Driver/Src/stm32l0xx_hal.c ****   */
  92:Drivers/STM32L0xx_HAL_Driver/Src/stm32l0xx_hal.c **** 
  93:Drivers/STM32L0xx_HAL_Driver/Src/stm32l0xx_hal.c **** /** @addtogroup HAL_Exported_Functions_Group1
  94:Drivers/STM32L0xx_HAL_Driver/Src/stm32l0xx_hal.c ****  *  @brief    Initialization and de-initialization functions
  95:Drivers/STM32L0xx_HAL_Driver/Src/stm32l0xx_hal.c ****  *
  96:Drivers/STM32L0xx_HAL_Driver/Src/stm32l0xx_hal.c **** @verbatim
  97:Drivers/STM32L0xx_HAL_Driver/Src/stm32l0xx_hal.c ****  ===============================================================================
  98:Drivers/STM32L0xx_HAL_Driver/Src/stm32l0xx_hal.c ****               ##### Initialization and de-initialization functions #####
  99:Drivers/STM32L0xx_HAL_Driver/Src/stm32l0xx_hal.c ****  ===============================================================================
 100:Drivers/STM32L0xx_HAL_Driver/Src/stm32l0xx_hal.c ****    [..]  This section provides functions allowing to:
 101:Drivers/STM32L0xx_HAL_Driver/Src/stm32l0xx_hal.c ****       (+) Initialize the Flash interface, the NVIC allocation and initial clock
 102:Drivers/STM32L0xx_HAL_Driver/Src/stm32l0xx_hal.c ****           configuration. It initializes the source of time base also when timeout
 103:Drivers/STM32L0xx_HAL_Driver/Src/stm32l0xx_hal.c ****           is needed and the backup domain when enabled.
 104:Drivers/STM32L0xx_HAL_Driver/Src/stm32l0xx_hal.c ****       (+) De-initialize common part of the HAL.
 105:Drivers/STM32L0xx_HAL_Driver/Src/stm32l0xx_hal.c ****       (+) Configure the time base source to have 1ms time base with a dedicated
 106:Drivers/STM32L0xx_HAL_Driver/Src/stm32l0xx_hal.c ****           Tick interrupt priority.
 107:Drivers/STM32L0xx_HAL_Driver/Src/stm32l0xx_hal.c ****         (++) SysTick timer is used by default as source of time base, but user
 108:Drivers/STM32L0xx_HAL_Driver/Src/stm32l0xx_hal.c ****              can eventually implement his proper time base source (a general purpose
 109:Drivers/STM32L0xx_HAL_Driver/Src/stm32l0xx_hal.c ****              timer for example or other time source), keeping in mind that Time base
 110:Drivers/STM32L0xx_HAL_Driver/Src/stm32l0xx_hal.c ****              duration should be kept 1ms since PPP_TIMEOUT_VALUEs are defined and
 111:Drivers/STM32L0xx_HAL_Driver/Src/stm32l0xx_hal.c ****              handled in milliseconds basis.
 112:Drivers/STM32L0xx_HAL_Driver/Src/stm32l0xx_hal.c ****         (++) Time base configuration function (HAL_InitTick ()) is called automatically
 113:Drivers/STM32L0xx_HAL_Driver/Src/stm32l0xx_hal.c ****              at the beginning of the program after reset by HAL_Init() or at any time
 114:Drivers/STM32L0xx_HAL_Driver/Src/stm32l0xx_hal.c ****              when clock is configured, by HAL_RCC_ClockConfig().
 115:Drivers/STM32L0xx_HAL_Driver/Src/stm32l0xx_hal.c ****         (++) Source of time base is configured  to generate interrupts at regular
 116:Drivers/STM32L0xx_HAL_Driver/Src/stm32l0xx_hal.c ****              time intervals. Care must be taken if HAL_Delay() is called from a
 117:Drivers/STM32L0xx_HAL_Driver/Src/stm32l0xx_hal.c ****              peripheral ISR process, the Tick interrupt line must have higher priority
 118:Drivers/STM32L0xx_HAL_Driver/Src/stm32l0xx_hal.c ****             (numerically lower) than the peripheral interrupt. Otherwise the caller
 119:Drivers/STM32L0xx_HAL_Driver/Src/stm32l0xx_hal.c ****             ISR process will be blocked.
 120:Drivers/STM32L0xx_HAL_Driver/Src/stm32l0xx_hal.c ****        (++) functions affecting time base configurations are declared as __weak
 121:Drivers/STM32L0xx_HAL_Driver/Src/stm32l0xx_hal.c ****              to make  override possible  in case of other  implementations in user file.
 122:Drivers/STM32L0xx_HAL_Driver/Src/stm32l0xx_hal.c **** 
 123:Drivers/STM32L0xx_HAL_Driver/Src/stm32l0xx_hal.c **** @endverbatim
 124:Drivers/STM32L0xx_HAL_Driver/Src/stm32l0xx_hal.c ****   * @{
 125:Drivers/STM32L0xx_HAL_Driver/Src/stm32l0xx_hal.c ****   */
 126:Drivers/STM32L0xx_HAL_Driver/Src/stm32l0xx_hal.c **** 
 127:Drivers/STM32L0xx_HAL_Driver/Src/stm32l0xx_hal.c **** /**
 128:Drivers/STM32L0xx_HAL_Driver/Src/stm32l0xx_hal.c ****   * @brief This function configures the Flash prefetch, Flash preread and Buffer cache,
 129:Drivers/STM32L0xx_HAL_Driver/Src/stm32l0xx_hal.c ****   *        Configures time base source, NVIC and Low level hardware
 130:Drivers/STM32L0xx_HAL_Driver/Src/stm32l0xx_hal.c ****   * @note This function is called at the beginning of program after reset and before
 131:Drivers/STM32L0xx_HAL_Driver/Src/stm32l0xx_hal.c ****   *       the clock configuration
 132:Drivers/STM32L0xx_HAL_Driver/Src/stm32l0xx_hal.c ****   * @note The time base configuration is based on MSI clock when exiting from Reset.
 133:Drivers/STM32L0xx_HAL_Driver/Src/stm32l0xx_hal.c ****   *       Once done, time base tick start incrementing.
 134:Drivers/STM32L0xx_HAL_Driver/Src/stm32l0xx_hal.c ****   *        In the default implementation,Systick is used as source of time base.
 135:Drivers/STM32L0xx_HAL_Driver/Src/stm32l0xx_hal.c ****   *        the tick variable is incremented each 1ms in its ISR.
 136:Drivers/STM32L0xx_HAL_Driver/Src/stm32l0xx_hal.c ****   * @retval HAL status
 137:Drivers/STM32L0xx_HAL_Driver/Src/stm32l0xx_hal.c ****   */
 138:Drivers/STM32L0xx_HAL_Driver/Src/stm32l0xx_hal.c **** HAL_StatusTypeDef HAL_Init(void)
 139:Drivers/STM32L0xx_HAL_Driver/Src/stm32l0xx_hal.c **** {
 140:Drivers/STM32L0xx_HAL_Driver/Src/stm32l0xx_hal.c ****   HAL_StatusTypeDef  status = HAL_OK;
 141:Drivers/STM32L0xx_HAL_Driver/Src/stm32l0xx_hal.c **** 
 142:Drivers/STM32L0xx_HAL_Driver/Src/stm32l0xx_hal.c ****   /* Configure Buffer cache, Flash prefetch,  Flash preread */
 143:Drivers/STM32L0xx_HAL_Driver/Src/stm32l0xx_hal.c **** #if (BUFFER_CACHE_DISABLE != 0)
 144:Drivers/STM32L0xx_HAL_Driver/Src/stm32l0xx_hal.c ****   __HAL_FLASH_BUFFER_CACHE_DISABLE();
 145:Drivers/STM32L0xx_HAL_Driver/Src/stm32l0xx_hal.c **** #endif /* BUFFER_CACHE_DISABLE */
 146:Drivers/STM32L0xx_HAL_Driver/Src/stm32l0xx_hal.c **** 
ARM GAS  /tmp/ccLokM46.s 			page 4


 147:Drivers/STM32L0xx_HAL_Driver/Src/stm32l0xx_hal.c **** #if (PREREAD_ENABLE != 0)
 148:Drivers/STM32L0xx_HAL_Driver/Src/stm32l0xx_hal.c ****   __HAL_FLASH_PREREAD_BUFFER_ENABLE();
 149:Drivers/STM32L0xx_HAL_Driver/Src/stm32l0xx_hal.c **** #endif /* PREREAD_ENABLE */
 150:Drivers/STM32L0xx_HAL_Driver/Src/stm32l0xx_hal.c **** 
 151:Drivers/STM32L0xx_HAL_Driver/Src/stm32l0xx_hal.c **** #if (PREFETCH_ENABLE != 0)
 152:Drivers/STM32L0xx_HAL_Driver/Src/stm32l0xx_hal.c ****   __HAL_FLASH_PREFETCH_BUFFER_ENABLE();
 153:Drivers/STM32L0xx_HAL_Driver/Src/stm32l0xx_hal.c **** #endif /* PREFETCH_ENABLE */
 154:Drivers/STM32L0xx_HAL_Driver/Src/stm32l0xx_hal.c **** 
 155:Drivers/STM32L0xx_HAL_Driver/Src/stm32l0xx_hal.c ****   /* Use SysTick as time base source and configure 1ms tick (default clock after Reset is MSI) */
 156:Drivers/STM32L0xx_HAL_Driver/Src/stm32l0xx_hal.c ****   if (HAL_InitTick(TICK_INT_PRIORITY) != HAL_OK)
 157:Drivers/STM32L0xx_HAL_Driver/Src/stm32l0xx_hal.c ****   {
 158:Drivers/STM32L0xx_HAL_Driver/Src/stm32l0xx_hal.c ****     status = HAL_ERROR;
 159:Drivers/STM32L0xx_HAL_Driver/Src/stm32l0xx_hal.c ****   }
 160:Drivers/STM32L0xx_HAL_Driver/Src/stm32l0xx_hal.c ****   else
 161:Drivers/STM32L0xx_HAL_Driver/Src/stm32l0xx_hal.c ****   {
 162:Drivers/STM32L0xx_HAL_Driver/Src/stm32l0xx_hal.c ****     /* Init the low level hardware */
 163:Drivers/STM32L0xx_HAL_Driver/Src/stm32l0xx_hal.c ****     HAL_MspInit();
 164:Drivers/STM32L0xx_HAL_Driver/Src/stm32l0xx_hal.c ****   }
 165:Drivers/STM32L0xx_HAL_Driver/Src/stm32l0xx_hal.c **** 
 166:Drivers/STM32L0xx_HAL_Driver/Src/stm32l0xx_hal.c ****   /* Return function status */
 167:Drivers/STM32L0xx_HAL_Driver/Src/stm32l0xx_hal.c ****   return status;
 168:Drivers/STM32L0xx_HAL_Driver/Src/stm32l0xx_hal.c **** }
 169:Drivers/STM32L0xx_HAL_Driver/Src/stm32l0xx_hal.c **** 
 170:Drivers/STM32L0xx_HAL_Driver/Src/stm32l0xx_hal.c **** /**
 171:Drivers/STM32L0xx_HAL_Driver/Src/stm32l0xx_hal.c ****   * @brief This function de-initializes common part of the HAL and stops the source
 172:Drivers/STM32L0xx_HAL_Driver/Src/stm32l0xx_hal.c ****   *        of time base.
 173:Drivers/STM32L0xx_HAL_Driver/Src/stm32l0xx_hal.c ****   * @note This function is optional.
 174:Drivers/STM32L0xx_HAL_Driver/Src/stm32l0xx_hal.c ****   * @retval HAL status
 175:Drivers/STM32L0xx_HAL_Driver/Src/stm32l0xx_hal.c ****   */
 176:Drivers/STM32L0xx_HAL_Driver/Src/stm32l0xx_hal.c **** HAL_StatusTypeDef HAL_DeInit(void)
 177:Drivers/STM32L0xx_HAL_Driver/Src/stm32l0xx_hal.c **** {
 178:Drivers/STM32L0xx_HAL_Driver/Src/stm32l0xx_hal.c ****   /* Reset of all peripherals */
 179:Drivers/STM32L0xx_HAL_Driver/Src/stm32l0xx_hal.c ****   __HAL_RCC_APB1_FORCE_RESET();
 180:Drivers/STM32L0xx_HAL_Driver/Src/stm32l0xx_hal.c ****   __HAL_RCC_APB1_RELEASE_RESET();
 181:Drivers/STM32L0xx_HAL_Driver/Src/stm32l0xx_hal.c **** 
 182:Drivers/STM32L0xx_HAL_Driver/Src/stm32l0xx_hal.c ****   __HAL_RCC_APB2_FORCE_RESET();
 183:Drivers/STM32L0xx_HAL_Driver/Src/stm32l0xx_hal.c ****   __HAL_RCC_APB2_RELEASE_RESET();
 184:Drivers/STM32L0xx_HAL_Driver/Src/stm32l0xx_hal.c **** 
 185:Drivers/STM32L0xx_HAL_Driver/Src/stm32l0xx_hal.c ****   __HAL_RCC_AHB_FORCE_RESET();
 186:Drivers/STM32L0xx_HAL_Driver/Src/stm32l0xx_hal.c ****   __HAL_RCC_AHB_RELEASE_RESET();
 187:Drivers/STM32L0xx_HAL_Driver/Src/stm32l0xx_hal.c **** 
 188:Drivers/STM32L0xx_HAL_Driver/Src/stm32l0xx_hal.c ****   __HAL_RCC_IOP_FORCE_RESET();
 189:Drivers/STM32L0xx_HAL_Driver/Src/stm32l0xx_hal.c ****   __HAL_RCC_IOP_RELEASE_RESET();
 190:Drivers/STM32L0xx_HAL_Driver/Src/stm32l0xx_hal.c **** 
 191:Drivers/STM32L0xx_HAL_Driver/Src/stm32l0xx_hal.c ****   /* De-Init the low level hardware */
 192:Drivers/STM32L0xx_HAL_Driver/Src/stm32l0xx_hal.c ****   HAL_MspDeInit();
 193:Drivers/STM32L0xx_HAL_Driver/Src/stm32l0xx_hal.c **** 
 194:Drivers/STM32L0xx_HAL_Driver/Src/stm32l0xx_hal.c ****   /* Return function status */
 195:Drivers/STM32L0xx_HAL_Driver/Src/stm32l0xx_hal.c ****   return HAL_OK;
 196:Drivers/STM32L0xx_HAL_Driver/Src/stm32l0xx_hal.c **** }
 197:Drivers/STM32L0xx_HAL_Driver/Src/stm32l0xx_hal.c **** 
 198:Drivers/STM32L0xx_HAL_Driver/Src/stm32l0xx_hal.c **** /**
 199:Drivers/STM32L0xx_HAL_Driver/Src/stm32l0xx_hal.c ****   * @brief  Initializes the MSP.
 200:Drivers/STM32L0xx_HAL_Driver/Src/stm32l0xx_hal.c ****   * @retval None
 201:Drivers/STM32L0xx_HAL_Driver/Src/stm32l0xx_hal.c ****   */
 202:Drivers/STM32L0xx_HAL_Driver/Src/stm32l0xx_hal.c **** __weak void HAL_MspInit(void)
 203:Drivers/STM32L0xx_HAL_Driver/Src/stm32l0xx_hal.c **** {
ARM GAS  /tmp/ccLokM46.s 			page 5


  27              		.loc 1 203 1 view -0
  28              		.cfi_startproc
  29              		@ args = 0, pretend = 0, frame = 0
  30              		@ frame_needed = 0, uses_anonymous_args = 0
  31              		@ link register save eliminated.
 204:Drivers/STM32L0xx_HAL_Driver/Src/stm32l0xx_hal.c ****   /* NOTE : This function should not be modified, when the callback is needed,
 205:Drivers/STM32L0xx_HAL_Driver/Src/stm32l0xx_hal.c ****             the HAL_MspInit could be implemented in the user file
 206:Drivers/STM32L0xx_HAL_Driver/Src/stm32l0xx_hal.c ****    */
 207:Drivers/STM32L0xx_HAL_Driver/Src/stm32l0xx_hal.c **** }
  32              		.loc 1 207 1 view .LVU1
  33              		@ sp needed
  34 0000 7047     		bx	lr
  35              		.cfi_endproc
  36              	.LFE36:
  38              		.section	.text.HAL_MspDeInit,"ax",%progbits
  39              		.align	1
  40              		.weak	HAL_MspDeInit
  41              		.syntax unified
  42              		.code	16
  43              		.thumb_func
  44              		.fpu softvfp
  46              	HAL_MspDeInit:
  47              	.LFB37:
 208:Drivers/STM32L0xx_HAL_Driver/Src/stm32l0xx_hal.c **** 
 209:Drivers/STM32L0xx_HAL_Driver/Src/stm32l0xx_hal.c **** /**
 210:Drivers/STM32L0xx_HAL_Driver/Src/stm32l0xx_hal.c ****   * @brief  DeInitializes the MSP.
 211:Drivers/STM32L0xx_HAL_Driver/Src/stm32l0xx_hal.c ****   * @retval None
 212:Drivers/STM32L0xx_HAL_Driver/Src/stm32l0xx_hal.c ****   */
 213:Drivers/STM32L0xx_HAL_Driver/Src/stm32l0xx_hal.c **** __weak void HAL_MspDeInit(void)
 214:Drivers/STM32L0xx_HAL_Driver/Src/stm32l0xx_hal.c **** {
  48              		.loc 1 214 1 view -0
  49              		.cfi_startproc
  50              		@ args = 0, pretend = 0, frame = 0
  51              		@ frame_needed = 0, uses_anonymous_args = 0
  52              		@ link register save eliminated.
 215:Drivers/STM32L0xx_HAL_Driver/Src/stm32l0xx_hal.c ****   /* NOTE : This function should not be modified, when the callback is needed,
 216:Drivers/STM32L0xx_HAL_Driver/Src/stm32l0xx_hal.c ****             the HAL_MspDeInit could be implemented in the user file
 217:Drivers/STM32L0xx_HAL_Driver/Src/stm32l0xx_hal.c ****    */
 218:Drivers/STM32L0xx_HAL_Driver/Src/stm32l0xx_hal.c **** }
  53              		.loc 1 218 1 view .LVU3
  54              		@ sp needed
  55 0000 7047     		bx	lr
  56              		.cfi_endproc
  57              	.LFE37:
  59              		.section	.text.HAL_DeInit,"ax",%progbits
  60              		.align	1
  61              		.global	HAL_DeInit
  62              		.syntax unified
  63              		.code	16
  64              		.thumb_func
  65              		.fpu softvfp
  67              	HAL_DeInit:
  68              	.LFB35:
 177:Drivers/STM32L0xx_HAL_Driver/Src/stm32l0xx_hal.c ****   /* Reset of all peripherals */
  69              		.loc 1 177 1 view -0
  70              		.cfi_startproc
  71              		@ args = 0, pretend = 0, frame = 0
ARM GAS  /tmp/ccLokM46.s 			page 6


  72              		@ frame_needed = 0, uses_anonymous_args = 0
  73 0000 10B5     		push	{r4, lr}
  74              	.LCFI0:
  75              		.cfi_def_cfa_offset 8
  76              		.cfi_offset 4, -8
  77              		.cfi_offset 14, -4
 179:Drivers/STM32L0xx_HAL_Driver/Src/stm32l0xx_hal.c ****   __HAL_RCC_APB1_RELEASE_RESET();
  78              		.loc 1 179 3 view .LVU5
  79 0002 084B     		ldr	r3, .L4
  80 0004 0121     		movs	r1, #1
  81 0006 4942     		rsbs	r1, r1, #0
  82 0008 9962     		str	r1, [r3, #40]
 180:Drivers/STM32L0xx_HAL_Driver/Src/stm32l0xx_hal.c **** 
  83              		.loc 1 180 3 view .LVU6
  84 000a 0022     		movs	r2, #0
  85 000c 9A62     		str	r2, [r3, #40]
 182:Drivers/STM32L0xx_HAL_Driver/Src/stm32l0xx_hal.c ****   __HAL_RCC_APB2_RELEASE_RESET();
  86              		.loc 1 182 3 view .LVU7
  87 000e 5962     		str	r1, [r3, #36]
 183:Drivers/STM32L0xx_HAL_Driver/Src/stm32l0xx_hal.c **** 
  88              		.loc 1 183 3 view .LVU8
  89 0010 5A62     		str	r2, [r3, #36]
 185:Drivers/STM32L0xx_HAL_Driver/Src/stm32l0xx_hal.c ****   __HAL_RCC_AHB_RELEASE_RESET();
  90              		.loc 1 185 3 view .LVU9
  91 0012 1962     		str	r1, [r3, #32]
 186:Drivers/STM32L0xx_HAL_Driver/Src/stm32l0xx_hal.c **** 
  92              		.loc 1 186 3 view .LVU10
  93 0014 1A62     		str	r2, [r3, #32]
 188:Drivers/STM32L0xx_HAL_Driver/Src/stm32l0xx_hal.c ****   __HAL_RCC_IOP_RELEASE_RESET();
  94              		.loc 1 188 3 view .LVU11
  95 0016 D961     		str	r1, [r3, #28]
 189:Drivers/STM32L0xx_HAL_Driver/Src/stm32l0xx_hal.c **** 
  96              		.loc 1 189 3 view .LVU12
  97 0018 DA61     		str	r2, [r3, #28]
 192:Drivers/STM32L0xx_HAL_Driver/Src/stm32l0xx_hal.c **** 
  98              		.loc 1 192 3 view .LVU13
  99 001a FFF7FEFF 		bl	HAL_MspDeInit
 100              	.LVL0:
 195:Drivers/STM32L0xx_HAL_Driver/Src/stm32l0xx_hal.c **** }
 101              		.loc 1 195 3 view .LVU14
 196:Drivers/STM32L0xx_HAL_Driver/Src/stm32l0xx_hal.c **** 
 102              		.loc 1 196 1 is_stmt 0 view .LVU15
 103 001e 0020     		movs	r0, #0
 104              		@ sp needed
 105 0020 10BD     		pop	{r4, pc}
 106              	.L5:
 107 0022 C046     		.align	2
 108              	.L4:
 109 0024 00100240 		.word	1073876992
 110              		.cfi_endproc
 111              	.LFE35:
 113              		.global	__aeabi_uidiv
 114              		.section	.text.HAL_InitTick,"ax",%progbits
 115              		.align	1
 116              		.weak	HAL_InitTick
 117              		.syntax unified
 118              		.code	16
ARM GAS  /tmp/ccLokM46.s 			page 7


 119              		.thumb_func
 120              		.fpu softvfp
 122              	HAL_InitTick:
 123              	.LVL1:
 124              	.LFB38:
 219:Drivers/STM32L0xx_HAL_Driver/Src/stm32l0xx_hal.c **** 
 220:Drivers/STM32L0xx_HAL_Driver/Src/stm32l0xx_hal.c **** /**
 221:Drivers/STM32L0xx_HAL_Driver/Src/stm32l0xx_hal.c ****   * @brief This function configures the source of the time base:
 222:Drivers/STM32L0xx_HAL_Driver/Src/stm32l0xx_hal.c ****   *        The time source is configured to have 1ms time base with a dedicated
 223:Drivers/STM32L0xx_HAL_Driver/Src/stm32l0xx_hal.c ****   *        Tick interrupt priority.
 224:Drivers/STM32L0xx_HAL_Driver/Src/stm32l0xx_hal.c ****   * @note This function is called  automatically at the beginning of program after
 225:Drivers/STM32L0xx_HAL_Driver/Src/stm32l0xx_hal.c ****   *       reset by HAL_Init() or at any time when clock is reconfigured  by HAL_RCC_ClockConfig().
 226:Drivers/STM32L0xx_HAL_Driver/Src/stm32l0xx_hal.c ****   * @note In the default implementation, SysTick timer is the source of time base.
 227:Drivers/STM32L0xx_HAL_Driver/Src/stm32l0xx_hal.c ****   *       It is used to generate interrupts at regular time intervals.
 228:Drivers/STM32L0xx_HAL_Driver/Src/stm32l0xx_hal.c ****   *       Care must be taken if HAL_Delay() is called from a peripheral ISR process,
 229:Drivers/STM32L0xx_HAL_Driver/Src/stm32l0xx_hal.c ****   *       The SysTick interrupt must have higher priority (numerically lower)
 230:Drivers/STM32L0xx_HAL_Driver/Src/stm32l0xx_hal.c ****   *       than the peripheral interrupt. Otherwise the caller ISR process will be blocked.
 231:Drivers/STM32L0xx_HAL_Driver/Src/stm32l0xx_hal.c ****   *       The function is declared as __weak  to be overwritten  in case of other
 232:Drivers/STM32L0xx_HAL_Driver/Src/stm32l0xx_hal.c ****   *       implementation  in user file.
 233:Drivers/STM32L0xx_HAL_Driver/Src/stm32l0xx_hal.c ****   * @param TickPriority Tick interrupt priority.
 234:Drivers/STM32L0xx_HAL_Driver/Src/stm32l0xx_hal.c ****   * @retval HAL status
 235:Drivers/STM32L0xx_HAL_Driver/Src/stm32l0xx_hal.c ****   */
 236:Drivers/STM32L0xx_HAL_Driver/Src/stm32l0xx_hal.c **** __weak HAL_StatusTypeDef HAL_InitTick(uint32_t TickPriority)
 237:Drivers/STM32L0xx_HAL_Driver/Src/stm32l0xx_hal.c **** {
 125              		.loc 1 237 1 is_stmt 1 view -0
 126              		.cfi_startproc
 127              		@ args = 0, pretend = 0, frame = 0
 128              		@ frame_needed = 0, uses_anonymous_args = 0
 129              		.loc 1 237 1 is_stmt 0 view .LVU17
 130 0000 10B5     		push	{r4, lr}
 131              	.LCFI1:
 132              		.cfi_def_cfa_offset 8
 133              		.cfi_offset 4, -8
 134              		.cfi_offset 14, -4
 135 0002 0400     		movs	r4, r0
 238:Drivers/STM32L0xx_HAL_Driver/Src/stm32l0xx_hal.c ****   HAL_StatusTypeDef  status = HAL_OK;
 136              		.loc 1 238 3 is_stmt 1 view .LVU18
 137              	.LVL2:
 239:Drivers/STM32L0xx_HAL_Driver/Src/stm32l0xx_hal.c **** 
 240:Drivers/STM32L0xx_HAL_Driver/Src/stm32l0xx_hal.c ****   /*Configure the SysTick to have interrupt in 1ms time basis*/
 241:Drivers/STM32L0xx_HAL_Driver/Src/stm32l0xx_hal.c ****   if (HAL_SYSTICK_Config(SystemCoreClock/1000UL) != 0U)
 138              		.loc 1 241 3 view .LVU19
 139              		.loc 1 241 7 is_stmt 0 view .LVU20
 140 0004 094B     		ldr	r3, .L10
 141 0006 1868     		ldr	r0, [r3]
 142              	.LVL3:
 143              		.loc 1 241 7 view .LVU21
 144 0008 FA21     		movs	r1, #250
 145 000a 8900     		lsls	r1, r1, #2
 146 000c FFF7FEFF 		bl	__aeabi_uidiv
 147              	.LVL4:
 148 0010 FFF7FEFF 		bl	HAL_SYSTICK_Config
 149              	.LVL5:
 150              		.loc 1 241 6 view .LVU22
 151 0014 0028     		cmp	r0, #0
 152 0016 01D0     		beq	.L9
 242:Drivers/STM32L0xx_HAL_Driver/Src/stm32l0xx_hal.c ****   {
ARM GAS  /tmp/ccLokM46.s 			page 8


 243:Drivers/STM32L0xx_HAL_Driver/Src/stm32l0xx_hal.c ****     status = HAL_ERROR;
 153              		.loc 1 243 12 view .LVU23
 154 0018 0120     		movs	r0, #1
 155              	.L7:
 156              	.LVL6:
 244:Drivers/STM32L0xx_HAL_Driver/Src/stm32l0xx_hal.c ****   }
 245:Drivers/STM32L0xx_HAL_Driver/Src/stm32l0xx_hal.c ****   else
 246:Drivers/STM32L0xx_HAL_Driver/Src/stm32l0xx_hal.c ****   {
 247:Drivers/STM32L0xx_HAL_Driver/Src/stm32l0xx_hal.c ****     /*Configure the SysTick IRQ priority */
 248:Drivers/STM32L0xx_HAL_Driver/Src/stm32l0xx_hal.c ****     HAL_NVIC_SetPriority(SysTick_IRQn, TickPriority, 0);
 249:Drivers/STM32L0xx_HAL_Driver/Src/stm32l0xx_hal.c ****   }
 250:Drivers/STM32L0xx_HAL_Driver/Src/stm32l0xx_hal.c **** 
 251:Drivers/STM32L0xx_HAL_Driver/Src/stm32l0xx_hal.c ****   /* Return function status */
 252:Drivers/STM32L0xx_HAL_Driver/Src/stm32l0xx_hal.c ****   return status;
 157              		.loc 1 252 3 is_stmt 1 view .LVU24
 253:Drivers/STM32L0xx_HAL_Driver/Src/stm32l0xx_hal.c **** }
 158              		.loc 1 253 1 is_stmt 0 view .LVU25
 159              		@ sp needed
 160              	.LVL7:
 161              		.loc 1 253 1 view .LVU26
 162 001a 10BD     		pop	{r4, pc}
 163              	.LVL8:
 164              	.L9:
 248:Drivers/STM32L0xx_HAL_Driver/Src/stm32l0xx_hal.c ****   }
 165              		.loc 1 248 5 is_stmt 1 view .LVU27
 166 001c 0130     		adds	r0, r0, #1
 167 001e 0022     		movs	r2, #0
 168 0020 2100     		movs	r1, r4
 169 0022 4042     		rsbs	r0, r0, #0
 170 0024 FFF7FEFF 		bl	HAL_NVIC_SetPriority
 171              	.LVL9:
 238:Drivers/STM32L0xx_HAL_Driver/Src/stm32l0xx_hal.c **** 
 172              		.loc 1 238 22 is_stmt 0 view .LVU28
 173 0028 0020     		movs	r0, #0
 174 002a F6E7     		b	.L7
 175              	.L11:
 176              		.align	2
 177              	.L10:
 178 002c 00000000 		.word	SystemCoreClock
 179              		.cfi_endproc
 180              	.LFE38:
 182              		.section	.text.HAL_Init,"ax",%progbits
 183              		.align	1
 184              		.global	HAL_Init
 185              		.syntax unified
 186              		.code	16
 187              		.thumb_func
 188              		.fpu softvfp
 190              	HAL_Init:
 191              	.LFB34:
 139:Drivers/STM32L0xx_HAL_Driver/Src/stm32l0xx_hal.c ****   HAL_StatusTypeDef  status = HAL_OK;
 192              		.loc 1 139 1 is_stmt 1 view -0
 193              		.cfi_startproc
 194              		@ args = 0, pretend = 0, frame = 0
 195              		@ frame_needed = 0, uses_anonymous_args = 0
 196 0000 10B5     		push	{r4, lr}
 197              	.LCFI2:
ARM GAS  /tmp/ccLokM46.s 			page 9


 198              		.cfi_def_cfa_offset 8
 199              		.cfi_offset 4, -8
 200              		.cfi_offset 14, -4
 140:Drivers/STM32L0xx_HAL_Driver/Src/stm32l0xx_hal.c **** 
 201              		.loc 1 140 3 view .LVU30
 202              	.LVL10:
 148:Drivers/STM32L0xx_HAL_Driver/Src/stm32l0xx_hal.c **** #endif /* PREREAD_ENABLE */
 203              		.loc 1 148 3 view .LVU31
 204 0002 084A     		ldr	r2, .L16
 205 0004 1368     		ldr	r3, [r2]
 206 0006 4021     		movs	r1, #64
 207 0008 0B43     		orrs	r3, r1
 208 000a 1360     		str	r3, [r2]
 156:Drivers/STM32L0xx_HAL_Driver/Src/stm32l0xx_hal.c ****   {
 209              		.loc 1 156 3 view .LVU32
 156:Drivers/STM32L0xx_HAL_Driver/Src/stm32l0xx_hal.c ****   {
 210              		.loc 1 156 7 is_stmt 0 view .LVU33
 211 000c 0020     		movs	r0, #0
 212 000e FFF7FEFF 		bl	HAL_InitTick
 213              	.LVL11:
 214 0012 041E     		subs	r4, r0, #0
 156:Drivers/STM32L0xx_HAL_Driver/Src/stm32l0xx_hal.c ****   {
 215              		.loc 1 156 6 view .LVU34
 216 0014 02D0     		beq	.L15
 158:Drivers/STM32L0xx_HAL_Driver/Src/stm32l0xx_hal.c ****   }
 217              		.loc 1 158 12 view .LVU35
 218 0016 0124     		movs	r4, #1
 219              	.L13:
 220              	.LVL12:
 167:Drivers/STM32L0xx_HAL_Driver/Src/stm32l0xx_hal.c **** }
 221              		.loc 1 167 3 is_stmt 1 view .LVU36
 168:Drivers/STM32L0xx_HAL_Driver/Src/stm32l0xx_hal.c **** 
 222              		.loc 1 168 1 is_stmt 0 view .LVU37
 223 0018 2000     		movs	r0, r4
 224              		@ sp needed
 225              	.LVL13:
 168:Drivers/STM32L0xx_HAL_Driver/Src/stm32l0xx_hal.c **** 
 226              		.loc 1 168 1 view .LVU38
 227 001a 10BD     		pop	{r4, pc}
 228              	.LVL14:
 229              	.L15:
 163:Drivers/STM32L0xx_HAL_Driver/Src/stm32l0xx_hal.c ****   }
 230              		.loc 1 163 5 is_stmt 1 view .LVU39
 231 001c FFF7FEFF 		bl	HAL_MspInit
 232              	.LVL15:
 233 0020 FAE7     		b	.L13
 234              	.L17:
 235 0022 C046     		.align	2
 236              	.L16:
 237 0024 00200240 		.word	1073881088
 238              		.cfi_endproc
 239              	.LFE34:
 241              		.section	.text.HAL_IncTick,"ax",%progbits
 242              		.align	1
 243              		.weak	HAL_IncTick
 244              		.syntax unified
 245              		.code	16
ARM GAS  /tmp/ccLokM46.s 			page 10


 246              		.thumb_func
 247              		.fpu softvfp
 249              	HAL_IncTick:
 250              	.LFB39:
 254:Drivers/STM32L0xx_HAL_Driver/Src/stm32l0xx_hal.c **** 
 255:Drivers/STM32L0xx_HAL_Driver/Src/stm32l0xx_hal.c **** /**
 256:Drivers/STM32L0xx_HAL_Driver/Src/stm32l0xx_hal.c ****   * @}
 257:Drivers/STM32L0xx_HAL_Driver/Src/stm32l0xx_hal.c ****   */
 258:Drivers/STM32L0xx_HAL_Driver/Src/stm32l0xx_hal.c **** 
 259:Drivers/STM32L0xx_HAL_Driver/Src/stm32l0xx_hal.c **** /** @addtogroup HAL_Exported_Functions_Group2
 260:Drivers/STM32L0xx_HAL_Driver/Src/stm32l0xx_hal.c ****  *  @brief    HAL Control functions
 261:Drivers/STM32L0xx_HAL_Driver/Src/stm32l0xx_hal.c ****  *
 262:Drivers/STM32L0xx_HAL_Driver/Src/stm32l0xx_hal.c **** @verbatim
 263:Drivers/STM32L0xx_HAL_Driver/Src/stm32l0xx_hal.c ****  ===============================================================================
 264:Drivers/STM32L0xx_HAL_Driver/Src/stm32l0xx_hal.c ****                       ##### HAL Control functions #####
 265:Drivers/STM32L0xx_HAL_Driver/Src/stm32l0xx_hal.c ****  ===============================================================================
 266:Drivers/STM32L0xx_HAL_Driver/Src/stm32l0xx_hal.c ****     [..]  This section provides functions allowing to:
 267:Drivers/STM32L0xx_HAL_Driver/Src/stm32l0xx_hal.c ****       (+) Provide a tick value in millisecond
 268:Drivers/STM32L0xx_HAL_Driver/Src/stm32l0xx_hal.c ****       (+) Provide a blocking delay in millisecond
 269:Drivers/STM32L0xx_HAL_Driver/Src/stm32l0xx_hal.c ****       (+) Suspend the time base source interrupt
 270:Drivers/STM32L0xx_HAL_Driver/Src/stm32l0xx_hal.c ****       (+) Resume the time base source interrupt
 271:Drivers/STM32L0xx_HAL_Driver/Src/stm32l0xx_hal.c ****       (+) Get the HAL API driver version
 272:Drivers/STM32L0xx_HAL_Driver/Src/stm32l0xx_hal.c ****       (+) Get the device identifier
 273:Drivers/STM32L0xx_HAL_Driver/Src/stm32l0xx_hal.c ****       (+) Get the device revision identifier
 274:Drivers/STM32L0xx_HAL_Driver/Src/stm32l0xx_hal.c **** 
 275:Drivers/STM32L0xx_HAL_Driver/Src/stm32l0xx_hal.c **** @endverbatim
 276:Drivers/STM32L0xx_HAL_Driver/Src/stm32l0xx_hal.c ****   * @{
 277:Drivers/STM32L0xx_HAL_Driver/Src/stm32l0xx_hal.c ****   */
 278:Drivers/STM32L0xx_HAL_Driver/Src/stm32l0xx_hal.c **** 
 279:Drivers/STM32L0xx_HAL_Driver/Src/stm32l0xx_hal.c **** /**
 280:Drivers/STM32L0xx_HAL_Driver/Src/stm32l0xx_hal.c ****   * @brief This function is called to increment a global variable "uwTick"
 281:Drivers/STM32L0xx_HAL_Driver/Src/stm32l0xx_hal.c ****   *        used as application time base.
 282:Drivers/STM32L0xx_HAL_Driver/Src/stm32l0xx_hal.c ****   * @note In the default implementation, this variable is incremented each 1ms
 283:Drivers/STM32L0xx_HAL_Driver/Src/stm32l0xx_hal.c ****   *       in SysTick ISR.
 284:Drivers/STM32L0xx_HAL_Driver/Src/stm32l0xx_hal.c ****  * @note This function is declared as __weak to be overwritten in case of other
 285:Drivers/STM32L0xx_HAL_Driver/Src/stm32l0xx_hal.c ****   *      implementations in user file.
 286:Drivers/STM32L0xx_HAL_Driver/Src/stm32l0xx_hal.c ****   * @retval None
 287:Drivers/STM32L0xx_HAL_Driver/Src/stm32l0xx_hal.c ****   */
 288:Drivers/STM32L0xx_HAL_Driver/Src/stm32l0xx_hal.c **** __weak void HAL_IncTick(void)
 289:Drivers/STM32L0xx_HAL_Driver/Src/stm32l0xx_hal.c **** {
 251              		.loc 1 289 1 view -0
 252              		.cfi_startproc
 253              		@ args = 0, pretend = 0, frame = 0
 254              		@ frame_needed = 0, uses_anonymous_args = 0
 255              		@ link register save eliminated.
 290:Drivers/STM32L0xx_HAL_Driver/Src/stm32l0xx_hal.c ****   uwTick++;
 256              		.loc 1 290 3 view .LVU41
 257              		.loc 1 290 9 is_stmt 0 view .LVU42
 258 0000 024A     		ldr	r2, .L19
 259 0002 1368     		ldr	r3, [r2]
 260 0004 0133     		adds	r3, r3, #1
 261 0006 1360     		str	r3, [r2]
 291:Drivers/STM32L0xx_HAL_Driver/Src/stm32l0xx_hal.c **** }
 262              		.loc 1 291 1 view .LVU43
 263              		@ sp needed
 264 0008 7047     		bx	lr
 265              	.L20:
ARM GAS  /tmp/ccLokM46.s 			page 11


 266 000a C046     		.align	2
 267              	.L19:
 268 000c 00000000 		.word	uwTick
 269              		.cfi_endproc
 270              	.LFE39:
 272              		.section	.text.HAL_GetTick,"ax",%progbits
 273              		.align	1
 274              		.weak	HAL_GetTick
 275              		.syntax unified
 276              		.code	16
 277              		.thumb_func
 278              		.fpu softvfp
 280              	HAL_GetTick:
 281              	.LFB40:
 292:Drivers/STM32L0xx_HAL_Driver/Src/stm32l0xx_hal.c **** 
 293:Drivers/STM32L0xx_HAL_Driver/Src/stm32l0xx_hal.c **** /**
 294:Drivers/STM32L0xx_HAL_Driver/Src/stm32l0xx_hal.c ****   * @brief Provides a tick value in millisecond.
 295:Drivers/STM32L0xx_HAL_Driver/Src/stm32l0xx_hal.c ****   * @note This function is declared as __weak to be overwritten in case of other
 296:Drivers/STM32L0xx_HAL_Driver/Src/stm32l0xx_hal.c ****   *       implementations in user file.
 297:Drivers/STM32L0xx_HAL_Driver/Src/stm32l0xx_hal.c ****   * @retval tick value
 298:Drivers/STM32L0xx_HAL_Driver/Src/stm32l0xx_hal.c ****   */
 299:Drivers/STM32L0xx_HAL_Driver/Src/stm32l0xx_hal.c **** __weak uint32_t HAL_GetTick(void)
 300:Drivers/STM32L0xx_HAL_Driver/Src/stm32l0xx_hal.c **** {
 282              		.loc 1 300 1 is_stmt 1 view -0
 283              		.cfi_startproc
 284              		@ args = 0, pretend = 0, frame = 0
 285              		@ frame_needed = 0, uses_anonymous_args = 0
 286              		@ link register save eliminated.
 301:Drivers/STM32L0xx_HAL_Driver/Src/stm32l0xx_hal.c ****   return uwTick;
 287              		.loc 1 301 3 view .LVU45
 288              		.loc 1 301 10 is_stmt 0 view .LVU46
 289 0000 014B     		ldr	r3, .L22
 290 0002 1868     		ldr	r0, [r3]
 302:Drivers/STM32L0xx_HAL_Driver/Src/stm32l0xx_hal.c **** }
 291              		.loc 1 302 1 view .LVU47
 292              		@ sp needed
 293 0004 7047     		bx	lr
 294              	.L23:
 295 0006 C046     		.align	2
 296              	.L22:
 297 0008 00000000 		.word	uwTick
 298              		.cfi_endproc
 299              	.LFE40:
 301              		.section	.text.HAL_Delay,"ax",%progbits
 302              		.align	1
 303              		.weak	HAL_Delay
 304              		.syntax unified
 305              		.code	16
 306              		.thumb_func
 307              		.fpu softvfp
 309              	HAL_Delay:
 310              	.LVL16:
 311              	.LFB41:
 303:Drivers/STM32L0xx_HAL_Driver/Src/stm32l0xx_hal.c **** 
 304:Drivers/STM32L0xx_HAL_Driver/Src/stm32l0xx_hal.c **** /**
 305:Drivers/STM32L0xx_HAL_Driver/Src/stm32l0xx_hal.c ****   * @brief This function provides minimum delay (in milliseconds) based
 306:Drivers/STM32L0xx_HAL_Driver/Src/stm32l0xx_hal.c ****   *        on variable incremented.
ARM GAS  /tmp/ccLokM46.s 			page 12


 307:Drivers/STM32L0xx_HAL_Driver/Src/stm32l0xx_hal.c ****   * @note In the default implementation , SysTick timer is the source of time base.
 308:Drivers/STM32L0xx_HAL_Driver/Src/stm32l0xx_hal.c ****   *       It is used to generate interrupts at regular time intervals where uwTick
 309:Drivers/STM32L0xx_HAL_Driver/Src/stm32l0xx_hal.c ****   *       is incremented.
 310:Drivers/STM32L0xx_HAL_Driver/Src/stm32l0xx_hal.c ****   * @note This function is declared as __weak to be overwritten in case of other
 311:Drivers/STM32L0xx_HAL_Driver/Src/stm32l0xx_hal.c ****   *       implementations in user file.
 312:Drivers/STM32L0xx_HAL_Driver/Src/stm32l0xx_hal.c ****   * @param Delay specifies the delay time length, in milliseconds.
 313:Drivers/STM32L0xx_HAL_Driver/Src/stm32l0xx_hal.c ****   * @retval None
 314:Drivers/STM32L0xx_HAL_Driver/Src/stm32l0xx_hal.c ****   */
 315:Drivers/STM32L0xx_HAL_Driver/Src/stm32l0xx_hal.c **** __weak void HAL_Delay(uint32_t Delay)
 316:Drivers/STM32L0xx_HAL_Driver/Src/stm32l0xx_hal.c **** {
 312              		.loc 1 316 1 is_stmt 1 view -0
 313              		.cfi_startproc
 314              		@ args = 0, pretend = 0, frame = 0
 315              		@ frame_needed = 0, uses_anonymous_args = 0
 316              		.loc 1 316 1 is_stmt 0 view .LVU49
 317 0000 70B5     		push	{r4, r5, r6, lr}
 318              	.LCFI3:
 319              		.cfi_def_cfa_offset 16
 320              		.cfi_offset 4, -16
 321              		.cfi_offset 5, -12
 322              		.cfi_offset 6, -8
 323              		.cfi_offset 14, -4
 324 0002 0400     		movs	r4, r0
 317:Drivers/STM32L0xx_HAL_Driver/Src/stm32l0xx_hal.c ****   uint32_t tickstart = HAL_GetTick();
 325              		.loc 1 317 3 is_stmt 1 view .LVU50
 326              		.loc 1 317 24 is_stmt 0 view .LVU51
 327 0004 FFF7FEFF 		bl	HAL_GetTick
 328              	.LVL17:
 329              		.loc 1 317 24 view .LVU52
 330 0008 0500     		movs	r5, r0
 331              	.LVL18:
 318:Drivers/STM32L0xx_HAL_Driver/Src/stm32l0xx_hal.c ****   uint32_t wait = Delay;
 332              		.loc 1 318 3 is_stmt 1 view .LVU53
 319:Drivers/STM32L0xx_HAL_Driver/Src/stm32l0xx_hal.c **** 
 320:Drivers/STM32L0xx_HAL_Driver/Src/stm32l0xx_hal.c ****   /* Add a period to guaranty minimum wait */
 321:Drivers/STM32L0xx_HAL_Driver/Src/stm32l0xx_hal.c ****   if (wait < HAL_MAX_DELAY)
 333              		.loc 1 321 3 view .LVU54
 334              		.loc 1 321 6 is_stmt 0 view .LVU55
 335 000a 631C     		adds	r3, r4, #1
 336 000c 00D0     		beq	.L26
 322:Drivers/STM32L0xx_HAL_Driver/Src/stm32l0xx_hal.c ****   {
 323:Drivers/STM32L0xx_HAL_Driver/Src/stm32l0xx_hal.c ****     wait++;
 337              		.loc 1 323 5 is_stmt 1 view .LVU56
 338              		.loc 1 323 9 is_stmt 0 view .LVU57
 339 000e 0134     		adds	r4, r4, #1
 340              	.LVL19:
 341              	.L26:
 324:Drivers/STM32L0xx_HAL_Driver/Src/stm32l0xx_hal.c ****   }
 325:Drivers/STM32L0xx_HAL_Driver/Src/stm32l0xx_hal.c **** 
 326:Drivers/STM32L0xx_HAL_Driver/Src/stm32l0xx_hal.c ****   while((HAL_GetTick() - tickstart) < wait)
 327:Drivers/STM32L0xx_HAL_Driver/Src/stm32l0xx_hal.c ****   {
 328:Drivers/STM32L0xx_HAL_Driver/Src/stm32l0xx_hal.c ****   }
 342              		.loc 1 328 3 is_stmt 1 discriminator 1 view .LVU58
 326:Drivers/STM32L0xx_HAL_Driver/Src/stm32l0xx_hal.c ****   {
 343              		.loc 1 326 10 is_stmt 0 discriminator 1 view .LVU59
 344 0010 FFF7FEFF 		bl	HAL_GetTick
 345              	.LVL20:
ARM GAS  /tmp/ccLokM46.s 			page 13


 326:Drivers/STM32L0xx_HAL_Driver/Src/stm32l0xx_hal.c ****   {
 346              		.loc 1 326 24 discriminator 1 view .LVU60
 347 0014 401B     		subs	r0, r0, r5
 326:Drivers/STM32L0xx_HAL_Driver/Src/stm32l0xx_hal.c ****   {
 348              		.loc 1 326 8 discriminator 1 view .LVU61
 349 0016 A042     		cmp	r0, r4
 350 0018 FAD3     		bcc	.L26
 329:Drivers/STM32L0xx_HAL_Driver/Src/stm32l0xx_hal.c **** }
 351              		.loc 1 329 1 view .LVU62
 352              		@ sp needed
 353              	.LVL21:
 354              	.LVL22:
 355              		.loc 1 329 1 view .LVU63
 356 001a 70BD     		pop	{r4, r5, r6, pc}
 357              		.cfi_endproc
 358              	.LFE41:
 360              		.section	.text.HAL_SuspendTick,"ax",%progbits
 361              		.align	1
 362              		.weak	HAL_SuspendTick
 363              		.syntax unified
 364              		.code	16
 365              		.thumb_func
 366              		.fpu softvfp
 368              	HAL_SuspendTick:
 369              	.LFB42:
 330:Drivers/STM32L0xx_HAL_Driver/Src/stm32l0xx_hal.c **** 
 331:Drivers/STM32L0xx_HAL_Driver/Src/stm32l0xx_hal.c **** /**
 332:Drivers/STM32L0xx_HAL_Driver/Src/stm32l0xx_hal.c ****   * @brief Suspends the Tick increment.
 333:Drivers/STM32L0xx_HAL_Driver/Src/stm32l0xx_hal.c ****   * @note In the default implementation , SysTick timer is the source of time base. It is
 334:Drivers/STM32L0xx_HAL_Driver/Src/stm32l0xx_hal.c ****   *       used to generate interrupts at regular time intervals. Once HAL_SuspendTick()
 335:Drivers/STM32L0xx_HAL_Driver/Src/stm32l0xx_hal.c ****   *       is called, the SysTick interrupt will be disabled and so Tick increment
 336:Drivers/STM32L0xx_HAL_Driver/Src/stm32l0xx_hal.c ****   *       is suspended.
 337:Drivers/STM32L0xx_HAL_Driver/Src/stm32l0xx_hal.c ****   * @note This function is declared as __weak to be overwritten in case of other
 338:Drivers/STM32L0xx_HAL_Driver/Src/stm32l0xx_hal.c ****   *       implementations in user file.
 339:Drivers/STM32L0xx_HAL_Driver/Src/stm32l0xx_hal.c ****   * @retval None
 340:Drivers/STM32L0xx_HAL_Driver/Src/stm32l0xx_hal.c ****   */
 341:Drivers/STM32L0xx_HAL_Driver/Src/stm32l0xx_hal.c **** __weak void HAL_SuspendTick(void)
 342:Drivers/STM32L0xx_HAL_Driver/Src/stm32l0xx_hal.c **** {
 370              		.loc 1 342 1 is_stmt 1 view -0
 371              		.cfi_startproc
 372              		@ args = 0, pretend = 0, frame = 0
 373              		@ frame_needed = 0, uses_anonymous_args = 0
 374              		@ link register save eliminated.
 343:Drivers/STM32L0xx_HAL_Driver/Src/stm32l0xx_hal.c ****   /* Disable SysTick Interrupt */
 344:Drivers/STM32L0xx_HAL_Driver/Src/stm32l0xx_hal.c ****   SysTick->CTRL &= ~SysTick_CTRL_TICKINT_Msk;
 375              		.loc 1 344 3 view .LVU65
 376              		.loc 1 344 17 is_stmt 0 view .LVU66
 377 0000 024A     		ldr	r2, .L28
 378 0002 1368     		ldr	r3, [r2]
 379 0004 0221     		movs	r1, #2
 380 0006 8B43     		bics	r3, r1
 381 0008 1360     		str	r3, [r2]
 345:Drivers/STM32L0xx_HAL_Driver/Src/stm32l0xx_hal.c **** }
 382              		.loc 1 345 1 view .LVU67
 383              		@ sp needed
 384 000a 7047     		bx	lr
 385              	.L29:
ARM GAS  /tmp/ccLokM46.s 			page 14


 386              		.align	2
 387              	.L28:
 388 000c 10E000E0 		.word	-536813552
 389              		.cfi_endproc
 390              	.LFE42:
 392              		.section	.text.HAL_ResumeTick,"ax",%progbits
 393              		.align	1
 394              		.weak	HAL_ResumeTick
 395              		.syntax unified
 396              		.code	16
 397              		.thumb_func
 398              		.fpu softvfp
 400              	HAL_ResumeTick:
 401              	.LFB43:
 346:Drivers/STM32L0xx_HAL_Driver/Src/stm32l0xx_hal.c **** 
 347:Drivers/STM32L0xx_HAL_Driver/Src/stm32l0xx_hal.c **** /**
 348:Drivers/STM32L0xx_HAL_Driver/Src/stm32l0xx_hal.c ****   * @brief Resumes the Tick increment.
 349:Drivers/STM32L0xx_HAL_Driver/Src/stm32l0xx_hal.c ****   * @note In the default implementation , SysTick timer is the source of time base. It is
 350:Drivers/STM32L0xx_HAL_Driver/Src/stm32l0xx_hal.c ****   *       used to generate interrupts at regular time intervals. Once HAL_ResumeTick()
 351:Drivers/STM32L0xx_HAL_Driver/Src/stm32l0xx_hal.c ****   *       is called, the SysTick interrupt will be enabled and so Tick increment
 352:Drivers/STM32L0xx_HAL_Driver/Src/stm32l0xx_hal.c ****   *       is resumed.
 353:Drivers/STM32L0xx_HAL_Driver/Src/stm32l0xx_hal.c ****   * @note This function is declared as __weak to be overwritten in case of other
 354:Drivers/STM32L0xx_HAL_Driver/Src/stm32l0xx_hal.c ****   *       implementations in user file.
 355:Drivers/STM32L0xx_HAL_Driver/Src/stm32l0xx_hal.c ****   * @retval None
 356:Drivers/STM32L0xx_HAL_Driver/Src/stm32l0xx_hal.c ****   */
 357:Drivers/STM32L0xx_HAL_Driver/Src/stm32l0xx_hal.c **** __weak void HAL_ResumeTick(void)
 358:Drivers/STM32L0xx_HAL_Driver/Src/stm32l0xx_hal.c **** {
 402              		.loc 1 358 1 is_stmt 1 view -0
 403              		.cfi_startproc
 404              		@ args = 0, pretend = 0, frame = 0
 405              		@ frame_needed = 0, uses_anonymous_args = 0
 406              		@ link register save eliminated.
 359:Drivers/STM32L0xx_HAL_Driver/Src/stm32l0xx_hal.c ****   /* Enable SysTick Interrupt */
 360:Drivers/STM32L0xx_HAL_Driver/Src/stm32l0xx_hal.c ****   SysTick->CTRL  |= SysTick_CTRL_TICKINT_Msk;
 407              		.loc 1 360 3 view .LVU69
 408              		.loc 1 360 18 is_stmt 0 view .LVU70
 409 0000 024A     		ldr	r2, .L31
 410 0002 1368     		ldr	r3, [r2]
 411 0004 0221     		movs	r1, #2
 412 0006 0B43     		orrs	r3, r1
 413 0008 1360     		str	r3, [r2]
 361:Drivers/STM32L0xx_HAL_Driver/Src/stm32l0xx_hal.c **** }
 414              		.loc 1 361 1 view .LVU71
 415              		@ sp needed
 416 000a 7047     		bx	lr
 417              	.L32:
 418              		.align	2
 419              	.L31:
 420 000c 10E000E0 		.word	-536813552
 421              		.cfi_endproc
 422              	.LFE43:
 424              		.section	.text.HAL_GetHalVersion,"ax",%progbits
 425              		.align	1
 426              		.global	HAL_GetHalVersion
 427              		.syntax unified
 428              		.code	16
 429              		.thumb_func
ARM GAS  /tmp/ccLokM46.s 			page 15


 430              		.fpu softvfp
 432              	HAL_GetHalVersion:
 433              	.LFB44:
 362:Drivers/STM32L0xx_HAL_Driver/Src/stm32l0xx_hal.c **** 
 363:Drivers/STM32L0xx_HAL_Driver/Src/stm32l0xx_hal.c **** /**
 364:Drivers/STM32L0xx_HAL_Driver/Src/stm32l0xx_hal.c ****   * @brief Returns the HAL revision
 365:Drivers/STM32L0xx_HAL_Driver/Src/stm32l0xx_hal.c ****   * @retval version: 0xXYZR (8bits for each decimal, R for RC)
 366:Drivers/STM32L0xx_HAL_Driver/Src/stm32l0xx_hal.c ****   */
 367:Drivers/STM32L0xx_HAL_Driver/Src/stm32l0xx_hal.c **** uint32_t HAL_GetHalVersion(void)
 368:Drivers/STM32L0xx_HAL_Driver/Src/stm32l0xx_hal.c **** {
 434              		.loc 1 368 1 is_stmt 1 view -0
 435              		.cfi_startproc
 436              		@ args = 0, pretend = 0, frame = 0
 437              		@ frame_needed = 0, uses_anonymous_args = 0
 438              		@ link register save eliminated.
 369:Drivers/STM32L0xx_HAL_Driver/Src/stm32l0xx_hal.c ****   return __STM32L0xx_HAL_VERSION;
 439              		.loc 1 369 3 view .LVU73
 370:Drivers/STM32L0xx_HAL_Driver/Src/stm32l0xx_hal.c **** }
 440              		.loc 1 370 1 is_stmt 0 view .LVU74
 441 0000 0048     		ldr	r0, .L34
 442              		@ sp needed
 443 0002 7047     		bx	lr
 444              	.L35:
 445              		.align	2
 446              	.L34:
 447 0004 00020A01 		.word	17433088
 448              		.cfi_endproc
 449              	.LFE44:
 451              		.section	.text.HAL_GetREVID,"ax",%progbits
 452              		.align	1
 453              		.global	HAL_GetREVID
 454              		.syntax unified
 455              		.code	16
 456              		.thumb_func
 457              		.fpu softvfp
 459              	HAL_GetREVID:
 460              	.LFB45:
 371:Drivers/STM32L0xx_HAL_Driver/Src/stm32l0xx_hal.c **** 
 372:Drivers/STM32L0xx_HAL_Driver/Src/stm32l0xx_hal.c **** /**
 373:Drivers/STM32L0xx_HAL_Driver/Src/stm32l0xx_hal.c ****   * @brief Returns the device revision identifier.
 374:Drivers/STM32L0xx_HAL_Driver/Src/stm32l0xx_hal.c ****   * @retval Device revision identifier
 375:Drivers/STM32L0xx_HAL_Driver/Src/stm32l0xx_hal.c ****   */
 376:Drivers/STM32L0xx_HAL_Driver/Src/stm32l0xx_hal.c **** uint32_t HAL_GetREVID(void)
 377:Drivers/STM32L0xx_HAL_Driver/Src/stm32l0xx_hal.c **** {
 461              		.loc 1 377 1 is_stmt 1 view -0
 462              		.cfi_startproc
 463              		@ args = 0, pretend = 0, frame = 0
 464              		@ frame_needed = 0, uses_anonymous_args = 0
 465              		@ link register save eliminated.
 378:Drivers/STM32L0xx_HAL_Driver/Src/stm32l0xx_hal.c ****   return((DBGMCU->IDCODE) >> 16U);
 466              		.loc 1 378 3 view .LVU76
 467              		.loc 1 378 17 is_stmt 0 view .LVU77
 468 0000 014B     		ldr	r3, .L37
 469 0002 1868     		ldr	r0, [r3]
 470              		.loc 1 378 27 view .LVU78
 471 0004 000C     		lsrs	r0, r0, #16
 379:Drivers/STM32L0xx_HAL_Driver/Src/stm32l0xx_hal.c **** }
ARM GAS  /tmp/ccLokM46.s 			page 16


 472              		.loc 1 379 1 view .LVU79
 473              		@ sp needed
 474 0006 7047     		bx	lr
 475              	.L38:
 476              		.align	2
 477              	.L37:
 478 0008 00580140 		.word	1073829888
 479              		.cfi_endproc
 480              	.LFE45:
 482              		.section	.text.HAL_GetDEVID,"ax",%progbits
 483              		.align	1
 484              		.global	HAL_GetDEVID
 485              		.syntax unified
 486              		.code	16
 487              		.thumb_func
 488              		.fpu softvfp
 490              	HAL_GetDEVID:
 491              	.LFB46:
 380:Drivers/STM32L0xx_HAL_Driver/Src/stm32l0xx_hal.c **** 
 381:Drivers/STM32L0xx_HAL_Driver/Src/stm32l0xx_hal.c **** /**
 382:Drivers/STM32L0xx_HAL_Driver/Src/stm32l0xx_hal.c ****   * @brief  Returns the device identifier.
 383:Drivers/STM32L0xx_HAL_Driver/Src/stm32l0xx_hal.c ****   * @retval Device identifier
 384:Drivers/STM32L0xx_HAL_Driver/Src/stm32l0xx_hal.c ****   */
 385:Drivers/STM32L0xx_HAL_Driver/Src/stm32l0xx_hal.c **** uint32_t HAL_GetDEVID(void)
 386:Drivers/STM32L0xx_HAL_Driver/Src/stm32l0xx_hal.c **** {
 492              		.loc 1 386 1 is_stmt 1 view -0
 493              		.cfi_startproc
 494              		@ args = 0, pretend = 0, frame = 0
 495              		@ frame_needed = 0, uses_anonymous_args = 0
 496              		@ link register save eliminated.
 387:Drivers/STM32L0xx_HAL_Driver/Src/stm32l0xx_hal.c ****    return((DBGMCU->IDCODE) & IDCODE_DEVID_MASK);
 497              		.loc 1 387 4 view .LVU81
 498              		.loc 1 387 18 is_stmt 0 view .LVU82
 499 0000 024B     		ldr	r3, .L40
 500 0002 1868     		ldr	r0, [r3]
 501              		.loc 1 387 28 view .LVU83
 502 0004 0005     		lsls	r0, r0, #20
 503 0006 000D     		lsrs	r0, r0, #20
 388:Drivers/STM32L0xx_HAL_Driver/Src/stm32l0xx_hal.c **** }
 504              		.loc 1 388 1 view .LVU84
 505              		@ sp needed
 506 0008 7047     		bx	lr
 507              	.L41:
 508 000a C046     		.align	2
 509              	.L40:
 510 000c 00580140 		.word	1073829888
 511              		.cfi_endproc
 512              	.LFE46:
 514              		.section	.text.HAL_GetUIDw0,"ax",%progbits
 515              		.align	1
 516              		.global	HAL_GetUIDw0
 517              		.syntax unified
 518              		.code	16
 519              		.thumb_func
 520              		.fpu softvfp
 522              	HAL_GetUIDw0:
 523              	.LFB47:
ARM GAS  /tmp/ccLokM46.s 			page 17


 389:Drivers/STM32L0xx_HAL_Driver/Src/stm32l0xx_hal.c **** 
 390:Drivers/STM32L0xx_HAL_Driver/Src/stm32l0xx_hal.c **** /**
 391:Drivers/STM32L0xx_HAL_Driver/Src/stm32l0xx_hal.c ****   * @brief  Returns the first word of the unique device identifier (UID based on 96 bits)
 392:Drivers/STM32L0xx_HAL_Driver/Src/stm32l0xx_hal.c ****   * @retval Device identifier
 393:Drivers/STM32L0xx_HAL_Driver/Src/stm32l0xx_hal.c ****   */
 394:Drivers/STM32L0xx_HAL_Driver/Src/stm32l0xx_hal.c **** uint32_t HAL_GetUIDw0(void)
 395:Drivers/STM32L0xx_HAL_Driver/Src/stm32l0xx_hal.c **** {
 524              		.loc 1 395 1 is_stmt 1 view -0
 525              		.cfi_startproc
 526              		@ args = 0, pretend = 0, frame = 0
 527              		@ frame_needed = 0, uses_anonymous_args = 0
 528              		@ link register save eliminated.
 396:Drivers/STM32L0xx_HAL_Driver/Src/stm32l0xx_hal.c ****   return(READ_REG(*((uint32_t *)UID_BASE)));
 529              		.loc 1 396 3 view .LVU86
 530              		.loc 1 396 10 is_stmt 0 view .LVU87
 531 0000 014B     		ldr	r3, .L43
 532 0002 1868     		ldr	r0, [r3]
 397:Drivers/STM32L0xx_HAL_Driver/Src/stm32l0xx_hal.c **** }
 533              		.loc 1 397 1 view .LVU88
 534              		@ sp needed
 535 0004 7047     		bx	lr
 536              	.L44:
 537 0006 C046     		.align	2
 538              	.L43:
 539 0008 5000F81F 		.word	536346704
 540              		.cfi_endproc
 541              	.LFE47:
 543              		.section	.text.HAL_GetUIDw1,"ax",%progbits
 544              		.align	1
 545              		.global	HAL_GetUIDw1
 546              		.syntax unified
 547              		.code	16
 548              		.thumb_func
 549              		.fpu softvfp
 551              	HAL_GetUIDw1:
 552              	.LFB48:
 398:Drivers/STM32L0xx_HAL_Driver/Src/stm32l0xx_hal.c **** 
 399:Drivers/STM32L0xx_HAL_Driver/Src/stm32l0xx_hal.c **** /**
 400:Drivers/STM32L0xx_HAL_Driver/Src/stm32l0xx_hal.c ****   * @brief  Returns the second word of the unique device identifier (UID based on 96 bits)
 401:Drivers/STM32L0xx_HAL_Driver/Src/stm32l0xx_hal.c ****   * @retval Device identifier
 402:Drivers/STM32L0xx_HAL_Driver/Src/stm32l0xx_hal.c ****   */
 403:Drivers/STM32L0xx_HAL_Driver/Src/stm32l0xx_hal.c **** uint32_t HAL_GetUIDw1(void)
 404:Drivers/STM32L0xx_HAL_Driver/Src/stm32l0xx_hal.c **** {
 553              		.loc 1 404 1 is_stmt 1 view -0
 554              		.cfi_startproc
 555              		@ args = 0, pretend = 0, frame = 0
 556              		@ frame_needed = 0, uses_anonymous_args = 0
 557              		@ link register save eliminated.
 405:Drivers/STM32L0xx_HAL_Driver/Src/stm32l0xx_hal.c ****   return(READ_REG(*((uint32_t *)(UID_BASE + 0x04U))));
 558              		.loc 1 405 3 view .LVU90
 559              		.loc 1 405 10 is_stmt 0 view .LVU91
 560 0000 014B     		ldr	r3, .L46
 561 0002 1868     		ldr	r0, [r3]
 406:Drivers/STM32L0xx_HAL_Driver/Src/stm32l0xx_hal.c **** }
 562              		.loc 1 406 1 view .LVU92
 563              		@ sp needed
 564 0004 7047     		bx	lr
ARM GAS  /tmp/ccLokM46.s 			page 18


 565              	.L47:
 566 0006 C046     		.align	2
 567              	.L46:
 568 0008 5400F81F 		.word	536346708
 569              		.cfi_endproc
 570              	.LFE48:
 572              		.section	.text.HAL_GetUIDw2,"ax",%progbits
 573              		.align	1
 574              		.global	HAL_GetUIDw2
 575              		.syntax unified
 576              		.code	16
 577              		.thumb_func
 578              		.fpu softvfp
 580              	HAL_GetUIDw2:
 581              	.LFB49:
 407:Drivers/STM32L0xx_HAL_Driver/Src/stm32l0xx_hal.c **** 
 408:Drivers/STM32L0xx_HAL_Driver/Src/stm32l0xx_hal.c **** /**
 409:Drivers/STM32L0xx_HAL_Driver/Src/stm32l0xx_hal.c ****   * @brief  Returns the third word of the unique device identifier (UID based on 96 bits)
 410:Drivers/STM32L0xx_HAL_Driver/Src/stm32l0xx_hal.c ****   * @retval Device identifier
 411:Drivers/STM32L0xx_HAL_Driver/Src/stm32l0xx_hal.c ****   */
 412:Drivers/STM32L0xx_HAL_Driver/Src/stm32l0xx_hal.c **** uint32_t HAL_GetUIDw2(void)
 413:Drivers/STM32L0xx_HAL_Driver/Src/stm32l0xx_hal.c **** {
 582              		.loc 1 413 1 is_stmt 1 view -0
 583              		.cfi_startproc
 584              		@ args = 0, pretend = 0, frame = 0
 585              		@ frame_needed = 0, uses_anonymous_args = 0
 586              		@ link register save eliminated.
 414:Drivers/STM32L0xx_HAL_Driver/Src/stm32l0xx_hal.c ****   return(READ_REG(*((uint32_t *)(UID_BASE + 0x14U))));
 587              		.loc 1 414 3 view .LVU94
 588              		.loc 1 414 10 is_stmt 0 view .LVU95
 589 0000 014B     		ldr	r3, .L49
 590 0002 1868     		ldr	r0, [r3]
 415:Drivers/STM32L0xx_HAL_Driver/Src/stm32l0xx_hal.c **** }
 591              		.loc 1 415 1 view .LVU96
 592              		@ sp needed
 593 0004 7047     		bx	lr
 594              	.L50:
 595 0006 C046     		.align	2
 596              	.L49:
 597 0008 6400F81F 		.word	536346724
 598              		.cfi_endproc
 599              	.LFE49:
 601              		.section	.text.HAL_DBGMCU_EnableDBGSleepMode,"ax",%progbits
 602              		.align	1
 603              		.global	HAL_DBGMCU_EnableDBGSleepMode
 604              		.syntax unified
 605              		.code	16
 606              		.thumb_func
 607              		.fpu softvfp
 609              	HAL_DBGMCU_EnableDBGSleepMode:
 610              	.LFB50:
 416:Drivers/STM32L0xx_HAL_Driver/Src/stm32l0xx_hal.c **** 
 417:Drivers/STM32L0xx_HAL_Driver/Src/stm32l0xx_hal.c **** /**
 418:Drivers/STM32L0xx_HAL_Driver/Src/stm32l0xx_hal.c ****   * @}
 419:Drivers/STM32L0xx_HAL_Driver/Src/stm32l0xx_hal.c ****   */
 420:Drivers/STM32L0xx_HAL_Driver/Src/stm32l0xx_hal.c **** 
 421:Drivers/STM32L0xx_HAL_Driver/Src/stm32l0xx_hal.c **** /** @addtogroup HAL_Exported_Functions_Group2
ARM GAS  /tmp/ccLokM46.s 			page 19


 422:Drivers/STM32L0xx_HAL_Driver/Src/stm32l0xx_hal.c ****  *  @brief    HAL Debug functions
 423:Drivers/STM32L0xx_HAL_Driver/Src/stm32l0xx_hal.c ****  *
 424:Drivers/STM32L0xx_HAL_Driver/Src/stm32l0xx_hal.c **** @verbatim
 425:Drivers/STM32L0xx_HAL_Driver/Src/stm32l0xx_hal.c ****  ===============================================================================
 426:Drivers/STM32L0xx_HAL_Driver/Src/stm32l0xx_hal.c ****                       ##### HAL Debug functions #####
 427:Drivers/STM32L0xx_HAL_Driver/Src/stm32l0xx_hal.c ****  ===============================================================================
 428:Drivers/STM32L0xx_HAL_Driver/Src/stm32l0xx_hal.c ****     [..]  This section provides functions allowing to:
 429:Drivers/STM32L0xx_HAL_Driver/Src/stm32l0xx_hal.c ****       (+) Enable/Disable Debug module during SLEEP mode
 430:Drivers/STM32L0xx_HAL_Driver/Src/stm32l0xx_hal.c ****       (+) Enable/Disable Debug module during STOP mode
 431:Drivers/STM32L0xx_HAL_Driver/Src/stm32l0xx_hal.c ****       (+) Enable/Disable Debug module during STANDBY mode
 432:Drivers/STM32L0xx_HAL_Driver/Src/stm32l0xx_hal.c **** 
 433:Drivers/STM32L0xx_HAL_Driver/Src/stm32l0xx_hal.c **** @endverbatim
 434:Drivers/STM32L0xx_HAL_Driver/Src/stm32l0xx_hal.c ****   * @{
 435:Drivers/STM32L0xx_HAL_Driver/Src/stm32l0xx_hal.c ****   */
 436:Drivers/STM32L0xx_HAL_Driver/Src/stm32l0xx_hal.c **** 
 437:Drivers/STM32L0xx_HAL_Driver/Src/stm32l0xx_hal.c **** /**
 438:Drivers/STM32L0xx_HAL_Driver/Src/stm32l0xx_hal.c ****   * @brief  Enables the Debug Module during SLEEP mode
 439:Drivers/STM32L0xx_HAL_Driver/Src/stm32l0xx_hal.c ****   * @retval None
 440:Drivers/STM32L0xx_HAL_Driver/Src/stm32l0xx_hal.c ****   */
 441:Drivers/STM32L0xx_HAL_Driver/Src/stm32l0xx_hal.c **** void HAL_DBGMCU_EnableDBGSleepMode(void)
 442:Drivers/STM32L0xx_HAL_Driver/Src/stm32l0xx_hal.c **** {
 611              		.loc 1 442 1 is_stmt 1 view -0
 612              		.cfi_startproc
 613              		@ args = 0, pretend = 0, frame = 0
 614              		@ frame_needed = 0, uses_anonymous_args = 0
 615              		@ link register save eliminated.
 443:Drivers/STM32L0xx_HAL_Driver/Src/stm32l0xx_hal.c ****   SET_BIT(DBGMCU->CR, DBGMCU_CR_DBG_SLEEP);
 616              		.loc 1 443 3 view .LVU98
 617 0000 024A     		ldr	r2, .L52
 618 0002 5368     		ldr	r3, [r2, #4]
 619 0004 0121     		movs	r1, #1
 620 0006 0B43     		orrs	r3, r1
 621 0008 5360     		str	r3, [r2, #4]
 444:Drivers/STM32L0xx_HAL_Driver/Src/stm32l0xx_hal.c **** }
 622              		.loc 1 444 1 is_stmt 0 view .LVU99
 623              		@ sp needed
 624 000a 7047     		bx	lr
 625              	.L53:
 626              		.align	2
 627              	.L52:
 628 000c 00580140 		.word	1073829888
 629              		.cfi_endproc
 630              	.LFE50:
 632              		.section	.text.HAL_DBGMCU_DisableDBGSleepMode,"ax",%progbits
 633              		.align	1
 634              		.global	HAL_DBGMCU_DisableDBGSleepMode
 635              		.syntax unified
 636              		.code	16
 637              		.thumb_func
 638              		.fpu softvfp
 640              	HAL_DBGMCU_DisableDBGSleepMode:
 641              	.LFB51:
 445:Drivers/STM32L0xx_HAL_Driver/Src/stm32l0xx_hal.c **** 
 446:Drivers/STM32L0xx_HAL_Driver/Src/stm32l0xx_hal.c **** /**
 447:Drivers/STM32L0xx_HAL_Driver/Src/stm32l0xx_hal.c ****   * @brief  Disables the Debug Module during SLEEP mode
 448:Drivers/STM32L0xx_HAL_Driver/Src/stm32l0xx_hal.c ****   * @retval None
 449:Drivers/STM32L0xx_HAL_Driver/Src/stm32l0xx_hal.c ****   */
ARM GAS  /tmp/ccLokM46.s 			page 20


 450:Drivers/STM32L0xx_HAL_Driver/Src/stm32l0xx_hal.c **** void HAL_DBGMCU_DisableDBGSleepMode(void)
 451:Drivers/STM32L0xx_HAL_Driver/Src/stm32l0xx_hal.c **** {
 642              		.loc 1 451 1 is_stmt 1 view -0
 643              		.cfi_startproc
 644              		@ args = 0, pretend = 0, frame = 0
 645              		@ frame_needed = 0, uses_anonymous_args = 0
 646              		@ link register save eliminated.
 452:Drivers/STM32L0xx_HAL_Driver/Src/stm32l0xx_hal.c ****   CLEAR_BIT(DBGMCU->CR, DBGMCU_CR_DBG_SLEEP);
 647              		.loc 1 452 3 view .LVU101
 648 0000 024A     		ldr	r2, .L55
 649 0002 5368     		ldr	r3, [r2, #4]
 650 0004 0121     		movs	r1, #1
 651 0006 8B43     		bics	r3, r1
 652 0008 5360     		str	r3, [r2, #4]
 453:Drivers/STM32L0xx_HAL_Driver/Src/stm32l0xx_hal.c **** }
 653              		.loc 1 453 1 is_stmt 0 view .LVU102
 654              		@ sp needed
 655 000a 7047     		bx	lr
 656              	.L56:
 657              		.align	2
 658              	.L55:
 659 000c 00580140 		.word	1073829888
 660              		.cfi_endproc
 661              	.LFE51:
 663              		.section	.text.HAL_DBGMCU_EnableDBGStopMode,"ax",%progbits
 664              		.align	1
 665              		.global	HAL_DBGMCU_EnableDBGStopMode
 666              		.syntax unified
 667              		.code	16
 668              		.thumb_func
 669              		.fpu softvfp
 671              	HAL_DBGMCU_EnableDBGStopMode:
 672              	.LFB52:
 454:Drivers/STM32L0xx_HAL_Driver/Src/stm32l0xx_hal.c **** 
 455:Drivers/STM32L0xx_HAL_Driver/Src/stm32l0xx_hal.c **** /**
 456:Drivers/STM32L0xx_HAL_Driver/Src/stm32l0xx_hal.c ****   * @brief  Enables the Debug Module during STOP mode
 457:Drivers/STM32L0xx_HAL_Driver/Src/stm32l0xx_hal.c ****   * @retval None
 458:Drivers/STM32L0xx_HAL_Driver/Src/stm32l0xx_hal.c ****   */
 459:Drivers/STM32L0xx_HAL_Driver/Src/stm32l0xx_hal.c **** void HAL_DBGMCU_EnableDBGStopMode(void)
 460:Drivers/STM32L0xx_HAL_Driver/Src/stm32l0xx_hal.c **** {
 673              		.loc 1 460 1 is_stmt 1 view -0
 674              		.cfi_startproc
 675              		@ args = 0, pretend = 0, frame = 0
 676              		@ frame_needed = 0, uses_anonymous_args = 0
 677              		@ link register save eliminated.
 461:Drivers/STM32L0xx_HAL_Driver/Src/stm32l0xx_hal.c ****   SET_BIT(DBGMCU->CR, DBGMCU_CR_DBG_STOP);
 678              		.loc 1 461 3 view .LVU104
 679 0000 024A     		ldr	r2, .L58
 680 0002 5368     		ldr	r3, [r2, #4]
 681 0004 0221     		movs	r1, #2
 682 0006 0B43     		orrs	r3, r1
 683 0008 5360     		str	r3, [r2, #4]
 462:Drivers/STM32L0xx_HAL_Driver/Src/stm32l0xx_hal.c **** }
 684              		.loc 1 462 1 is_stmt 0 view .LVU105
 685              		@ sp needed
 686 000a 7047     		bx	lr
 687              	.L59:
ARM GAS  /tmp/ccLokM46.s 			page 21


 688              		.align	2
 689              	.L58:
 690 000c 00580140 		.word	1073829888
 691              		.cfi_endproc
 692              	.LFE52:
 694              		.section	.text.HAL_DBGMCU_DisableDBGStopMode,"ax",%progbits
 695              		.align	1
 696              		.global	HAL_DBGMCU_DisableDBGStopMode
 697              		.syntax unified
 698              		.code	16
 699              		.thumb_func
 700              		.fpu softvfp
 702              	HAL_DBGMCU_DisableDBGStopMode:
 703              	.LFB53:
 463:Drivers/STM32L0xx_HAL_Driver/Src/stm32l0xx_hal.c **** 
 464:Drivers/STM32L0xx_HAL_Driver/Src/stm32l0xx_hal.c **** /**
 465:Drivers/STM32L0xx_HAL_Driver/Src/stm32l0xx_hal.c ****   * @brief  Disables the Debug Module during STOP mode
 466:Drivers/STM32L0xx_HAL_Driver/Src/stm32l0xx_hal.c ****   * @retval None
 467:Drivers/STM32L0xx_HAL_Driver/Src/stm32l0xx_hal.c ****   */
 468:Drivers/STM32L0xx_HAL_Driver/Src/stm32l0xx_hal.c **** void HAL_DBGMCU_DisableDBGStopMode(void)
 469:Drivers/STM32L0xx_HAL_Driver/Src/stm32l0xx_hal.c **** {
 704              		.loc 1 469 1 is_stmt 1 view -0
 705              		.cfi_startproc
 706              		@ args = 0, pretend = 0, frame = 0
 707              		@ frame_needed = 0, uses_anonymous_args = 0
 708              		@ link register save eliminated.
 470:Drivers/STM32L0xx_HAL_Driver/Src/stm32l0xx_hal.c ****   CLEAR_BIT(DBGMCU->CR, DBGMCU_CR_DBG_STOP);
 709              		.loc 1 470 3 view .LVU107
 710 0000 024A     		ldr	r2, .L61
 711 0002 5368     		ldr	r3, [r2, #4]
 712 0004 0221     		movs	r1, #2
 713 0006 8B43     		bics	r3, r1
 714 0008 5360     		str	r3, [r2, #4]
 471:Drivers/STM32L0xx_HAL_Driver/Src/stm32l0xx_hal.c **** }
 715              		.loc 1 471 1 is_stmt 0 view .LVU108
 716              		@ sp needed
 717 000a 7047     		bx	lr
 718              	.L62:
 719              		.align	2
 720              	.L61:
 721 000c 00580140 		.word	1073829888
 722              		.cfi_endproc
 723              	.LFE53:
 725              		.section	.text.HAL_DBGMCU_EnableDBGStandbyMode,"ax",%progbits
 726              		.align	1
 727              		.global	HAL_DBGMCU_EnableDBGStandbyMode
 728              		.syntax unified
 729              		.code	16
 730              		.thumb_func
 731              		.fpu softvfp
 733              	HAL_DBGMCU_EnableDBGStandbyMode:
 734              	.LFB54:
 472:Drivers/STM32L0xx_HAL_Driver/Src/stm32l0xx_hal.c **** 
 473:Drivers/STM32L0xx_HAL_Driver/Src/stm32l0xx_hal.c **** /**
 474:Drivers/STM32L0xx_HAL_Driver/Src/stm32l0xx_hal.c ****   * @brief  Enables the Debug Module during STANDBY mode
 475:Drivers/STM32L0xx_HAL_Driver/Src/stm32l0xx_hal.c ****   * @retval None
 476:Drivers/STM32L0xx_HAL_Driver/Src/stm32l0xx_hal.c ****   */
ARM GAS  /tmp/ccLokM46.s 			page 22


 477:Drivers/STM32L0xx_HAL_Driver/Src/stm32l0xx_hal.c **** void HAL_DBGMCU_EnableDBGStandbyMode(void)
 478:Drivers/STM32L0xx_HAL_Driver/Src/stm32l0xx_hal.c **** {
 735              		.loc 1 478 1 is_stmt 1 view -0
 736              		.cfi_startproc
 737              		@ args = 0, pretend = 0, frame = 0
 738              		@ frame_needed = 0, uses_anonymous_args = 0
 739              		@ link register save eliminated.
 479:Drivers/STM32L0xx_HAL_Driver/Src/stm32l0xx_hal.c ****   SET_BIT(DBGMCU->CR, DBGMCU_CR_DBG_STANDBY);
 740              		.loc 1 479 3 view .LVU110
 741 0000 024A     		ldr	r2, .L64
 742 0002 5368     		ldr	r3, [r2, #4]
 743 0004 0421     		movs	r1, #4
 744 0006 0B43     		orrs	r3, r1
 745 0008 5360     		str	r3, [r2, #4]
 480:Drivers/STM32L0xx_HAL_Driver/Src/stm32l0xx_hal.c **** }
 746              		.loc 1 480 1 is_stmt 0 view .LVU111
 747              		@ sp needed
 748 000a 7047     		bx	lr
 749              	.L65:
 750              		.align	2
 751              	.L64:
 752 000c 00580140 		.word	1073829888
 753              		.cfi_endproc
 754              	.LFE54:
 756              		.section	.text.HAL_DBGMCU_DisableDBGStandbyMode,"ax",%progbits
 757              		.align	1
 758              		.global	HAL_DBGMCU_DisableDBGStandbyMode
 759              		.syntax unified
 760              		.code	16
 761              		.thumb_func
 762              		.fpu softvfp
 764              	HAL_DBGMCU_DisableDBGStandbyMode:
 765              	.LFB55:
 481:Drivers/STM32L0xx_HAL_Driver/Src/stm32l0xx_hal.c **** 
 482:Drivers/STM32L0xx_HAL_Driver/Src/stm32l0xx_hal.c **** /**
 483:Drivers/STM32L0xx_HAL_Driver/Src/stm32l0xx_hal.c ****   * @brief  Disables the Debug Module during STANDBY mode
 484:Drivers/STM32L0xx_HAL_Driver/Src/stm32l0xx_hal.c ****   * @retval None
 485:Drivers/STM32L0xx_HAL_Driver/Src/stm32l0xx_hal.c ****   */
 486:Drivers/STM32L0xx_HAL_Driver/Src/stm32l0xx_hal.c **** void HAL_DBGMCU_DisableDBGStandbyMode(void)
 487:Drivers/STM32L0xx_HAL_Driver/Src/stm32l0xx_hal.c **** {
 766              		.loc 1 487 1 is_stmt 1 view -0
 767              		.cfi_startproc
 768              		@ args = 0, pretend = 0, frame = 0
 769              		@ frame_needed = 0, uses_anonymous_args = 0
 770              		@ link register save eliminated.
 488:Drivers/STM32L0xx_HAL_Driver/Src/stm32l0xx_hal.c ****   CLEAR_BIT(DBGMCU->CR, DBGMCU_CR_DBG_STANDBY);
 771              		.loc 1 488 3 view .LVU113
 772 0000 024A     		ldr	r2, .L67
 773 0002 5368     		ldr	r3, [r2, #4]
 774 0004 0421     		movs	r1, #4
 775 0006 8B43     		bics	r3, r1
 776 0008 5360     		str	r3, [r2, #4]
 489:Drivers/STM32L0xx_HAL_Driver/Src/stm32l0xx_hal.c **** }
 777              		.loc 1 489 1 is_stmt 0 view .LVU114
 778              		@ sp needed
 779 000a 7047     		bx	lr
 780              	.L68:
ARM GAS  /tmp/ccLokM46.s 			page 23


 781              		.align	2
 782              	.L67:
 783 000c 00580140 		.word	1073829888
 784              		.cfi_endproc
 785              	.LFE55:
 787              		.section	.text.HAL_DBGMCU_DBG_EnableLowPowerConfig,"ax",%progbits
 788              		.align	1
 789              		.global	HAL_DBGMCU_DBG_EnableLowPowerConfig
 790              		.syntax unified
 791              		.code	16
 792              		.thumb_func
 793              		.fpu softvfp
 795              	HAL_DBGMCU_DBG_EnableLowPowerConfig:
 796              	.LVL23:
 797              	.LFB56:
 490:Drivers/STM32L0xx_HAL_Driver/Src/stm32l0xx_hal.c **** 
 491:Drivers/STM32L0xx_HAL_Driver/Src/stm32l0xx_hal.c **** /**
 492:Drivers/STM32L0xx_HAL_Driver/Src/stm32l0xx_hal.c ****   * @brief  Enable low power mode behavior when the MCU is in Debug mode.
 493:Drivers/STM32L0xx_HAL_Driver/Src/stm32l0xx_hal.c ****   * @param Periph: specifies the low power mode.
 494:Drivers/STM32L0xx_HAL_Driver/Src/stm32l0xx_hal.c ****   *   This parameter can be any combination of the following values:
 495:Drivers/STM32L0xx_HAL_Driver/Src/stm32l0xx_hal.c ****   *     @arg DBGMCU_SLEEP: Keep debugger connection during SLEEP mode
 496:Drivers/STM32L0xx_HAL_Driver/Src/stm32l0xx_hal.c ****   *     @arg DBGMCU_STOP: Keep debugger connection during STOP mode
 497:Drivers/STM32L0xx_HAL_Driver/Src/stm32l0xx_hal.c ****   *     @arg DBGMCU_STANDBY: Keep debugger connection during STANDBY mode
 498:Drivers/STM32L0xx_HAL_Driver/Src/stm32l0xx_hal.c ****   * @retval None
 499:Drivers/STM32L0xx_HAL_Driver/Src/stm32l0xx_hal.c ****   */
 500:Drivers/STM32L0xx_HAL_Driver/Src/stm32l0xx_hal.c **** void HAL_DBGMCU_DBG_EnableLowPowerConfig(uint32_t Periph)
 501:Drivers/STM32L0xx_HAL_Driver/Src/stm32l0xx_hal.c **** {
 798              		.loc 1 501 1 is_stmt 1 view -0
 799              		.cfi_startproc
 800              		@ args = 0, pretend = 0, frame = 0
 801              		@ frame_needed = 0, uses_anonymous_args = 0
 802              		@ link register save eliminated.
 502:Drivers/STM32L0xx_HAL_Driver/Src/stm32l0xx_hal.c ****   /* Check the parameters */
 503:Drivers/STM32L0xx_HAL_Driver/Src/stm32l0xx_hal.c ****   assert_param(IS_DBGMCU_PERIPH(Periph));
 803              		.loc 1 503 3 view .LVU116
 504:Drivers/STM32L0xx_HAL_Driver/Src/stm32l0xx_hal.c **** 
 505:Drivers/STM32L0xx_HAL_Driver/Src/stm32l0xx_hal.c ****   DBGMCU->CR |= Periph;
 804              		.loc 1 505 3 view .LVU117
 805              		.loc 1 505 14 is_stmt 0 view .LVU118
 806 0000 024A     		ldr	r2, .L70
 807 0002 5368     		ldr	r3, [r2, #4]
 808 0004 0343     		orrs	r3, r0
 809 0006 5360     		str	r3, [r2, #4]
 506:Drivers/STM32L0xx_HAL_Driver/Src/stm32l0xx_hal.c **** 
 507:Drivers/STM32L0xx_HAL_Driver/Src/stm32l0xx_hal.c **** }
 810              		.loc 1 507 1 view .LVU119
 811              		@ sp needed
 812 0008 7047     		bx	lr
 813              	.L71:
 814 000a C046     		.align	2
 815              	.L70:
 816 000c 00580140 		.word	1073829888
 817              		.cfi_endproc
 818              	.LFE56:
 820              		.section	.text.HAL_DBGMCU_DBG_DisableLowPowerConfig,"ax",%progbits
 821              		.align	1
 822              		.global	HAL_DBGMCU_DBG_DisableLowPowerConfig
ARM GAS  /tmp/ccLokM46.s 			page 24


 823              		.syntax unified
 824              		.code	16
 825              		.thumb_func
 826              		.fpu softvfp
 828              	HAL_DBGMCU_DBG_DisableLowPowerConfig:
 829              	.LVL24:
 830              	.LFB57:
 508:Drivers/STM32L0xx_HAL_Driver/Src/stm32l0xx_hal.c **** /**
 509:Drivers/STM32L0xx_HAL_Driver/Src/stm32l0xx_hal.c ****   * @brief  Disable low power mode behavior when the MCU is in Debug mode.
 510:Drivers/STM32L0xx_HAL_Driver/Src/stm32l0xx_hal.c ****   * @param Periph: specifies the low power mode.
 511:Drivers/STM32L0xx_HAL_Driver/Src/stm32l0xx_hal.c ****   *   This parameter can be any combination of the following values:
 512:Drivers/STM32L0xx_HAL_Driver/Src/stm32l0xx_hal.c ****   *     @arg DBGMCU_SLEEP: Keep debugger connection during SLEEP mode
 513:Drivers/STM32L0xx_HAL_Driver/Src/stm32l0xx_hal.c ****   *     @arg DBGMCU_STOP: Keep debugger connection during STOP mode
 514:Drivers/STM32L0xx_HAL_Driver/Src/stm32l0xx_hal.c ****   *     @arg DBGMCU_STANDBY: Keep debugger connection during STANDBY mode
 515:Drivers/STM32L0xx_HAL_Driver/Src/stm32l0xx_hal.c ****   * @retval None
 516:Drivers/STM32L0xx_HAL_Driver/Src/stm32l0xx_hal.c ****   */
 517:Drivers/STM32L0xx_HAL_Driver/Src/stm32l0xx_hal.c **** void HAL_DBGMCU_DBG_DisableLowPowerConfig(uint32_t Periph)
 518:Drivers/STM32L0xx_HAL_Driver/Src/stm32l0xx_hal.c **** {
 831              		.loc 1 518 1 is_stmt 1 view -0
 832              		.cfi_startproc
 833              		@ args = 0, pretend = 0, frame = 0
 834              		@ frame_needed = 0, uses_anonymous_args = 0
 835              		@ link register save eliminated.
 519:Drivers/STM32L0xx_HAL_Driver/Src/stm32l0xx_hal.c ****   /* Check the parameters */
 520:Drivers/STM32L0xx_HAL_Driver/Src/stm32l0xx_hal.c ****   assert_param(IS_DBGMCU_PERIPH(Periph));
 836              		.loc 1 520 3 view .LVU121
 521:Drivers/STM32L0xx_HAL_Driver/Src/stm32l0xx_hal.c ****   {
 522:Drivers/STM32L0xx_HAL_Driver/Src/stm32l0xx_hal.c ****     DBGMCU->CR &= ~Periph;
 837              		.loc 1 522 5 view .LVU122
 838              		.loc 1 522 16 is_stmt 0 view .LVU123
 839 0000 024A     		ldr	r2, .L73
 840 0002 5368     		ldr	r3, [r2, #4]
 841 0004 8343     		bics	r3, r0
 842 0006 5360     		str	r3, [r2, #4]
 523:Drivers/STM32L0xx_HAL_Driver/Src/stm32l0xx_hal.c ****   }
 524:Drivers/STM32L0xx_HAL_Driver/Src/stm32l0xx_hal.c **** }
 843              		.loc 1 524 1 view .LVU124
 844              		@ sp needed
 845 0008 7047     		bx	lr
 846              	.L74:
 847 000a C046     		.align	2
 848              	.L73:
 849 000c 00580140 		.word	1073829888
 850              		.cfi_endproc
 851              	.LFE57:
 853              		.section	.text.HAL_SYSCFG_GetBootMode,"ax",%progbits
 854              		.align	1
 855              		.global	HAL_SYSCFG_GetBootMode
 856              		.syntax unified
 857              		.code	16
 858              		.thumb_func
 859              		.fpu softvfp
 861              	HAL_SYSCFG_GetBootMode:
 862              	.LFB58:
 525:Drivers/STM32L0xx_HAL_Driver/Src/stm32l0xx_hal.c **** 
 526:Drivers/STM32L0xx_HAL_Driver/Src/stm32l0xx_hal.c **** /**
 527:Drivers/STM32L0xx_HAL_Driver/Src/stm32l0xx_hal.c ****   * @}
ARM GAS  /tmp/ccLokM46.s 			page 25


 528:Drivers/STM32L0xx_HAL_Driver/Src/stm32l0xx_hal.c ****   */
 529:Drivers/STM32L0xx_HAL_Driver/Src/stm32l0xx_hal.c **** 
 530:Drivers/STM32L0xx_HAL_Driver/Src/stm32l0xx_hal.c **** /** @addtogroup HAL_Exported_Functions_Group3
 531:Drivers/STM32L0xx_HAL_Driver/Src/stm32l0xx_hal.c ****  *  @brief    HAL SYSCFG configuration functions
 532:Drivers/STM32L0xx_HAL_Driver/Src/stm32l0xx_hal.c ****  *
 533:Drivers/STM32L0xx_HAL_Driver/Src/stm32l0xx_hal.c **** @verbatim
 534:Drivers/STM32L0xx_HAL_Driver/Src/stm32l0xx_hal.c ****  ===============================================================================
 535:Drivers/STM32L0xx_HAL_Driver/Src/stm32l0xx_hal.c ****                       ##### HAL SYSCFG configuration functions #####
 536:Drivers/STM32L0xx_HAL_Driver/Src/stm32l0xx_hal.c ****  ===============================================================================
 537:Drivers/STM32L0xx_HAL_Driver/Src/stm32l0xx_hal.c ****     [..]  This section provides functions allowing to:
 538:Drivers/STM32L0xx_HAL_Driver/Src/stm32l0xx_hal.c ****       (+) Return the boot mode
 539:Drivers/STM32L0xx_HAL_Driver/Src/stm32l0xx_hal.c ****       (+) Select the output of internal reference voltage (VREFINT)
 540:Drivers/STM32L0xx_HAL_Driver/Src/stm32l0xx_hal.c ****       (+) Lock/Unlock the SYSCFG VREF register values
 541:Drivers/STM32L0xx_HAL_Driver/Src/stm32l0xx_hal.c **** 
 542:Drivers/STM32L0xx_HAL_Driver/Src/stm32l0xx_hal.c **** @endverbatim
 543:Drivers/STM32L0xx_HAL_Driver/Src/stm32l0xx_hal.c ****   * @{
 544:Drivers/STM32L0xx_HAL_Driver/Src/stm32l0xx_hal.c ****   */
 545:Drivers/STM32L0xx_HAL_Driver/Src/stm32l0xx_hal.c **** 
 546:Drivers/STM32L0xx_HAL_Driver/Src/stm32l0xx_hal.c **** /**
 547:Drivers/STM32L0xx_HAL_Driver/Src/stm32l0xx_hal.c ****   * @brief  Returns the boot mode as configured by user.
 548:Drivers/STM32L0xx_HAL_Driver/Src/stm32l0xx_hal.c ****   * @retval The boot mode as configured by user. The returned value can be one
 549:Drivers/STM32L0xx_HAL_Driver/Src/stm32l0xx_hal.c ****   *         of the following values:
 550:Drivers/STM32L0xx_HAL_Driver/Src/stm32l0xx_hal.c ****   *              - 0x00000000 : Boot is configured in Main Flash memory
 551:Drivers/STM32L0xx_HAL_Driver/Src/stm32l0xx_hal.c ****   *              - 0x00000100 : Boot is configured in System Flash memory
 552:Drivers/STM32L0xx_HAL_Driver/Src/stm32l0xx_hal.c ****   *              - 0x00000300 : Boot is configured in Embedded SRAM memory
 553:Drivers/STM32L0xx_HAL_Driver/Src/stm32l0xx_hal.c ****   */
 554:Drivers/STM32L0xx_HAL_Driver/Src/stm32l0xx_hal.c **** uint32_t  HAL_SYSCFG_GetBootMode(void)
 555:Drivers/STM32L0xx_HAL_Driver/Src/stm32l0xx_hal.c **** {
 863              		.loc 1 555 1 is_stmt 1 view -0
 864              		.cfi_startproc
 865              		@ args = 0, pretend = 0, frame = 0
 866              		@ frame_needed = 0, uses_anonymous_args = 0
 867              		@ link register save eliminated.
 556:Drivers/STM32L0xx_HAL_Driver/Src/stm32l0xx_hal.c ****   return (SYSCFG->CFGR1 & SYSCFG_CFGR1_BOOT_MODE);
 868              		.loc 1 556 3 view .LVU126
 869              		.loc 1 556 17 is_stmt 0 view .LVU127
 870 0000 024B     		ldr	r3, .L76
 871 0002 1868     		ldr	r0, [r3]
 872              		.loc 1 556 25 view .LVU128
 873 0004 C023     		movs	r3, #192
 874 0006 9B00     		lsls	r3, r3, #2
 875 0008 1840     		ands	r0, r3
 557:Drivers/STM32L0xx_HAL_Driver/Src/stm32l0xx_hal.c **** }
 876              		.loc 1 557 1 view .LVU129
 877              		@ sp needed
 878 000a 7047     		bx	lr
 879              	.L77:
 880              		.align	2
 881              	.L76:
 882 000c 00000140 		.word	1073807360
 883              		.cfi_endproc
 884              	.LFE58:
 886              		.section	.text.HAL_SYSCFG_VREFINT_OutputSelect,"ax",%progbits
 887              		.align	1
 888              		.global	HAL_SYSCFG_VREFINT_OutputSelect
 889              		.syntax unified
 890              		.code	16
ARM GAS  /tmp/ccLokM46.s 			page 26


 891              		.thumb_func
 892              		.fpu softvfp
 894              	HAL_SYSCFG_VREFINT_OutputSelect:
 895              	.LVL25:
 896              	.LFB59:
 558:Drivers/STM32L0xx_HAL_Driver/Src/stm32l0xx_hal.c **** 
 559:Drivers/STM32L0xx_HAL_Driver/Src/stm32l0xx_hal.c **** /**
 560:Drivers/STM32L0xx_HAL_Driver/Src/stm32l0xx_hal.c ****   * @brief Selects the output of internal reference voltage (VREFINT).
 561:Drivers/STM32L0xx_HAL_Driver/Src/stm32l0xx_hal.c ****   *        The VREFINT output can be routed to(PB0) or
 562:Drivers/STM32L0xx_HAL_Driver/Src/stm32l0xx_hal.c ****   *        (PB1) or both.
 563:Drivers/STM32L0xx_HAL_Driver/Src/stm32l0xx_hal.c ****   * @param SYSCFG_Vrefint_OUTPUT: new state of the Vrefint output.
 564:Drivers/STM32L0xx_HAL_Driver/Src/stm32l0xx_hal.c ****   *        This parameter can be one of the following values:
 565:Drivers/STM32L0xx_HAL_Driver/Src/stm32l0xx_hal.c ****   *     @arg SYSCFG_VREFINT_OUT_NONE
 566:Drivers/STM32L0xx_HAL_Driver/Src/stm32l0xx_hal.c ****   *     @arg SYSCFG_VREFINT_OUT_PB0
 567:Drivers/STM32L0xx_HAL_Driver/Src/stm32l0xx_hal.c ****   *     @arg SYSCFG_VREFINT_OUT_PB1
 568:Drivers/STM32L0xx_HAL_Driver/Src/stm32l0xx_hal.c ****   *     @arg SYSCFG_VREFINT_OUT_PB0_PB1
 569:Drivers/STM32L0xx_HAL_Driver/Src/stm32l0xx_hal.c ****   * @retval None
 570:Drivers/STM32L0xx_HAL_Driver/Src/stm32l0xx_hal.c ****   */
 571:Drivers/STM32L0xx_HAL_Driver/Src/stm32l0xx_hal.c **** void HAL_SYSCFG_VREFINT_OutputSelect(uint32_t SYSCFG_Vrefint_OUTPUT)
 572:Drivers/STM32L0xx_HAL_Driver/Src/stm32l0xx_hal.c **** {
 897              		.loc 1 572 1 is_stmt 1 view -0
 898              		.cfi_startproc
 899              		@ args = 0, pretend = 0, frame = 0
 900              		@ frame_needed = 0, uses_anonymous_args = 0
 901              		@ link register save eliminated.
 573:Drivers/STM32L0xx_HAL_Driver/Src/stm32l0xx_hal.c ****   /* Check the parameters */
 574:Drivers/STM32L0xx_HAL_Driver/Src/stm32l0xx_hal.c ****   assert_param(IS_SYSCFG_VREFINT_OUT_SELECT(SYSCFG_Vrefint_OUTPUT));
 902              		.loc 1 574 3 view .LVU131
 575:Drivers/STM32L0xx_HAL_Driver/Src/stm32l0xx_hal.c **** 
 576:Drivers/STM32L0xx_HAL_Driver/Src/stm32l0xx_hal.c ****   /* Set the output Vrefint pin */
 577:Drivers/STM32L0xx_HAL_Driver/Src/stm32l0xx_hal.c ****   SYSCFG->CFGR3 &= ~(SYSCFG_CFGR3_VREF_OUT);
 903              		.loc 1 577 3 view .LVU132
 904              		.loc 1 577 17 is_stmt 0 view .LVU133
 905 0000 044B     		ldr	r3, .L79
 906 0002 196A     		ldr	r1, [r3, #32]
 907 0004 3022     		movs	r2, #48
 908 0006 9143     		bics	r1, r2
 909 0008 1962     		str	r1, [r3, #32]
 578:Drivers/STM32L0xx_HAL_Driver/Src/stm32l0xx_hal.c ****   SYSCFG->CFGR3 |= (uint32_t)(SYSCFG_Vrefint_OUTPUT);
 910              		.loc 1 578 3 is_stmt 1 view .LVU134
 911              		.loc 1 578 17 is_stmt 0 view .LVU135
 912 000a 1A6A     		ldr	r2, [r3, #32]
 913 000c 0243     		orrs	r2, r0
 914 000e 1A62     		str	r2, [r3, #32]
 579:Drivers/STM32L0xx_HAL_Driver/Src/stm32l0xx_hal.c **** }
 915              		.loc 1 579 1 view .LVU136
 916              		@ sp needed
 917 0010 7047     		bx	lr
 918              	.L80:
 919 0012 C046     		.align	2
 920              	.L79:
 921 0014 00000140 		.word	1073807360
 922              		.cfi_endproc
 923              	.LFE59:
 925              		.section	.text.HAL_SYSCFG_Enable_Lock_VREFINT,"ax",%progbits
 926              		.align	1
 927              		.global	HAL_SYSCFG_Enable_Lock_VREFINT
ARM GAS  /tmp/ccLokM46.s 			page 27


 928              		.syntax unified
 929              		.code	16
 930              		.thumb_func
 931              		.fpu softvfp
 933              	HAL_SYSCFG_Enable_Lock_VREFINT:
 934              	.LFB60:
 580:Drivers/STM32L0xx_HAL_Driver/Src/stm32l0xx_hal.c **** 
 581:Drivers/STM32L0xx_HAL_Driver/Src/stm32l0xx_hal.c **** /**
 582:Drivers/STM32L0xx_HAL_Driver/Src/stm32l0xx_hal.c ****   * @brief  Lock the SYSCFG VREF register values
 583:Drivers/STM32L0xx_HAL_Driver/Src/stm32l0xx_hal.c ****   * @retval None
 584:Drivers/STM32L0xx_HAL_Driver/Src/stm32l0xx_hal.c ****   */
 585:Drivers/STM32L0xx_HAL_Driver/Src/stm32l0xx_hal.c **** void HAL_SYSCFG_Enable_Lock_VREFINT(void)
 586:Drivers/STM32L0xx_HAL_Driver/Src/stm32l0xx_hal.c **** {
 935              		.loc 1 586 1 is_stmt 1 view -0
 936              		.cfi_startproc
 937              		@ args = 0, pretend = 0, frame = 0
 938              		@ frame_needed = 0, uses_anonymous_args = 0
 939              		@ link register save eliminated.
 587:Drivers/STM32L0xx_HAL_Driver/Src/stm32l0xx_hal.c ****     /* Enable the LOCK by setting REF_LOCK bit in the CFGR3 register */
 588:Drivers/STM32L0xx_HAL_Driver/Src/stm32l0xx_hal.c ****     SET_BIT(SYSCFG->CFGR3, SYSCFG_CFGR3_REF_LOCK);
 940              		.loc 1 588 5 view .LVU138
 941 0000 034A     		ldr	r2, .L82
 942 0002 116A     		ldr	r1, [r2, #32]
 943 0004 8023     		movs	r3, #128
 944 0006 1B06     		lsls	r3, r3, #24
 945 0008 0B43     		orrs	r3, r1
 946 000a 1362     		str	r3, [r2, #32]
 589:Drivers/STM32L0xx_HAL_Driver/Src/stm32l0xx_hal.c **** }
 947              		.loc 1 589 1 is_stmt 0 view .LVU139
 948              		@ sp needed
 949 000c 7047     		bx	lr
 950              	.L83:
 951 000e C046     		.align	2
 952              	.L82:
 953 0010 00000140 		.word	1073807360
 954              		.cfi_endproc
 955              	.LFE60:
 957              		.section	.text.HAL_SYSCFG_Disable_Lock_VREFINT,"ax",%progbits
 958              		.align	1
 959              		.global	HAL_SYSCFG_Disable_Lock_VREFINT
 960              		.syntax unified
 961              		.code	16
 962              		.thumb_func
 963              		.fpu softvfp
 965              	HAL_SYSCFG_Disable_Lock_VREFINT:
 966              	.LFB61:
 590:Drivers/STM32L0xx_HAL_Driver/Src/stm32l0xx_hal.c **** 
 591:Drivers/STM32L0xx_HAL_Driver/Src/stm32l0xx_hal.c **** /**
 592:Drivers/STM32L0xx_HAL_Driver/Src/stm32l0xx_hal.c ****   * @brief  Unlock the overall SYSCFG VREF register values
 593:Drivers/STM32L0xx_HAL_Driver/Src/stm32l0xx_hal.c ****   * @retval None
 594:Drivers/STM32L0xx_HAL_Driver/Src/stm32l0xx_hal.c ****   */
 595:Drivers/STM32L0xx_HAL_Driver/Src/stm32l0xx_hal.c **** void HAL_SYSCFG_Disable_Lock_VREFINT(void)
 596:Drivers/STM32L0xx_HAL_Driver/Src/stm32l0xx_hal.c **** {
 967              		.loc 1 596 1 is_stmt 1 view -0
 968              		.cfi_startproc
 969              		@ args = 0, pretend = 0, frame = 0
 970              		@ frame_needed = 0, uses_anonymous_args = 0
ARM GAS  /tmp/ccLokM46.s 			page 28


 971              		@ link register save eliminated.
 597:Drivers/STM32L0xx_HAL_Driver/Src/stm32l0xx_hal.c ****     /* Disable the LOCK by setting REF_LOCK bit in the CFGR3 register */
 598:Drivers/STM32L0xx_HAL_Driver/Src/stm32l0xx_hal.c ****     CLEAR_BIT(SYSCFG->CFGR3, SYSCFG_CFGR3_REF_LOCK);
 972              		.loc 1 598 5 view .LVU141
 973 0000 024A     		ldr	r2, .L85
 974 0002 136A     		ldr	r3, [r2, #32]
 975 0004 5B00     		lsls	r3, r3, #1
 976 0006 5B08     		lsrs	r3, r3, #1
 977 0008 1362     		str	r3, [r2, #32]
 599:Drivers/STM32L0xx_HAL_Driver/Src/stm32l0xx_hal.c **** }
 978              		.loc 1 599 1 is_stmt 0 view .LVU142
 979              		@ sp needed
 980 000a 7047     		bx	lr
 981              	.L86:
 982              		.align	2
 983              	.L85:
 984 000c 00000140 		.word	1073807360
 985              		.cfi_endproc
 986              	.LFE61:
 988              		.comm	uwTick,4,4
 989              		.text
 990              	.Letext0:
 991              		.file 2 "/usr/arm-none-eabi/include/machine/_default_types.h"
 992              		.file 3 "/usr/arm-none-eabi/include/sys/_stdint.h"
 993              		.file 4 "Drivers/CMSIS/Include/core_cm0plus.h"
 994              		.file 5 "Drivers/CMSIS/Device/ST/STM32L0xx/Include/system_stm32l0xx.h"
 995              		.file 6 "Drivers/CMSIS/Device/ST/STM32L0xx/Include/stm32l052xx.h"
 996              		.file 7 "Drivers/STM32L0xx_HAL_Driver/Inc/stm32l0xx_hal_def.h"
 997              		.file 8 "Drivers/STM32L0xx_HAL_Driver/Inc/stm32l0xx_hal.h"
 998              		.file 9 "Drivers/STM32L0xx_HAL_Driver/Inc/stm32l0xx_hal_cortex.h"
ARM GAS  /tmp/ccLokM46.s 			page 29

