ARM GAS  /tmp/cci8nmgB.s 			page 1


   1              		.cpu cortex-m0plus
   2              		.eabi_attribute 20, 1
   3              		.eabi_attribute 21, 1
   4              		.eabi_attribute 23, 3
   5              		.eabi_attribute 24, 1
   6              		.eabi_attribute 25, 1
   7              		.eabi_attribute 26, 1
   8              		.eabi_attribute 30, 1
   9              		.eabi_attribute 34, 0
  10              		.eabi_attribute 18, 4
  11              		.file	"stm32l0xx_hal_rcc_ex.c"
  12              		.text
  13              	.Ltext0:
  14              		.cfi_sections	.debug_frame
  15              		.section	.text.HAL_RCCEx_PeriphCLKConfig,"ax",%progbits
  16              		.align	1
  17              		.global	HAL_RCCEx_PeriphCLKConfig
  18              		.arch armv6s-m
  19              		.syntax unified
  20              		.code	16
  21              		.thumb_func
  22              		.fpu softvfp
  24              	HAL_RCCEx_PeriphCLKConfig:
  25              	.LVL0:
  26              	.LFB34:
  27              		.file 1 "Drivers/STM32L0xx_HAL_Driver/Src/stm32l0xx_hal_rcc_ex.c"
   1:Drivers/STM32L0xx_HAL_Driver/Src/stm32l0xx_hal_rcc_ex.c **** /**
   2:Drivers/STM32L0xx_HAL_Driver/Src/stm32l0xx_hal_rcc_ex.c ****   ******************************************************************************
   3:Drivers/STM32L0xx_HAL_Driver/Src/stm32l0xx_hal_rcc_ex.c ****   * @file    stm32l0xx_hal_rcc_ex.c
   4:Drivers/STM32L0xx_HAL_Driver/Src/stm32l0xx_hal_rcc_ex.c ****   * @author  MCD Application Team
   5:Drivers/STM32L0xx_HAL_Driver/Src/stm32l0xx_hal_rcc_ex.c ****   * @brief   Extended RCC HAL module driver.
   6:Drivers/STM32L0xx_HAL_Driver/Src/stm32l0xx_hal_rcc_ex.c ****   *          This file provides firmware functions to manage the following
   7:Drivers/STM32L0xx_HAL_Driver/Src/stm32l0xx_hal_rcc_ex.c ****   *          functionalities RCC extension peripheral:
   8:Drivers/STM32L0xx_HAL_Driver/Src/stm32l0xx_hal_rcc_ex.c ****   *           + Extended Peripheral Control functions
   9:Drivers/STM32L0xx_HAL_Driver/Src/stm32l0xx_hal_rcc_ex.c ****   *           + Extended Clock Recovery System Control functions
  10:Drivers/STM32L0xx_HAL_Driver/Src/stm32l0xx_hal_rcc_ex.c ****   *
  11:Drivers/STM32L0xx_HAL_Driver/Src/stm32l0xx_hal_rcc_ex.c ****   ******************************************************************************
  12:Drivers/STM32L0xx_HAL_Driver/Src/stm32l0xx_hal_rcc_ex.c ****   * @attention
  13:Drivers/STM32L0xx_HAL_Driver/Src/stm32l0xx_hal_rcc_ex.c ****   *
  14:Drivers/STM32L0xx_HAL_Driver/Src/stm32l0xx_hal_rcc_ex.c ****   * <h2><center>&copy; Copyright(c) 2016 STMicroelectronics.
  15:Drivers/STM32L0xx_HAL_Driver/Src/stm32l0xx_hal_rcc_ex.c ****   * All rights reserved.</center></h2>
  16:Drivers/STM32L0xx_HAL_Driver/Src/stm32l0xx_hal_rcc_ex.c ****   *
  17:Drivers/STM32L0xx_HAL_Driver/Src/stm32l0xx_hal_rcc_ex.c ****   * This software component is licensed by ST under BSD 3-Clause license,
  18:Drivers/STM32L0xx_HAL_Driver/Src/stm32l0xx_hal_rcc_ex.c ****   * the "License"; You may not use this file except in compliance with the
  19:Drivers/STM32L0xx_HAL_Driver/Src/stm32l0xx_hal_rcc_ex.c ****   * License. You may obtain a copy of the License at:
  20:Drivers/STM32L0xx_HAL_Driver/Src/stm32l0xx_hal_rcc_ex.c ****   *                        opensource.org/licenses/BSD-3-Clause
  21:Drivers/STM32L0xx_HAL_Driver/Src/stm32l0xx_hal_rcc_ex.c ****   *
  22:Drivers/STM32L0xx_HAL_Driver/Src/stm32l0xx_hal_rcc_ex.c ****   ******************************************************************************
  23:Drivers/STM32L0xx_HAL_Driver/Src/stm32l0xx_hal_rcc_ex.c ****   */
  24:Drivers/STM32L0xx_HAL_Driver/Src/stm32l0xx_hal_rcc_ex.c **** 
  25:Drivers/STM32L0xx_HAL_Driver/Src/stm32l0xx_hal_rcc_ex.c **** /* Includes ------------------------------------------------------------------*/
  26:Drivers/STM32L0xx_HAL_Driver/Src/stm32l0xx_hal_rcc_ex.c **** #include "stm32l0xx_hal.h"
  27:Drivers/STM32L0xx_HAL_Driver/Src/stm32l0xx_hal_rcc_ex.c **** 
  28:Drivers/STM32L0xx_HAL_Driver/Src/stm32l0xx_hal_rcc_ex.c **** /** @addtogroup STM32L0xx_HAL_Driver
  29:Drivers/STM32L0xx_HAL_Driver/Src/stm32l0xx_hal_rcc_ex.c ****   * @{
  30:Drivers/STM32L0xx_HAL_Driver/Src/stm32l0xx_hal_rcc_ex.c ****   */
  31:Drivers/STM32L0xx_HAL_Driver/Src/stm32l0xx_hal_rcc_ex.c **** 
ARM GAS  /tmp/cci8nmgB.s 			page 2


  32:Drivers/STM32L0xx_HAL_Driver/Src/stm32l0xx_hal_rcc_ex.c **** #ifdef HAL_RCC_MODULE_ENABLED
  33:Drivers/STM32L0xx_HAL_Driver/Src/stm32l0xx_hal_rcc_ex.c **** 
  34:Drivers/STM32L0xx_HAL_Driver/Src/stm32l0xx_hal_rcc_ex.c **** /** @defgroup RCCEx RCCEx
  35:Drivers/STM32L0xx_HAL_Driver/Src/stm32l0xx_hal_rcc_ex.c ****   * @brief RCC Extension HAL module driver
  36:Drivers/STM32L0xx_HAL_Driver/Src/stm32l0xx_hal_rcc_ex.c ****   * @{
  37:Drivers/STM32L0xx_HAL_Driver/Src/stm32l0xx_hal_rcc_ex.c ****   */
  38:Drivers/STM32L0xx_HAL_Driver/Src/stm32l0xx_hal_rcc_ex.c **** 
  39:Drivers/STM32L0xx_HAL_Driver/Src/stm32l0xx_hal_rcc_ex.c **** /* Private typedef -----------------------------------------------------------*/
  40:Drivers/STM32L0xx_HAL_Driver/Src/stm32l0xx_hal_rcc_ex.c **** /* Private define ------------------------------------------------------------*/
  41:Drivers/STM32L0xx_HAL_Driver/Src/stm32l0xx_hal_rcc_ex.c **** /** @defgroup RCCEx_Private_Constants RCCEx Private Constants
  42:Drivers/STM32L0xx_HAL_Driver/Src/stm32l0xx_hal_rcc_ex.c ****   * @{
  43:Drivers/STM32L0xx_HAL_Driver/Src/stm32l0xx_hal_rcc_ex.c ****   */
  44:Drivers/STM32L0xx_HAL_Driver/Src/stm32l0xx_hal_rcc_ex.c **** #if defined(USB)
  45:Drivers/STM32L0xx_HAL_Driver/Src/stm32l0xx_hal_rcc_ex.c **** extern const uint8_t PLLMulTable[];
  46:Drivers/STM32L0xx_HAL_Driver/Src/stm32l0xx_hal_rcc_ex.c **** #endif /* USB */
  47:Drivers/STM32L0xx_HAL_Driver/Src/stm32l0xx_hal_rcc_ex.c **** /**
  48:Drivers/STM32L0xx_HAL_Driver/Src/stm32l0xx_hal_rcc_ex.c ****   * @}
  49:Drivers/STM32L0xx_HAL_Driver/Src/stm32l0xx_hal_rcc_ex.c ****   */
  50:Drivers/STM32L0xx_HAL_Driver/Src/stm32l0xx_hal_rcc_ex.c **** 
  51:Drivers/STM32L0xx_HAL_Driver/Src/stm32l0xx_hal_rcc_ex.c **** /* Private macro -------------------------------------------------------------*/
  52:Drivers/STM32L0xx_HAL_Driver/Src/stm32l0xx_hal_rcc_ex.c **** /** @defgroup RCCEx_Private_Macros RCCEx Private Macros
  53:Drivers/STM32L0xx_HAL_Driver/Src/stm32l0xx_hal_rcc_ex.c ****   * @{
  54:Drivers/STM32L0xx_HAL_Driver/Src/stm32l0xx_hal_rcc_ex.c ****   */
  55:Drivers/STM32L0xx_HAL_Driver/Src/stm32l0xx_hal_rcc_ex.c **** /**
  56:Drivers/STM32L0xx_HAL_Driver/Src/stm32l0xx_hal_rcc_ex.c ****   * @}
  57:Drivers/STM32L0xx_HAL_Driver/Src/stm32l0xx_hal_rcc_ex.c ****   */
  58:Drivers/STM32L0xx_HAL_Driver/Src/stm32l0xx_hal_rcc_ex.c **** 
  59:Drivers/STM32L0xx_HAL_Driver/Src/stm32l0xx_hal_rcc_ex.c **** /* Private variables ---------------------------------------------------------*/
  60:Drivers/STM32L0xx_HAL_Driver/Src/stm32l0xx_hal_rcc_ex.c **** /* Private function prototypes -----------------------------------------------*/
  61:Drivers/STM32L0xx_HAL_Driver/Src/stm32l0xx_hal_rcc_ex.c **** /* Private functions ---------------------------------------------------------*/
  62:Drivers/STM32L0xx_HAL_Driver/Src/stm32l0xx_hal_rcc_ex.c **** 
  63:Drivers/STM32L0xx_HAL_Driver/Src/stm32l0xx_hal_rcc_ex.c **** /** @defgroup RCCEx_Exported_Functions RCCEx Exported Functions
  64:Drivers/STM32L0xx_HAL_Driver/Src/stm32l0xx_hal_rcc_ex.c ****   * @{
  65:Drivers/STM32L0xx_HAL_Driver/Src/stm32l0xx_hal_rcc_ex.c ****   */
  66:Drivers/STM32L0xx_HAL_Driver/Src/stm32l0xx_hal_rcc_ex.c **** 
  67:Drivers/STM32L0xx_HAL_Driver/Src/stm32l0xx_hal_rcc_ex.c **** /** @defgroup RCCEx_Exported_Functions_Group1 Extended Peripheral Control functions
  68:Drivers/STM32L0xx_HAL_Driver/Src/stm32l0xx_hal_rcc_ex.c ****  *  @brief  Extended Peripheral Control functions
  69:Drivers/STM32L0xx_HAL_Driver/Src/stm32l0xx_hal_rcc_ex.c ****  *
  70:Drivers/STM32L0xx_HAL_Driver/Src/stm32l0xx_hal_rcc_ex.c **** @verbatim
  71:Drivers/STM32L0xx_HAL_Driver/Src/stm32l0xx_hal_rcc_ex.c ****  ===============================================================================
  72:Drivers/STM32L0xx_HAL_Driver/Src/stm32l0xx_hal_rcc_ex.c ****                 ##### Extended Peripheral Control functions  #####
  73:Drivers/STM32L0xx_HAL_Driver/Src/stm32l0xx_hal_rcc_ex.c ****  ===============================================================================
  74:Drivers/STM32L0xx_HAL_Driver/Src/stm32l0xx_hal_rcc_ex.c ****     [..]
  75:Drivers/STM32L0xx_HAL_Driver/Src/stm32l0xx_hal_rcc_ex.c ****     This subsection provides a set of functions allowing to control the RCC Clocks
  76:Drivers/STM32L0xx_HAL_Driver/Src/stm32l0xx_hal_rcc_ex.c ****     frequencies.
  77:Drivers/STM32L0xx_HAL_Driver/Src/stm32l0xx_hal_rcc_ex.c ****     [..]
  78:Drivers/STM32L0xx_HAL_Driver/Src/stm32l0xx_hal_rcc_ex.c ****     (@) Important note: Care must be taken when HAL_RCCEx_PeriphCLKConfig() is used to
  79:Drivers/STM32L0xx_HAL_Driver/Src/stm32l0xx_hal_rcc_ex.c ****         select the RTC clock source; in this case the Backup domain will be reset in
  80:Drivers/STM32L0xx_HAL_Driver/Src/stm32l0xx_hal_rcc_ex.c ****         order to modify the RTC Clock source, as consequence RTC registers (including
  81:Drivers/STM32L0xx_HAL_Driver/Src/stm32l0xx_hal_rcc_ex.c ****         the backup registers) are set to their reset values.
  82:Drivers/STM32L0xx_HAL_Driver/Src/stm32l0xx_hal_rcc_ex.c **** 
  83:Drivers/STM32L0xx_HAL_Driver/Src/stm32l0xx_hal_rcc_ex.c **** @endverbatim
  84:Drivers/STM32L0xx_HAL_Driver/Src/stm32l0xx_hal_rcc_ex.c ****   * @{
  85:Drivers/STM32L0xx_HAL_Driver/Src/stm32l0xx_hal_rcc_ex.c ****   */
  86:Drivers/STM32L0xx_HAL_Driver/Src/stm32l0xx_hal_rcc_ex.c **** 
  87:Drivers/STM32L0xx_HAL_Driver/Src/stm32l0xx_hal_rcc_ex.c **** /**
  88:Drivers/STM32L0xx_HAL_Driver/Src/stm32l0xx_hal_rcc_ex.c ****   * @brief  Initializes the RCC extended peripherals clocks according to the specified
ARM GAS  /tmp/cci8nmgB.s 			page 3


  89:Drivers/STM32L0xx_HAL_Driver/Src/stm32l0xx_hal_rcc_ex.c ****   *         parameters in the RCC_PeriphCLKInitTypeDef.
  90:Drivers/STM32L0xx_HAL_Driver/Src/stm32l0xx_hal_rcc_ex.c ****   * @param  PeriphClkInit pointer to an RCC_PeriphCLKInitTypeDef structure that
  91:Drivers/STM32L0xx_HAL_Driver/Src/stm32l0xx_hal_rcc_ex.c ****   *         contains the configuration information for the Extended Peripherals clocks(USART1,USART
  92:Drivers/STM32L0xx_HAL_Driver/Src/stm32l0xx_hal_rcc_ex.c ****   *         I2C1, I2C3, RTC, USB/RNG  and LPTIM1 clocks).
  93:Drivers/STM32L0xx_HAL_Driver/Src/stm32l0xx_hal_rcc_ex.c ****   * @retval HAL status
  94:Drivers/STM32L0xx_HAL_Driver/Src/stm32l0xx_hal_rcc_ex.c ****   * @note   If HAL_ERROR returned, first switch-OFF HSE clock oscillator with @ref HAL_RCC_OscConfi
  95:Drivers/STM32L0xx_HAL_Driver/Src/stm32l0xx_hal_rcc_ex.c ****   *         to possibly update HSE divider.
  96:Drivers/STM32L0xx_HAL_Driver/Src/stm32l0xx_hal_rcc_ex.c ****   */
  97:Drivers/STM32L0xx_HAL_Driver/Src/stm32l0xx_hal_rcc_ex.c **** HAL_StatusTypeDef HAL_RCCEx_PeriphCLKConfig(RCC_PeriphCLKInitTypeDef  *PeriphClkInit)
  98:Drivers/STM32L0xx_HAL_Driver/Src/stm32l0xx_hal_rcc_ex.c **** {
  28              		.loc 1 98 1 view -0
  29              		.cfi_startproc
  30              		@ args = 0, pretend = 0, frame = 0
  31              		@ frame_needed = 0, uses_anonymous_args = 0
  32              		.loc 1 98 1 is_stmt 0 view .LVU1
  33 0000 70B5     		push	{r4, r5, r6, lr}
  34              	.LCFI0:
  35              		.cfi_def_cfa_offset 16
  36              		.cfi_offset 4, -16
  37              		.cfi_offset 5, -12
  38              		.cfi_offset 6, -8
  39              		.cfi_offset 14, -4
  40 0002 0400     		movs	r4, r0
  99:Drivers/STM32L0xx_HAL_Driver/Src/stm32l0xx_hal_rcc_ex.c ****   uint32_t tickstart;
  41              		.loc 1 99 3 is_stmt 1 view .LVU2
 100:Drivers/STM32L0xx_HAL_Driver/Src/stm32l0xx_hal_rcc_ex.c ****   uint32_t temp_reg;
  42              		.loc 1 100 3 view .LVU3
 101:Drivers/STM32L0xx_HAL_Driver/Src/stm32l0xx_hal_rcc_ex.c **** 
 102:Drivers/STM32L0xx_HAL_Driver/Src/stm32l0xx_hal_rcc_ex.c ****   /* Check the parameters */
 103:Drivers/STM32L0xx_HAL_Driver/Src/stm32l0xx_hal_rcc_ex.c ****   assert_param(IS_RCC_PERIPHCLOCK(PeriphClkInit->PeriphClockSelection));
  43              		.loc 1 103 3 view .LVU4
 104:Drivers/STM32L0xx_HAL_Driver/Src/stm32l0xx_hal_rcc_ex.c **** 
 105:Drivers/STM32L0xx_HAL_Driver/Src/stm32l0xx_hal_rcc_ex.c ****   /*------------------------------- RTC/LCD Configuration ------------------------*/
 106:Drivers/STM32L0xx_HAL_Driver/Src/stm32l0xx_hal_rcc_ex.c ****   if ((((PeriphClkInit->PeriphClockSelection) & RCC_PERIPHCLK_RTC) == RCC_PERIPHCLK_RTC)
  44              		.loc 1 106 3 view .LVU5
  45              		.loc 1 106 6 is_stmt 0 view .LVU6
  46 0004 0368     		ldr	r3, [r0]
  47 0006 9B06     		lsls	r3, r3, #26
  48 0008 4ED5     		bpl	.L2
  49              	.LBB2:
 107:Drivers/STM32L0xx_HAL_Driver/Src/stm32l0xx_hal_rcc_ex.c **** #if defined(LCD)
 108:Drivers/STM32L0xx_HAL_Driver/Src/stm32l0xx_hal_rcc_ex.c ****    || (((PeriphClkInit->PeriphClockSelection) & RCC_PERIPHCLK_LCD) == RCC_PERIPHCLK_LCD)
 109:Drivers/STM32L0xx_HAL_Driver/Src/stm32l0xx_hal_rcc_ex.c **** #endif /* LCD */
 110:Drivers/STM32L0xx_HAL_Driver/Src/stm32l0xx_hal_rcc_ex.c ****      )
 111:Drivers/STM32L0xx_HAL_Driver/Src/stm32l0xx_hal_rcc_ex.c ****   {
 112:Drivers/STM32L0xx_HAL_Driver/Src/stm32l0xx_hal_rcc_ex.c ****     /* check for RTC Parameters used to output RTCCLK */
 113:Drivers/STM32L0xx_HAL_Driver/Src/stm32l0xx_hal_rcc_ex.c ****     if(((PeriphClkInit->PeriphClockSelection) & RCC_PERIPHCLK_RTC) == RCC_PERIPHCLK_RTC)
  50              		.loc 1 113 5 is_stmt 1 view .LVU7
 114:Drivers/STM32L0xx_HAL_Driver/Src/stm32l0xx_hal_rcc_ex.c ****     {
 115:Drivers/STM32L0xx_HAL_Driver/Src/stm32l0xx_hal_rcc_ex.c ****       assert_param(IS_RCC_RTCCLKSOURCE(PeriphClkInit->RTCClockSelection));
  51              		.loc 1 115 7 view .LVU8
 116:Drivers/STM32L0xx_HAL_Driver/Src/stm32l0xx_hal_rcc_ex.c ****     }
 117:Drivers/STM32L0xx_HAL_Driver/Src/stm32l0xx_hal_rcc_ex.c **** 
 118:Drivers/STM32L0xx_HAL_Driver/Src/stm32l0xx_hal_rcc_ex.c **** #if defined(LCD)
 119:Drivers/STM32L0xx_HAL_Driver/Src/stm32l0xx_hal_rcc_ex.c ****     if(((PeriphClkInit->PeriphClockSelection) & RCC_PERIPHCLK_LCD) == RCC_PERIPHCLK_LCD)
 120:Drivers/STM32L0xx_HAL_Driver/Src/stm32l0xx_hal_rcc_ex.c ****     {
 121:Drivers/STM32L0xx_HAL_Driver/Src/stm32l0xx_hal_rcc_ex.c ****       assert_param(IS_RCC_RTCCLKSOURCE(PeriphClkInit->LCDClockSelection));
ARM GAS  /tmp/cci8nmgB.s 			page 4


 122:Drivers/STM32L0xx_HAL_Driver/Src/stm32l0xx_hal_rcc_ex.c ****     }
 123:Drivers/STM32L0xx_HAL_Driver/Src/stm32l0xx_hal_rcc_ex.c **** #endif /* LCD */
 124:Drivers/STM32L0xx_HAL_Driver/Src/stm32l0xx_hal_rcc_ex.c **** 
 125:Drivers/STM32L0xx_HAL_Driver/Src/stm32l0xx_hal_rcc_ex.c ****     FlagStatus       pwrclkchanged = RESET;
  52              		.loc 1 125 5 view .LVU9
  53              	.LVL1:
 126:Drivers/STM32L0xx_HAL_Driver/Src/stm32l0xx_hal_rcc_ex.c **** 
 127:Drivers/STM32L0xx_HAL_Driver/Src/stm32l0xx_hal_rcc_ex.c ****     /* As soon as function is called to change RTC clock source, activation of the
 128:Drivers/STM32L0xx_HAL_Driver/Src/stm32l0xx_hal_rcc_ex.c ****        power domain is done. */
 129:Drivers/STM32L0xx_HAL_Driver/Src/stm32l0xx_hal_rcc_ex.c ****     /* Requires to enable write access to Backup Domain of necessary */
 130:Drivers/STM32L0xx_HAL_Driver/Src/stm32l0xx_hal_rcc_ex.c ****     if(__HAL_RCC_PWR_IS_CLK_DISABLED())
  54              		.loc 1 130 5 view .LVU10
  55              		.loc 1 130 8 is_stmt 0 view .LVU11
  56 000a 664B     		ldr	r3, .L28
  57 000c 9B6B     		ldr	r3, [r3, #56]
  58              		.loc 1 130 7 view .LVU12
  59 000e DB00     		lsls	r3, r3, #3
  60 0010 00D5     		bpl	.LCB34
  61 0012 87E0     		b	.L18	@long jump
  62              	.LCB34:
 131:Drivers/STM32L0xx_HAL_Driver/Src/stm32l0xx_hal_rcc_ex.c ****     {
 132:Drivers/STM32L0xx_HAL_Driver/Src/stm32l0xx_hal_rcc_ex.c ****       __HAL_RCC_PWR_CLK_ENABLE();
  63              		.loc 1 132 7 is_stmt 1 view .LVU13
  64 0014 634A     		ldr	r2, .L28
  65 0016 916B     		ldr	r1, [r2, #56]
  66 0018 8023     		movs	r3, #128
  67 001a 5B05     		lsls	r3, r3, #21
  68 001c 0B43     		orrs	r3, r1
  69 001e 9363     		str	r3, [r2, #56]
 133:Drivers/STM32L0xx_HAL_Driver/Src/stm32l0xx_hal_rcc_ex.c ****       pwrclkchanged = SET;
  70              		.loc 1 133 7 view .LVU14
  71              	.LVL2:
  72              		.loc 1 133 21 is_stmt 0 view .LVU15
  73 0020 0125     		movs	r5, #1
  74              	.LVL3:
  75              	.L3:
 134:Drivers/STM32L0xx_HAL_Driver/Src/stm32l0xx_hal_rcc_ex.c ****     }
 135:Drivers/STM32L0xx_HAL_Driver/Src/stm32l0xx_hal_rcc_ex.c **** 
 136:Drivers/STM32L0xx_HAL_Driver/Src/stm32l0xx_hal_rcc_ex.c ****     if(HAL_IS_BIT_CLR(PWR->CR, PWR_CR_DBP))
  76              		.loc 1 136 5 is_stmt 1 view .LVU16
  77              		.loc 1 136 8 is_stmt 0 view .LVU17
  78 0022 614B     		ldr	r3, .L28+4
  79 0024 1B68     		ldr	r3, [r3]
  80              		.loc 1 136 7 view .LVU18
  81 0026 DB05     		lsls	r3, r3, #23
  82 0028 7ED5     		bpl	.L23
  83              	.LVL4:
  84              	.L4:
 137:Drivers/STM32L0xx_HAL_Driver/Src/stm32l0xx_hal_rcc_ex.c ****     {
 138:Drivers/STM32L0xx_HAL_Driver/Src/stm32l0xx_hal_rcc_ex.c ****       /* Enable write access to Backup domain */
 139:Drivers/STM32L0xx_HAL_Driver/Src/stm32l0xx_hal_rcc_ex.c ****       SET_BIT(PWR->CR, PWR_CR_DBP);
 140:Drivers/STM32L0xx_HAL_Driver/Src/stm32l0xx_hal_rcc_ex.c **** 
 141:Drivers/STM32L0xx_HAL_Driver/Src/stm32l0xx_hal_rcc_ex.c ****       /* Wait for Backup domain Write protection disable */
 142:Drivers/STM32L0xx_HAL_Driver/Src/stm32l0xx_hal_rcc_ex.c ****       tickstart = HAL_GetTick();
 143:Drivers/STM32L0xx_HAL_Driver/Src/stm32l0xx_hal_rcc_ex.c **** 
 144:Drivers/STM32L0xx_HAL_Driver/Src/stm32l0xx_hal_rcc_ex.c ****       while(HAL_IS_BIT_CLR(PWR->CR, PWR_CR_DBP))
 145:Drivers/STM32L0xx_HAL_Driver/Src/stm32l0xx_hal_rcc_ex.c ****       {
ARM GAS  /tmp/cci8nmgB.s 			page 5


 146:Drivers/STM32L0xx_HAL_Driver/Src/stm32l0xx_hal_rcc_ex.c ****         if((HAL_GetTick() - tickstart) > RCC_DBP_TIMEOUT_VALUE)
 147:Drivers/STM32L0xx_HAL_Driver/Src/stm32l0xx_hal_rcc_ex.c ****         {
 148:Drivers/STM32L0xx_HAL_Driver/Src/stm32l0xx_hal_rcc_ex.c ****           return HAL_TIMEOUT;
 149:Drivers/STM32L0xx_HAL_Driver/Src/stm32l0xx_hal_rcc_ex.c ****         }
 150:Drivers/STM32L0xx_HAL_Driver/Src/stm32l0xx_hal_rcc_ex.c ****       }
 151:Drivers/STM32L0xx_HAL_Driver/Src/stm32l0xx_hal_rcc_ex.c ****     }
 152:Drivers/STM32L0xx_HAL_Driver/Src/stm32l0xx_hal_rcc_ex.c **** 
 153:Drivers/STM32L0xx_HAL_Driver/Src/stm32l0xx_hal_rcc_ex.c ****     /* Check if user wants to change HSE RTC prescaler whereas HSE is enabled */
 154:Drivers/STM32L0xx_HAL_Driver/Src/stm32l0xx_hal_rcc_ex.c ****     temp_reg = (RCC->CR & RCC_CR_RTCPRE);
  85              		.loc 1 154 5 is_stmt 1 view .LVU19
  86              		.loc 1 154 20 is_stmt 0 view .LVU20
  87 002a 5E4B     		ldr	r3, .L28
  88 002c 1968     		ldr	r1, [r3]
  89              		.loc 1 154 14 view .LVU21
  90 002e C023     		movs	r3, #192
  91 0030 9B03     		lsls	r3, r3, #14
  92 0032 1940     		ands	r1, r3
  93              	.LVL5:
 155:Drivers/STM32L0xx_HAL_Driver/Src/stm32l0xx_hal_rcc_ex.c ****     if ((temp_reg != (PeriphClkInit->RTCClockSelection & RCC_CR_RTCPRE))
  94              		.loc 1 155 5 is_stmt 1 view .LVU22
  95              		.loc 1 155 36 is_stmt 0 view .LVU23
  96 0034 6268     		ldr	r2, [r4, #4]
  97              		.loc 1 155 56 view .LVU24
  98 0036 1340     		ands	r3, r2
  99              		.loc 1 155 8 view .LVU25
 100 0038 8B42     		cmp	r3, r1
 101 003a 06D0     		beq	.L8
 156:Drivers/STM32L0xx_HAL_Driver/Src/stm32l0xx_hal_rcc_ex.c **** #if defined (LCD)
 157:Drivers/STM32L0xx_HAL_Driver/Src/stm32l0xx_hal_rcc_ex.c ****      || (temp_reg != (PeriphClkInit->LCDClockSelection & RCC_CR_RTCPRE))
 158:Drivers/STM32L0xx_HAL_Driver/Src/stm32l0xx_hal_rcc_ex.c **** #endif /* LCD */
 159:Drivers/STM32L0xx_HAL_Driver/Src/stm32l0xx_hal_rcc_ex.c ****        )
 160:Drivers/STM32L0xx_HAL_Driver/Src/stm32l0xx_hal_rcc_ex.c ****     { /* Check HSE State */
 161:Drivers/STM32L0xx_HAL_Driver/Src/stm32l0xx_hal_rcc_ex.c ****       if ((PeriphClkInit->RTCClockSelection & RCC_CSR_RTCSEL) == RCC_CSR_RTCSEL_HSE)
 102              		.loc 1 161 7 is_stmt 1 view .LVU26
 103              		.loc 1 161 45 is_stmt 0 view .LVU27
 104 003c C023     		movs	r3, #192
 105 003e 9B02     		lsls	r3, r3, #10
 106 0040 1100     		movs	r1, r2
 107              	.LVL6:
 108              		.loc 1 161 45 view .LVU28
 109 0042 1940     		ands	r1, r3
 110              		.loc 1 161 10 view .LVU29
 111 0044 9942     		cmp	r1, r3
 112 0046 00D1     		bne	.LCB77
 113 0048 83E0     		b	.L24	@long jump
 114              	.LCB77:
 115              	.L8:
 162:Drivers/STM32L0xx_HAL_Driver/Src/stm32l0xx_hal_rcc_ex.c ****       {
 163:Drivers/STM32L0xx_HAL_Driver/Src/stm32l0xx_hal_rcc_ex.c ****         if (HAL_IS_BIT_SET(RCC->CR, RCC_CR_HSERDY))
 164:Drivers/STM32L0xx_HAL_Driver/Src/stm32l0xx_hal_rcc_ex.c ****         {
 165:Drivers/STM32L0xx_HAL_Driver/Src/stm32l0xx_hal_rcc_ex.c ****           /* To update HSE divider, first switch-OFF HSE clock oscillator*/
 166:Drivers/STM32L0xx_HAL_Driver/Src/stm32l0xx_hal_rcc_ex.c ****           return HAL_ERROR;
 167:Drivers/STM32L0xx_HAL_Driver/Src/stm32l0xx_hal_rcc_ex.c ****         }
 168:Drivers/STM32L0xx_HAL_Driver/Src/stm32l0xx_hal_rcc_ex.c ****       }
 169:Drivers/STM32L0xx_HAL_Driver/Src/stm32l0xx_hal_rcc_ex.c ****     }
 170:Drivers/STM32L0xx_HAL_Driver/Src/stm32l0xx_hal_rcc_ex.c **** 
 171:Drivers/STM32L0xx_HAL_Driver/Src/stm32l0xx_hal_rcc_ex.c ****     /* Reset the Backup domain only if the RTC Clock source selection is modified from reset value 
ARM GAS  /tmp/cci8nmgB.s 			page 6


 172:Drivers/STM32L0xx_HAL_Driver/Src/stm32l0xx_hal_rcc_ex.c ****     temp_reg = (RCC->CSR & RCC_CSR_RTCSEL);
 116              		.loc 1 172 5 is_stmt 1 view .LVU30
 117              		.loc 1 172 20 is_stmt 0 view .LVU31
 118 004a 564B     		ldr	r3, .L28
 119 004c 196D     		ldr	r1, [r3, #80]
 120              		.loc 1 172 14 view .LVU32
 121 004e C023     		movs	r3, #192
 122 0050 9B02     		lsls	r3, r3, #10
 123 0052 0800     		movs	r0, r1
 124 0054 1840     		ands	r0, r3
 125              	.LVL7:
 173:Drivers/STM32L0xx_HAL_Driver/Src/stm32l0xx_hal_rcc_ex.c **** 
 174:Drivers/STM32L0xx_HAL_Driver/Src/stm32l0xx_hal_rcc_ex.c ****     if((temp_reg != 0x00000000U) && (((temp_reg != (PeriphClkInit->RTCClockSelection & RCC_CSR_RTCS
 126              		.loc 1 174 5 is_stmt 1 view .LVU33
 127              		.loc 1 174 7 is_stmt 0 view .LVU34
 128 0056 1942     		tst	r1, r3
 129 0058 15D0     		beq	.L9
 130              		.loc 1 174 86 discriminator 1 view .LVU35
 131 005a 1A40     		ands	r2, r3
 132              		.loc 1 174 34 discriminator 1 view .LVU36
 133 005c 8242     		cmp	r2, r0
 134 005e 12D0     		beq	.L9
 175:Drivers/STM32L0xx_HAL_Driver/Src/stm32l0xx_hal_rcc_ex.c ****       && (((PeriphClkInit->PeriphClockSelection) & RCC_PERIPHCLK_RTC) == RCC_PERIPHCLK_RTC))
 135              		.loc 1 175 7 view .LVU37
 136 0060 2368     		ldr	r3, [r4]
 137 0062 9B06     		lsls	r3, r3, #26
 138 0064 0FD5     		bpl	.L9
 176:Drivers/STM32L0xx_HAL_Driver/Src/stm32l0xx_hal_rcc_ex.c **** #if defined(LCD)
 177:Drivers/STM32L0xx_HAL_Driver/Src/stm32l0xx_hal_rcc_ex.c ****       || ((temp_reg != (PeriphClkInit->LCDClockSelection & RCC_CSR_RTCSEL)) \
 178:Drivers/STM32L0xx_HAL_Driver/Src/stm32l0xx_hal_rcc_ex.c ****        && (((PeriphClkInit->PeriphClockSelection) & RCC_PERIPHCLK_LCD) == RCC_PERIPHCLK_LCD))
 179:Drivers/STM32L0xx_HAL_Driver/Src/stm32l0xx_hal_rcc_ex.c **** #endif /* LCD */
 180:Drivers/STM32L0xx_HAL_Driver/Src/stm32l0xx_hal_rcc_ex.c ****      ))
 181:Drivers/STM32L0xx_HAL_Driver/Src/stm32l0xx_hal_rcc_ex.c ****     {
 182:Drivers/STM32L0xx_HAL_Driver/Src/stm32l0xx_hal_rcc_ex.c ****       /* Store the content of CSR register before the reset of Backup Domain */
 183:Drivers/STM32L0xx_HAL_Driver/Src/stm32l0xx_hal_rcc_ex.c ****       temp_reg = (RCC->CSR & ~(RCC_CSR_RTCSEL));
 139              		.loc 1 183 7 is_stmt 1 view .LVU38
 140              		.loc 1 183 22 is_stmt 0 view .LVU39
 141 0066 4F4B     		ldr	r3, .L28
 142 0068 186D     		ldr	r0, [r3, #80]
 143              	.LVL8:
 144              		.loc 1 183 16 view .LVU40
 145 006a 504A     		ldr	r2, .L28+8
 146 006c 0240     		ands	r2, r0
 147              	.LVL9:
 184:Drivers/STM32L0xx_HAL_Driver/Src/stm32l0xx_hal_rcc_ex.c **** 
 185:Drivers/STM32L0xx_HAL_Driver/Src/stm32l0xx_hal_rcc_ex.c ****       /* RTC Clock selection can be changed only if the Backup Domain is reset */
 186:Drivers/STM32L0xx_HAL_Driver/Src/stm32l0xx_hal_rcc_ex.c ****       __HAL_RCC_BACKUPRESET_FORCE();
 148              		.loc 1 186 7 is_stmt 1 view .LVU41
 149 006e 1E6D     		ldr	r6, [r3, #80]
 150 0070 8021     		movs	r1, #128
 151 0072 0903     		lsls	r1, r1, #12
 152 0074 3143     		orrs	r1, r6
 153 0076 1965     		str	r1, [r3, #80]
 187:Drivers/STM32L0xx_HAL_Driver/Src/stm32l0xx_hal_rcc_ex.c ****       __HAL_RCC_BACKUPRESET_RELEASE();
 154              		.loc 1 187 7 view .LVU42
 155 0078 196D     		ldr	r1, [r3, #80]
 156 007a 4D4E     		ldr	r6, .L28+12
ARM GAS  /tmp/cci8nmgB.s 			page 7


 157 007c 3140     		ands	r1, r6
 158 007e 1965     		str	r1, [r3, #80]
 188:Drivers/STM32L0xx_HAL_Driver/Src/stm32l0xx_hal_rcc_ex.c **** 
 189:Drivers/STM32L0xx_HAL_Driver/Src/stm32l0xx_hal_rcc_ex.c ****       /* Restore the Content of CSR register */
 190:Drivers/STM32L0xx_HAL_Driver/Src/stm32l0xx_hal_rcc_ex.c ****       RCC->CSR = temp_reg;
 159              		.loc 1 190 7 view .LVU43
 160              		.loc 1 190 16 is_stmt 0 view .LVU44
 161 0080 1A65     		str	r2, [r3, #80]
 191:Drivers/STM32L0xx_HAL_Driver/Src/stm32l0xx_hal_rcc_ex.c **** 
 192:Drivers/STM32L0xx_HAL_Driver/Src/stm32l0xx_hal_rcc_ex.c ****        /* Wait for LSERDY if LSE was enabled */
 193:Drivers/STM32L0xx_HAL_Driver/Src/stm32l0xx_hal_rcc_ex.c ****       if (HAL_IS_BIT_SET(temp_reg, RCC_CSR_LSEON))
 162              		.loc 1 193 7 is_stmt 1 view .LVU45
 163              		.loc 1 193 10 is_stmt 0 view .LVU46
 164 0082 C305     		lsls	r3, r0, #23
 165 0084 6CD4     		bmi	.L25
 166              	.LVL10:
 167              	.L9:
 194:Drivers/STM32L0xx_HAL_Driver/Src/stm32l0xx_hal_rcc_ex.c ****       {
 195:Drivers/STM32L0xx_HAL_Driver/Src/stm32l0xx_hal_rcc_ex.c ****         /* Get Start Tick */
 196:Drivers/STM32L0xx_HAL_Driver/Src/stm32l0xx_hal_rcc_ex.c ****         tickstart = HAL_GetTick();
 197:Drivers/STM32L0xx_HAL_Driver/Src/stm32l0xx_hal_rcc_ex.c **** 
 198:Drivers/STM32L0xx_HAL_Driver/Src/stm32l0xx_hal_rcc_ex.c ****         /* Wait till LSE is ready */
 199:Drivers/STM32L0xx_HAL_Driver/Src/stm32l0xx_hal_rcc_ex.c ****         while(__HAL_RCC_GET_FLAG(RCC_FLAG_LSERDY) == 0U)
 200:Drivers/STM32L0xx_HAL_Driver/Src/stm32l0xx_hal_rcc_ex.c ****         {
 201:Drivers/STM32L0xx_HAL_Driver/Src/stm32l0xx_hal_rcc_ex.c ****           if((HAL_GetTick() - tickstart ) > RCC_LSE_TIMEOUT_VALUE)
 202:Drivers/STM32L0xx_HAL_Driver/Src/stm32l0xx_hal_rcc_ex.c ****           {
 203:Drivers/STM32L0xx_HAL_Driver/Src/stm32l0xx_hal_rcc_ex.c ****             return HAL_TIMEOUT;
 204:Drivers/STM32L0xx_HAL_Driver/Src/stm32l0xx_hal_rcc_ex.c ****           }
 205:Drivers/STM32L0xx_HAL_Driver/Src/stm32l0xx_hal_rcc_ex.c ****         }
 206:Drivers/STM32L0xx_HAL_Driver/Src/stm32l0xx_hal_rcc_ex.c ****       }
 207:Drivers/STM32L0xx_HAL_Driver/Src/stm32l0xx_hal_rcc_ex.c ****     }
 208:Drivers/STM32L0xx_HAL_Driver/Src/stm32l0xx_hal_rcc_ex.c ****     __HAL_RCC_RTC_CONFIG(PeriphClkInit->RTCClockSelection);
 168              		.loc 1 208 5 is_stmt 1 view .LVU47
 169              		.loc 1 208 5 view .LVU48
 170              		.loc 1 208 5 view .LVU49
 171 0086 6368     		ldr	r3, [r4, #4]
 172 0088 C022     		movs	r2, #192
 173 008a 9202     		lsls	r2, r2, #10
 174 008c 1900     		movs	r1, r3
 175 008e 1140     		ands	r1, r2
 176 0090 9142     		cmp	r1, r2
 177 0092 74D0     		beq	.L26
 178              	.L12:
 179              		.loc 1 208 5 discriminator 3 view .LVU50
 180 0094 4349     		ldr	r1, .L28
 181 0096 0B6D     		ldr	r3, [r1, #80]
 182 0098 C022     		movs	r2, #192
 183 009a 9202     		lsls	r2, r2, #10
 184 009c 6068     		ldr	r0, [r4, #4]
 185 009e 0240     		ands	r2, r0
 186 00a0 1343     		orrs	r3, r2
 187 00a2 0B65     		str	r3, [r1, #80]
 209:Drivers/STM32L0xx_HAL_Driver/Src/stm32l0xx_hal_rcc_ex.c **** 
 210:Drivers/STM32L0xx_HAL_Driver/Src/stm32l0xx_hal_rcc_ex.c ****     /* Require to disable power clock if necessary */
 211:Drivers/STM32L0xx_HAL_Driver/Src/stm32l0xx_hal_rcc_ex.c ****     if(pwrclkchanged == SET)
 188              		.loc 1 211 5 discriminator 3 view .LVU51
 189              		.loc 1 211 7 is_stmt 0 discriminator 3 view .LVU52
ARM GAS  /tmp/cci8nmgB.s 			page 8


 190 00a4 012D     		cmp	r5, #1
 191 00a6 74D0     		beq	.L27
 192              	.LVL11:
 193              	.L2:
 194              		.loc 1 211 7 discriminator 3 view .LVU53
 195              	.LBE2:
 212:Drivers/STM32L0xx_HAL_Driver/Src/stm32l0xx_hal_rcc_ex.c ****     {
 213:Drivers/STM32L0xx_HAL_Driver/Src/stm32l0xx_hal_rcc_ex.c ****       __HAL_RCC_PWR_CLK_DISABLE();
 214:Drivers/STM32L0xx_HAL_Driver/Src/stm32l0xx_hal_rcc_ex.c ****     }
 215:Drivers/STM32L0xx_HAL_Driver/Src/stm32l0xx_hal_rcc_ex.c ****   }
 216:Drivers/STM32L0xx_HAL_Driver/Src/stm32l0xx_hal_rcc_ex.c **** 
 217:Drivers/STM32L0xx_HAL_Driver/Src/stm32l0xx_hal_rcc_ex.c **** #if defined (RCC_CCIPR_USART1SEL)
 218:Drivers/STM32L0xx_HAL_Driver/Src/stm32l0xx_hal_rcc_ex.c ****   /*------------------------------- USART1 Configuration ------------------------*/
 219:Drivers/STM32L0xx_HAL_Driver/Src/stm32l0xx_hal_rcc_ex.c ****   if(((PeriphClkInit->PeriphClockSelection) & RCC_PERIPHCLK_USART1) == RCC_PERIPHCLK_USART1)
 196              		.loc 1 219 3 is_stmt 1 view .LVU54
 197              		.loc 1 219 5 is_stmt 0 view .LVU55
 198 00a8 2368     		ldr	r3, [r4]
 199 00aa DB07     		lsls	r3, r3, #31
 200 00ac 06D5     		bpl	.L13
 220:Drivers/STM32L0xx_HAL_Driver/Src/stm32l0xx_hal_rcc_ex.c ****   {
 221:Drivers/STM32L0xx_HAL_Driver/Src/stm32l0xx_hal_rcc_ex.c ****     /* Check the parameters */
 222:Drivers/STM32L0xx_HAL_Driver/Src/stm32l0xx_hal_rcc_ex.c ****     assert_param(IS_RCC_USART1CLKSOURCE(PeriphClkInit->Usart1ClockSelection));
 201              		.loc 1 222 5 is_stmt 1 view .LVU56
 223:Drivers/STM32L0xx_HAL_Driver/Src/stm32l0xx_hal_rcc_ex.c **** 
 224:Drivers/STM32L0xx_HAL_Driver/Src/stm32l0xx_hal_rcc_ex.c ****     /* Configure the USART1 clock source */
 225:Drivers/STM32L0xx_HAL_Driver/Src/stm32l0xx_hal_rcc_ex.c ****     __HAL_RCC_USART1_CONFIG(PeriphClkInit->Usart1ClockSelection);
 202              		.loc 1 225 5 view .LVU57
 203 00ae 3D4A     		ldr	r2, .L28
 204 00b0 D36C     		ldr	r3, [r2, #76]
 205 00b2 0321     		movs	r1, #3
 206 00b4 8B43     		bics	r3, r1
 207 00b6 A168     		ldr	r1, [r4, #8]
 208 00b8 0B43     		orrs	r3, r1
 209 00ba D364     		str	r3, [r2, #76]
 210              	.L13:
 226:Drivers/STM32L0xx_HAL_Driver/Src/stm32l0xx_hal_rcc_ex.c ****   }
 227:Drivers/STM32L0xx_HAL_Driver/Src/stm32l0xx_hal_rcc_ex.c **** #endif /* RCC_CCIPR_USART1SEL */
 228:Drivers/STM32L0xx_HAL_Driver/Src/stm32l0xx_hal_rcc_ex.c **** 
 229:Drivers/STM32L0xx_HAL_Driver/Src/stm32l0xx_hal_rcc_ex.c ****   /*----------------------------- USART2 Configuration --------------------------*/
 230:Drivers/STM32L0xx_HAL_Driver/Src/stm32l0xx_hal_rcc_ex.c ****   if(((PeriphClkInit->PeriphClockSelection) & RCC_PERIPHCLK_USART2) == RCC_PERIPHCLK_USART2)
 211              		.loc 1 230 3 view .LVU58
 212              		.loc 1 230 5 is_stmt 0 view .LVU59
 213 00bc 2368     		ldr	r3, [r4]
 214 00be 9B07     		lsls	r3, r3, #30
 215 00c0 06D5     		bpl	.L14
 231:Drivers/STM32L0xx_HAL_Driver/Src/stm32l0xx_hal_rcc_ex.c ****   {
 232:Drivers/STM32L0xx_HAL_Driver/Src/stm32l0xx_hal_rcc_ex.c ****     /* Check the parameters */
 233:Drivers/STM32L0xx_HAL_Driver/Src/stm32l0xx_hal_rcc_ex.c ****     assert_param(IS_RCC_USART2CLKSOURCE(PeriphClkInit->Usart2ClockSelection));
 216              		.loc 1 233 5 is_stmt 1 view .LVU60
 234:Drivers/STM32L0xx_HAL_Driver/Src/stm32l0xx_hal_rcc_ex.c **** 
 235:Drivers/STM32L0xx_HAL_Driver/Src/stm32l0xx_hal_rcc_ex.c ****     /* Configure the USART2 clock source */
 236:Drivers/STM32L0xx_HAL_Driver/Src/stm32l0xx_hal_rcc_ex.c ****     __HAL_RCC_USART2_CONFIG(PeriphClkInit->Usart2ClockSelection);
 217              		.loc 1 236 5 view .LVU61
 218 00c2 384A     		ldr	r2, .L28
 219 00c4 D36C     		ldr	r3, [r2, #76]
 220 00c6 0C21     		movs	r1, #12
 221 00c8 8B43     		bics	r3, r1
ARM GAS  /tmp/cci8nmgB.s 			page 9


 222 00ca E168     		ldr	r1, [r4, #12]
 223 00cc 0B43     		orrs	r3, r1
 224 00ce D364     		str	r3, [r2, #76]
 225              	.L14:
 237:Drivers/STM32L0xx_HAL_Driver/Src/stm32l0xx_hal_rcc_ex.c ****   }
 238:Drivers/STM32L0xx_HAL_Driver/Src/stm32l0xx_hal_rcc_ex.c **** 
 239:Drivers/STM32L0xx_HAL_Driver/Src/stm32l0xx_hal_rcc_ex.c ****   /*------------------------------ LPUART1 Configuration ------------------------*/
 240:Drivers/STM32L0xx_HAL_Driver/Src/stm32l0xx_hal_rcc_ex.c ****   if(((PeriphClkInit->PeriphClockSelection) & RCC_PERIPHCLK_LPUART1) == RCC_PERIPHCLK_LPUART1)
 226              		.loc 1 240 3 view .LVU62
 227              		.loc 1 240 5 is_stmt 0 view .LVU63
 228 00d0 2368     		ldr	r3, [r4]
 229 00d2 5B07     		lsls	r3, r3, #29
 230 00d4 06D5     		bpl	.L15
 241:Drivers/STM32L0xx_HAL_Driver/Src/stm32l0xx_hal_rcc_ex.c ****   {
 242:Drivers/STM32L0xx_HAL_Driver/Src/stm32l0xx_hal_rcc_ex.c ****     /* Check the parameters */
 243:Drivers/STM32L0xx_HAL_Driver/Src/stm32l0xx_hal_rcc_ex.c ****     assert_param(IS_RCC_LPUART1CLKSOURCE(PeriphClkInit->Lpuart1ClockSelection));
 231              		.loc 1 243 5 is_stmt 1 view .LVU64
 244:Drivers/STM32L0xx_HAL_Driver/Src/stm32l0xx_hal_rcc_ex.c **** 
 245:Drivers/STM32L0xx_HAL_Driver/Src/stm32l0xx_hal_rcc_ex.c ****     /* Configure the LPUAR1 clock source */
 246:Drivers/STM32L0xx_HAL_Driver/Src/stm32l0xx_hal_rcc_ex.c ****     __HAL_RCC_LPUART1_CONFIG(PeriphClkInit->Lpuart1ClockSelection);
 232              		.loc 1 246 5 view .LVU65
 233 00d6 334A     		ldr	r2, .L28
 234 00d8 D36C     		ldr	r3, [r2, #76]
 235 00da 3649     		ldr	r1, .L28+16
 236 00dc 0B40     		ands	r3, r1
 237 00de 2169     		ldr	r1, [r4, #16]
 238 00e0 0B43     		orrs	r3, r1
 239 00e2 D364     		str	r3, [r2, #76]
 240              	.L15:
 247:Drivers/STM32L0xx_HAL_Driver/Src/stm32l0xx_hal_rcc_ex.c ****   }
 248:Drivers/STM32L0xx_HAL_Driver/Src/stm32l0xx_hal_rcc_ex.c **** 
 249:Drivers/STM32L0xx_HAL_Driver/Src/stm32l0xx_hal_rcc_ex.c ****   /*------------------------------ I2C1 Configuration ------------------------*/
 250:Drivers/STM32L0xx_HAL_Driver/Src/stm32l0xx_hal_rcc_ex.c ****   if(((PeriphClkInit->PeriphClockSelection) & RCC_PERIPHCLK_I2C1) == RCC_PERIPHCLK_I2C1)
 241              		.loc 1 250 3 view .LVU66
 242              		.loc 1 250 5 is_stmt 0 view .LVU67
 243 00e4 2368     		ldr	r3, [r4]
 244 00e6 1B07     		lsls	r3, r3, #28
 245 00e8 06D5     		bpl	.L16
 251:Drivers/STM32L0xx_HAL_Driver/Src/stm32l0xx_hal_rcc_ex.c ****   {
 252:Drivers/STM32L0xx_HAL_Driver/Src/stm32l0xx_hal_rcc_ex.c ****     /* Check the parameters */
 253:Drivers/STM32L0xx_HAL_Driver/Src/stm32l0xx_hal_rcc_ex.c ****     assert_param(IS_RCC_I2C1CLKSOURCE(PeriphClkInit->I2c1ClockSelection));
 246              		.loc 1 253 5 is_stmt 1 view .LVU68
 254:Drivers/STM32L0xx_HAL_Driver/Src/stm32l0xx_hal_rcc_ex.c **** 
 255:Drivers/STM32L0xx_HAL_Driver/Src/stm32l0xx_hal_rcc_ex.c ****     /* Configure the I2C1 clock source */
 256:Drivers/STM32L0xx_HAL_Driver/Src/stm32l0xx_hal_rcc_ex.c ****     __HAL_RCC_I2C1_CONFIG(PeriphClkInit->I2c1ClockSelection);
 247              		.loc 1 256 5 view .LVU69
 248 00ea 2E4A     		ldr	r2, .L28
 249 00ec D36C     		ldr	r3, [r2, #76]
 250 00ee 3249     		ldr	r1, .L28+20
 251 00f0 0B40     		ands	r3, r1
 252 00f2 6169     		ldr	r1, [r4, #20]
 253 00f4 0B43     		orrs	r3, r1
 254 00f6 D364     		str	r3, [r2, #76]
 255              	.L16:
 257:Drivers/STM32L0xx_HAL_Driver/Src/stm32l0xx_hal_rcc_ex.c ****   }
 258:Drivers/STM32L0xx_HAL_Driver/Src/stm32l0xx_hal_rcc_ex.c **** 
 259:Drivers/STM32L0xx_HAL_Driver/Src/stm32l0xx_hal_rcc_ex.c **** #if defined (RCC_CCIPR_I2C3SEL)
ARM GAS  /tmp/cci8nmgB.s 			page 10


 260:Drivers/STM32L0xx_HAL_Driver/Src/stm32l0xx_hal_rcc_ex.c ****     /*------------------------------ I2C3 Configuration ------------------------*/
 261:Drivers/STM32L0xx_HAL_Driver/Src/stm32l0xx_hal_rcc_ex.c ****   if(((PeriphClkInit->PeriphClockSelection) & RCC_PERIPHCLK_I2C3) == RCC_PERIPHCLK_I2C3)
 262:Drivers/STM32L0xx_HAL_Driver/Src/stm32l0xx_hal_rcc_ex.c ****   {
 263:Drivers/STM32L0xx_HAL_Driver/Src/stm32l0xx_hal_rcc_ex.c ****     /* Check the parameters */
 264:Drivers/STM32L0xx_HAL_Driver/Src/stm32l0xx_hal_rcc_ex.c ****     assert_param(IS_RCC_I2C3CLKSOURCE(PeriphClkInit->I2c3ClockSelection));
 265:Drivers/STM32L0xx_HAL_Driver/Src/stm32l0xx_hal_rcc_ex.c **** 
 266:Drivers/STM32L0xx_HAL_Driver/Src/stm32l0xx_hal_rcc_ex.c ****     /* Configure the I2C3 clock source */
 267:Drivers/STM32L0xx_HAL_Driver/Src/stm32l0xx_hal_rcc_ex.c ****     __HAL_RCC_I2C3_CONFIG(PeriphClkInit->I2c3ClockSelection);
 268:Drivers/STM32L0xx_HAL_Driver/Src/stm32l0xx_hal_rcc_ex.c ****   }
 269:Drivers/STM32L0xx_HAL_Driver/Src/stm32l0xx_hal_rcc_ex.c **** #endif /* RCC_CCIPR_I2C3SEL */
 270:Drivers/STM32L0xx_HAL_Driver/Src/stm32l0xx_hal_rcc_ex.c **** 
 271:Drivers/STM32L0xx_HAL_Driver/Src/stm32l0xx_hal_rcc_ex.c **** #if defined(USB)
 272:Drivers/STM32L0xx_HAL_Driver/Src/stm32l0xx_hal_rcc_ex.c ****  /*---------------------------- USB and RNG configuration --------------------*/
 273:Drivers/STM32L0xx_HAL_Driver/Src/stm32l0xx_hal_rcc_ex.c ****   if(((PeriphClkInit->PeriphClockSelection) & RCC_PERIPHCLK_USB) == (RCC_PERIPHCLK_USB))
 256              		.loc 1 273 3 view .LVU70
 257              		.loc 1 273 5 is_stmt 0 view .LVU71
 258 00f8 2368     		ldr	r3, [r4]
 259 00fa 5B06     		lsls	r3, r3, #25
 260 00fc 06D5     		bpl	.L17
 274:Drivers/STM32L0xx_HAL_Driver/Src/stm32l0xx_hal_rcc_ex.c ****   {
 275:Drivers/STM32L0xx_HAL_Driver/Src/stm32l0xx_hal_rcc_ex.c ****     assert_param(IS_RCC_USBCLKSOURCE(PeriphClkInit->UsbClockSelection));
 261              		.loc 1 275 5 is_stmt 1 view .LVU72
 276:Drivers/STM32L0xx_HAL_Driver/Src/stm32l0xx_hal_rcc_ex.c ****     __HAL_RCC_USB_CONFIG(PeriphClkInit->UsbClockSelection);
 262              		.loc 1 276 5 view .LVU73
 263 00fe 294A     		ldr	r2, .L28
 264 0100 D36C     		ldr	r3, [r2, #76]
 265 0102 2E49     		ldr	r1, .L28+24
 266 0104 0B40     		ands	r3, r1
 267 0106 E169     		ldr	r1, [r4, #28]
 268 0108 0B43     		orrs	r3, r1
 269 010a D364     		str	r3, [r2, #76]
 270              	.L17:
 277:Drivers/STM32L0xx_HAL_Driver/Src/stm32l0xx_hal_rcc_ex.c ****   }
 278:Drivers/STM32L0xx_HAL_Driver/Src/stm32l0xx_hal_rcc_ex.c **** #endif /* USB */
 279:Drivers/STM32L0xx_HAL_Driver/Src/stm32l0xx_hal_rcc_ex.c **** 
 280:Drivers/STM32L0xx_HAL_Driver/Src/stm32l0xx_hal_rcc_ex.c ****   /*---------------------------- LPTIM1 configuration ------------------------*/
 281:Drivers/STM32L0xx_HAL_Driver/Src/stm32l0xx_hal_rcc_ex.c ****   if(((PeriphClkInit->PeriphClockSelection) & RCC_PERIPHCLK_LPTIM1) == (RCC_PERIPHCLK_LPTIM1))
 271              		.loc 1 281 3 view .LVU74
 272              		.loc 1 281 5 is_stmt 0 view .LVU75
 273 010c 2368     		ldr	r3, [r4]
 274 010e 1B06     		lsls	r3, r3, #24
 275 0110 45D5     		bpl	.L22
 282:Drivers/STM32L0xx_HAL_Driver/Src/stm32l0xx_hal_rcc_ex.c ****   {
 283:Drivers/STM32L0xx_HAL_Driver/Src/stm32l0xx_hal_rcc_ex.c ****     assert_param(IS_RCC_LPTIMCLK(PeriphClkInit->LptimClockSelection));
 276              		.loc 1 283 5 is_stmt 1 view .LVU76
 284:Drivers/STM32L0xx_HAL_Driver/Src/stm32l0xx_hal_rcc_ex.c ****     __HAL_RCC_LPTIM1_CONFIG(PeriphClkInit->LptimClockSelection);
 277              		.loc 1 284 5 view .LVU77
 278 0112 244A     		ldr	r2, .L28
 279 0114 D36C     		ldr	r3, [r2, #76]
 280 0116 2A49     		ldr	r1, .L28+28
 281 0118 0B40     		ands	r3, r1
 282 011a A169     		ldr	r1, [r4, #24]
 283 011c 0B43     		orrs	r3, r1
 284 011e D364     		str	r3, [r2, #76]
 285:Drivers/STM32L0xx_HAL_Driver/Src/stm32l0xx_hal_rcc_ex.c ****   }
 286:Drivers/STM32L0xx_HAL_Driver/Src/stm32l0xx_hal_rcc_ex.c **** 
 287:Drivers/STM32L0xx_HAL_Driver/Src/stm32l0xx_hal_rcc_ex.c ****   return HAL_OK;
ARM GAS  /tmp/cci8nmgB.s 			page 11


 285              		.loc 1 287 10 is_stmt 0 view .LVU78
 286 0120 0020     		movs	r0, #0
 287 0122 3DE0     		b	.L6
 288              	.LVL12:
 289              	.L18:
 290              	.LBB3:
 125:Drivers/STM32L0xx_HAL_Driver/Src/stm32l0xx_hal_rcc_ex.c **** 
 291              		.loc 1 125 22 view .LVU79
 292 0124 0025     		movs	r5, #0
 293 0126 7CE7     		b	.L3
 294              	.LVL13:
 295              	.L23:
 139:Drivers/STM32L0xx_HAL_Driver/Src/stm32l0xx_hal_rcc_ex.c **** 
 296              		.loc 1 139 7 is_stmt 1 view .LVU80
 297 0128 1F4A     		ldr	r2, .L28+4
 298 012a 1168     		ldr	r1, [r2]
 299 012c 8023     		movs	r3, #128
 300 012e 5B00     		lsls	r3, r3, #1
 301 0130 0B43     		orrs	r3, r1
 302 0132 1360     		str	r3, [r2]
 142:Drivers/STM32L0xx_HAL_Driver/Src/stm32l0xx_hal_rcc_ex.c **** 
 303              		.loc 1 142 7 view .LVU81
 142:Drivers/STM32L0xx_HAL_Driver/Src/stm32l0xx_hal_rcc_ex.c **** 
 304              		.loc 1 142 19 is_stmt 0 view .LVU82
 305 0134 FFF7FEFF 		bl	HAL_GetTick
 306              	.LVL14:
 142:Drivers/STM32L0xx_HAL_Driver/Src/stm32l0xx_hal_rcc_ex.c **** 
 307              		.loc 1 142 19 view .LVU83
 308 0138 0600     		movs	r6, r0
 309              	.LVL15:
 144:Drivers/STM32L0xx_HAL_Driver/Src/stm32l0xx_hal_rcc_ex.c ****       {
 310              		.loc 1 144 7 is_stmt 1 view .LVU84
 311              	.L5:
 144:Drivers/STM32L0xx_HAL_Driver/Src/stm32l0xx_hal_rcc_ex.c ****       {
 312              		.loc 1 144 13 is_stmt 0 view .LVU85
 313 013a 1B4B     		ldr	r3, .L28+4
 314 013c 1B68     		ldr	r3, [r3]
 144:Drivers/STM32L0xx_HAL_Driver/Src/stm32l0xx_hal_rcc_ex.c ****       {
 315              		.loc 1 144 12 view .LVU86
 316 013e DB05     		lsls	r3, r3, #23
 317 0140 00D5     		bpl	.LCB301
 318 0142 72E7     		b	.L4	@long jump
 319              	.LCB301:
 146:Drivers/STM32L0xx_HAL_Driver/Src/stm32l0xx_hal_rcc_ex.c ****         {
 320              		.loc 1 146 9 is_stmt 1 view .LVU87
 146:Drivers/STM32L0xx_HAL_Driver/Src/stm32l0xx_hal_rcc_ex.c ****         {
 321              		.loc 1 146 13 is_stmt 0 view .LVU88
 322 0144 FFF7FEFF 		bl	HAL_GetTick
 323              	.LVL16:
 146:Drivers/STM32L0xx_HAL_Driver/Src/stm32l0xx_hal_rcc_ex.c ****         {
 324              		.loc 1 146 27 view .LVU89
 325 0148 801B     		subs	r0, r0, r6
 146:Drivers/STM32L0xx_HAL_Driver/Src/stm32l0xx_hal_rcc_ex.c ****         {
 326              		.loc 1 146 11 view .LVU90
 327 014a 6428     		cmp	r0, #100
 328 014c F5D9     		bls	.L5
 148:Drivers/STM32L0xx_HAL_Driver/Src/stm32l0xx_hal_rcc_ex.c ****         }
ARM GAS  /tmp/cci8nmgB.s 			page 12


 329              		.loc 1 148 18 view .LVU91
 330 014e 0320     		movs	r0, #3
 331 0150 26E0     		b	.L6
 332              	.LVL17:
 333              	.L24:
 163:Drivers/STM32L0xx_HAL_Driver/Src/stm32l0xx_hal_rcc_ex.c ****         {
 334              		.loc 1 163 9 is_stmt 1 view .LVU92
 163:Drivers/STM32L0xx_HAL_Driver/Src/stm32l0xx_hal_rcc_ex.c ****         {
 335              		.loc 1 163 13 is_stmt 0 view .LVU93
 336 0152 144B     		ldr	r3, .L28
 337 0154 1B68     		ldr	r3, [r3]
 163:Drivers/STM32L0xx_HAL_Driver/Src/stm32l0xx_hal_rcc_ex.c ****         {
 338              		.loc 1 163 12 view .LVU94
 339 0156 9B03     		lsls	r3, r3, #14
 340 0158 00D4     		bmi	.LCB322
 341 015a 76E7     		b	.L8	@long jump
 342              	.LCB322:
 166:Drivers/STM32L0xx_HAL_Driver/Src/stm32l0xx_hal_rcc_ex.c ****         }
 343              		.loc 1 166 18 view .LVU95
 344 015c 0120     		movs	r0, #1
 345 015e 1FE0     		b	.L6
 346              	.LVL18:
 347              	.L25:
 196:Drivers/STM32L0xx_HAL_Driver/Src/stm32l0xx_hal_rcc_ex.c **** 
 348              		.loc 1 196 9 is_stmt 1 view .LVU96
 196:Drivers/STM32L0xx_HAL_Driver/Src/stm32l0xx_hal_rcc_ex.c **** 
 349              		.loc 1 196 21 is_stmt 0 view .LVU97
 350 0160 FFF7FEFF 		bl	HAL_GetTick
 351              	.LVL19:
 196:Drivers/STM32L0xx_HAL_Driver/Src/stm32l0xx_hal_rcc_ex.c **** 
 352              		.loc 1 196 21 view .LVU98
 353 0164 0600     		movs	r6, r0
 354              	.LVL20:
 199:Drivers/STM32L0xx_HAL_Driver/Src/stm32l0xx_hal_rcc_ex.c ****         {
 355              		.loc 1 199 9 is_stmt 1 view .LVU99
 356              	.L10:
 199:Drivers/STM32L0xx_HAL_Driver/Src/stm32l0xx_hal_rcc_ex.c ****         {
 357              		.loc 1 199 15 is_stmt 0 view .LVU100
 358 0166 0F4B     		ldr	r3, .L28
 359 0168 1B6D     		ldr	r3, [r3, #80]
 199:Drivers/STM32L0xx_HAL_Driver/Src/stm32l0xx_hal_rcc_ex.c ****         {
 360              		.loc 1 199 14 view .LVU101
 361 016a 9B05     		lsls	r3, r3, #22
 362 016c 8BD4     		bmi	.L9
 201:Drivers/STM32L0xx_HAL_Driver/Src/stm32l0xx_hal_rcc_ex.c ****           {
 363              		.loc 1 201 11 is_stmt 1 view .LVU102
 201:Drivers/STM32L0xx_HAL_Driver/Src/stm32l0xx_hal_rcc_ex.c ****           {
 364              		.loc 1 201 15 is_stmt 0 view .LVU103
 365 016e FFF7FEFF 		bl	HAL_GetTick
 366              	.LVL21:
 201:Drivers/STM32L0xx_HAL_Driver/Src/stm32l0xx_hal_rcc_ex.c ****           {
 367              		.loc 1 201 29 view .LVU104
 368 0172 801B     		subs	r0, r0, r6
 201:Drivers/STM32L0xx_HAL_Driver/Src/stm32l0xx_hal_rcc_ex.c ****           {
 369              		.loc 1 201 13 view .LVU105
 370 0174 134B     		ldr	r3, .L28+32
 371 0176 9842     		cmp	r0, r3
ARM GAS  /tmp/cci8nmgB.s 			page 13


 372 0178 F5D9     		bls	.L10
 203:Drivers/STM32L0xx_HAL_Driver/Src/stm32l0xx_hal_rcc_ex.c ****           }
 373              		.loc 1 203 20 view .LVU106
 374 017a 0320     		movs	r0, #3
 375 017c 10E0     		b	.L6
 376              	.LVL22:
 377              	.L26:
 208:Drivers/STM32L0xx_HAL_Driver/Src/stm32l0xx_hal_rcc_ex.c **** 
 378              		.loc 1 208 5 is_stmt 1 discriminator 1 view .LVU107
 379 017e 0949     		ldr	r1, .L28
 380 0180 0A68     		ldr	r2, [r1]
 381 0182 1148     		ldr	r0, .L28+36
 382 0184 0240     		ands	r2, r0
 383 0186 C020     		movs	r0, #192
 384 0188 8003     		lsls	r0, r0, #14
 385 018a 0340     		ands	r3, r0
 386 018c 1343     		orrs	r3, r2
 387 018e 0B60     		str	r3, [r1]
 388 0190 80E7     		b	.L12
 389              	.L27:
 213:Drivers/STM32L0xx_HAL_Driver/Src/stm32l0xx_hal_rcc_ex.c ****     }
 390              		.loc 1 213 7 view .LVU108
 391 0192 0A00     		movs	r2, r1
 392 0194 8B6B     		ldr	r3, [r1, #56]
 393 0196 0D49     		ldr	r1, .L28+40
 394 0198 0B40     		ands	r3, r1
 395 019a 9363     		str	r3, [r2, #56]
 396 019c 84E7     		b	.L2
 397              	.LVL23:
 398              	.L22:
 213:Drivers/STM32L0xx_HAL_Driver/Src/stm32l0xx_hal_rcc_ex.c ****     }
 399              		.loc 1 213 7 is_stmt 0 view .LVU109
 400              	.LBE3:
 401              		.loc 1 287 10 view .LVU110
 402 019e 0020     		movs	r0, #0
 403              	.L6:
 288:Drivers/STM32L0xx_HAL_Driver/Src/stm32l0xx_hal_rcc_ex.c **** }
 404              		.loc 1 288 1 view .LVU111
 405              		@ sp needed
 406              	.LVL24:
 407              		.loc 1 288 1 view .LVU112
 408 01a0 70BD     		pop	{r4, r5, r6, pc}
 409              	.L29:
 410 01a2 C046     		.align	2
 411              	.L28:
 412 01a4 00100240 		.word	1073876992
 413 01a8 00700040 		.word	1073770496
 414 01ac FFFFFCFF 		.word	-196609
 415 01b0 FFFFF7FF 		.word	-524289
 416 01b4 FFF3FFFF 		.word	-3073
 417 01b8 FFCFFFFF 		.word	-12289
 418 01bc FFFFFFFB 		.word	-67108865
 419 01c0 FFFFF3FF 		.word	-786433
 420 01c4 88130000 		.word	5000
 421 01c8 FFFFCFFF 		.word	-3145729
 422 01cc FFFFFFEF 		.word	-268435457
 423              		.cfi_endproc
ARM GAS  /tmp/cci8nmgB.s 			page 14


 424              	.LFE34:
 426              		.section	.text.HAL_RCCEx_GetPeriphCLKConfig,"ax",%progbits
 427              		.align	1
 428              		.global	HAL_RCCEx_GetPeriphCLKConfig
 429              		.syntax unified
 430              		.code	16
 431              		.thumb_func
 432              		.fpu softvfp
 434              	HAL_RCCEx_GetPeriphCLKConfig:
 435              	.LVL25:
 436              	.LFB35:
 289:Drivers/STM32L0xx_HAL_Driver/Src/stm32l0xx_hal_rcc_ex.c **** 
 290:Drivers/STM32L0xx_HAL_Driver/Src/stm32l0xx_hal_rcc_ex.c **** /**
 291:Drivers/STM32L0xx_HAL_Driver/Src/stm32l0xx_hal_rcc_ex.c ****   * @brief  Get the PeriphClkInit according to the internal RCC configuration registers.
 292:Drivers/STM32L0xx_HAL_Driver/Src/stm32l0xx_hal_rcc_ex.c ****   * @param  PeriphClkInit pointer to an RCC_PeriphCLKInitTypeDef structure that
 293:Drivers/STM32L0xx_HAL_Driver/Src/stm32l0xx_hal_rcc_ex.c ****   *         returns the configuration information for the Extended Peripherals clocks(USART1,USART2
 294:Drivers/STM32L0xx_HAL_Driver/Src/stm32l0xx_hal_rcc_ex.c ****   *         I2C1, I2C3, RTC, USB/RNG  and LPTIM1 clocks).
 295:Drivers/STM32L0xx_HAL_Driver/Src/stm32l0xx_hal_rcc_ex.c ****   * @retval None
 296:Drivers/STM32L0xx_HAL_Driver/Src/stm32l0xx_hal_rcc_ex.c ****   */
 297:Drivers/STM32L0xx_HAL_Driver/Src/stm32l0xx_hal_rcc_ex.c **** void HAL_RCCEx_GetPeriphCLKConfig(RCC_PeriphCLKInitTypeDef  *PeriphClkInit)
 298:Drivers/STM32L0xx_HAL_Driver/Src/stm32l0xx_hal_rcc_ex.c **** {
 437              		.loc 1 298 1 is_stmt 1 view -0
 438              		.cfi_startproc
 439              		@ args = 0, pretend = 0, frame = 0
 440              		@ frame_needed = 0, uses_anonymous_args = 0
 441              		@ link register save eliminated.
 299:Drivers/STM32L0xx_HAL_Driver/Src/stm32l0xx_hal_rcc_ex.c ****   uint32_t srcclk;
 442              		.loc 1 299 3 view .LVU114
 300:Drivers/STM32L0xx_HAL_Driver/Src/stm32l0xx_hal_rcc_ex.c **** 
 301:Drivers/STM32L0xx_HAL_Driver/Src/stm32l0xx_hal_rcc_ex.c ****    /* Set all possible values for the extended clock type parameter -----------*/
 302:Drivers/STM32L0xx_HAL_Driver/Src/stm32l0xx_hal_rcc_ex.c ****   /* Common part first */
 303:Drivers/STM32L0xx_HAL_Driver/Src/stm32l0xx_hal_rcc_ex.c ****   PeriphClkInit->PeriphClockSelection = RCC_PERIPHCLK_USART2 | RCC_PERIPHCLK_LPUART1 | \
 443              		.loc 1 303 3 view .LVU115
 304:Drivers/STM32L0xx_HAL_Driver/Src/stm32l0xx_hal_rcc_ex.c ****                                         RCC_PERIPHCLK_I2C1   | RCC_PERIPHCLK_RTC     | \
 305:Drivers/STM32L0xx_HAL_Driver/Src/stm32l0xx_hal_rcc_ex.c ****                                         RCC_PERIPHCLK_LPTIM1;
 306:Drivers/STM32L0xx_HAL_Driver/Src/stm32l0xx_hal_rcc_ex.c **** #if defined(RCC_CCIPR_USART1SEL)
 307:Drivers/STM32L0xx_HAL_Driver/Src/stm32l0xx_hal_rcc_ex.c ****   PeriphClkInit->PeriphClockSelection |= RCC_PERIPHCLK_USART1;
 444              		.loc 1 307 3 view .LVU116
 308:Drivers/STM32L0xx_HAL_Driver/Src/stm32l0xx_hal_rcc_ex.c **** #endif /* RCC_CCIPR_USART1SEL */
 309:Drivers/STM32L0xx_HAL_Driver/Src/stm32l0xx_hal_rcc_ex.c **** #if  defined(RCC_CCIPR_I2C3SEL)
 310:Drivers/STM32L0xx_HAL_Driver/Src/stm32l0xx_hal_rcc_ex.c ****   PeriphClkInit->PeriphClockSelection |= RCC_PERIPHCLK_I2C3;
 311:Drivers/STM32L0xx_HAL_Driver/Src/stm32l0xx_hal_rcc_ex.c **** #endif /* RCC_CCIPR_I2C3SEL */
 312:Drivers/STM32L0xx_HAL_Driver/Src/stm32l0xx_hal_rcc_ex.c **** #if defined(USB)
 313:Drivers/STM32L0xx_HAL_Driver/Src/stm32l0xx_hal_rcc_ex.c ****   PeriphClkInit->PeriphClockSelection |= RCC_PERIPHCLK_USB;
 445              		.loc 1 313 3 view .LVU117
 446              		.loc 1 313 39 is_stmt 0 view .LVU118
 447 0000 EF23     		movs	r3, #239
 448 0002 0360     		str	r3, [r0]
 314:Drivers/STM32L0xx_HAL_Driver/Src/stm32l0xx_hal_rcc_ex.c **** #endif /* USB */
 315:Drivers/STM32L0xx_HAL_Driver/Src/stm32l0xx_hal_rcc_ex.c **** #if defined(LCD)
 316:Drivers/STM32L0xx_HAL_Driver/Src/stm32l0xx_hal_rcc_ex.c ****   PeriphClkInit->PeriphClockSelection |= RCC_PERIPHCLK_LCD;
 317:Drivers/STM32L0xx_HAL_Driver/Src/stm32l0xx_hal_rcc_ex.c **** #endif /* LCD */
 318:Drivers/STM32L0xx_HAL_Driver/Src/stm32l0xx_hal_rcc_ex.c **** 
 319:Drivers/STM32L0xx_HAL_Driver/Src/stm32l0xx_hal_rcc_ex.c ****   /* Get the RTC/LCD configuration -----------------------------------------------*/
 320:Drivers/STM32L0xx_HAL_Driver/Src/stm32l0xx_hal_rcc_ex.c ****   srcclk = __HAL_RCC_GET_RTC_SOURCE();
 449              		.loc 1 320 3 is_stmt 1 view .LVU119
 450              		.loc 1 320 12 is_stmt 0 view .LVU120
ARM GAS  /tmp/cci8nmgB.s 			page 15


 451 0004 194B     		ldr	r3, .L33
 452 0006 1B6D     		ldr	r3, [r3, #80]
 453              		.loc 1 320 10 view .LVU121
 454 0008 C022     		movs	r2, #192
 455 000a 9202     		lsls	r2, r2, #10
 456 000c 1340     		ands	r3, r2
 457              	.LVL26:
 321:Drivers/STM32L0xx_HAL_Driver/Src/stm32l0xx_hal_rcc_ex.c ****   if (srcclk != RCC_RTCCLKSOURCE_HSE_DIV2)
 458              		.loc 1 321 3 is_stmt 1 view .LVU122
 459              		.loc 1 321 6 is_stmt 0 view .LVU123
 460 000e 9342     		cmp	r3, r2
 461 0010 23D0     		beq	.L31
 322:Drivers/STM32L0xx_HAL_Driver/Src/stm32l0xx_hal_rcc_ex.c ****   {
 323:Drivers/STM32L0xx_HAL_Driver/Src/stm32l0xx_hal_rcc_ex.c ****     /* Source clock is LSE or LSI*/
 324:Drivers/STM32L0xx_HAL_Driver/Src/stm32l0xx_hal_rcc_ex.c ****     PeriphClkInit->RTCClockSelection = srcclk;
 462              		.loc 1 324 5 is_stmt 1 view .LVU124
 463              		.loc 1 324 38 is_stmt 0 view .LVU125
 464 0012 4360     		str	r3, [r0, #4]
 465              	.LVL27:
 466              	.L32:
 325:Drivers/STM32L0xx_HAL_Driver/Src/stm32l0xx_hal_rcc_ex.c ****   }
 326:Drivers/STM32L0xx_HAL_Driver/Src/stm32l0xx_hal_rcc_ex.c ****   else
 327:Drivers/STM32L0xx_HAL_Driver/Src/stm32l0xx_hal_rcc_ex.c ****   {
 328:Drivers/STM32L0xx_HAL_Driver/Src/stm32l0xx_hal_rcc_ex.c ****     /* Source clock is HSE. Need to get the prescaler value*/
 329:Drivers/STM32L0xx_HAL_Driver/Src/stm32l0xx_hal_rcc_ex.c ****     PeriphClkInit->RTCClockSelection = srcclk | (READ_BIT(RCC->CR, RCC_CR_RTCPRE));
 330:Drivers/STM32L0xx_HAL_Driver/Src/stm32l0xx_hal_rcc_ex.c ****   }
 331:Drivers/STM32L0xx_HAL_Driver/Src/stm32l0xx_hal_rcc_ex.c **** #if defined(LCD)
 332:Drivers/STM32L0xx_HAL_Driver/Src/stm32l0xx_hal_rcc_ex.c ****   PeriphClkInit->LCDClockSelection = PeriphClkInit->RTCClockSelection;
 333:Drivers/STM32L0xx_HAL_Driver/Src/stm32l0xx_hal_rcc_ex.c **** #endif /* LCD */
 334:Drivers/STM32L0xx_HAL_Driver/Src/stm32l0xx_hal_rcc_ex.c **** #if defined(RCC_CCIPR_USART1SEL)
 335:Drivers/STM32L0xx_HAL_Driver/Src/stm32l0xx_hal_rcc_ex.c ****   /* Get the USART1 configuration --------------------------------------------*/
 336:Drivers/STM32L0xx_HAL_Driver/Src/stm32l0xx_hal_rcc_ex.c ****   PeriphClkInit->Usart1ClockSelection  = __HAL_RCC_GET_USART1_SOURCE();
 467              		.loc 1 336 3 is_stmt 1 view .LVU126
 468              		.loc 1 336 42 is_stmt 0 view .LVU127
 469 0014 154B     		ldr	r3, .L33
 470 0016 D96C     		ldr	r1, [r3, #76]
 471 0018 0322     		movs	r2, #3
 472 001a 0A40     		ands	r2, r1
 473              		.loc 1 336 40 view .LVU128
 474 001c 8260     		str	r2, [r0, #8]
 337:Drivers/STM32L0xx_HAL_Driver/Src/stm32l0xx_hal_rcc_ex.c **** #endif /* RCC_CCIPR_USART1SEL */
 338:Drivers/STM32L0xx_HAL_Driver/Src/stm32l0xx_hal_rcc_ex.c ****   /* Get the USART2 clock source ---------------------------------------------*/
 339:Drivers/STM32L0xx_HAL_Driver/Src/stm32l0xx_hal_rcc_ex.c ****   PeriphClkInit->Usart2ClockSelection  = __HAL_RCC_GET_USART2_SOURCE();
 475              		.loc 1 339 3 is_stmt 1 view .LVU129
 476              		.loc 1 339 42 is_stmt 0 view .LVU130
 477 001e D96C     		ldr	r1, [r3, #76]
 478 0020 0C22     		movs	r2, #12
 479 0022 0A40     		ands	r2, r1
 480              		.loc 1 339 40 view .LVU131
 481 0024 C260     		str	r2, [r0, #12]
 340:Drivers/STM32L0xx_HAL_Driver/Src/stm32l0xx_hal_rcc_ex.c ****   /* Get the LPUART1 clock source ---------------------------------------------*/
 341:Drivers/STM32L0xx_HAL_Driver/Src/stm32l0xx_hal_rcc_ex.c ****   PeriphClkInit->Lpuart1ClockSelection = __HAL_RCC_GET_LPUART1_SOURCE();
 482              		.loc 1 341 3 is_stmt 1 view .LVU132
 483              		.loc 1 341 42 is_stmt 0 view .LVU133
 484 0026 DA6C     		ldr	r2, [r3, #76]
 485 0028 C021     		movs	r1, #192
 486 002a 0901     		lsls	r1, r1, #4
ARM GAS  /tmp/cci8nmgB.s 			page 16


 487 002c 0A40     		ands	r2, r1
 488              		.loc 1 341 40 view .LVU134
 489 002e 0261     		str	r2, [r0, #16]
 342:Drivers/STM32L0xx_HAL_Driver/Src/stm32l0xx_hal_rcc_ex.c ****   /* Get the I2C1 clock source -----------------------------------------------*/
 343:Drivers/STM32L0xx_HAL_Driver/Src/stm32l0xx_hal_rcc_ex.c ****   PeriphClkInit->I2c1ClockSelection    = __HAL_RCC_GET_I2C1_SOURCE();
 490              		.loc 1 343 3 is_stmt 1 view .LVU135
 491              		.loc 1 343 42 is_stmt 0 view .LVU136
 492 0030 DA6C     		ldr	r2, [r3, #76]
 493 0032 C021     		movs	r1, #192
 494 0034 8901     		lsls	r1, r1, #6
 495 0036 0A40     		ands	r2, r1
 496              		.loc 1 343 40 view .LVU137
 497 0038 4261     		str	r2, [r0, #20]
 344:Drivers/STM32L0xx_HAL_Driver/Src/stm32l0xx_hal_rcc_ex.c **** #if defined(RCC_CCIPR_I2C3SEL)
 345:Drivers/STM32L0xx_HAL_Driver/Src/stm32l0xx_hal_rcc_ex.c **** /* Get the I2C3 clock source -----------------------------------------------*/
 346:Drivers/STM32L0xx_HAL_Driver/Src/stm32l0xx_hal_rcc_ex.c ****   PeriphClkInit->I2c3ClockSelection    = __HAL_RCC_GET_I2C3_SOURCE();
 347:Drivers/STM32L0xx_HAL_Driver/Src/stm32l0xx_hal_rcc_ex.c **** #endif /* RCC_CCIPR_I2C3SEL */
 348:Drivers/STM32L0xx_HAL_Driver/Src/stm32l0xx_hal_rcc_ex.c ****   /* Get the LPTIM1 clock source -----------------------------------------------*/
 349:Drivers/STM32L0xx_HAL_Driver/Src/stm32l0xx_hal_rcc_ex.c ****   PeriphClkInit->LptimClockSelection   = __HAL_RCC_GET_LPTIM1_SOURCE();
 498              		.loc 1 349 3 is_stmt 1 view .LVU138
 499              		.loc 1 349 42 is_stmt 0 view .LVU139
 500 003a DA6C     		ldr	r2, [r3, #76]
 501 003c C021     		movs	r1, #192
 502 003e 0903     		lsls	r1, r1, #12
 503 0040 0A40     		ands	r2, r1
 504              		.loc 1 349 40 view .LVU140
 505 0042 8261     		str	r2, [r0, #24]
 350:Drivers/STM32L0xx_HAL_Driver/Src/stm32l0xx_hal_rcc_ex.c ****   /* Get the RTC clock source -----------------------------------------------*/
 351:Drivers/STM32L0xx_HAL_Driver/Src/stm32l0xx_hal_rcc_ex.c ****   PeriphClkInit->RTCClockSelection     = __HAL_RCC_GET_RTC_SOURCE();
 506              		.loc 1 351 3 is_stmt 1 view .LVU141
 507              		.loc 1 351 42 is_stmt 0 view .LVU142
 508 0044 1A6D     		ldr	r2, [r3, #80]
 509 0046 C021     		movs	r1, #192
 510 0048 8902     		lsls	r1, r1, #10
 511 004a 0A40     		ands	r2, r1
 512              		.loc 1 351 40 view .LVU143
 513 004c 4260     		str	r2, [r0, #4]
 352:Drivers/STM32L0xx_HAL_Driver/Src/stm32l0xx_hal_rcc_ex.c **** #if defined(USB)
 353:Drivers/STM32L0xx_HAL_Driver/Src/stm32l0xx_hal_rcc_ex.c ****   /* Get the USB/RNG clock source -----------------------------------------------*/
 354:Drivers/STM32L0xx_HAL_Driver/Src/stm32l0xx_hal_rcc_ex.c ****   PeriphClkInit->UsbClockSelection     = __HAL_RCC_GET_USB_SOURCE();
 514              		.loc 1 354 3 is_stmt 1 view .LVU144
 515              		.loc 1 354 42 is_stmt 0 view .LVU145
 516 004e DB6C     		ldr	r3, [r3, #76]
 517 0050 8022     		movs	r2, #128
 518 0052 D204     		lsls	r2, r2, #19
 519 0054 1340     		ands	r3, r2
 520              		.loc 1 354 40 view .LVU146
 521 0056 C361     		str	r3, [r0, #28]
 355:Drivers/STM32L0xx_HAL_Driver/Src/stm32l0xx_hal_rcc_ex.c **** #endif /* USB */
 356:Drivers/STM32L0xx_HAL_Driver/Src/stm32l0xx_hal_rcc_ex.c **** }
 522              		.loc 1 356 1 view .LVU147
 523              		@ sp needed
 524 0058 7047     		bx	lr
 525              	.LVL28:
 526              	.L31:
 329:Drivers/STM32L0xx_HAL_Driver/Src/stm32l0xx_hal_rcc_ex.c ****   }
 527              		.loc 1 329 5 is_stmt 1 view .LVU148
ARM GAS  /tmp/cci8nmgB.s 			page 17


 329:Drivers/STM32L0xx_HAL_Driver/Src/stm32l0xx_hal_rcc_ex.c ****   }
 528              		.loc 1 329 50 is_stmt 0 view .LVU149
 529 005a 044A     		ldr	r2, .L33
 530 005c 1268     		ldr	r2, [r2]
 531 005e C021     		movs	r1, #192
 532 0060 8903     		lsls	r1, r1, #14
 533 0062 0A40     		ands	r2, r1
 329:Drivers/STM32L0xx_HAL_Driver/Src/stm32l0xx_hal_rcc_ex.c ****   }
 534              		.loc 1 329 47 view .LVU150
 535 0064 1343     		orrs	r3, r2
 536              	.LVL29:
 329:Drivers/STM32L0xx_HAL_Driver/Src/stm32l0xx_hal_rcc_ex.c ****   }
 537              		.loc 1 329 38 view .LVU151
 538 0066 4360     		str	r3, [r0, #4]
 539 0068 D4E7     		b	.L32
 540              	.L34:
 541 006a C046     		.align	2
 542              	.L33:
 543 006c 00100240 		.word	1073876992
 544              		.cfi_endproc
 545              	.LFE35:
 547              		.global	__aeabi_uidiv
 548              		.section	.text.HAL_RCCEx_GetPeriphCLKFreq,"ax",%progbits
 549              		.align	1
 550              		.global	HAL_RCCEx_GetPeriphCLKFreq
 551              		.syntax unified
 552              		.code	16
 553              		.thumb_func
 554              		.fpu softvfp
 556              	HAL_RCCEx_GetPeriphCLKFreq:
 557              	.LVL30:
 558              	.LFB36:
 357:Drivers/STM32L0xx_HAL_Driver/Src/stm32l0xx_hal_rcc_ex.c **** 
 358:Drivers/STM32L0xx_HAL_Driver/Src/stm32l0xx_hal_rcc_ex.c **** /**
 359:Drivers/STM32L0xx_HAL_Driver/Src/stm32l0xx_hal_rcc_ex.c ****   * @brief  Return the peripheral clock frequency
 360:Drivers/STM32L0xx_HAL_Driver/Src/stm32l0xx_hal_rcc_ex.c ****   * @note   Return 0 if peripheral clock is unknown
 361:Drivers/STM32L0xx_HAL_Driver/Src/stm32l0xx_hal_rcc_ex.c ****   * @param  PeriphClk Peripheral clock identifier
 362:Drivers/STM32L0xx_HAL_Driver/Src/stm32l0xx_hal_rcc_ex.c ****   *         This parameter can be one of the following values:
 363:Drivers/STM32L0xx_HAL_Driver/Src/stm32l0xx_hal_rcc_ex.c ****   *            @arg @ref RCC_PERIPHCLK_RTC      RTC peripheral clock
 364:Drivers/STM32L0xx_HAL_Driver/Src/stm32l0xx_hal_rcc_ex.c ****   *            @arg @ref RCC_PERIPHCLK_LCD      LCD peripheral clock (*)
 365:Drivers/STM32L0xx_HAL_Driver/Src/stm32l0xx_hal_rcc_ex.c ****   *            @arg @ref RCC_PERIPHCLK_USB      USB or RNG peripheral clock (*)
 366:Drivers/STM32L0xx_HAL_Driver/Src/stm32l0xx_hal_rcc_ex.c ****   *            @arg @ref RCC_PERIPHCLK_USART1   USART1 peripheral clock (*)
 367:Drivers/STM32L0xx_HAL_Driver/Src/stm32l0xx_hal_rcc_ex.c ****   *            @arg @ref RCC_PERIPHCLK_USART2   USART2 peripheral clock
 368:Drivers/STM32L0xx_HAL_Driver/Src/stm32l0xx_hal_rcc_ex.c ****   *            @arg @ref RCC_PERIPHCLK_LPUART1  LPUART1 peripheral clock
 369:Drivers/STM32L0xx_HAL_Driver/Src/stm32l0xx_hal_rcc_ex.c ****   *            @arg @ref RCC_PERIPHCLK_I2C1     I2C1 peripheral clock
 370:Drivers/STM32L0xx_HAL_Driver/Src/stm32l0xx_hal_rcc_ex.c ****   *            @arg @ref RCC_PERIPHCLK_I2C2     I2C2 peripheral clock (*)
 371:Drivers/STM32L0xx_HAL_Driver/Src/stm32l0xx_hal_rcc_ex.c ****   *            @arg @ref RCC_PERIPHCLK_I2C3     I2C3 peripheral clock (*)
 372:Drivers/STM32L0xx_HAL_Driver/Src/stm32l0xx_hal_rcc_ex.c ****   * @note   (*) means that this peripheral is not present on all the devices
 373:Drivers/STM32L0xx_HAL_Driver/Src/stm32l0xx_hal_rcc_ex.c ****   * @retval Frequency in Hz (0: means that no available frequency for the peripheral)
 374:Drivers/STM32L0xx_HAL_Driver/Src/stm32l0xx_hal_rcc_ex.c ****   */
 375:Drivers/STM32L0xx_HAL_Driver/Src/stm32l0xx_hal_rcc_ex.c **** uint32_t HAL_RCCEx_GetPeriphCLKFreq(uint32_t PeriphClk)
 376:Drivers/STM32L0xx_HAL_Driver/Src/stm32l0xx_hal_rcc_ex.c **** {
 559              		.loc 1 376 1 is_stmt 1 view -0
 560              		.cfi_startproc
 561              		@ args = 0, pretend = 0, frame = 0
 562              		@ frame_needed = 0, uses_anonymous_args = 0
 563              		.loc 1 376 1 is_stmt 0 view .LVU153
ARM GAS  /tmp/cci8nmgB.s 			page 18


 564 0000 10B5     		push	{r4, lr}
 565              	.LCFI1:
 566              		.cfi_def_cfa_offset 8
 567              		.cfi_offset 4, -8
 568              		.cfi_offset 14, -4
 377:Drivers/STM32L0xx_HAL_Driver/Src/stm32l0xx_hal_rcc_ex.c ****   uint32_t frequency = 0U;
 569              		.loc 1 377 3 is_stmt 1 view .LVU154
 570              	.LVL31:
 378:Drivers/STM32L0xx_HAL_Driver/Src/stm32l0xx_hal_rcc_ex.c ****   uint32_t temp_reg, clkprediv, srcclk;    /* no init needed */
 571              		.loc 1 378 3 view .LVU155
 379:Drivers/STM32L0xx_HAL_Driver/Src/stm32l0xx_hal_rcc_ex.c **** #if defined(USB)
 380:Drivers/STM32L0xx_HAL_Driver/Src/stm32l0xx_hal_rcc_ex.c ****   uint32_t pllmul, plldiv, pllvco;    /* no init needed */
 572              		.loc 1 380 3 view .LVU156
 381:Drivers/STM32L0xx_HAL_Driver/Src/stm32l0xx_hal_rcc_ex.c **** #endif /* USB */
 382:Drivers/STM32L0xx_HAL_Driver/Src/stm32l0xx_hal_rcc_ex.c **** 
 383:Drivers/STM32L0xx_HAL_Driver/Src/stm32l0xx_hal_rcc_ex.c ****   /* Check the parameters */
 384:Drivers/STM32L0xx_HAL_Driver/Src/stm32l0xx_hal_rcc_ex.c ****   assert_param(IS_RCC_PERIPHCLOCK(PeriphClk));
 573              		.loc 1 384 3 view .LVU157
 385:Drivers/STM32L0xx_HAL_Driver/Src/stm32l0xx_hal_rcc_ex.c **** 
 386:Drivers/STM32L0xx_HAL_Driver/Src/stm32l0xx_hal_rcc_ex.c ****   switch (PeriphClk)
 574              		.loc 1 386 3 view .LVU158
 575 0002 2028     		cmp	r0, #32
 576 0004 09D8     		bhi	.L36
 577 0006 0028     		cmp	r0, #0
 578 0008 00D1     		bne	.LCB531
 579 000a 41E1     		b	.L61	@long jump
 580              	.LCB531:
 581 000c 2028     		cmp	r0, #32
 582 000e 00D9     		bls	.LCB533
 583 0010 40E1     		b	.L62	@long jump
 584              	.LCB533:
 585 0012 8000     		lsls	r0, r0, #2
 586              	.LVL32:
 587              		.loc 1 386 3 is_stmt 0 view .LVU159
 588 0014 A64B     		ldr	r3, .L103
 589 0016 1B58     		ldr	r3, [r3, r0]
 590 0018 9F46     		mov	pc, r3
 591              		.section	.rodata.HAL_RCCEx_GetPeriphCLKFreq,"a",%progbits
 592              		.align	2
 593              	.L39:
 594 0000 94020000 		.word	.L62
 595 0004 02010000 		.word	.L44
 596 0008 60010000 		.word	.L43
 597 000c 94020000 		.word	.L62
 598 0010 C0010000 		.word	.L42
 599 0014 94020000 		.word	.L62
 600 0018 94020000 		.word	.L62
 601 001c 94020000 		.word	.L62
 602 0020 2C020000 		.word	.L41
 603 0024 94020000 		.word	.L62
 604 0028 94020000 		.word	.L62
 605 002c 94020000 		.word	.L62
 606 0030 94020000 		.word	.L62
 607 0034 94020000 		.word	.L62
 608 0038 94020000 		.word	.L62
 609 003c 94020000 		.word	.L62
 610 0040 78020000 		.word	.L40
ARM GAS  /tmp/cci8nmgB.s 			page 19


 611 0044 94020000 		.word	.L62
 612 0048 94020000 		.word	.L62
 613 004c 94020000 		.word	.L62
 614 0050 94020000 		.word	.L62
 615 0054 94020000 		.word	.L62
 616 0058 94020000 		.word	.L62
 617 005c 94020000 		.word	.L62
 618 0060 94020000 		.word	.L62
 619 0064 94020000 		.word	.L62
 620 0068 94020000 		.word	.L62
 621 006c 94020000 		.word	.L62
 622 0070 94020000 		.word	.L62
 623 0074 94020000 		.word	.L62
 624 0078 94020000 		.word	.L62
 625 007c 94020000 		.word	.L62
 626 0080 64000000 		.word	.L38
 627              		.section	.text.HAL_RCCEx_GetPeriphCLKFreq
 628              	.LVL33:
 629              	.L36:
 630              		.loc 1 386 3 view .LVU160
 631 001a 4028     		cmp	r0, #64
 632 001c 20D1     		bne	.L83
 387:Drivers/STM32L0xx_HAL_Driver/Src/stm32l0xx_hal_rcc_ex.c ****   {
 388:Drivers/STM32L0xx_HAL_Driver/Src/stm32l0xx_hal_rcc_ex.c ****   case RCC_PERIPHCLK_RTC:
 389:Drivers/STM32L0xx_HAL_Driver/Src/stm32l0xx_hal_rcc_ex.c **** #if defined(LCD)
 390:Drivers/STM32L0xx_HAL_Driver/Src/stm32l0xx_hal_rcc_ex.c ****   case RCC_PERIPHCLK_LCD:
 391:Drivers/STM32L0xx_HAL_Driver/Src/stm32l0xx_hal_rcc_ex.c **** #endif /* LCD */
 392:Drivers/STM32L0xx_HAL_Driver/Src/stm32l0xx_hal_rcc_ex.c ****     {
 393:Drivers/STM32L0xx_HAL_Driver/Src/stm32l0xx_hal_rcc_ex.c ****       /* Get RCC CSR configuration ------------------------------------------------------*/
 394:Drivers/STM32L0xx_HAL_Driver/Src/stm32l0xx_hal_rcc_ex.c ****       temp_reg = RCC->CSR;
 395:Drivers/STM32L0xx_HAL_Driver/Src/stm32l0xx_hal_rcc_ex.c **** 
 396:Drivers/STM32L0xx_HAL_Driver/Src/stm32l0xx_hal_rcc_ex.c ****       /* Get the current RTC source */
 397:Drivers/STM32L0xx_HAL_Driver/Src/stm32l0xx_hal_rcc_ex.c ****       srcclk = __HAL_RCC_GET_RTC_SOURCE();
 398:Drivers/STM32L0xx_HAL_Driver/Src/stm32l0xx_hal_rcc_ex.c **** 
 399:Drivers/STM32L0xx_HAL_Driver/Src/stm32l0xx_hal_rcc_ex.c ****       /* Check if LSE is ready if RTC clock selection is LSE */
 400:Drivers/STM32L0xx_HAL_Driver/Src/stm32l0xx_hal_rcc_ex.c ****       if ((srcclk == RCC_RTCCLKSOURCE_LSE) && (HAL_IS_BIT_SET(temp_reg, RCC_CSR_LSERDY)))
 401:Drivers/STM32L0xx_HAL_Driver/Src/stm32l0xx_hal_rcc_ex.c ****       {
 402:Drivers/STM32L0xx_HAL_Driver/Src/stm32l0xx_hal_rcc_ex.c ****         frequency = LSE_VALUE;
 403:Drivers/STM32L0xx_HAL_Driver/Src/stm32l0xx_hal_rcc_ex.c ****       }
 404:Drivers/STM32L0xx_HAL_Driver/Src/stm32l0xx_hal_rcc_ex.c ****       /* Check if LSI is ready if RTC clock selection is LSI */
 405:Drivers/STM32L0xx_HAL_Driver/Src/stm32l0xx_hal_rcc_ex.c ****       else if (srcclk == RCC_RTCCLKSOURCE_LSI)
 406:Drivers/STM32L0xx_HAL_Driver/Src/stm32l0xx_hal_rcc_ex.c ****       {
 407:Drivers/STM32L0xx_HAL_Driver/Src/stm32l0xx_hal_rcc_ex.c ****         if (HAL_IS_BIT_SET(temp_reg, RCC_CSR_LSIRDY))
 408:Drivers/STM32L0xx_HAL_Driver/Src/stm32l0xx_hal_rcc_ex.c ****         {
 409:Drivers/STM32L0xx_HAL_Driver/Src/stm32l0xx_hal_rcc_ex.c ****           frequency = LSI_VALUE;
 410:Drivers/STM32L0xx_HAL_Driver/Src/stm32l0xx_hal_rcc_ex.c ****         }
 411:Drivers/STM32L0xx_HAL_Driver/Src/stm32l0xx_hal_rcc_ex.c ****       }
 412:Drivers/STM32L0xx_HAL_Driver/Src/stm32l0xx_hal_rcc_ex.c ****       /* Check if HSE is ready and if RTC clock selection is HSE */
 413:Drivers/STM32L0xx_HAL_Driver/Src/stm32l0xx_hal_rcc_ex.c ****       else if (srcclk == RCC_RTCCLKSOURCE_HSE_DIVX)
 414:Drivers/STM32L0xx_HAL_Driver/Src/stm32l0xx_hal_rcc_ex.c ****       {
 415:Drivers/STM32L0xx_HAL_Driver/Src/stm32l0xx_hal_rcc_ex.c ****         if (HAL_IS_BIT_SET(RCC->CR, RCC_CR_HSERDY))
 416:Drivers/STM32L0xx_HAL_Driver/Src/stm32l0xx_hal_rcc_ex.c ****         {
 417:Drivers/STM32L0xx_HAL_Driver/Src/stm32l0xx_hal_rcc_ex.c ****           /* Get the current HSE clock divider */
 418:Drivers/STM32L0xx_HAL_Driver/Src/stm32l0xx_hal_rcc_ex.c ****           clkprediv = __HAL_RCC_GET_RTC_HSE_PRESCALER();
 419:Drivers/STM32L0xx_HAL_Driver/Src/stm32l0xx_hal_rcc_ex.c **** 
 420:Drivers/STM32L0xx_HAL_Driver/Src/stm32l0xx_hal_rcc_ex.c ****           switch (clkprediv)
 421:Drivers/STM32L0xx_HAL_Driver/Src/stm32l0xx_hal_rcc_ex.c ****           {
ARM GAS  /tmp/cci8nmgB.s 			page 20


 422:Drivers/STM32L0xx_HAL_Driver/Src/stm32l0xx_hal_rcc_ex.c ****             case RCC_RTC_HSE_DIV_16:  /* HSE DIV16 has been selected */
 423:Drivers/STM32L0xx_HAL_Driver/Src/stm32l0xx_hal_rcc_ex.c ****             {
 424:Drivers/STM32L0xx_HAL_Driver/Src/stm32l0xx_hal_rcc_ex.c ****               frequency = HSE_VALUE / 16U;
 425:Drivers/STM32L0xx_HAL_Driver/Src/stm32l0xx_hal_rcc_ex.c ****               break;
 426:Drivers/STM32L0xx_HAL_Driver/Src/stm32l0xx_hal_rcc_ex.c ****             }
 427:Drivers/STM32L0xx_HAL_Driver/Src/stm32l0xx_hal_rcc_ex.c ****             case RCC_RTC_HSE_DIV_8:   /* HSE DIV8 has been selected  */
 428:Drivers/STM32L0xx_HAL_Driver/Src/stm32l0xx_hal_rcc_ex.c ****             {
 429:Drivers/STM32L0xx_HAL_Driver/Src/stm32l0xx_hal_rcc_ex.c ****               frequency = HSE_VALUE / 8U;
 430:Drivers/STM32L0xx_HAL_Driver/Src/stm32l0xx_hal_rcc_ex.c ****               break;
 431:Drivers/STM32L0xx_HAL_Driver/Src/stm32l0xx_hal_rcc_ex.c ****             }
 432:Drivers/STM32L0xx_HAL_Driver/Src/stm32l0xx_hal_rcc_ex.c ****             case RCC_RTC_HSE_DIV_4:   /* HSE DIV4 has been selected  */
 433:Drivers/STM32L0xx_HAL_Driver/Src/stm32l0xx_hal_rcc_ex.c ****             {
 434:Drivers/STM32L0xx_HAL_Driver/Src/stm32l0xx_hal_rcc_ex.c ****               frequency = HSE_VALUE / 4U;
 435:Drivers/STM32L0xx_HAL_Driver/Src/stm32l0xx_hal_rcc_ex.c ****               break;
 436:Drivers/STM32L0xx_HAL_Driver/Src/stm32l0xx_hal_rcc_ex.c ****             }
 437:Drivers/STM32L0xx_HAL_Driver/Src/stm32l0xx_hal_rcc_ex.c ****             default:                  /* HSE DIV2 has been selected  */
 438:Drivers/STM32L0xx_HAL_Driver/Src/stm32l0xx_hal_rcc_ex.c ****             {
 439:Drivers/STM32L0xx_HAL_Driver/Src/stm32l0xx_hal_rcc_ex.c ****               frequency = HSE_VALUE / 2U;
 440:Drivers/STM32L0xx_HAL_Driver/Src/stm32l0xx_hal_rcc_ex.c ****               break;
 441:Drivers/STM32L0xx_HAL_Driver/Src/stm32l0xx_hal_rcc_ex.c ****             }
 442:Drivers/STM32L0xx_HAL_Driver/Src/stm32l0xx_hal_rcc_ex.c ****           }
 443:Drivers/STM32L0xx_HAL_Driver/Src/stm32l0xx_hal_rcc_ex.c ****         }
 444:Drivers/STM32L0xx_HAL_Driver/Src/stm32l0xx_hal_rcc_ex.c ****       }
 445:Drivers/STM32L0xx_HAL_Driver/Src/stm32l0xx_hal_rcc_ex.c ****       /* Clock not enabled for RTC */
 446:Drivers/STM32L0xx_HAL_Driver/Src/stm32l0xx_hal_rcc_ex.c ****       else
 447:Drivers/STM32L0xx_HAL_Driver/Src/stm32l0xx_hal_rcc_ex.c ****       {
 448:Drivers/STM32L0xx_HAL_Driver/Src/stm32l0xx_hal_rcc_ex.c ****         frequency = 0U;
 449:Drivers/STM32L0xx_HAL_Driver/Src/stm32l0xx_hal_rcc_ex.c ****       }
 450:Drivers/STM32L0xx_HAL_Driver/Src/stm32l0xx_hal_rcc_ex.c ****       break;
 451:Drivers/STM32L0xx_HAL_Driver/Src/stm32l0xx_hal_rcc_ex.c ****     }
 452:Drivers/STM32L0xx_HAL_Driver/Src/stm32l0xx_hal_rcc_ex.c **** #if defined(USB)
 453:Drivers/STM32L0xx_HAL_Driver/Src/stm32l0xx_hal_rcc_ex.c ****   case RCC_PERIPHCLK_USB:
 454:Drivers/STM32L0xx_HAL_Driver/Src/stm32l0xx_hal_rcc_ex.c ****     {
 455:Drivers/STM32L0xx_HAL_Driver/Src/stm32l0xx_hal_rcc_ex.c ****       /* Get the current USB source */
 456:Drivers/STM32L0xx_HAL_Driver/Src/stm32l0xx_hal_rcc_ex.c ****       srcclk = __HAL_RCC_GET_USB_SOURCE();
 633              		.loc 1 456 7 is_stmt 1 view .LVU161
 634              		.loc 1 456 16 is_stmt 0 view .LVU162
 635 001e A54B     		ldr	r3, .L103+4
 636 0020 DB6C     		ldr	r3, [r3, #76]
 637              	.LVL34:
 457:Drivers/STM32L0xx_HAL_Driver/Src/stm32l0xx_hal_rcc_ex.c **** 
 458:Drivers/STM32L0xx_HAL_Driver/Src/stm32l0xx_hal_rcc_ex.c ****       if (srcclk == RCC_USBCLKSOURCE_PLL)
 638              		.loc 1 458 7 is_stmt 1 view .LVU163
 639              		.loc 1 458 10 is_stmt 0 view .LVU164
 640 0022 5B01     		lsls	r3, r3, #5
 641 0024 64D4     		bmi	.L48
 642              	.LVL35:
 459:Drivers/STM32L0xx_HAL_Driver/Src/stm32l0xx_hal_rcc_ex.c ****       {
 460:Drivers/STM32L0xx_HAL_Driver/Src/stm32l0xx_hal_rcc_ex.c ****         if (HAL_IS_BIT_SET(RCC->CR, RCC_CR_PLLRDY))
 643              		.loc 1 460 9 is_stmt 1 view .LVU165
 644              		.loc 1 460 13 is_stmt 0 view .LVU166
 645 0026 A34B     		ldr	r3, .L103+4
 646 0028 1A68     		ldr	r2, [r3]
 647 002a 8023     		movs	r3, #128
 648 002c 9B04     		lsls	r3, r3, #18
 649 002e 1000     		movs	r0, r2
 650              	.LVL36:
ARM GAS  /tmp/cci8nmgB.s 			page 21


 651              		.loc 1 460 13 view .LVU167
 652 0030 1840     		ands	r0, r3
 653              		.loc 1 460 12 view .LVU168
 654 0032 1A42     		tst	r2, r3
 655 0034 15D0     		beq	.L35
 461:Drivers/STM32L0xx_HAL_Driver/Src/stm32l0xx_hal_rcc_ex.c ****         {
 462:Drivers/STM32L0xx_HAL_Driver/Src/stm32l0xx_hal_rcc_ex.c ****           /* Get PLL clock source and multiplication factor ----------------------*/
 463:Drivers/STM32L0xx_HAL_Driver/Src/stm32l0xx_hal_rcc_ex.c ****           pllmul = RCC->CFGR & RCC_CFGR_PLLMUL;
 656              		.loc 1 463 11 is_stmt 1 view .LVU169
 657              		.loc 1 463 23 is_stmt 0 view .LVU170
 658 0036 9F4B     		ldr	r3, .L103+4
 659 0038 D868     		ldr	r0, [r3, #12]
 660              	.LVL37:
 464:Drivers/STM32L0xx_HAL_Driver/Src/stm32l0xx_hal_rcc_ex.c ****           plldiv = RCC->CFGR & RCC_CFGR_PLLDIV;
 661              		.loc 1 464 11 is_stmt 1 view .LVU171
 662              		.loc 1 464 23 is_stmt 0 view .LVU172
 663 003a D968     		ldr	r1, [r3, #12]
 664              	.LVL38:
 465:Drivers/STM32L0xx_HAL_Driver/Src/stm32l0xx_hal_rcc_ex.c ****           pllmul = PLLMulTable[(pllmul >> RCC_CFGR_PLLMUL_Pos)];
 665              		.loc 1 465 11 is_stmt 1 view .LVU173
 666              		.loc 1 465 40 is_stmt 0 view .LVU174
 667 003c 800C     		lsrs	r0, r0, #18
 668              	.LVL39:
 669              		.loc 1 465 40 view .LVU175
 670 003e 0F22     		movs	r2, #15
 671 0040 0240     		ands	r2, r0
 672              		.loc 1 465 31 view .LVU176
 673 0042 9D48     		ldr	r0, .L103+8
 674 0044 805C     		ldrb	r0, [r0, r2]
 675              	.LVL40:
 466:Drivers/STM32L0xx_HAL_Driver/Src/stm32l0xx_hal_rcc_ex.c ****           plldiv = (plldiv >> RCC_CFGR_PLLDIV_Pos) + 1U;
 676              		.loc 1 466 11 is_stmt 1 view .LVU177
 677              		.loc 1 466 28 is_stmt 0 view .LVU178
 678 0046 8A0D     		lsrs	r2, r1, #22
 679 0048 0321     		movs	r1, #3
 680              	.LVL41:
 681              		.loc 1 466 28 view .LVU179
 682 004a 1140     		ands	r1, r2
 683              		.loc 1 466 18 view .LVU180
 684 004c 0131     		adds	r1, r1, #1
 685              	.LVL42:
 467:Drivers/STM32L0xx_HAL_Driver/Src/stm32l0xx_hal_rcc_ex.c **** 
 468:Drivers/STM32L0xx_HAL_Driver/Src/stm32l0xx_hal_rcc_ex.c ****           /* Compute PLL clock input */
 469:Drivers/STM32L0xx_HAL_Driver/Src/stm32l0xx_hal_rcc_ex.c ****           if(__HAL_RCC_GET_PLL_OSCSOURCE() == RCC_PLLSOURCE_HSI)
 686              		.loc 1 469 11 is_stmt 1 view .LVU181
 687              		.loc 1 469 14 is_stmt 0 view .LVU182
 688 004e DB68     		ldr	r3, [r3, #12]
 689              		.loc 1 469 13 view .LVU183
 690 0050 DB03     		lsls	r3, r3, #15
 691 0052 46D4     		bmi	.L69
 470:Drivers/STM32L0xx_HAL_Driver/Src/stm32l0xx_hal_rcc_ex.c ****           {
 471:Drivers/STM32L0xx_HAL_Driver/Src/stm32l0xx_hal_rcc_ex.c ****             if (READ_BIT(RCC->CR, RCC_CR_HSIDIVF) != 0U)
 692              		.loc 1 471 13 is_stmt 1 view .LVU184
 693              		.loc 1 471 17 is_stmt 0 view .LVU185
 694 0054 974B     		ldr	r3, .L103+4
 695 0056 1B68     		ldr	r3, [r3]
 696              		.loc 1 471 16 view .LVU186
ARM GAS  /tmp/cci8nmgB.s 			page 22


 697 0058 DB06     		lsls	r3, r3, #27
 698 005a 47D5     		bpl	.L70
 472:Drivers/STM32L0xx_HAL_Driver/Src/stm32l0xx_hal_rcc_ex.c ****             {
 473:Drivers/STM32L0xx_HAL_Driver/Src/stm32l0xx_hal_rcc_ex.c ****               pllvco =  (HSI_VALUE >> 2U);
 699              		.loc 1 473 22 view .LVU187
 700 005c 974B     		ldr	r3, .L103+12
 701 005e 41E0     		b	.L49
 702              	.LVL43:
 703              	.L83:
 386:Drivers/STM32L0xx_HAL_Driver/Src/stm32l0xx_hal_rcc_ex.c ****   {
 704              		.loc 1 386 3 view .LVU188
 705 0060 0020     		movs	r0, #0
 706              	.LVL44:
 707              	.L35:
 474:Drivers/STM32L0xx_HAL_Driver/Src/stm32l0xx_hal_rcc_ex.c ****             }
 475:Drivers/STM32L0xx_HAL_Driver/Src/stm32l0xx_hal_rcc_ex.c ****             else
 476:Drivers/STM32L0xx_HAL_Driver/Src/stm32l0xx_hal_rcc_ex.c ****             {
 477:Drivers/STM32L0xx_HAL_Driver/Src/stm32l0xx_hal_rcc_ex.c ****               pllvco =  HSI_VALUE;
 478:Drivers/STM32L0xx_HAL_Driver/Src/stm32l0xx_hal_rcc_ex.c ****             }
 479:Drivers/STM32L0xx_HAL_Driver/Src/stm32l0xx_hal_rcc_ex.c ****           }
 480:Drivers/STM32L0xx_HAL_Driver/Src/stm32l0xx_hal_rcc_ex.c ****           else /* HSE source */
 481:Drivers/STM32L0xx_HAL_Driver/Src/stm32l0xx_hal_rcc_ex.c ****           {
 482:Drivers/STM32L0xx_HAL_Driver/Src/stm32l0xx_hal_rcc_ex.c ****             pllvco = HSE_VALUE;
 483:Drivers/STM32L0xx_HAL_Driver/Src/stm32l0xx_hal_rcc_ex.c ****           }
 484:Drivers/STM32L0xx_HAL_Driver/Src/stm32l0xx_hal_rcc_ex.c ****           /* pllvco * pllmul / plldiv */
 485:Drivers/STM32L0xx_HAL_Driver/Src/stm32l0xx_hal_rcc_ex.c ****           pllvco = (pllvco * pllmul);
 486:Drivers/STM32L0xx_HAL_Driver/Src/stm32l0xx_hal_rcc_ex.c ****           frequency = (pllvco/ plldiv);
 487:Drivers/STM32L0xx_HAL_Driver/Src/stm32l0xx_hal_rcc_ex.c ****         }
 488:Drivers/STM32L0xx_HAL_Driver/Src/stm32l0xx_hal_rcc_ex.c ****       }
 489:Drivers/STM32L0xx_HAL_Driver/Src/stm32l0xx_hal_rcc_ex.c ****       else if (srcclk == RCC_USBCLKSOURCE_HSI48)
 490:Drivers/STM32L0xx_HAL_Driver/Src/stm32l0xx_hal_rcc_ex.c ****       {
 491:Drivers/STM32L0xx_HAL_Driver/Src/stm32l0xx_hal_rcc_ex.c ****         if (HAL_IS_BIT_SET(RCC->CRRCR, RCC_CRRCR_HSI48RDY))
 492:Drivers/STM32L0xx_HAL_Driver/Src/stm32l0xx_hal_rcc_ex.c ****         {
 493:Drivers/STM32L0xx_HAL_Driver/Src/stm32l0xx_hal_rcc_ex.c ****           frequency = HSI48_VALUE;
 494:Drivers/STM32L0xx_HAL_Driver/Src/stm32l0xx_hal_rcc_ex.c ****         }
 495:Drivers/STM32L0xx_HAL_Driver/Src/stm32l0xx_hal_rcc_ex.c ****       }
 496:Drivers/STM32L0xx_HAL_Driver/Src/stm32l0xx_hal_rcc_ex.c ****       else /* RCC_USBCLKSOURCE_NONE */
 497:Drivers/STM32L0xx_HAL_Driver/Src/stm32l0xx_hal_rcc_ex.c ****       {
 498:Drivers/STM32L0xx_HAL_Driver/Src/stm32l0xx_hal_rcc_ex.c ****           frequency = 0U;
 499:Drivers/STM32L0xx_HAL_Driver/Src/stm32l0xx_hal_rcc_ex.c ****       }
 500:Drivers/STM32L0xx_HAL_Driver/Src/stm32l0xx_hal_rcc_ex.c ****       break;
 501:Drivers/STM32L0xx_HAL_Driver/Src/stm32l0xx_hal_rcc_ex.c ****     }
 502:Drivers/STM32L0xx_HAL_Driver/Src/stm32l0xx_hal_rcc_ex.c **** #endif /* USB */
 503:Drivers/STM32L0xx_HAL_Driver/Src/stm32l0xx_hal_rcc_ex.c **** #if defined(RCC_CCIPR_USART1SEL)
 504:Drivers/STM32L0xx_HAL_Driver/Src/stm32l0xx_hal_rcc_ex.c ****   case RCC_PERIPHCLK_USART1:
 505:Drivers/STM32L0xx_HAL_Driver/Src/stm32l0xx_hal_rcc_ex.c ****     {
 506:Drivers/STM32L0xx_HAL_Driver/Src/stm32l0xx_hal_rcc_ex.c ****       /* Get the current USART1 source */
 507:Drivers/STM32L0xx_HAL_Driver/Src/stm32l0xx_hal_rcc_ex.c ****       srcclk = __HAL_RCC_GET_USART1_SOURCE();
 508:Drivers/STM32L0xx_HAL_Driver/Src/stm32l0xx_hal_rcc_ex.c **** 
 509:Drivers/STM32L0xx_HAL_Driver/Src/stm32l0xx_hal_rcc_ex.c ****       /* Check if USART1 clock selection is PCLK2 */
 510:Drivers/STM32L0xx_HAL_Driver/Src/stm32l0xx_hal_rcc_ex.c ****       if (srcclk == RCC_USART1CLKSOURCE_PCLK2)
 511:Drivers/STM32L0xx_HAL_Driver/Src/stm32l0xx_hal_rcc_ex.c ****       {
 512:Drivers/STM32L0xx_HAL_Driver/Src/stm32l0xx_hal_rcc_ex.c ****         frequency = HAL_RCC_GetPCLK2Freq();
 513:Drivers/STM32L0xx_HAL_Driver/Src/stm32l0xx_hal_rcc_ex.c ****       }
 514:Drivers/STM32L0xx_HAL_Driver/Src/stm32l0xx_hal_rcc_ex.c ****       /* Check if HSI is ready and if USART1 clock selection is HSI */
 515:Drivers/STM32L0xx_HAL_Driver/Src/stm32l0xx_hal_rcc_ex.c ****       else if (srcclk == RCC_USART1CLKSOURCE_HSI)
 516:Drivers/STM32L0xx_HAL_Driver/Src/stm32l0xx_hal_rcc_ex.c ****       {
ARM GAS  /tmp/cci8nmgB.s 			page 23


 517:Drivers/STM32L0xx_HAL_Driver/Src/stm32l0xx_hal_rcc_ex.c ****         if (HAL_IS_BIT_SET(RCC->CR, RCC_CR_HSIRDY))
 518:Drivers/STM32L0xx_HAL_Driver/Src/stm32l0xx_hal_rcc_ex.c ****         {
 519:Drivers/STM32L0xx_HAL_Driver/Src/stm32l0xx_hal_rcc_ex.c ****           if (READ_BIT(RCC->CR, RCC_CR_HSIDIVF) != 0U)
 520:Drivers/STM32L0xx_HAL_Driver/Src/stm32l0xx_hal_rcc_ex.c ****           {
 521:Drivers/STM32L0xx_HAL_Driver/Src/stm32l0xx_hal_rcc_ex.c ****             frequency =  (HSI_VALUE >> 2U);
 522:Drivers/STM32L0xx_HAL_Driver/Src/stm32l0xx_hal_rcc_ex.c ****           }
 523:Drivers/STM32L0xx_HAL_Driver/Src/stm32l0xx_hal_rcc_ex.c ****           else
 524:Drivers/STM32L0xx_HAL_Driver/Src/stm32l0xx_hal_rcc_ex.c ****           {
 525:Drivers/STM32L0xx_HAL_Driver/Src/stm32l0xx_hal_rcc_ex.c ****             frequency =  HSI_VALUE;
 526:Drivers/STM32L0xx_HAL_Driver/Src/stm32l0xx_hal_rcc_ex.c ****           }
 527:Drivers/STM32L0xx_HAL_Driver/Src/stm32l0xx_hal_rcc_ex.c ****         }
 528:Drivers/STM32L0xx_HAL_Driver/Src/stm32l0xx_hal_rcc_ex.c ****       }
 529:Drivers/STM32L0xx_HAL_Driver/Src/stm32l0xx_hal_rcc_ex.c ****       /* Check if USART1 clock selection is SYSCLK */
 530:Drivers/STM32L0xx_HAL_Driver/Src/stm32l0xx_hal_rcc_ex.c ****       else if (srcclk == RCC_USART1CLKSOURCE_SYSCLK)
 531:Drivers/STM32L0xx_HAL_Driver/Src/stm32l0xx_hal_rcc_ex.c ****       {
 532:Drivers/STM32L0xx_HAL_Driver/Src/stm32l0xx_hal_rcc_ex.c ****         frequency = HAL_RCC_GetSysClockFreq();
 533:Drivers/STM32L0xx_HAL_Driver/Src/stm32l0xx_hal_rcc_ex.c ****       }
 534:Drivers/STM32L0xx_HAL_Driver/Src/stm32l0xx_hal_rcc_ex.c ****       /* Check if LSE is ready  and if USART1 clock selection is LSE */
 535:Drivers/STM32L0xx_HAL_Driver/Src/stm32l0xx_hal_rcc_ex.c ****       else if (srcclk == RCC_USART1CLKSOURCE_LSE)
 536:Drivers/STM32L0xx_HAL_Driver/Src/stm32l0xx_hal_rcc_ex.c ****       {
 537:Drivers/STM32L0xx_HAL_Driver/Src/stm32l0xx_hal_rcc_ex.c ****         if (HAL_IS_BIT_SET(RCC->CSR, RCC_CSR_LSERDY))
 538:Drivers/STM32L0xx_HAL_Driver/Src/stm32l0xx_hal_rcc_ex.c ****         {
 539:Drivers/STM32L0xx_HAL_Driver/Src/stm32l0xx_hal_rcc_ex.c ****           frequency = LSE_VALUE;
 540:Drivers/STM32L0xx_HAL_Driver/Src/stm32l0xx_hal_rcc_ex.c ****         }
 541:Drivers/STM32L0xx_HAL_Driver/Src/stm32l0xx_hal_rcc_ex.c ****       }
 542:Drivers/STM32L0xx_HAL_Driver/Src/stm32l0xx_hal_rcc_ex.c ****       /* Clock not enabled for USART1*/
 543:Drivers/STM32L0xx_HAL_Driver/Src/stm32l0xx_hal_rcc_ex.c ****       else
 544:Drivers/STM32L0xx_HAL_Driver/Src/stm32l0xx_hal_rcc_ex.c ****       {
 545:Drivers/STM32L0xx_HAL_Driver/Src/stm32l0xx_hal_rcc_ex.c ****         frequency = 0U;
 546:Drivers/STM32L0xx_HAL_Driver/Src/stm32l0xx_hal_rcc_ex.c ****       }
 547:Drivers/STM32L0xx_HAL_Driver/Src/stm32l0xx_hal_rcc_ex.c ****       break;
 548:Drivers/STM32L0xx_HAL_Driver/Src/stm32l0xx_hal_rcc_ex.c ****     }
 549:Drivers/STM32L0xx_HAL_Driver/Src/stm32l0xx_hal_rcc_ex.c **** #endif /* RCC_CCIPR_USART1SEL */
 550:Drivers/STM32L0xx_HAL_Driver/Src/stm32l0xx_hal_rcc_ex.c ****   case RCC_PERIPHCLK_USART2:
 551:Drivers/STM32L0xx_HAL_Driver/Src/stm32l0xx_hal_rcc_ex.c ****     {
 552:Drivers/STM32L0xx_HAL_Driver/Src/stm32l0xx_hal_rcc_ex.c ****       /* Get the current USART2 source */
 553:Drivers/STM32L0xx_HAL_Driver/Src/stm32l0xx_hal_rcc_ex.c ****       srcclk = __HAL_RCC_GET_USART2_SOURCE();
 554:Drivers/STM32L0xx_HAL_Driver/Src/stm32l0xx_hal_rcc_ex.c **** 
 555:Drivers/STM32L0xx_HAL_Driver/Src/stm32l0xx_hal_rcc_ex.c ****       /* Check if USART2 clock selection is PCLK1 */
 556:Drivers/STM32L0xx_HAL_Driver/Src/stm32l0xx_hal_rcc_ex.c ****       if (srcclk == RCC_USART2CLKSOURCE_PCLK1)
 557:Drivers/STM32L0xx_HAL_Driver/Src/stm32l0xx_hal_rcc_ex.c ****       {
 558:Drivers/STM32L0xx_HAL_Driver/Src/stm32l0xx_hal_rcc_ex.c ****         frequency = HAL_RCC_GetPCLK1Freq();
 559:Drivers/STM32L0xx_HAL_Driver/Src/stm32l0xx_hal_rcc_ex.c ****       }
 560:Drivers/STM32L0xx_HAL_Driver/Src/stm32l0xx_hal_rcc_ex.c ****       /* Check if HSI is ready and if USART2 clock selection is HSI */
 561:Drivers/STM32L0xx_HAL_Driver/Src/stm32l0xx_hal_rcc_ex.c ****       else if (srcclk == RCC_USART2CLKSOURCE_HSI)
 562:Drivers/STM32L0xx_HAL_Driver/Src/stm32l0xx_hal_rcc_ex.c ****       {
 563:Drivers/STM32L0xx_HAL_Driver/Src/stm32l0xx_hal_rcc_ex.c ****         if (HAL_IS_BIT_SET(RCC->CR, RCC_CR_HSIRDY))
 564:Drivers/STM32L0xx_HAL_Driver/Src/stm32l0xx_hal_rcc_ex.c ****         {
 565:Drivers/STM32L0xx_HAL_Driver/Src/stm32l0xx_hal_rcc_ex.c ****           if (READ_BIT(RCC->CR, RCC_CR_HSIDIVF) != 0U)
 566:Drivers/STM32L0xx_HAL_Driver/Src/stm32l0xx_hal_rcc_ex.c ****           {
 567:Drivers/STM32L0xx_HAL_Driver/Src/stm32l0xx_hal_rcc_ex.c ****             frequency =  (HSI_VALUE >> 2U);
 568:Drivers/STM32L0xx_HAL_Driver/Src/stm32l0xx_hal_rcc_ex.c ****           }
 569:Drivers/STM32L0xx_HAL_Driver/Src/stm32l0xx_hal_rcc_ex.c ****           else
 570:Drivers/STM32L0xx_HAL_Driver/Src/stm32l0xx_hal_rcc_ex.c ****           {
 571:Drivers/STM32L0xx_HAL_Driver/Src/stm32l0xx_hal_rcc_ex.c ****             frequency =  HSI_VALUE;
 572:Drivers/STM32L0xx_HAL_Driver/Src/stm32l0xx_hal_rcc_ex.c ****           }
 573:Drivers/STM32L0xx_HAL_Driver/Src/stm32l0xx_hal_rcc_ex.c ****         }
ARM GAS  /tmp/cci8nmgB.s 			page 24


 574:Drivers/STM32L0xx_HAL_Driver/Src/stm32l0xx_hal_rcc_ex.c ****       }
 575:Drivers/STM32L0xx_HAL_Driver/Src/stm32l0xx_hal_rcc_ex.c ****       /* Check if USART2 clock selection is SYSCLK */
 576:Drivers/STM32L0xx_HAL_Driver/Src/stm32l0xx_hal_rcc_ex.c ****       else if (srcclk == RCC_USART2CLKSOURCE_SYSCLK)
 577:Drivers/STM32L0xx_HAL_Driver/Src/stm32l0xx_hal_rcc_ex.c ****       {
 578:Drivers/STM32L0xx_HAL_Driver/Src/stm32l0xx_hal_rcc_ex.c ****         frequency = HAL_RCC_GetSysClockFreq();
 579:Drivers/STM32L0xx_HAL_Driver/Src/stm32l0xx_hal_rcc_ex.c ****       }
 580:Drivers/STM32L0xx_HAL_Driver/Src/stm32l0xx_hal_rcc_ex.c ****       /* Check if LSE is ready  and if USART2 clock selection is LSE */
 581:Drivers/STM32L0xx_HAL_Driver/Src/stm32l0xx_hal_rcc_ex.c ****       else if (srcclk == RCC_USART2CLKSOURCE_LSE)
 582:Drivers/STM32L0xx_HAL_Driver/Src/stm32l0xx_hal_rcc_ex.c ****       {
 583:Drivers/STM32L0xx_HAL_Driver/Src/stm32l0xx_hal_rcc_ex.c ****         if (HAL_IS_BIT_SET(RCC->CSR, RCC_CSR_LSERDY))
 584:Drivers/STM32L0xx_HAL_Driver/Src/stm32l0xx_hal_rcc_ex.c ****         {
 585:Drivers/STM32L0xx_HAL_Driver/Src/stm32l0xx_hal_rcc_ex.c ****           frequency = LSE_VALUE;
 586:Drivers/STM32L0xx_HAL_Driver/Src/stm32l0xx_hal_rcc_ex.c ****         }
 587:Drivers/STM32L0xx_HAL_Driver/Src/stm32l0xx_hal_rcc_ex.c ****       }
 588:Drivers/STM32L0xx_HAL_Driver/Src/stm32l0xx_hal_rcc_ex.c ****       /* Clock not enabled for USART2*/
 589:Drivers/STM32L0xx_HAL_Driver/Src/stm32l0xx_hal_rcc_ex.c ****       else
 590:Drivers/STM32L0xx_HAL_Driver/Src/stm32l0xx_hal_rcc_ex.c ****       {
 591:Drivers/STM32L0xx_HAL_Driver/Src/stm32l0xx_hal_rcc_ex.c ****         frequency = 0U;
 592:Drivers/STM32L0xx_HAL_Driver/Src/stm32l0xx_hal_rcc_ex.c ****       }
 593:Drivers/STM32L0xx_HAL_Driver/Src/stm32l0xx_hal_rcc_ex.c ****       break;
 594:Drivers/STM32L0xx_HAL_Driver/Src/stm32l0xx_hal_rcc_ex.c ****     }
 595:Drivers/STM32L0xx_HAL_Driver/Src/stm32l0xx_hal_rcc_ex.c ****   case RCC_PERIPHCLK_LPUART1:
 596:Drivers/STM32L0xx_HAL_Driver/Src/stm32l0xx_hal_rcc_ex.c ****     {
 597:Drivers/STM32L0xx_HAL_Driver/Src/stm32l0xx_hal_rcc_ex.c ****       /* Get the current LPUART1 source */
 598:Drivers/STM32L0xx_HAL_Driver/Src/stm32l0xx_hal_rcc_ex.c ****       srcclk = __HAL_RCC_GET_LPUART1_SOURCE();
 599:Drivers/STM32L0xx_HAL_Driver/Src/stm32l0xx_hal_rcc_ex.c **** 
 600:Drivers/STM32L0xx_HAL_Driver/Src/stm32l0xx_hal_rcc_ex.c ****       /* Check if LPUART1 clock selection is PCLK1 */
 601:Drivers/STM32L0xx_HAL_Driver/Src/stm32l0xx_hal_rcc_ex.c ****       if (srcclk == RCC_LPUART1CLKSOURCE_PCLK1)
 602:Drivers/STM32L0xx_HAL_Driver/Src/stm32l0xx_hal_rcc_ex.c ****       {
 603:Drivers/STM32L0xx_HAL_Driver/Src/stm32l0xx_hal_rcc_ex.c ****         frequency = HAL_RCC_GetPCLK1Freq();
 604:Drivers/STM32L0xx_HAL_Driver/Src/stm32l0xx_hal_rcc_ex.c ****       }
 605:Drivers/STM32L0xx_HAL_Driver/Src/stm32l0xx_hal_rcc_ex.c ****       /* Check if HSI is ready and if LPUART1 clock selection is HSI */
 606:Drivers/STM32L0xx_HAL_Driver/Src/stm32l0xx_hal_rcc_ex.c ****       else if (srcclk == RCC_LPUART1CLKSOURCE_HSI)
 607:Drivers/STM32L0xx_HAL_Driver/Src/stm32l0xx_hal_rcc_ex.c ****       {
 608:Drivers/STM32L0xx_HAL_Driver/Src/stm32l0xx_hal_rcc_ex.c ****         if (HAL_IS_BIT_SET(RCC->CR, RCC_CR_HSIRDY))
 609:Drivers/STM32L0xx_HAL_Driver/Src/stm32l0xx_hal_rcc_ex.c ****         {
 610:Drivers/STM32L0xx_HAL_Driver/Src/stm32l0xx_hal_rcc_ex.c ****           if (READ_BIT(RCC->CR, RCC_CR_HSIDIVF) != 0U)
 611:Drivers/STM32L0xx_HAL_Driver/Src/stm32l0xx_hal_rcc_ex.c ****           {
 612:Drivers/STM32L0xx_HAL_Driver/Src/stm32l0xx_hal_rcc_ex.c ****             frequency =  (HSI_VALUE >> 2U);
 613:Drivers/STM32L0xx_HAL_Driver/Src/stm32l0xx_hal_rcc_ex.c ****           }
 614:Drivers/STM32L0xx_HAL_Driver/Src/stm32l0xx_hal_rcc_ex.c ****           else
 615:Drivers/STM32L0xx_HAL_Driver/Src/stm32l0xx_hal_rcc_ex.c ****           {
 616:Drivers/STM32L0xx_HAL_Driver/Src/stm32l0xx_hal_rcc_ex.c ****             frequency =  HSI_VALUE;
 617:Drivers/STM32L0xx_HAL_Driver/Src/stm32l0xx_hal_rcc_ex.c ****           }
 618:Drivers/STM32L0xx_HAL_Driver/Src/stm32l0xx_hal_rcc_ex.c ****         }
 619:Drivers/STM32L0xx_HAL_Driver/Src/stm32l0xx_hal_rcc_ex.c ****       }
 620:Drivers/STM32L0xx_HAL_Driver/Src/stm32l0xx_hal_rcc_ex.c ****       /* Check if LPUART1 clock selection is SYSCLK */
 621:Drivers/STM32L0xx_HAL_Driver/Src/stm32l0xx_hal_rcc_ex.c ****       else if (srcclk == RCC_LPUART1CLKSOURCE_SYSCLK)
 622:Drivers/STM32L0xx_HAL_Driver/Src/stm32l0xx_hal_rcc_ex.c ****       {
 623:Drivers/STM32L0xx_HAL_Driver/Src/stm32l0xx_hal_rcc_ex.c ****         frequency = HAL_RCC_GetSysClockFreq();
 624:Drivers/STM32L0xx_HAL_Driver/Src/stm32l0xx_hal_rcc_ex.c ****       }
 625:Drivers/STM32L0xx_HAL_Driver/Src/stm32l0xx_hal_rcc_ex.c ****       /* Check if LSE is ready  and if LPUART1 clock selection is LSE */
 626:Drivers/STM32L0xx_HAL_Driver/Src/stm32l0xx_hal_rcc_ex.c ****       else if (srcclk == RCC_LPUART1CLKSOURCE_LSE)
 627:Drivers/STM32L0xx_HAL_Driver/Src/stm32l0xx_hal_rcc_ex.c ****       {
 628:Drivers/STM32L0xx_HAL_Driver/Src/stm32l0xx_hal_rcc_ex.c ****         if (HAL_IS_BIT_SET(RCC->CSR, RCC_CSR_LSERDY))
 629:Drivers/STM32L0xx_HAL_Driver/Src/stm32l0xx_hal_rcc_ex.c ****         {
 630:Drivers/STM32L0xx_HAL_Driver/Src/stm32l0xx_hal_rcc_ex.c ****           frequency = LSE_VALUE;
ARM GAS  /tmp/cci8nmgB.s 			page 25


 631:Drivers/STM32L0xx_HAL_Driver/Src/stm32l0xx_hal_rcc_ex.c ****         }
 632:Drivers/STM32L0xx_HAL_Driver/Src/stm32l0xx_hal_rcc_ex.c ****       }
 633:Drivers/STM32L0xx_HAL_Driver/Src/stm32l0xx_hal_rcc_ex.c ****       /* Clock not enabled for LPUART1*/
 634:Drivers/STM32L0xx_HAL_Driver/Src/stm32l0xx_hal_rcc_ex.c ****       else
 635:Drivers/STM32L0xx_HAL_Driver/Src/stm32l0xx_hal_rcc_ex.c ****       {
 636:Drivers/STM32L0xx_HAL_Driver/Src/stm32l0xx_hal_rcc_ex.c ****         frequency = 0U;
 637:Drivers/STM32L0xx_HAL_Driver/Src/stm32l0xx_hal_rcc_ex.c ****       }
 638:Drivers/STM32L0xx_HAL_Driver/Src/stm32l0xx_hal_rcc_ex.c ****       break;
 639:Drivers/STM32L0xx_HAL_Driver/Src/stm32l0xx_hal_rcc_ex.c ****     }
 640:Drivers/STM32L0xx_HAL_Driver/Src/stm32l0xx_hal_rcc_ex.c ****   case RCC_PERIPHCLK_I2C1:
 641:Drivers/STM32L0xx_HAL_Driver/Src/stm32l0xx_hal_rcc_ex.c ****     {
 642:Drivers/STM32L0xx_HAL_Driver/Src/stm32l0xx_hal_rcc_ex.c ****       /* Get the current I2C1 source */
 643:Drivers/STM32L0xx_HAL_Driver/Src/stm32l0xx_hal_rcc_ex.c ****       srcclk = __HAL_RCC_GET_I2C1_SOURCE();
 644:Drivers/STM32L0xx_HAL_Driver/Src/stm32l0xx_hal_rcc_ex.c **** 
 645:Drivers/STM32L0xx_HAL_Driver/Src/stm32l0xx_hal_rcc_ex.c ****       /* Check if I2C1 clock selection is PCLK1 */
 646:Drivers/STM32L0xx_HAL_Driver/Src/stm32l0xx_hal_rcc_ex.c ****       if (srcclk == RCC_I2C1CLKSOURCE_PCLK1)
 647:Drivers/STM32L0xx_HAL_Driver/Src/stm32l0xx_hal_rcc_ex.c ****       {
 648:Drivers/STM32L0xx_HAL_Driver/Src/stm32l0xx_hal_rcc_ex.c ****         frequency = HAL_RCC_GetPCLK1Freq();
 649:Drivers/STM32L0xx_HAL_Driver/Src/stm32l0xx_hal_rcc_ex.c ****       }
 650:Drivers/STM32L0xx_HAL_Driver/Src/stm32l0xx_hal_rcc_ex.c ****       /* Check if HSI is ready and if I2C1 clock selection is HSI */
 651:Drivers/STM32L0xx_HAL_Driver/Src/stm32l0xx_hal_rcc_ex.c ****       else if (srcclk == RCC_I2C1CLKSOURCE_HSI)
 652:Drivers/STM32L0xx_HAL_Driver/Src/stm32l0xx_hal_rcc_ex.c ****       {
 653:Drivers/STM32L0xx_HAL_Driver/Src/stm32l0xx_hal_rcc_ex.c ****         if (HAL_IS_BIT_SET(RCC->CR, RCC_CR_HSIRDY))
 654:Drivers/STM32L0xx_HAL_Driver/Src/stm32l0xx_hal_rcc_ex.c ****         {
 655:Drivers/STM32L0xx_HAL_Driver/Src/stm32l0xx_hal_rcc_ex.c ****           if (READ_BIT(RCC->CR, RCC_CR_HSIDIVF) != 0U)
 656:Drivers/STM32L0xx_HAL_Driver/Src/stm32l0xx_hal_rcc_ex.c ****           {
 657:Drivers/STM32L0xx_HAL_Driver/Src/stm32l0xx_hal_rcc_ex.c ****             frequency =  (HSI_VALUE >> 2U);
 658:Drivers/STM32L0xx_HAL_Driver/Src/stm32l0xx_hal_rcc_ex.c ****           }
 659:Drivers/STM32L0xx_HAL_Driver/Src/stm32l0xx_hal_rcc_ex.c ****           else
 660:Drivers/STM32L0xx_HAL_Driver/Src/stm32l0xx_hal_rcc_ex.c ****           {
 661:Drivers/STM32L0xx_HAL_Driver/Src/stm32l0xx_hal_rcc_ex.c ****             frequency =  HSI_VALUE;
 662:Drivers/STM32L0xx_HAL_Driver/Src/stm32l0xx_hal_rcc_ex.c ****           }
 663:Drivers/STM32L0xx_HAL_Driver/Src/stm32l0xx_hal_rcc_ex.c ****         }
 664:Drivers/STM32L0xx_HAL_Driver/Src/stm32l0xx_hal_rcc_ex.c ****       }
 665:Drivers/STM32L0xx_HAL_Driver/Src/stm32l0xx_hal_rcc_ex.c ****       /* Check if I2C1 clock selection is SYSCLK */
 666:Drivers/STM32L0xx_HAL_Driver/Src/stm32l0xx_hal_rcc_ex.c ****       else if (srcclk == RCC_I2C1CLKSOURCE_SYSCLK)
 667:Drivers/STM32L0xx_HAL_Driver/Src/stm32l0xx_hal_rcc_ex.c ****       {
 668:Drivers/STM32L0xx_HAL_Driver/Src/stm32l0xx_hal_rcc_ex.c ****         frequency = HAL_RCC_GetSysClockFreq();
 669:Drivers/STM32L0xx_HAL_Driver/Src/stm32l0xx_hal_rcc_ex.c ****       }
 670:Drivers/STM32L0xx_HAL_Driver/Src/stm32l0xx_hal_rcc_ex.c ****       /* Clock not enabled for I2C1*/
 671:Drivers/STM32L0xx_HAL_Driver/Src/stm32l0xx_hal_rcc_ex.c ****       else
 672:Drivers/STM32L0xx_HAL_Driver/Src/stm32l0xx_hal_rcc_ex.c ****       {
 673:Drivers/STM32L0xx_HAL_Driver/Src/stm32l0xx_hal_rcc_ex.c ****         frequency = 0U;
 674:Drivers/STM32L0xx_HAL_Driver/Src/stm32l0xx_hal_rcc_ex.c ****       }
 675:Drivers/STM32L0xx_HAL_Driver/Src/stm32l0xx_hal_rcc_ex.c ****       break;
 676:Drivers/STM32L0xx_HAL_Driver/Src/stm32l0xx_hal_rcc_ex.c ****     }
 677:Drivers/STM32L0xx_HAL_Driver/Src/stm32l0xx_hal_rcc_ex.c **** #if defined(I2C2)
 678:Drivers/STM32L0xx_HAL_Driver/Src/stm32l0xx_hal_rcc_ex.c ****   case RCC_PERIPHCLK_I2C2:
 679:Drivers/STM32L0xx_HAL_Driver/Src/stm32l0xx_hal_rcc_ex.c ****     {
 680:Drivers/STM32L0xx_HAL_Driver/Src/stm32l0xx_hal_rcc_ex.c **** 
 681:Drivers/STM32L0xx_HAL_Driver/Src/stm32l0xx_hal_rcc_ex.c ****       /* Check if I2C2 on APB1 clock enabled*/
 682:Drivers/STM32L0xx_HAL_Driver/Src/stm32l0xx_hal_rcc_ex.c ****       if (READ_BIT(RCC->APB1ENR, (RCC_APB1ENR_I2C2EN))==RCC_APB1ENR_I2C2EN)
 683:Drivers/STM32L0xx_HAL_Driver/Src/stm32l0xx_hal_rcc_ex.c ****       {
 684:Drivers/STM32L0xx_HAL_Driver/Src/stm32l0xx_hal_rcc_ex.c ****         frequency = HAL_RCC_GetPCLK1Freq();
 685:Drivers/STM32L0xx_HAL_Driver/Src/stm32l0xx_hal_rcc_ex.c ****       }
 686:Drivers/STM32L0xx_HAL_Driver/Src/stm32l0xx_hal_rcc_ex.c ****       else
 687:Drivers/STM32L0xx_HAL_Driver/Src/stm32l0xx_hal_rcc_ex.c ****       {
ARM GAS  /tmp/cci8nmgB.s 			page 26


 688:Drivers/STM32L0xx_HAL_Driver/Src/stm32l0xx_hal_rcc_ex.c ****         frequency = 0U;
 689:Drivers/STM32L0xx_HAL_Driver/Src/stm32l0xx_hal_rcc_ex.c ****       }
 690:Drivers/STM32L0xx_HAL_Driver/Src/stm32l0xx_hal_rcc_ex.c ****       break;
 691:Drivers/STM32L0xx_HAL_Driver/Src/stm32l0xx_hal_rcc_ex.c ****     }
 692:Drivers/STM32L0xx_HAL_Driver/Src/stm32l0xx_hal_rcc_ex.c **** #endif /* I2C2 */
 693:Drivers/STM32L0xx_HAL_Driver/Src/stm32l0xx_hal_rcc_ex.c **** 
 694:Drivers/STM32L0xx_HAL_Driver/Src/stm32l0xx_hal_rcc_ex.c **** #if defined(RCC_CCIPR_I2C3SEL)
 695:Drivers/STM32L0xx_HAL_Driver/Src/stm32l0xx_hal_rcc_ex.c ****   case RCC_PERIPHCLK_I2C3:
 696:Drivers/STM32L0xx_HAL_Driver/Src/stm32l0xx_hal_rcc_ex.c ****     {
 697:Drivers/STM32L0xx_HAL_Driver/Src/stm32l0xx_hal_rcc_ex.c ****       /* Get the current I2C3 source */
 698:Drivers/STM32L0xx_HAL_Driver/Src/stm32l0xx_hal_rcc_ex.c ****       srcclk = __HAL_RCC_GET_I2C3_SOURCE();
 699:Drivers/STM32L0xx_HAL_Driver/Src/stm32l0xx_hal_rcc_ex.c **** 
 700:Drivers/STM32L0xx_HAL_Driver/Src/stm32l0xx_hal_rcc_ex.c ****       /* Check if I2C3 clock selection is PCLK1 */
 701:Drivers/STM32L0xx_HAL_Driver/Src/stm32l0xx_hal_rcc_ex.c ****       if (srcclk == RCC_I2C3CLKSOURCE_PCLK1)
 702:Drivers/STM32L0xx_HAL_Driver/Src/stm32l0xx_hal_rcc_ex.c ****       {
 703:Drivers/STM32L0xx_HAL_Driver/Src/stm32l0xx_hal_rcc_ex.c ****         frequency = HAL_RCC_GetPCLK1Freq();
 704:Drivers/STM32L0xx_HAL_Driver/Src/stm32l0xx_hal_rcc_ex.c ****       }
 705:Drivers/STM32L0xx_HAL_Driver/Src/stm32l0xx_hal_rcc_ex.c ****       /* Check if HSI is ready and if I2C3 clock selection is HSI */
 706:Drivers/STM32L0xx_HAL_Driver/Src/stm32l0xx_hal_rcc_ex.c ****       else if (srcclk == RCC_I2C3CLKSOURCE_HSI)
 707:Drivers/STM32L0xx_HAL_Driver/Src/stm32l0xx_hal_rcc_ex.c ****       {
 708:Drivers/STM32L0xx_HAL_Driver/Src/stm32l0xx_hal_rcc_ex.c ****         if (HAL_IS_BIT_SET(RCC->CR, RCC_CR_HSIRDY))
 709:Drivers/STM32L0xx_HAL_Driver/Src/stm32l0xx_hal_rcc_ex.c ****         {
 710:Drivers/STM32L0xx_HAL_Driver/Src/stm32l0xx_hal_rcc_ex.c ****           if (READ_BIT(RCC->CR, RCC_CR_HSIDIVF) != 0U)
 711:Drivers/STM32L0xx_HAL_Driver/Src/stm32l0xx_hal_rcc_ex.c ****           {
 712:Drivers/STM32L0xx_HAL_Driver/Src/stm32l0xx_hal_rcc_ex.c ****             frequency =  (HSI_VALUE >> 2U);
 713:Drivers/STM32L0xx_HAL_Driver/Src/stm32l0xx_hal_rcc_ex.c ****           }
 714:Drivers/STM32L0xx_HAL_Driver/Src/stm32l0xx_hal_rcc_ex.c ****           else
 715:Drivers/STM32L0xx_HAL_Driver/Src/stm32l0xx_hal_rcc_ex.c ****           {
 716:Drivers/STM32L0xx_HAL_Driver/Src/stm32l0xx_hal_rcc_ex.c ****             frequency =  HSI_VALUE;
 717:Drivers/STM32L0xx_HAL_Driver/Src/stm32l0xx_hal_rcc_ex.c ****           }
 718:Drivers/STM32L0xx_HAL_Driver/Src/stm32l0xx_hal_rcc_ex.c ****         }
 719:Drivers/STM32L0xx_HAL_Driver/Src/stm32l0xx_hal_rcc_ex.c ****       }
 720:Drivers/STM32L0xx_HAL_Driver/Src/stm32l0xx_hal_rcc_ex.c ****       /* Check if I2C3 clock selection is SYSCLK */
 721:Drivers/STM32L0xx_HAL_Driver/Src/stm32l0xx_hal_rcc_ex.c ****       else if (srcclk == RCC_I2C3CLKSOURCE_SYSCLK)
 722:Drivers/STM32L0xx_HAL_Driver/Src/stm32l0xx_hal_rcc_ex.c ****       {
 723:Drivers/STM32L0xx_HAL_Driver/Src/stm32l0xx_hal_rcc_ex.c ****         frequency = HAL_RCC_GetSysClockFreq();
 724:Drivers/STM32L0xx_HAL_Driver/Src/stm32l0xx_hal_rcc_ex.c ****       }
 725:Drivers/STM32L0xx_HAL_Driver/Src/stm32l0xx_hal_rcc_ex.c ****       /* Clock not enabled for I2C3*/
 726:Drivers/STM32L0xx_HAL_Driver/Src/stm32l0xx_hal_rcc_ex.c ****       else
 727:Drivers/STM32L0xx_HAL_Driver/Src/stm32l0xx_hal_rcc_ex.c ****       {
 728:Drivers/STM32L0xx_HAL_Driver/Src/stm32l0xx_hal_rcc_ex.c ****         frequency = 0U;
 729:Drivers/STM32L0xx_HAL_Driver/Src/stm32l0xx_hal_rcc_ex.c ****       }
 730:Drivers/STM32L0xx_HAL_Driver/Src/stm32l0xx_hal_rcc_ex.c ****       break;
 731:Drivers/STM32L0xx_HAL_Driver/Src/stm32l0xx_hal_rcc_ex.c ****     }
 732:Drivers/STM32L0xx_HAL_Driver/Src/stm32l0xx_hal_rcc_ex.c **** #endif /* RCC_CCIPR_I2C3SEL */
 733:Drivers/STM32L0xx_HAL_Driver/Src/stm32l0xx_hal_rcc_ex.c ****   default:
 734:Drivers/STM32L0xx_HAL_Driver/Src/stm32l0xx_hal_rcc_ex.c ****     {
 735:Drivers/STM32L0xx_HAL_Driver/Src/stm32l0xx_hal_rcc_ex.c ****       break;
 736:Drivers/STM32L0xx_HAL_Driver/Src/stm32l0xx_hal_rcc_ex.c ****     }
 737:Drivers/STM32L0xx_HAL_Driver/Src/stm32l0xx_hal_rcc_ex.c ****   }
 738:Drivers/STM32L0xx_HAL_Driver/Src/stm32l0xx_hal_rcc_ex.c ****   return(frequency);
 739:Drivers/STM32L0xx_HAL_Driver/Src/stm32l0xx_hal_rcc_ex.c **** }
 708              		.loc 1 739 1 view .LVU189
 709              		@ sp needed
 710 0062 10BD     		pop	{r4, pc}
 711              	.LVL45:
 712              	.L38:
ARM GAS  /tmp/cci8nmgB.s 			page 27


 394:Drivers/STM32L0xx_HAL_Driver/Src/stm32l0xx_hal_rcc_ex.c **** 
 713              		.loc 1 394 7 is_stmt 1 view .LVU190
 394:Drivers/STM32L0xx_HAL_Driver/Src/stm32l0xx_hal_rcc_ex.c **** 
 714              		.loc 1 394 16 is_stmt 0 view .LVU191
 715 0064 934B     		ldr	r3, .L103+4
 716 0066 196D     		ldr	r1, [r3, #80]
 717              	.LVL46:
 397:Drivers/STM32L0xx_HAL_Driver/Src/stm32l0xx_hal_rcc_ex.c **** 
 718              		.loc 1 397 7 is_stmt 1 view .LVU192
 397:Drivers/STM32L0xx_HAL_Driver/Src/stm32l0xx_hal_rcc_ex.c **** 
 719              		.loc 1 397 16 is_stmt 0 view .LVU193
 720 0068 1B6D     		ldr	r3, [r3, #80]
 397:Drivers/STM32L0xx_HAL_Driver/Src/stm32l0xx_hal_rcc_ex.c **** 
 721              		.loc 1 397 14 view .LVU194
 722 006a C022     		movs	r2, #192
 723 006c 9202     		lsls	r2, r2, #10
 724 006e 1340     		ands	r3, r2
 725              	.LVL47:
 400:Drivers/STM32L0xx_HAL_Driver/Src/stm32l0xx_hal_rcc_ex.c ****       {
 726              		.loc 1 400 7 is_stmt 1 view .LVU195
 400:Drivers/STM32L0xx_HAL_Driver/Src/stm32l0xx_hal_rcc_ex.c ****       {
 727              		.loc 1 400 10 is_stmt 0 view .LVU196
 728 0070 8022     		movs	r2, #128
 729 0072 5202     		lsls	r2, r2, #9
 730 0074 9342     		cmp	r3, r2
 731 0076 09D0     		beq	.L84
 732              	.L46:
 405:Drivers/STM32L0xx_HAL_Driver/Src/stm32l0xx_hal_rcc_ex.c ****       {
 733              		.loc 1 405 12 is_stmt 1 view .LVU197
 405:Drivers/STM32L0xx_HAL_Driver/Src/stm32l0xx_hal_rcc_ex.c ****       {
 734              		.loc 1 405 15 is_stmt 0 view .LVU198
 735 0078 8022     		movs	r2, #128
 736 007a 9202     		lsls	r2, r2, #10
 737 007c 9342     		cmp	r3, r2
 738 007e 0AD0     		beq	.L85
 413:Drivers/STM32L0xx_HAL_Driver/Src/stm32l0xx_hal_rcc_ex.c ****       {
 739              		.loc 1 413 12 is_stmt 1 view .LVU199
 413:Drivers/STM32L0xx_HAL_Driver/Src/stm32l0xx_hal_rcc_ex.c ****       {
 740              		.loc 1 413 15 is_stmt 0 view .LVU200
 741 0080 C022     		movs	r2, #192
 742 0082 9202     		lsls	r2, r2, #10
 743 0084 9342     		cmp	r3, r2
 744 0086 0DD0     		beq	.L86
 448:Drivers/STM32L0xx_HAL_Driver/Src/stm32l0xx_hal_rcc_ex.c ****       }
 745              		.loc 1 448 19 view .LVU201
 746 0088 0020     		movs	r0, #0
 747 008a EAE7     		b	.L35
 748              	.L84:
 400:Drivers/STM32L0xx_HAL_Driver/Src/stm32l0xx_hal_rcc_ex.c ****       {
 749              		.loc 1 400 44 discriminator 1 view .LVU202
 750 008c 8A05     		lsls	r2, r1, #22
 751 008e F3D5     		bpl	.L46
 402:Drivers/STM32L0xx_HAL_Driver/Src/stm32l0xx_hal_rcc_ex.c ****       }
 752              		.loc 1 402 19 view .LVU203
 753 0090 8020     		movs	r0, #128
 754 0092 0002     		lsls	r0, r0, #8
 755 0094 E5E7     		b	.L35
ARM GAS  /tmp/cci8nmgB.s 			page 28


 756              	.L85:
 407:Drivers/STM32L0xx_HAL_Driver/Src/stm32l0xx_hal_rcc_ex.c ****         {
 757              		.loc 1 407 9 is_stmt 1 view .LVU204
 407:Drivers/STM32L0xx_HAL_Driver/Src/stm32l0xx_hal_rcc_ex.c ****         {
 758              		.loc 1 407 13 is_stmt 0 view .LVU205
 759 0096 0223     		movs	r3, #2
 760              	.LVL48:
 407:Drivers/STM32L0xx_HAL_Driver/Src/stm32l0xx_hal_rcc_ex.c ****         {
 761              		.loc 1 407 13 view .LVU206
 762 0098 1800     		movs	r0, r3
 763 009a 0840     		ands	r0, r1
 407:Drivers/STM32L0xx_HAL_Driver/Src/stm32l0xx_hal_rcc_ex.c ****         {
 764              		.loc 1 407 12 view .LVU207
 765 009c 0B42     		tst	r3, r1
 766 009e E0D0     		beq	.L35
 409:Drivers/STM32L0xx_HAL_Driver/Src/stm32l0xx_hal_rcc_ex.c ****         }
 767              		.loc 1 409 21 view .LVU208
 768 00a0 8748     		ldr	r0, .L103+16
 769 00a2 DEE7     		b	.L35
 770              	.LVL49:
 771              	.L86:
 415:Drivers/STM32L0xx_HAL_Driver/Src/stm32l0xx_hal_rcc_ex.c ****         {
 772              		.loc 1 415 9 is_stmt 1 view .LVU209
 415:Drivers/STM32L0xx_HAL_Driver/Src/stm32l0xx_hal_rcc_ex.c ****         {
 773              		.loc 1 415 13 is_stmt 0 view .LVU210
 774 00a4 834B     		ldr	r3, .L103+4
 775              	.LVL50:
 415:Drivers/STM32L0xx_HAL_Driver/Src/stm32l0xx_hal_rcc_ex.c ****         {
 776              		.loc 1 415 13 view .LVU211
 777 00a6 1A68     		ldr	r2, [r3]
 778 00a8 8023     		movs	r3, #128
 779 00aa 9B02     		lsls	r3, r3, #10
 780 00ac 1000     		movs	r0, r2
 781 00ae 1840     		ands	r0, r3
 415:Drivers/STM32L0xx_HAL_Driver/Src/stm32l0xx_hal_rcc_ex.c ****         {
 782              		.loc 1 415 12 view .LVU212
 783 00b0 1A42     		tst	r2, r3
 784 00b2 D6D0     		beq	.L35
 418:Drivers/STM32L0xx_HAL_Driver/Src/stm32l0xx_hal_rcc_ex.c **** 
 785              		.loc 1 418 11 is_stmt 1 view .LVU213
 418:Drivers/STM32L0xx_HAL_Driver/Src/stm32l0xx_hal_rcc_ex.c **** 
 786              		.loc 1 418 23 is_stmt 0 view .LVU214
 787 00b4 7F4B     		ldr	r3, .L103+4
 788 00b6 1B68     		ldr	r3, [r3]
 418:Drivers/STM32L0xx_HAL_Driver/Src/stm32l0xx_hal_rcc_ex.c **** 
 789              		.loc 1 418 21 view .LVU215
 790 00b8 C022     		movs	r2, #192
 791 00ba 9203     		lsls	r2, r2, #14
 792 00bc 1340     		ands	r3, r2
 793              	.LVL51:
 420:Drivers/STM32L0xx_HAL_Driver/Src/stm32l0xx_hal_rcc_ex.c ****           {
 794              		.loc 1 420 11 is_stmt 1 view .LVU216
 795 00be 8022     		movs	r2, #128
 796 00c0 9203     		lsls	r2, r2, #14
 797 00c2 9342     		cmp	r3, r2
 798 00c4 00D1     		bne	.LCB702
 799 00c6 E7E0     		b	.L66	@long jump
ARM GAS  /tmp/cci8nmgB.s 			page 29


 800              	.LCB702:
 801 00c8 C022     		movs	r2, #192
 802 00ca 9203     		lsls	r2, r2, #14
 803 00cc 9342     		cmp	r3, r2
 804 00ce 00D1     		bne	.LCB706
 805 00d0 E4E0     		b	.L67	@long jump
 806              	.LCB706:
 807 00d2 8022     		movs	r2, #128
 808 00d4 5203     		lsls	r2, r2, #13
 809 00d6 9342     		cmp	r3, r2
 810 00d8 01D0     		beq	.L87
 439:Drivers/STM32L0xx_HAL_Driver/Src/stm32l0xx_hal_rcc_ex.c ****               break;
 811              		.loc 1 439 25 is_stmt 0 view .LVU217
 812 00da 7848     		ldr	r0, .L103+12
 813 00dc C1E7     		b	.L35
 814              	.L87:
 434:Drivers/STM32L0xx_HAL_Driver/Src/stm32l0xx_hal_rcc_ex.c ****               break;
 815              		.loc 1 434 25 view .LVU218
 816 00de 7948     		ldr	r0, .L103+20
 817 00e0 BFE7     		b	.L35
 818              	.LVL52:
 819              	.L69:
 482:Drivers/STM32L0xx_HAL_Driver/Src/stm32l0xx_hal_rcc_ex.c ****           }
 820              		.loc 1 482 20 view .LVU219
 821 00e2 794B     		ldr	r3, .L103+24
 822              	.L49:
 823              	.LVL53:
 485:Drivers/STM32L0xx_HAL_Driver/Src/stm32l0xx_hal_rcc_ex.c ****           frequency = (pllvco/ plldiv);
 824              		.loc 1 485 11 is_stmt 1 view .LVU220
 485:Drivers/STM32L0xx_HAL_Driver/Src/stm32l0xx_hal_rcc_ex.c ****           frequency = (pllvco/ plldiv);
 825              		.loc 1 485 18 is_stmt 0 view .LVU221
 826 00e4 5843     		muls	r0, r3
 827              	.LVL54:
 486:Drivers/STM32L0xx_HAL_Driver/Src/stm32l0xx_hal_rcc_ex.c ****         }
 828              		.loc 1 486 11 is_stmt 1 view .LVU222
 486:Drivers/STM32L0xx_HAL_Driver/Src/stm32l0xx_hal_rcc_ex.c ****         }
 829              		.loc 1 486 21 is_stmt 0 view .LVU223
 830 00e6 FFF7FEFF 		bl	__aeabi_uidiv
 831              	.LVL55:
 486:Drivers/STM32L0xx_HAL_Driver/Src/stm32l0xx_hal_rcc_ex.c ****         }
 832              		.loc 1 486 21 view .LVU224
 833 00ea BAE7     		b	.L35
 834              	.LVL56:
 835              	.L70:
 477:Drivers/STM32L0xx_HAL_Driver/Src/stm32l0xx_hal_rcc_ex.c ****             }
 836              		.loc 1 477 22 view .LVU225
 837 00ec 774B     		ldr	r3, .L103+28
 838 00ee F9E7     		b	.L49
 839              	.LVL57:
 840              	.L48:
 489:Drivers/STM32L0xx_HAL_Driver/Src/stm32l0xx_hal_rcc_ex.c ****       {
 841              		.loc 1 489 12 is_stmt 1 view .LVU226
 491:Drivers/STM32L0xx_HAL_Driver/Src/stm32l0xx_hal_rcc_ex.c ****         {
 842              		.loc 1 491 9 view .LVU227
 491:Drivers/STM32L0xx_HAL_Driver/Src/stm32l0xx_hal_rcc_ex.c ****         {
 843              		.loc 1 491 13 is_stmt 0 view .LVU228
 844 00f0 704B     		ldr	r3, .L103+4
ARM GAS  /tmp/cci8nmgB.s 			page 30


 845 00f2 9B68     		ldr	r3, [r3, #8]
 846 00f4 0222     		movs	r2, #2
 847 00f6 1000     		movs	r0, r2
 848              	.LVL58:
 491:Drivers/STM32L0xx_HAL_Driver/Src/stm32l0xx_hal_rcc_ex.c ****         {
 849              		.loc 1 491 13 view .LVU229
 850 00f8 1840     		ands	r0, r3
 491:Drivers/STM32L0xx_HAL_Driver/Src/stm32l0xx_hal_rcc_ex.c ****         {
 851              		.loc 1 491 12 view .LVU230
 852 00fa 1A42     		tst	r2, r3
 853 00fc B1D0     		beq	.L35
 493:Drivers/STM32L0xx_HAL_Driver/Src/stm32l0xx_hal_rcc_ex.c ****         }
 854              		.loc 1 493 21 view .LVU231
 855 00fe 7448     		ldr	r0, .L103+32
 856 0100 AFE7     		b	.L35
 857              	.L44:
 507:Drivers/STM32L0xx_HAL_Driver/Src/stm32l0xx_hal_rcc_ex.c **** 
 858              		.loc 1 507 7 is_stmt 1 view .LVU232
 507:Drivers/STM32L0xx_HAL_Driver/Src/stm32l0xx_hal_rcc_ex.c **** 
 859              		.loc 1 507 16 is_stmt 0 view .LVU233
 860 0102 6C4B     		ldr	r3, .L103+4
 861 0104 DB6C     		ldr	r3, [r3, #76]
 507:Drivers/STM32L0xx_HAL_Driver/Src/stm32l0xx_hal_rcc_ex.c **** 
 862              		.loc 1 507 14 view .LVU234
 863 0106 0322     		movs	r2, #3
 864 0108 1100     		movs	r1, r2
 865 010a 1940     		ands	r1, r3
 866              	.LVL59:
 510:Drivers/STM32L0xx_HAL_Driver/Src/stm32l0xx_hal_rcc_ex.c ****       {
 867              		.loc 1 510 7 is_stmt 1 view .LVU235
 510:Drivers/STM32L0xx_HAL_Driver/Src/stm32l0xx_hal_rcc_ex.c ****       {
 868              		.loc 1 510 10 is_stmt 0 view .LVU236
 869 010c 1A42     		tst	r2, r3
 870 010e 07D0     		beq	.L88
 515:Drivers/STM32L0xx_HAL_Driver/Src/stm32l0xx_hal_rcc_ex.c ****       {
 871              		.loc 1 515 12 is_stmt 1 view .LVU237
 515:Drivers/STM32L0xx_HAL_Driver/Src/stm32l0xx_hal_rcc_ex.c ****       {
 872              		.loc 1 515 15 is_stmt 0 view .LVU238
 873 0110 0229     		cmp	r1, #2
 874 0112 08D0     		beq	.L89
 530:Drivers/STM32L0xx_HAL_Driver/Src/stm32l0xx_hal_rcc_ex.c ****       {
 875              		.loc 1 530 12 is_stmt 1 view .LVU239
 530:Drivers/STM32L0xx_HAL_Driver/Src/stm32l0xx_hal_rcc_ex.c ****       {
 876              		.loc 1 530 15 is_stmt 0 view .LVU240
 877 0114 0129     		cmp	r1, #1
 878 0116 14D0     		beq	.L90
 535:Drivers/STM32L0xx_HAL_Driver/Src/stm32l0xx_hal_rcc_ex.c ****       {
 879              		.loc 1 535 12 is_stmt 1 view .LVU241
 535:Drivers/STM32L0xx_HAL_Driver/Src/stm32l0xx_hal_rcc_ex.c ****       {
 880              		.loc 1 535 15 is_stmt 0 view .LVU242
 881 0118 0329     		cmp	r1, #3
 882 011a 15D0     		beq	.L91
 545:Drivers/STM32L0xx_HAL_Driver/Src/stm32l0xx_hal_rcc_ex.c ****       }
 883              		.loc 1 545 19 view .LVU243
 884 011c 0020     		movs	r0, #0
 885 011e A0E7     		b	.L35
 886              	.L88:
ARM GAS  /tmp/cci8nmgB.s 			page 31


 512:Drivers/STM32L0xx_HAL_Driver/Src/stm32l0xx_hal_rcc_ex.c ****       }
 887              		.loc 1 512 9 is_stmt 1 view .LVU244
 512:Drivers/STM32L0xx_HAL_Driver/Src/stm32l0xx_hal_rcc_ex.c ****       }
 888              		.loc 1 512 21 is_stmt 0 view .LVU245
 889 0120 FFF7FEFF 		bl	HAL_RCC_GetPCLK2Freq
 890              	.LVL60:
 512:Drivers/STM32L0xx_HAL_Driver/Src/stm32l0xx_hal_rcc_ex.c ****       }
 891              		.loc 1 512 21 view .LVU246
 892 0124 9DE7     		b	.L35
 893              	.LVL61:
 894              	.L89:
 517:Drivers/STM32L0xx_HAL_Driver/Src/stm32l0xx_hal_rcc_ex.c ****         {
 895              		.loc 1 517 9 is_stmt 1 view .LVU247
 517:Drivers/STM32L0xx_HAL_Driver/Src/stm32l0xx_hal_rcc_ex.c ****         {
 896              		.loc 1 517 13 is_stmt 0 view .LVU248
 897 0126 634B     		ldr	r3, .L103+4
 898 0128 1B68     		ldr	r3, [r3]
 899 012a 0422     		movs	r2, #4
 900 012c 1000     		movs	r0, r2
 901 012e 1840     		ands	r0, r3
 517:Drivers/STM32L0xx_HAL_Driver/Src/stm32l0xx_hal_rcc_ex.c ****         {
 902              		.loc 1 517 12 view .LVU249
 903 0130 1A42     		tst	r2, r3
 904 0132 96D0     		beq	.L35
 519:Drivers/STM32L0xx_HAL_Driver/Src/stm32l0xx_hal_rcc_ex.c ****           {
 905              		.loc 1 519 11 is_stmt 1 view .LVU250
 519:Drivers/STM32L0xx_HAL_Driver/Src/stm32l0xx_hal_rcc_ex.c ****           {
 906              		.loc 1 519 15 is_stmt 0 view .LVU251
 907 0134 5F4B     		ldr	r3, .L103+4
 908 0136 1B68     		ldr	r3, [r3]
 519:Drivers/STM32L0xx_HAL_Driver/Src/stm32l0xx_hal_rcc_ex.c ****           {
 909              		.loc 1 519 14 view .LVU252
 910 0138 DB06     		lsls	r3, r3, #27
 911 013a 00D4     		bmi	.LCB819
 912 013c B0E0     		b	.L72	@long jump
 913              	.LCB819:
 521:Drivers/STM32L0xx_HAL_Driver/Src/stm32l0xx_hal_rcc_ex.c ****           }
 914              		.loc 1 521 23 view .LVU253
 915 013e 5F48     		ldr	r0, .L103+12
 916 0140 8FE7     		b	.L35
 917              	.L90:
 532:Drivers/STM32L0xx_HAL_Driver/Src/stm32l0xx_hal_rcc_ex.c ****       }
 918              		.loc 1 532 9 is_stmt 1 view .LVU254
 532:Drivers/STM32L0xx_HAL_Driver/Src/stm32l0xx_hal_rcc_ex.c ****       }
 919              		.loc 1 532 21 is_stmt 0 view .LVU255
 920 0142 FFF7FEFF 		bl	HAL_RCC_GetSysClockFreq
 921              	.LVL62:
 532:Drivers/STM32L0xx_HAL_Driver/Src/stm32l0xx_hal_rcc_ex.c ****       }
 922              		.loc 1 532 21 view .LVU256
 923 0146 8CE7     		b	.L35
 924              	.LVL63:
 925              	.L91:
 537:Drivers/STM32L0xx_HAL_Driver/Src/stm32l0xx_hal_rcc_ex.c ****         {
 926              		.loc 1 537 9 is_stmt 1 view .LVU257
 537:Drivers/STM32L0xx_HAL_Driver/Src/stm32l0xx_hal_rcc_ex.c ****         {
 927              		.loc 1 537 13 is_stmt 0 view .LVU258
 928 0148 5A4B     		ldr	r3, .L103+4
ARM GAS  /tmp/cci8nmgB.s 			page 32


 929 014a 1A6D     		ldr	r2, [r3, #80]
 930 014c 8023     		movs	r3, #128
 931 014e 9B00     		lsls	r3, r3, #2
 932 0150 1000     		movs	r0, r2
 933 0152 1840     		ands	r0, r3
 537:Drivers/STM32L0xx_HAL_Driver/Src/stm32l0xx_hal_rcc_ex.c ****         {
 934              		.loc 1 537 12 view .LVU259
 935 0154 1A42     		tst	r2, r3
 936 0156 00D1     		bne	.LCB843
 937 0158 83E7     		b	.L35	@long jump
 938              	.LCB843:
 539:Drivers/STM32L0xx_HAL_Driver/Src/stm32l0xx_hal_rcc_ex.c ****         }
 939              		.loc 1 539 21 view .LVU260
 940 015a 8020     		movs	r0, #128
 941 015c 0002     		lsls	r0, r0, #8
 942 015e 80E7     		b	.L35
 943              	.LVL64:
 944              	.L43:
 553:Drivers/STM32L0xx_HAL_Driver/Src/stm32l0xx_hal_rcc_ex.c **** 
 945              		.loc 1 553 7 is_stmt 1 view .LVU261
 553:Drivers/STM32L0xx_HAL_Driver/Src/stm32l0xx_hal_rcc_ex.c **** 
 946              		.loc 1 553 16 is_stmt 0 view .LVU262
 947 0160 544B     		ldr	r3, .L103+4
 948 0162 DB6C     		ldr	r3, [r3, #76]
 553:Drivers/STM32L0xx_HAL_Driver/Src/stm32l0xx_hal_rcc_ex.c **** 
 949              		.loc 1 553 14 view .LVU263
 950 0164 0C22     		movs	r2, #12
 951 0166 1100     		movs	r1, r2
 952 0168 1940     		ands	r1, r3
 953              	.LVL65:
 556:Drivers/STM32L0xx_HAL_Driver/Src/stm32l0xx_hal_rcc_ex.c ****       {
 954              		.loc 1 556 7 is_stmt 1 view .LVU264
 556:Drivers/STM32L0xx_HAL_Driver/Src/stm32l0xx_hal_rcc_ex.c ****       {
 955              		.loc 1 556 10 is_stmt 0 view .LVU265
 956 016a 1A42     		tst	r2, r3
 957 016c 07D0     		beq	.L92
 561:Drivers/STM32L0xx_HAL_Driver/Src/stm32l0xx_hal_rcc_ex.c ****       {
 958              		.loc 1 561 12 is_stmt 1 view .LVU266
 561:Drivers/STM32L0xx_HAL_Driver/Src/stm32l0xx_hal_rcc_ex.c ****       {
 959              		.loc 1 561 15 is_stmt 0 view .LVU267
 960 016e 0829     		cmp	r1, #8
 961 0170 08D0     		beq	.L93
 576:Drivers/STM32L0xx_HAL_Driver/Src/stm32l0xx_hal_rcc_ex.c ****       {
 962              		.loc 1 576 12 is_stmt 1 view .LVU268
 576:Drivers/STM32L0xx_HAL_Driver/Src/stm32l0xx_hal_rcc_ex.c ****       {
 963              		.loc 1 576 15 is_stmt 0 view .LVU269
 964 0172 0429     		cmp	r1, #4
 965 0174 15D0     		beq	.L94
 581:Drivers/STM32L0xx_HAL_Driver/Src/stm32l0xx_hal_rcc_ex.c ****       {
 966              		.loc 1 581 12 is_stmt 1 view .LVU270
 581:Drivers/STM32L0xx_HAL_Driver/Src/stm32l0xx_hal_rcc_ex.c ****       {
 967              		.loc 1 581 15 is_stmt 0 view .LVU271
 968 0176 0C29     		cmp	r1, #12
 969 0178 16D0     		beq	.L95
 591:Drivers/STM32L0xx_HAL_Driver/Src/stm32l0xx_hal_rcc_ex.c ****       }
 970              		.loc 1 591 19 view .LVU272
 971 017a 0020     		movs	r0, #0
ARM GAS  /tmp/cci8nmgB.s 			page 33


 972 017c 71E7     		b	.L35
 973              	.L92:
 558:Drivers/STM32L0xx_HAL_Driver/Src/stm32l0xx_hal_rcc_ex.c ****       }
 974              		.loc 1 558 9 is_stmt 1 view .LVU273
 558:Drivers/STM32L0xx_HAL_Driver/Src/stm32l0xx_hal_rcc_ex.c ****       }
 975              		.loc 1 558 21 is_stmt 0 view .LVU274
 976 017e FFF7FEFF 		bl	HAL_RCC_GetPCLK1Freq
 977              	.LVL66:
 558:Drivers/STM32L0xx_HAL_Driver/Src/stm32l0xx_hal_rcc_ex.c ****       }
 978              		.loc 1 558 21 view .LVU275
 979 0182 6EE7     		b	.L35
 980              	.LVL67:
 981              	.L93:
 563:Drivers/STM32L0xx_HAL_Driver/Src/stm32l0xx_hal_rcc_ex.c ****         {
 982              		.loc 1 563 9 is_stmt 1 view .LVU276
 563:Drivers/STM32L0xx_HAL_Driver/Src/stm32l0xx_hal_rcc_ex.c ****         {
 983              		.loc 1 563 13 is_stmt 0 view .LVU277
 984 0184 4B4B     		ldr	r3, .L103+4
 985 0186 1B68     		ldr	r3, [r3]
 986 0188 0422     		movs	r2, #4
 987 018a 1000     		movs	r0, r2
 988 018c 1840     		ands	r0, r3
 563:Drivers/STM32L0xx_HAL_Driver/Src/stm32l0xx_hal_rcc_ex.c ****         {
 989              		.loc 1 563 12 view .LVU278
 990 018e 1A42     		tst	r2, r3
 991 0190 00D1     		bne	.LCB892
 992 0192 66E7     		b	.L35	@long jump
 993              	.LCB892:
 565:Drivers/STM32L0xx_HAL_Driver/Src/stm32l0xx_hal_rcc_ex.c ****           {
 994              		.loc 1 565 11 is_stmt 1 view .LVU279
 565:Drivers/STM32L0xx_HAL_Driver/Src/stm32l0xx_hal_rcc_ex.c ****           {
 995              		.loc 1 565 15 is_stmt 0 view .LVU280
 996 0194 474B     		ldr	r3, .L103+4
 997 0196 1B68     		ldr	r3, [r3]
 565:Drivers/STM32L0xx_HAL_Driver/Src/stm32l0xx_hal_rcc_ex.c ****           {
 998              		.loc 1 565 14 view .LVU281
 999 0198 DB06     		lsls	r3, r3, #27
 1000 019a 00D4     		bmi	.LCB899
 1001 019c 82E0     		b	.L75	@long jump
 1002              	.LCB899:
 567:Drivers/STM32L0xx_HAL_Driver/Src/stm32l0xx_hal_rcc_ex.c ****           }
 1003              		.loc 1 567 23 view .LVU282
 1004 019e 4748     		ldr	r0, .L103+12
 1005 01a0 5FE7     		b	.L35
 1006              	.L94:
 578:Drivers/STM32L0xx_HAL_Driver/Src/stm32l0xx_hal_rcc_ex.c ****       }
 1007              		.loc 1 578 9 is_stmt 1 view .LVU283
 578:Drivers/STM32L0xx_HAL_Driver/Src/stm32l0xx_hal_rcc_ex.c ****       }
 1008              		.loc 1 578 21 is_stmt 0 view .LVU284
 1009 01a2 FFF7FEFF 		bl	HAL_RCC_GetSysClockFreq
 1010              	.LVL68:
 578:Drivers/STM32L0xx_HAL_Driver/Src/stm32l0xx_hal_rcc_ex.c ****       }
 1011              		.loc 1 578 21 view .LVU285
 1012 01a6 5CE7     		b	.L35
 1013              	.LVL69:
 1014              	.L95:
 583:Drivers/STM32L0xx_HAL_Driver/Src/stm32l0xx_hal_rcc_ex.c ****         {
ARM GAS  /tmp/cci8nmgB.s 			page 34


 1015              		.loc 1 583 9 is_stmt 1 view .LVU286
 583:Drivers/STM32L0xx_HAL_Driver/Src/stm32l0xx_hal_rcc_ex.c ****         {
 1016              		.loc 1 583 13 is_stmt 0 view .LVU287
 1017 01a8 424B     		ldr	r3, .L103+4
 1018 01aa 1A6D     		ldr	r2, [r3, #80]
 1019 01ac 8023     		movs	r3, #128
 1020 01ae 9B00     		lsls	r3, r3, #2
 1021 01b0 1000     		movs	r0, r2
 1022 01b2 1840     		ands	r0, r3
 583:Drivers/STM32L0xx_HAL_Driver/Src/stm32l0xx_hal_rcc_ex.c ****         {
 1023              		.loc 1 583 12 view .LVU288
 1024 01b4 1A42     		tst	r2, r3
 1025 01b6 00D1     		bne	.LCB923
 1026 01b8 53E7     		b	.L35	@long jump
 1027              	.LCB923:
 585:Drivers/STM32L0xx_HAL_Driver/Src/stm32l0xx_hal_rcc_ex.c ****         }
 1028              		.loc 1 585 21 view .LVU289
 1029 01ba 8020     		movs	r0, #128
 1030 01bc 0002     		lsls	r0, r0, #8
 1031 01be 50E7     		b	.L35
 1032              	.LVL70:
 1033              	.L42:
 598:Drivers/STM32L0xx_HAL_Driver/Src/stm32l0xx_hal_rcc_ex.c **** 
 1034              		.loc 1 598 7 is_stmt 1 view .LVU290
 598:Drivers/STM32L0xx_HAL_Driver/Src/stm32l0xx_hal_rcc_ex.c **** 
 1035              		.loc 1 598 16 is_stmt 0 view .LVU291
 1036 01c0 3C4B     		ldr	r3, .L103+4
 1037 01c2 DA6C     		ldr	r2, [r3, #76]
 598:Drivers/STM32L0xx_HAL_Driver/Src/stm32l0xx_hal_rcc_ex.c **** 
 1038              		.loc 1 598 14 view .LVU292
 1039 01c4 C023     		movs	r3, #192
 1040 01c6 1B01     		lsls	r3, r3, #4
 1041 01c8 1100     		movs	r1, r2
 1042 01ca 1940     		ands	r1, r3
 1043              	.LVL71:
 601:Drivers/STM32L0xx_HAL_Driver/Src/stm32l0xx_hal_rcc_ex.c ****       {
 1044              		.loc 1 601 7 is_stmt 1 view .LVU293
 601:Drivers/STM32L0xx_HAL_Driver/Src/stm32l0xx_hal_rcc_ex.c ****       {
 1045              		.loc 1 601 10 is_stmt 0 view .LVU294
 1046 01cc 1A42     		tst	r2, r3
 1047 01ce 0DD0     		beq	.L96
 606:Drivers/STM32L0xx_HAL_Driver/Src/stm32l0xx_hal_rcc_ex.c ****       {
 1048              		.loc 1 606 12 is_stmt 1 view .LVU295
 606:Drivers/STM32L0xx_HAL_Driver/Src/stm32l0xx_hal_rcc_ex.c ****       {
 1049              		.loc 1 606 15 is_stmt 0 view .LVU296
 1050 01d0 8023     		movs	r3, #128
 1051 01d2 1B01     		lsls	r3, r3, #4
 1052 01d4 9942     		cmp	r1, r3
 1053 01d6 0CD0     		beq	.L97
 621:Drivers/STM32L0xx_HAL_Driver/Src/stm32l0xx_hal_rcc_ex.c ****       {
 1054              		.loc 1 621 12 is_stmt 1 view .LVU297
 621:Drivers/STM32L0xx_HAL_Driver/Src/stm32l0xx_hal_rcc_ex.c ****       {
 1055              		.loc 1 621 15 is_stmt 0 view .LVU298
 1056 01d8 8023     		movs	r3, #128
 1057 01da DB00     		lsls	r3, r3, #3
 1058 01dc 9942     		cmp	r1, r3
 1059 01de 16D0     		beq	.L98
ARM GAS  /tmp/cci8nmgB.s 			page 35


 626:Drivers/STM32L0xx_HAL_Driver/Src/stm32l0xx_hal_rcc_ex.c ****       {
 1060              		.loc 1 626 12 is_stmt 1 view .LVU299
 626:Drivers/STM32L0xx_HAL_Driver/Src/stm32l0xx_hal_rcc_ex.c ****       {
 1061              		.loc 1 626 15 is_stmt 0 view .LVU300
 1062 01e0 C023     		movs	r3, #192
 1063 01e2 1B01     		lsls	r3, r3, #4
 1064 01e4 9942     		cmp	r1, r3
 1065 01e6 15D0     		beq	.L99
 636:Drivers/STM32L0xx_HAL_Driver/Src/stm32l0xx_hal_rcc_ex.c ****       }
 1066              		.loc 1 636 19 view .LVU301
 1067 01e8 0020     		movs	r0, #0
 1068 01ea 3AE7     		b	.L35
 1069              	.L96:
 603:Drivers/STM32L0xx_HAL_Driver/Src/stm32l0xx_hal_rcc_ex.c ****       }
 1070              		.loc 1 603 9 is_stmt 1 view .LVU302
 603:Drivers/STM32L0xx_HAL_Driver/Src/stm32l0xx_hal_rcc_ex.c ****       }
 1071              		.loc 1 603 21 is_stmt 0 view .LVU303
 1072 01ec FFF7FEFF 		bl	HAL_RCC_GetPCLK1Freq
 1073              	.LVL72:
 603:Drivers/STM32L0xx_HAL_Driver/Src/stm32l0xx_hal_rcc_ex.c ****       }
 1074              		.loc 1 603 21 view .LVU304
 1075 01f0 37E7     		b	.L35
 1076              	.LVL73:
 1077              	.L97:
 608:Drivers/STM32L0xx_HAL_Driver/Src/stm32l0xx_hal_rcc_ex.c ****         {
 1078              		.loc 1 608 9 is_stmt 1 view .LVU305
 608:Drivers/STM32L0xx_HAL_Driver/Src/stm32l0xx_hal_rcc_ex.c ****         {
 1079              		.loc 1 608 13 is_stmt 0 view .LVU306
 1080 01f2 304B     		ldr	r3, .L103+4
 1081 01f4 1B68     		ldr	r3, [r3]
 1082 01f6 0422     		movs	r2, #4
 1083 01f8 1000     		movs	r0, r2
 1084 01fa 1840     		ands	r0, r3
 608:Drivers/STM32L0xx_HAL_Driver/Src/stm32l0xx_hal_rcc_ex.c ****         {
 1085              		.loc 1 608 12 view .LVU307
 1086 01fc 1A42     		tst	r2, r3
 1087 01fe 00D1     		bne	.LCB979
 1088 0200 2FE7     		b	.L35	@long jump
 1089              	.LCB979:
 610:Drivers/STM32L0xx_HAL_Driver/Src/stm32l0xx_hal_rcc_ex.c ****           {
 1090              		.loc 1 610 11 is_stmt 1 view .LVU308
 610:Drivers/STM32L0xx_HAL_Driver/Src/stm32l0xx_hal_rcc_ex.c ****           {
 1091              		.loc 1 610 15 is_stmt 0 view .LVU309
 1092 0202 2C4B     		ldr	r3, .L103+4
 1093 0204 1B68     		ldr	r3, [r3]
 610:Drivers/STM32L0xx_HAL_Driver/Src/stm32l0xx_hal_rcc_ex.c ****           {
 1094              		.loc 1 610 14 view .LVU310
 1095 0206 DB06     		lsls	r3, r3, #27
 1096 0208 4ED5     		bpl	.L78
 612:Drivers/STM32L0xx_HAL_Driver/Src/stm32l0xx_hal_rcc_ex.c ****           }
 1097              		.loc 1 612 23 view .LVU311
 1098 020a 2C48     		ldr	r0, .L103+12
 1099 020c 29E7     		b	.L35
 1100              	.L98:
 623:Drivers/STM32L0xx_HAL_Driver/Src/stm32l0xx_hal_rcc_ex.c ****       }
 1101              		.loc 1 623 9 is_stmt 1 view .LVU312
 623:Drivers/STM32L0xx_HAL_Driver/Src/stm32l0xx_hal_rcc_ex.c ****       }
ARM GAS  /tmp/cci8nmgB.s 			page 36


 1102              		.loc 1 623 21 is_stmt 0 view .LVU313
 1103 020e FFF7FEFF 		bl	HAL_RCC_GetSysClockFreq
 1104              	.LVL74:
 623:Drivers/STM32L0xx_HAL_Driver/Src/stm32l0xx_hal_rcc_ex.c ****       }
 1105              		.loc 1 623 21 view .LVU314
 1106 0212 26E7     		b	.L35
 1107              	.LVL75:
 1108              	.L99:
 628:Drivers/STM32L0xx_HAL_Driver/Src/stm32l0xx_hal_rcc_ex.c ****         {
 1109              		.loc 1 628 9 is_stmt 1 view .LVU315
 628:Drivers/STM32L0xx_HAL_Driver/Src/stm32l0xx_hal_rcc_ex.c ****         {
 1110              		.loc 1 628 13 is_stmt 0 view .LVU316
 1111 0214 274B     		ldr	r3, .L103+4
 1112 0216 1A6D     		ldr	r2, [r3, #80]
 1113 0218 8023     		movs	r3, #128
 1114 021a 9B00     		lsls	r3, r3, #2
 1115 021c 1000     		movs	r0, r2
 1116 021e 1840     		ands	r0, r3
 628:Drivers/STM32L0xx_HAL_Driver/Src/stm32l0xx_hal_rcc_ex.c ****         {
 1117              		.loc 1 628 12 view .LVU317
 1118 0220 1A42     		tst	r2, r3
 1119 0222 00D1     		bne	.LCB1010
 1120 0224 1DE7     		b	.L35	@long jump
 1121              	.LCB1010:
 630:Drivers/STM32L0xx_HAL_Driver/Src/stm32l0xx_hal_rcc_ex.c ****         }
 1122              		.loc 1 630 21 view .LVU318
 1123 0226 8020     		movs	r0, #128
 1124 0228 0002     		lsls	r0, r0, #8
 1125 022a 1AE7     		b	.L35
 1126              	.LVL76:
 1127              	.L41:
 643:Drivers/STM32L0xx_HAL_Driver/Src/stm32l0xx_hal_rcc_ex.c **** 
 1128              		.loc 1 643 7 is_stmt 1 view .LVU319
 643:Drivers/STM32L0xx_HAL_Driver/Src/stm32l0xx_hal_rcc_ex.c **** 
 1129              		.loc 1 643 16 is_stmt 0 view .LVU320
 1130 022c 214B     		ldr	r3, .L103+4
 1131 022e DA6C     		ldr	r2, [r3, #76]
 643:Drivers/STM32L0xx_HAL_Driver/Src/stm32l0xx_hal_rcc_ex.c **** 
 1132              		.loc 1 643 14 view .LVU321
 1133 0230 C023     		movs	r3, #192
 1134 0232 9B01     		lsls	r3, r3, #6
 1135 0234 1100     		movs	r1, r2
 1136 0236 1940     		ands	r1, r3
 1137              	.LVL77:
 646:Drivers/STM32L0xx_HAL_Driver/Src/stm32l0xx_hal_rcc_ex.c ****       {
 1138              		.loc 1 646 7 is_stmt 1 view .LVU322
 646:Drivers/STM32L0xx_HAL_Driver/Src/stm32l0xx_hal_rcc_ex.c ****       {
 1139              		.loc 1 646 10 is_stmt 0 view .LVU323
 1140 0238 1A42     		tst	r2, r3
 1141 023a 09D0     		beq	.L100
 651:Drivers/STM32L0xx_HAL_Driver/Src/stm32l0xx_hal_rcc_ex.c ****       {
 1142              		.loc 1 651 12 is_stmt 1 view .LVU324
 651:Drivers/STM32L0xx_HAL_Driver/Src/stm32l0xx_hal_rcc_ex.c ****       {
 1143              		.loc 1 651 15 is_stmt 0 view .LVU325
 1144 023c 8023     		movs	r3, #128
 1145 023e 9B01     		lsls	r3, r3, #6
 1146 0240 9942     		cmp	r1, r3
ARM GAS  /tmp/cci8nmgB.s 			page 37


 1147 0242 08D0     		beq	.L101
 666:Drivers/STM32L0xx_HAL_Driver/Src/stm32l0xx_hal_rcc_ex.c ****       {
 1148              		.loc 1 666 12 is_stmt 1 view .LVU326
 666:Drivers/STM32L0xx_HAL_Driver/Src/stm32l0xx_hal_rcc_ex.c ****       {
 1149              		.loc 1 666 15 is_stmt 0 view .LVU327
 1150 0244 8023     		movs	r3, #128
 1151 0246 5B01     		lsls	r3, r3, #5
 1152 0248 9942     		cmp	r1, r3
 1153 024a 12D0     		beq	.L102
 673:Drivers/STM32L0xx_HAL_Driver/Src/stm32l0xx_hal_rcc_ex.c ****       }
 1154              		.loc 1 673 19 view .LVU328
 1155 024c 0020     		movs	r0, #0
 738:Drivers/STM32L0xx_HAL_Driver/Src/stm32l0xx_hal_rcc_ex.c **** }
 1156              		.loc 1 738 3 is_stmt 1 view .LVU329
 738:Drivers/STM32L0xx_HAL_Driver/Src/stm32l0xx_hal_rcc_ex.c **** }
 1157              		.loc 1 738 9 is_stmt 0 view .LVU330
 1158 024e 08E7     		b	.L35
 1159              	.L100:
 648:Drivers/STM32L0xx_HAL_Driver/Src/stm32l0xx_hal_rcc_ex.c ****       }
 1160              		.loc 1 648 9 is_stmt 1 view .LVU331
 648:Drivers/STM32L0xx_HAL_Driver/Src/stm32l0xx_hal_rcc_ex.c ****       }
 1161              		.loc 1 648 21 is_stmt 0 view .LVU332
 1162 0250 FFF7FEFF 		bl	HAL_RCC_GetPCLK1Freq
 1163              	.LVL78:
 648:Drivers/STM32L0xx_HAL_Driver/Src/stm32l0xx_hal_rcc_ex.c ****       }
 1164              		.loc 1 648 21 view .LVU333
 1165 0254 05E7     		b	.L35
 1166              	.LVL79:
 1167              	.L101:
 653:Drivers/STM32L0xx_HAL_Driver/Src/stm32l0xx_hal_rcc_ex.c ****         {
 1168              		.loc 1 653 9 is_stmt 1 view .LVU334
 653:Drivers/STM32L0xx_HAL_Driver/Src/stm32l0xx_hal_rcc_ex.c ****         {
 1169              		.loc 1 653 13 is_stmt 0 view .LVU335
 1170 0256 174B     		ldr	r3, .L103+4
 1171 0258 1B68     		ldr	r3, [r3]
 1172 025a 0422     		movs	r2, #4
 1173 025c 1000     		movs	r0, r2
 1174 025e 1840     		ands	r0, r3
 653:Drivers/STM32L0xx_HAL_Driver/Src/stm32l0xx_hal_rcc_ex.c ****         {
 1175              		.loc 1 653 12 view .LVU336
 1176 0260 1A42     		tst	r2, r3
 1177 0262 00D1     		bne	.LCB1063
 1178 0264 FDE6     		b	.L35	@long jump
 1179              	.LCB1063:
 655:Drivers/STM32L0xx_HAL_Driver/Src/stm32l0xx_hal_rcc_ex.c ****           {
 1180              		.loc 1 655 11 is_stmt 1 view .LVU337
 655:Drivers/STM32L0xx_HAL_Driver/Src/stm32l0xx_hal_rcc_ex.c ****           {
 1181              		.loc 1 655 15 is_stmt 0 view .LVU338
 1182 0266 134B     		ldr	r3, .L103+4
 1183 0268 1B68     		ldr	r3, [r3]
 655:Drivers/STM32L0xx_HAL_Driver/Src/stm32l0xx_hal_rcc_ex.c ****           {
 1184              		.loc 1 655 14 view .LVU339
 1185 026a DB06     		lsls	r3, r3, #27
 1186 026c 1ED5     		bpl	.L81
 657:Drivers/STM32L0xx_HAL_Driver/Src/stm32l0xx_hal_rcc_ex.c ****           }
 1187              		.loc 1 657 23 view .LVU340
 1188 026e 1348     		ldr	r0, .L103+12
ARM GAS  /tmp/cci8nmgB.s 			page 38


 1189 0270 F7E6     		b	.L35
 1190              	.L102:
 668:Drivers/STM32L0xx_HAL_Driver/Src/stm32l0xx_hal_rcc_ex.c ****       }
 1191              		.loc 1 668 9 is_stmt 1 view .LVU341
 668:Drivers/STM32L0xx_HAL_Driver/Src/stm32l0xx_hal_rcc_ex.c ****       }
 1192              		.loc 1 668 21 is_stmt 0 view .LVU342
 1193 0272 FFF7FEFF 		bl	HAL_RCC_GetSysClockFreq
 1194              	.LVL80:
 668:Drivers/STM32L0xx_HAL_Driver/Src/stm32l0xx_hal_rcc_ex.c ****       }
 1195              		.loc 1 668 21 view .LVU343
 1196 0276 F4E6     		b	.L35
 1197              	.LVL81:
 1198              	.L40:
 682:Drivers/STM32L0xx_HAL_Driver/Src/stm32l0xx_hal_rcc_ex.c ****       {
 1199              		.loc 1 682 7 is_stmt 1 view .LVU344
 682:Drivers/STM32L0xx_HAL_Driver/Src/stm32l0xx_hal_rcc_ex.c ****       {
 1200              		.loc 1 682 11 is_stmt 0 view .LVU345
 1201 0278 0E4B     		ldr	r3, .L103+4
 1202 027a 9A6B     		ldr	r2, [r3, #56]
 1203 027c 8023     		movs	r3, #128
 1204 027e DB03     		lsls	r3, r3, #15
 1205 0280 1000     		movs	r0, r2
 1206 0282 1840     		ands	r0, r3
 682:Drivers/STM32L0xx_HAL_Driver/Src/stm32l0xx_hal_rcc_ex.c ****       {
 1207              		.loc 1 682 10 view .LVU346
 1208 0284 1A42     		tst	r2, r3
 1209 0286 00D1     		bne	.LCB1094
 1210 0288 EBE6     		b	.L35	@long jump
 1211              	.LCB1094:
 684:Drivers/STM32L0xx_HAL_Driver/Src/stm32l0xx_hal_rcc_ex.c ****       }
 1212              		.loc 1 684 9 is_stmt 1 view .LVU347
 684:Drivers/STM32L0xx_HAL_Driver/Src/stm32l0xx_hal_rcc_ex.c ****       }
 1213              		.loc 1 684 21 is_stmt 0 view .LVU348
 1214 028a FFF7FEFF 		bl	HAL_RCC_GetPCLK1Freq
 1215              	.LVL82:
 684:Drivers/STM32L0xx_HAL_Driver/Src/stm32l0xx_hal_rcc_ex.c ****       }
 1216              		.loc 1 684 21 view .LVU349
 1217 028e E8E6     		b	.L35
 1218              	.LVL83:
 1219              	.L61:
 386:Drivers/STM32L0xx_HAL_Driver/Src/stm32l0xx_hal_rcc_ex.c ****   {
 1220              		.loc 1 386 3 view .LVU350
 1221 0290 0020     		movs	r0, #0
 1222              	.LVL84:
 386:Drivers/STM32L0xx_HAL_Driver/Src/stm32l0xx_hal_rcc_ex.c ****   {
 1223              		.loc 1 386 3 view .LVU351
 1224 0292 E6E6     		b	.L35
 1225              	.L62:
 1226 0294 0020     		movs	r0, #0
 1227 0296 E4E6     		b	.L35
 1228              	.LVL85:
 1229              	.L66:
 429:Drivers/STM32L0xx_HAL_Driver/Src/stm32l0xx_hal_rcc_ex.c ****               break;
 1230              		.loc 1 429 25 view .LVU352
 1231 0298 0E48     		ldr	r0, .L103+36
 1232 029a E2E6     		b	.L35
 1233              	.L67:
ARM GAS  /tmp/cci8nmgB.s 			page 39


 1234 029c 0E48     		ldr	r0, .L103+40
 1235 029e E0E6     		b	.L35
 1236              	.LVL86:
 1237              	.L72:
 525:Drivers/STM32L0xx_HAL_Driver/Src/stm32l0xx_hal_rcc_ex.c ****           }
 1238              		.loc 1 525 23 view .LVU353
 1239 02a0 0A48     		ldr	r0, .L103+28
 1240 02a2 DEE6     		b	.L35
 1241              	.L75:
 571:Drivers/STM32L0xx_HAL_Driver/Src/stm32l0xx_hal_rcc_ex.c ****           }
 1242              		.loc 1 571 23 view .LVU354
 1243 02a4 0948     		ldr	r0, .L103+28
 1244 02a6 DCE6     		b	.L35
 1245              	.L78:
 616:Drivers/STM32L0xx_HAL_Driver/Src/stm32l0xx_hal_rcc_ex.c ****           }
 1246              		.loc 1 616 23 view .LVU355
 1247 02a8 0848     		ldr	r0, .L103+28
 1248 02aa DAE6     		b	.L35
 1249              	.L81:
 661:Drivers/STM32L0xx_HAL_Driver/Src/stm32l0xx_hal_rcc_ex.c ****           }
 1250              		.loc 1 661 23 view .LVU356
 1251 02ac 0748     		ldr	r0, .L103+28
 1252 02ae D8E6     		b	.L35
 1253              	.L104:
 1254              		.align	2
 1255              	.L103:
 1256 02b0 00000000 		.word	.L39
 1257 02b4 00100240 		.word	1073876992
 1258 02b8 00000000 		.word	PLLMulTable
 1259 02bc 00093D00 		.word	4000000
 1260 02c0 88900000 		.word	37000
 1261 02c4 80841E00 		.word	2000000
 1262 02c8 00127A00 		.word	8000000
 1263 02cc 0024F400 		.word	16000000
 1264 02d0 006CDC02 		.word	48000000
 1265 02d4 40420F00 		.word	1000000
 1266 02d8 20A10700 		.word	500000
 1267              		.cfi_endproc
 1268              	.LFE36:
 1270              		.section	.text.HAL_RCCEx_EnableLSECSS,"ax",%progbits
 1271              		.align	1
 1272              		.global	HAL_RCCEx_EnableLSECSS
 1273              		.syntax unified
 1274              		.code	16
 1275              		.thumb_func
 1276              		.fpu softvfp
 1278              	HAL_RCCEx_EnableLSECSS:
 1279              	.LFB37:
 740:Drivers/STM32L0xx_HAL_Driver/Src/stm32l0xx_hal_rcc_ex.c **** 
 741:Drivers/STM32L0xx_HAL_Driver/Src/stm32l0xx_hal_rcc_ex.c **** /**
 742:Drivers/STM32L0xx_HAL_Driver/Src/stm32l0xx_hal_rcc_ex.c ****   * @brief  Enables the LSE Clock Security System.
 743:Drivers/STM32L0xx_HAL_Driver/Src/stm32l0xx_hal_rcc_ex.c ****   * @retval None
 744:Drivers/STM32L0xx_HAL_Driver/Src/stm32l0xx_hal_rcc_ex.c ****   */
 745:Drivers/STM32L0xx_HAL_Driver/Src/stm32l0xx_hal_rcc_ex.c **** void HAL_RCCEx_EnableLSECSS(void)
 746:Drivers/STM32L0xx_HAL_Driver/Src/stm32l0xx_hal_rcc_ex.c **** {
 1280              		.loc 1 746 1 is_stmt 1 view -0
 1281              		.cfi_startproc
ARM GAS  /tmp/cci8nmgB.s 			page 40


 1282              		@ args = 0, pretend = 0, frame = 0
 1283              		@ frame_needed = 0, uses_anonymous_args = 0
 1284              		@ link register save eliminated.
 747:Drivers/STM32L0xx_HAL_Driver/Src/stm32l0xx_hal_rcc_ex.c ****   SET_BIT(RCC->CSR, RCC_CSR_LSECSSON) ;
 1285              		.loc 1 747 3 view .LVU358
 1286 0000 034A     		ldr	r2, .L106
 1287 0002 116D     		ldr	r1, [r2, #80]
 1288 0004 8023     		movs	r3, #128
 1289 0006 9B01     		lsls	r3, r3, #6
 1290 0008 0B43     		orrs	r3, r1
 1291 000a 1365     		str	r3, [r2, #80]
 748:Drivers/STM32L0xx_HAL_Driver/Src/stm32l0xx_hal_rcc_ex.c **** }
 1292              		.loc 1 748 1 is_stmt 0 view .LVU359
 1293              		@ sp needed
 1294 000c 7047     		bx	lr
 1295              	.L107:
 1296 000e C046     		.align	2
 1297              	.L106:
 1298 0010 00100240 		.word	1073876992
 1299              		.cfi_endproc
 1300              	.LFE37:
 1302              		.section	.text.HAL_RCCEx_DisableLSECSS,"ax",%progbits
 1303              		.align	1
 1304              		.global	HAL_RCCEx_DisableLSECSS
 1305              		.syntax unified
 1306              		.code	16
 1307              		.thumb_func
 1308              		.fpu softvfp
 1310              	HAL_RCCEx_DisableLSECSS:
 1311              	.LFB38:
 749:Drivers/STM32L0xx_HAL_Driver/Src/stm32l0xx_hal_rcc_ex.c **** 
 750:Drivers/STM32L0xx_HAL_Driver/Src/stm32l0xx_hal_rcc_ex.c **** /**
 751:Drivers/STM32L0xx_HAL_Driver/Src/stm32l0xx_hal_rcc_ex.c ****   * @brief  Disables the LSE Clock Security System.
 752:Drivers/STM32L0xx_HAL_Driver/Src/stm32l0xx_hal_rcc_ex.c ****   * @note   Once enabled this bit cannot be disabled, except after an LSE failure detection
 753:Drivers/STM32L0xx_HAL_Driver/Src/stm32l0xx_hal_rcc_ex.c ****   *         (LSECSSD=1). In that case the software MUST disable the LSECSSON bit.
 754:Drivers/STM32L0xx_HAL_Driver/Src/stm32l0xx_hal_rcc_ex.c ****   *         Reset by power on reset and RTC software reset (RTCRST bit).
 755:Drivers/STM32L0xx_HAL_Driver/Src/stm32l0xx_hal_rcc_ex.c ****   * @retval None
 756:Drivers/STM32L0xx_HAL_Driver/Src/stm32l0xx_hal_rcc_ex.c ****   */
 757:Drivers/STM32L0xx_HAL_Driver/Src/stm32l0xx_hal_rcc_ex.c **** void HAL_RCCEx_DisableLSECSS(void)
 758:Drivers/STM32L0xx_HAL_Driver/Src/stm32l0xx_hal_rcc_ex.c **** {
 1312              		.loc 1 758 1 is_stmt 1 view -0
 1313              		.cfi_startproc
 1314              		@ args = 0, pretend = 0, frame = 0
 1315              		@ frame_needed = 0, uses_anonymous_args = 0
 1316              		@ link register save eliminated.
 759:Drivers/STM32L0xx_HAL_Driver/Src/stm32l0xx_hal_rcc_ex.c ****   /* Disable LSE CSS */
 760:Drivers/STM32L0xx_HAL_Driver/Src/stm32l0xx_hal_rcc_ex.c ****    CLEAR_BIT(RCC->CSR, RCC_CSR_LSECSSON) ;
 1317              		.loc 1 760 4 view .LVU361
 1318 0000 044B     		ldr	r3, .L109
 1319 0002 1A6D     		ldr	r2, [r3, #80]
 1320 0004 0449     		ldr	r1, .L109+4
 1321 0006 0A40     		ands	r2, r1
 1322 0008 1A65     		str	r2, [r3, #80]
 761:Drivers/STM32L0xx_HAL_Driver/Src/stm32l0xx_hal_rcc_ex.c **** 
 762:Drivers/STM32L0xx_HAL_Driver/Src/stm32l0xx_hal_rcc_ex.c ****   /* Disable LSE CSS IT */
 763:Drivers/STM32L0xx_HAL_Driver/Src/stm32l0xx_hal_rcc_ex.c ****   __HAL_RCC_DISABLE_IT(RCC_IT_LSECSS);
 1323              		.loc 1 763 3 view .LVU362
ARM GAS  /tmp/cci8nmgB.s 			page 41


 1324 000a 1A69     		ldr	r2, [r3, #16]
 1325 000c 8021     		movs	r1, #128
 1326 000e 8A43     		bics	r2, r1
 1327 0010 1A61     		str	r2, [r3, #16]
 764:Drivers/STM32L0xx_HAL_Driver/Src/stm32l0xx_hal_rcc_ex.c **** }
 1328              		.loc 1 764 1 is_stmt 0 view .LVU363
 1329              		@ sp needed
 1330 0012 7047     		bx	lr
 1331              	.L110:
 1332              		.align	2
 1333              	.L109:
 1334 0014 00100240 		.word	1073876992
 1335 0018 FFDFFFFF 		.word	-8193
 1336              		.cfi_endproc
 1337              	.LFE38:
 1339              		.section	.text.HAL_RCCEx_EnableLSECSS_IT,"ax",%progbits
 1340              		.align	1
 1341              		.global	HAL_RCCEx_EnableLSECSS_IT
 1342              		.syntax unified
 1343              		.code	16
 1344              		.thumb_func
 1345              		.fpu softvfp
 1347              	HAL_RCCEx_EnableLSECSS_IT:
 1348              	.LFB39:
 765:Drivers/STM32L0xx_HAL_Driver/Src/stm32l0xx_hal_rcc_ex.c **** 
 766:Drivers/STM32L0xx_HAL_Driver/Src/stm32l0xx_hal_rcc_ex.c **** /**
 767:Drivers/STM32L0xx_HAL_Driver/Src/stm32l0xx_hal_rcc_ex.c ****   * @brief  Enable the LSE Clock Security System IT & corresponding EXTI line.
 768:Drivers/STM32L0xx_HAL_Driver/Src/stm32l0xx_hal_rcc_ex.c ****   * @note   LSE Clock Security System IT is mapped on RTC EXTI line 19
 769:Drivers/STM32L0xx_HAL_Driver/Src/stm32l0xx_hal_rcc_ex.c ****   * @retval None
 770:Drivers/STM32L0xx_HAL_Driver/Src/stm32l0xx_hal_rcc_ex.c ****   */
 771:Drivers/STM32L0xx_HAL_Driver/Src/stm32l0xx_hal_rcc_ex.c **** void HAL_RCCEx_EnableLSECSS_IT(void)
 772:Drivers/STM32L0xx_HAL_Driver/Src/stm32l0xx_hal_rcc_ex.c **** {
 1349              		.loc 1 772 1 is_stmt 1 view -0
 1350              		.cfi_startproc
 1351              		@ args = 0, pretend = 0, frame = 0
 1352              		@ frame_needed = 0, uses_anonymous_args = 0
 1353              		@ link register save eliminated.
 773:Drivers/STM32L0xx_HAL_Driver/Src/stm32l0xx_hal_rcc_ex.c ****   /* Enable LSE CSS */
 774:Drivers/STM32L0xx_HAL_Driver/Src/stm32l0xx_hal_rcc_ex.c ****    SET_BIT(RCC->CSR, RCC_CSR_LSECSSON) ;
 1354              		.loc 1 774 4 view .LVU365
 1355 0000 094B     		ldr	r3, .L112
 1356 0002 196D     		ldr	r1, [r3, #80]
 1357 0004 8022     		movs	r2, #128
 1358 0006 9201     		lsls	r2, r2, #6
 1359 0008 0A43     		orrs	r2, r1
 1360 000a 1A65     		str	r2, [r3, #80]
 775:Drivers/STM32L0xx_HAL_Driver/Src/stm32l0xx_hal_rcc_ex.c **** 
 776:Drivers/STM32L0xx_HAL_Driver/Src/stm32l0xx_hal_rcc_ex.c ****   /* Enable LSE CSS IT */
 777:Drivers/STM32L0xx_HAL_Driver/Src/stm32l0xx_hal_rcc_ex.c ****   __HAL_RCC_ENABLE_IT(RCC_IT_LSECSS);
 1361              		.loc 1 777 3 view .LVU366
 1362 000c 1A69     		ldr	r2, [r3, #16]
 1363 000e 8021     		movs	r1, #128
 1364 0010 0A43     		orrs	r2, r1
 1365 0012 1A61     		str	r2, [r3, #16]
 778:Drivers/STM32L0xx_HAL_Driver/Src/stm32l0xx_hal_rcc_ex.c **** 
 779:Drivers/STM32L0xx_HAL_Driver/Src/stm32l0xx_hal_rcc_ex.c ****   /* Enable IT on EXTI Line 19 */
 780:Drivers/STM32L0xx_HAL_Driver/Src/stm32l0xx_hal_rcc_ex.c ****   __HAL_RCC_LSECSS_EXTI_ENABLE_IT();
ARM GAS  /tmp/cci8nmgB.s 			page 42


 1366              		.loc 1 780 3 view .LVU367
 1367 0014 054B     		ldr	r3, .L112+4
 1368 0016 1968     		ldr	r1, [r3]
 1369 0018 8022     		movs	r2, #128
 1370 001a 1203     		lsls	r2, r2, #12
 1371 001c 1143     		orrs	r1, r2
 1372 001e 1960     		str	r1, [r3]
 781:Drivers/STM32L0xx_HAL_Driver/Src/stm32l0xx_hal_rcc_ex.c ****   __HAL_RCC_LSECSS_EXTI_ENABLE_RISING_EDGE();
 1373              		.loc 1 781 3 view .LVU368
 1374 0020 9968     		ldr	r1, [r3, #8]
 1375 0022 0A43     		orrs	r2, r1
 1376 0024 9A60     		str	r2, [r3, #8]
 782:Drivers/STM32L0xx_HAL_Driver/Src/stm32l0xx_hal_rcc_ex.c **** }
 1377              		.loc 1 782 1 is_stmt 0 view .LVU369
 1378              		@ sp needed
 1379 0026 7047     		bx	lr
 1380              	.L113:
 1381              		.align	2
 1382              	.L112:
 1383 0028 00100240 		.word	1073876992
 1384 002c 00040140 		.word	1073808384
 1385              		.cfi_endproc
 1386              	.LFE39:
 1388              		.section	.text.HAL_RCCEx_LSECSS_Callback,"ax",%progbits
 1389              		.align	1
 1390              		.weak	HAL_RCCEx_LSECSS_Callback
 1391              		.syntax unified
 1392              		.code	16
 1393              		.thumb_func
 1394              		.fpu softvfp
 1396              	HAL_RCCEx_LSECSS_Callback:
 1397              	.LFB41:
 783:Drivers/STM32L0xx_HAL_Driver/Src/stm32l0xx_hal_rcc_ex.c **** 
 784:Drivers/STM32L0xx_HAL_Driver/Src/stm32l0xx_hal_rcc_ex.c **** /**
 785:Drivers/STM32L0xx_HAL_Driver/Src/stm32l0xx_hal_rcc_ex.c ****   * @brief Handle the RCC LSE Clock Security System interrupt request.
 786:Drivers/STM32L0xx_HAL_Driver/Src/stm32l0xx_hal_rcc_ex.c ****   * @retval None
 787:Drivers/STM32L0xx_HAL_Driver/Src/stm32l0xx_hal_rcc_ex.c ****   */
 788:Drivers/STM32L0xx_HAL_Driver/Src/stm32l0xx_hal_rcc_ex.c **** void HAL_RCCEx_LSECSS_IRQHandler(void)
 789:Drivers/STM32L0xx_HAL_Driver/Src/stm32l0xx_hal_rcc_ex.c **** {
 790:Drivers/STM32L0xx_HAL_Driver/Src/stm32l0xx_hal_rcc_ex.c ****   /* Check RCC LSE CSSF flag  */
 791:Drivers/STM32L0xx_HAL_Driver/Src/stm32l0xx_hal_rcc_ex.c ****   if(__HAL_RCC_GET_IT(RCC_IT_LSECSS))
 792:Drivers/STM32L0xx_HAL_Driver/Src/stm32l0xx_hal_rcc_ex.c ****   {
 793:Drivers/STM32L0xx_HAL_Driver/Src/stm32l0xx_hal_rcc_ex.c ****     /* RCC LSE Clock Security System interrupt user callback */
 794:Drivers/STM32L0xx_HAL_Driver/Src/stm32l0xx_hal_rcc_ex.c ****     HAL_RCCEx_LSECSS_Callback();
 795:Drivers/STM32L0xx_HAL_Driver/Src/stm32l0xx_hal_rcc_ex.c **** 
 796:Drivers/STM32L0xx_HAL_Driver/Src/stm32l0xx_hal_rcc_ex.c ****     /* Clear RCC LSE CSS pending bit */
 797:Drivers/STM32L0xx_HAL_Driver/Src/stm32l0xx_hal_rcc_ex.c ****     __HAL_RCC_CLEAR_IT(RCC_IT_LSECSS);
 798:Drivers/STM32L0xx_HAL_Driver/Src/stm32l0xx_hal_rcc_ex.c ****   }
 799:Drivers/STM32L0xx_HAL_Driver/Src/stm32l0xx_hal_rcc_ex.c **** }
 800:Drivers/STM32L0xx_HAL_Driver/Src/stm32l0xx_hal_rcc_ex.c **** 
 801:Drivers/STM32L0xx_HAL_Driver/Src/stm32l0xx_hal_rcc_ex.c **** /**
 802:Drivers/STM32L0xx_HAL_Driver/Src/stm32l0xx_hal_rcc_ex.c ****   * @brief  RCCEx LSE Clock Security System interrupt callback.
 803:Drivers/STM32L0xx_HAL_Driver/Src/stm32l0xx_hal_rcc_ex.c ****   * @retval none
 804:Drivers/STM32L0xx_HAL_Driver/Src/stm32l0xx_hal_rcc_ex.c ****   */
 805:Drivers/STM32L0xx_HAL_Driver/Src/stm32l0xx_hal_rcc_ex.c **** __weak void HAL_RCCEx_LSECSS_Callback(void)
 806:Drivers/STM32L0xx_HAL_Driver/Src/stm32l0xx_hal_rcc_ex.c **** {
 1398              		.loc 1 806 1 is_stmt 1 view -0
ARM GAS  /tmp/cci8nmgB.s 			page 43


 1399              		.cfi_startproc
 1400              		@ args = 0, pretend = 0, frame = 0
 1401              		@ frame_needed = 0, uses_anonymous_args = 0
 1402              		@ link register save eliminated.
 807:Drivers/STM32L0xx_HAL_Driver/Src/stm32l0xx_hal_rcc_ex.c ****   /* NOTE : This function should not be modified, when the callback is needed,
 808:Drivers/STM32L0xx_HAL_Driver/Src/stm32l0xx_hal_rcc_ex.c ****             the @ref HAL_RCCEx_LSECSS_Callback should be implemented in the user file
 809:Drivers/STM32L0xx_HAL_Driver/Src/stm32l0xx_hal_rcc_ex.c ****    */
 810:Drivers/STM32L0xx_HAL_Driver/Src/stm32l0xx_hal_rcc_ex.c **** }
 1403              		.loc 1 810 1 view .LVU371
 1404              		@ sp needed
 1405 0000 7047     		bx	lr
 1406              		.cfi_endproc
 1407              	.LFE41:
 1409              		.section	.text.HAL_RCCEx_LSECSS_IRQHandler,"ax",%progbits
 1410              		.align	1
 1411              		.global	HAL_RCCEx_LSECSS_IRQHandler
 1412              		.syntax unified
 1413              		.code	16
 1414              		.thumb_func
 1415              		.fpu softvfp
 1417              	HAL_RCCEx_LSECSS_IRQHandler:
 1418              	.LFB40:
 789:Drivers/STM32L0xx_HAL_Driver/Src/stm32l0xx_hal_rcc_ex.c ****   /* Check RCC LSE CSSF flag  */
 1419              		.loc 1 789 1 view -0
 1420              		.cfi_startproc
 1421              		@ args = 0, pretend = 0, frame = 0
 1422              		@ frame_needed = 0, uses_anonymous_args = 0
 1423 0000 10B5     		push	{r4, lr}
 1424              	.LCFI2:
 1425              		.cfi_def_cfa_offset 8
 1426              		.cfi_offset 4, -8
 1427              		.cfi_offset 14, -4
 791:Drivers/STM32L0xx_HAL_Driver/Src/stm32l0xx_hal_rcc_ex.c ****   {
 1428              		.loc 1 791 3 view .LVU373
 791:Drivers/STM32L0xx_HAL_Driver/Src/stm32l0xx_hal_rcc_ex.c ****   {
 1429              		.loc 1 791 6 is_stmt 0 view .LVU374
 1430 0002 054B     		ldr	r3, .L118
 1431 0004 5B69     		ldr	r3, [r3, #20]
 791:Drivers/STM32L0xx_HAL_Driver/Src/stm32l0xx_hal_rcc_ex.c ****   {
 1432              		.loc 1 791 5 view .LVU375
 1433 0006 1B06     		lsls	r3, r3, #24
 1434 0008 00D4     		bmi	.L117
 1435              	.L115:
 799:Drivers/STM32L0xx_HAL_Driver/Src/stm32l0xx_hal_rcc_ex.c **** 
 1436              		.loc 1 799 1 view .LVU376
 1437              		@ sp needed
 1438 000a 10BD     		pop	{r4, pc}
 1439              	.L117:
 794:Drivers/STM32L0xx_HAL_Driver/Src/stm32l0xx_hal_rcc_ex.c **** 
 1440              		.loc 1 794 5 is_stmt 1 view .LVU377
 1441 000c FFF7FEFF 		bl	HAL_RCCEx_LSECSS_Callback
 1442              	.LVL87:
 797:Drivers/STM32L0xx_HAL_Driver/Src/stm32l0xx_hal_rcc_ex.c ****   }
 1443              		.loc 1 797 5 view .LVU378
 1444 0010 014B     		ldr	r3, .L118
 1445 0012 8022     		movs	r2, #128
 1446 0014 9A61     		str	r2, [r3, #24]
ARM GAS  /tmp/cci8nmgB.s 			page 44


 799:Drivers/STM32L0xx_HAL_Driver/Src/stm32l0xx_hal_rcc_ex.c **** 
 1447              		.loc 1 799 1 is_stmt 0 view .LVU379
 1448 0016 F8E7     		b	.L115
 1449              	.L119:
 1450              		.align	2
 1451              	.L118:
 1452 0018 00100240 		.word	1073876992
 1453              		.cfi_endproc
 1454              	.LFE40:
 1456              		.section	.text.HAL_RCCEx_EnableHSI48_VREFINT,"ax",%progbits
 1457              		.align	1
 1458              		.global	HAL_RCCEx_EnableHSI48_VREFINT
 1459              		.syntax unified
 1460              		.code	16
 1461              		.thumb_func
 1462              		.fpu softvfp
 1464              	HAL_RCCEx_EnableHSI48_VREFINT:
 1465              	.LFB42:
 811:Drivers/STM32L0xx_HAL_Driver/Src/stm32l0xx_hal_rcc_ex.c **** 
 812:Drivers/STM32L0xx_HAL_Driver/Src/stm32l0xx_hal_rcc_ex.c **** #if defined(SYSCFG_CFGR3_ENREF_HSI48)
 813:Drivers/STM32L0xx_HAL_Driver/Src/stm32l0xx_hal_rcc_ex.c **** /**
 814:Drivers/STM32L0xx_HAL_Driver/Src/stm32l0xx_hal_rcc_ex.c ****   * @brief Enables Vrefint for the HSI48.
 815:Drivers/STM32L0xx_HAL_Driver/Src/stm32l0xx_hal_rcc_ex.c ****   * @note  This is functional only if the LOCK is not set
 816:Drivers/STM32L0xx_HAL_Driver/Src/stm32l0xx_hal_rcc_ex.c ****   * @retval None
 817:Drivers/STM32L0xx_HAL_Driver/Src/stm32l0xx_hal_rcc_ex.c ****   */
 818:Drivers/STM32L0xx_HAL_Driver/Src/stm32l0xx_hal_rcc_ex.c **** void HAL_RCCEx_EnableHSI48_VREFINT(void)
 819:Drivers/STM32L0xx_HAL_Driver/Src/stm32l0xx_hal_rcc_ex.c **** {
 1466              		.loc 1 819 1 is_stmt 1 view -0
 1467              		.cfi_startproc
 1468              		@ args = 0, pretend = 0, frame = 0
 1469              		@ frame_needed = 0, uses_anonymous_args = 0
 1470              		@ link register save eliminated.
 820:Drivers/STM32L0xx_HAL_Driver/Src/stm32l0xx_hal_rcc_ex.c ****   /* Enable the Buffer for the ADC by setting SYSCFG_CFGR3_ENREF_HSI48 bit in SYSCFG_CFGR3 register
 821:Drivers/STM32L0xx_HAL_Driver/Src/stm32l0xx_hal_rcc_ex.c ****   SET_BIT (SYSCFG->CFGR3, SYSCFG_CFGR3_ENREF_HSI48);
 1471              		.loc 1 821 3 view .LVU381
 1472 0000 034A     		ldr	r2, .L121
 1473 0002 116A     		ldr	r1, [r2, #32]
 1474 0004 8023     		movs	r3, #128
 1475 0006 9B01     		lsls	r3, r3, #6
 1476 0008 0B43     		orrs	r3, r1
 1477 000a 1362     		str	r3, [r2, #32]
 822:Drivers/STM32L0xx_HAL_Driver/Src/stm32l0xx_hal_rcc_ex.c **** }
 1478              		.loc 1 822 1 is_stmt 0 view .LVU382
 1479              		@ sp needed
 1480 000c 7047     		bx	lr
 1481              	.L122:
 1482 000e C046     		.align	2
 1483              	.L121:
 1484 0010 00000140 		.word	1073807360
 1485              		.cfi_endproc
 1486              	.LFE42:
 1488              		.section	.text.HAL_RCCEx_DisableHSI48_VREFINT,"ax",%progbits
 1489              		.align	1
 1490              		.global	HAL_RCCEx_DisableHSI48_VREFINT
 1491              		.syntax unified
 1492              		.code	16
 1493              		.thumb_func
ARM GAS  /tmp/cci8nmgB.s 			page 45


 1494              		.fpu softvfp
 1496              	HAL_RCCEx_DisableHSI48_VREFINT:
 1497              	.LFB43:
 823:Drivers/STM32L0xx_HAL_Driver/Src/stm32l0xx_hal_rcc_ex.c **** 
 824:Drivers/STM32L0xx_HAL_Driver/Src/stm32l0xx_hal_rcc_ex.c **** /**
 825:Drivers/STM32L0xx_HAL_Driver/Src/stm32l0xx_hal_rcc_ex.c ****   * @brief Disables the Vrefint for the HSI48.
 826:Drivers/STM32L0xx_HAL_Driver/Src/stm32l0xx_hal_rcc_ex.c ****   * @note  This is functional only if the LOCK is not set
 827:Drivers/STM32L0xx_HAL_Driver/Src/stm32l0xx_hal_rcc_ex.c ****   * @retval None
 828:Drivers/STM32L0xx_HAL_Driver/Src/stm32l0xx_hal_rcc_ex.c ****   */
 829:Drivers/STM32L0xx_HAL_Driver/Src/stm32l0xx_hal_rcc_ex.c **** void HAL_RCCEx_DisableHSI48_VREFINT(void)
 830:Drivers/STM32L0xx_HAL_Driver/Src/stm32l0xx_hal_rcc_ex.c **** {
 1498              		.loc 1 830 1 is_stmt 1 view -0
 1499              		.cfi_startproc
 1500              		@ args = 0, pretend = 0, frame = 0
 1501              		@ frame_needed = 0, uses_anonymous_args = 0
 1502              		@ link register save eliminated.
 831:Drivers/STM32L0xx_HAL_Driver/Src/stm32l0xx_hal_rcc_ex.c ****   /* Disable the Vrefint by resetting SYSCFG_CFGR3_ENREF_HSI48 bit in SYSCFG_CFGR3 register */
 832:Drivers/STM32L0xx_HAL_Driver/Src/stm32l0xx_hal_rcc_ex.c ****   CLEAR_BIT(SYSCFG->CFGR3, SYSCFG_CFGR3_ENREF_HSI48);
 1503              		.loc 1 832 3 view .LVU384
 1504 0000 024A     		ldr	r2, .L124
 1505 0002 136A     		ldr	r3, [r2, #32]
 1506 0004 0249     		ldr	r1, .L124+4
 1507 0006 0B40     		ands	r3, r1
 1508 0008 1362     		str	r3, [r2, #32]
 833:Drivers/STM32L0xx_HAL_Driver/Src/stm32l0xx_hal_rcc_ex.c **** }
 1509              		.loc 1 833 1 is_stmt 0 view .LVU385
 1510              		@ sp needed
 1511 000a 7047     		bx	lr
 1512              	.L125:
 1513              		.align	2
 1514              	.L124:
 1515 000c 00000140 		.word	1073807360
 1516 0010 FFDFFFFF 		.word	-8193
 1517              		.cfi_endproc
 1518              	.LFE43:
 1520              		.section	.text.HAL_RCCEx_CRSConfig,"ax",%progbits
 1521              		.align	1
 1522              		.global	HAL_RCCEx_CRSConfig
 1523              		.syntax unified
 1524              		.code	16
 1525              		.thumb_func
 1526              		.fpu softvfp
 1528              	HAL_RCCEx_CRSConfig:
 1529              	.LVL88:
 1530              	.LFB44:
 834:Drivers/STM32L0xx_HAL_Driver/Src/stm32l0xx_hal_rcc_ex.c **** 
 835:Drivers/STM32L0xx_HAL_Driver/Src/stm32l0xx_hal_rcc_ex.c **** #endif /* SYSCFG_CFGR3_ENREF_HSI48 */
 836:Drivers/STM32L0xx_HAL_Driver/Src/stm32l0xx_hal_rcc_ex.c **** 
 837:Drivers/STM32L0xx_HAL_Driver/Src/stm32l0xx_hal_rcc_ex.c **** /**
 838:Drivers/STM32L0xx_HAL_Driver/Src/stm32l0xx_hal_rcc_ex.c ****   * @}
 839:Drivers/STM32L0xx_HAL_Driver/Src/stm32l0xx_hal_rcc_ex.c ****   */
 840:Drivers/STM32L0xx_HAL_Driver/Src/stm32l0xx_hal_rcc_ex.c **** 
 841:Drivers/STM32L0xx_HAL_Driver/Src/stm32l0xx_hal_rcc_ex.c **** #if defined (CRS)
 842:Drivers/STM32L0xx_HAL_Driver/Src/stm32l0xx_hal_rcc_ex.c **** 
 843:Drivers/STM32L0xx_HAL_Driver/Src/stm32l0xx_hal_rcc_ex.c **** /** @defgroup RCCEx_Exported_Functions_Group3 Extended Clock Recovery System Control functions
 844:Drivers/STM32L0xx_HAL_Driver/Src/stm32l0xx_hal_rcc_ex.c ****  *  @brief  Extended Clock Recovery System Control functions
 845:Drivers/STM32L0xx_HAL_Driver/Src/stm32l0xx_hal_rcc_ex.c ****  *
ARM GAS  /tmp/cci8nmgB.s 			page 46


 846:Drivers/STM32L0xx_HAL_Driver/Src/stm32l0xx_hal_rcc_ex.c **** @verbatim
 847:Drivers/STM32L0xx_HAL_Driver/Src/stm32l0xx_hal_rcc_ex.c ****  ===============================================================================
 848:Drivers/STM32L0xx_HAL_Driver/Src/stm32l0xx_hal_rcc_ex.c ****                 ##### Extended Clock Recovery System Control functions  #####
 849:Drivers/STM32L0xx_HAL_Driver/Src/stm32l0xx_hal_rcc_ex.c ****  ===============================================================================
 850:Drivers/STM32L0xx_HAL_Driver/Src/stm32l0xx_hal_rcc_ex.c ****     [..]
 851:Drivers/STM32L0xx_HAL_Driver/Src/stm32l0xx_hal_rcc_ex.c ****       For devices with Clock Recovery System feature (CRS), RCC Extention HAL driver can be used as
 852:Drivers/STM32L0xx_HAL_Driver/Src/stm32l0xx_hal_rcc_ex.c **** 
 853:Drivers/STM32L0xx_HAL_Driver/Src/stm32l0xx_hal_rcc_ex.c ****       (#) In System clock config, HSI48 needs to be enabled
 854:Drivers/STM32L0xx_HAL_Driver/Src/stm32l0xx_hal_rcc_ex.c **** 
 855:Drivers/STM32L0xx_HAL_Driver/Src/stm32l0xx_hal_rcc_ex.c ****       (#) Enable CRS clock in IP MSP init which will use CRS functions
 856:Drivers/STM32L0xx_HAL_Driver/Src/stm32l0xx_hal_rcc_ex.c **** 
 857:Drivers/STM32L0xx_HAL_Driver/Src/stm32l0xx_hal_rcc_ex.c ****       (#) Call CRS functions as follows:
 858:Drivers/STM32L0xx_HAL_Driver/Src/stm32l0xx_hal_rcc_ex.c ****           (##) Prepare synchronization configuration necessary for HSI48 calibration
 859:Drivers/STM32L0xx_HAL_Driver/Src/stm32l0xx_hal_rcc_ex.c ****               (+++) Default values can be set for frequency Error Measurement (reload and error lim
 860:Drivers/STM32L0xx_HAL_Driver/Src/stm32l0xx_hal_rcc_ex.c ****                         and also HSI48 oscillator smooth trimming.
 861:Drivers/STM32L0xx_HAL_Driver/Src/stm32l0xx_hal_rcc_ex.c ****               (+++) Macro @ref __HAL_RCC_CRS_RELOADVALUE_CALCULATE can be also used to calculate
 862:Drivers/STM32L0xx_HAL_Driver/Src/stm32l0xx_hal_rcc_ex.c ****                         directly reload value with target and synchronization frequencies values
 863:Drivers/STM32L0xx_HAL_Driver/Src/stm32l0xx_hal_rcc_ex.c ****           (##) Call function @ref HAL_RCCEx_CRSConfig which
 864:Drivers/STM32L0xx_HAL_Driver/Src/stm32l0xx_hal_rcc_ex.c ****               (+++) Reset CRS registers to their default values.
 865:Drivers/STM32L0xx_HAL_Driver/Src/stm32l0xx_hal_rcc_ex.c ****               (+++) Configure CRS registers with synchronization configuration
 866:Drivers/STM32L0xx_HAL_Driver/Src/stm32l0xx_hal_rcc_ex.c ****               (+++) Enable automatic calibration and frequency error counter feature
 867:Drivers/STM32L0xx_HAL_Driver/Src/stm32l0xx_hal_rcc_ex.c ****            Note: When using USB LPM (Link Power Management) and the device is in Sleep mode, the
 868:Drivers/STM32L0xx_HAL_Driver/Src/stm32l0xx_hal_rcc_ex.c ****            periodic USB SOF will not be generated by the host. No SYNC signal will therefore be
 869:Drivers/STM32L0xx_HAL_Driver/Src/stm32l0xx_hal_rcc_ex.c ****            provided to the CRS to calibrate the HSI48 on the run. To guarantee the required clock
 870:Drivers/STM32L0xx_HAL_Driver/Src/stm32l0xx_hal_rcc_ex.c ****            precision after waking up from Sleep mode, the LSE or reference clock on the GPIOs
 871:Drivers/STM32L0xx_HAL_Driver/Src/stm32l0xx_hal_rcc_ex.c ****            should be used as SYNC signal.
 872:Drivers/STM32L0xx_HAL_Driver/Src/stm32l0xx_hal_rcc_ex.c **** 
 873:Drivers/STM32L0xx_HAL_Driver/Src/stm32l0xx_hal_rcc_ex.c ****           (##) A polling function is provided to wait for complete synchronization
 874:Drivers/STM32L0xx_HAL_Driver/Src/stm32l0xx_hal_rcc_ex.c ****               (+++) Call function @ref HAL_RCCEx_CRSWaitSynchronization()
 875:Drivers/STM32L0xx_HAL_Driver/Src/stm32l0xx_hal_rcc_ex.c ****               (+++) According to CRS status, user can decide to adjust again the calibration or con
 876:Drivers/STM32L0xx_HAL_Driver/Src/stm32l0xx_hal_rcc_ex.c ****                         application if synchronization is OK
 877:Drivers/STM32L0xx_HAL_Driver/Src/stm32l0xx_hal_rcc_ex.c **** 
 878:Drivers/STM32L0xx_HAL_Driver/Src/stm32l0xx_hal_rcc_ex.c ****       (#) User can retrieve information related to synchronization in calling function
 879:Drivers/STM32L0xx_HAL_Driver/Src/stm32l0xx_hal_rcc_ex.c ****             @ref HAL_RCCEx_CRSGetSynchronizationInfo()
 880:Drivers/STM32L0xx_HAL_Driver/Src/stm32l0xx_hal_rcc_ex.c **** 
 881:Drivers/STM32L0xx_HAL_Driver/Src/stm32l0xx_hal_rcc_ex.c ****       (#) Regarding synchronization status and synchronization information, user can try a new cali
 882:Drivers/STM32L0xx_HAL_Driver/Src/stm32l0xx_hal_rcc_ex.c ****            in changing synchronization configuration and call again HAL_RCCEx_CRSConfig.
 883:Drivers/STM32L0xx_HAL_Driver/Src/stm32l0xx_hal_rcc_ex.c ****            Note: When the SYNC event is detected during the downcounting phase (before reaching the
 884:Drivers/STM32L0xx_HAL_Driver/Src/stm32l0xx_hal_rcc_ex.c ****            it means that the actual frequency is lower than the target (and so, that the TRIM value
 885:Drivers/STM32L0xx_HAL_Driver/Src/stm32l0xx_hal_rcc_ex.c ****            incremented), while when it is detected during the upcounting phase it means that the ac
 886:Drivers/STM32L0xx_HAL_Driver/Src/stm32l0xx_hal_rcc_ex.c ****            is higher (and that the TRIM value should be decremented).
 887:Drivers/STM32L0xx_HAL_Driver/Src/stm32l0xx_hal_rcc_ex.c **** 
 888:Drivers/STM32L0xx_HAL_Driver/Src/stm32l0xx_hal_rcc_ex.c ****       (#) In interrupt mode, user can resort to the available macros (__HAL_RCC_CRS_XXX_IT). Interr
 889:Drivers/STM32L0xx_HAL_Driver/Src/stm32l0xx_hal_rcc_ex.c ****           through CRS Handler (RCC_IRQn/RCC_IRQHandler)
 890:Drivers/STM32L0xx_HAL_Driver/Src/stm32l0xx_hal_rcc_ex.c ****               (++) Call function @ref HAL_RCCEx_CRSConfig()
 891:Drivers/STM32L0xx_HAL_Driver/Src/stm32l0xx_hal_rcc_ex.c ****               (++) Enable RCC_IRQn (thanks to NVIC functions)
 892:Drivers/STM32L0xx_HAL_Driver/Src/stm32l0xx_hal_rcc_ex.c ****               (++) Enable CRS interrupt (@ref __HAL_RCC_CRS_ENABLE_IT)
 893:Drivers/STM32L0xx_HAL_Driver/Src/stm32l0xx_hal_rcc_ex.c ****               (++) Implement CRS status management in the following user callbacks called from
 894:Drivers/STM32L0xx_HAL_Driver/Src/stm32l0xx_hal_rcc_ex.c ****                    HAL_RCCEx_CRS_IRQHandler():
 895:Drivers/STM32L0xx_HAL_Driver/Src/stm32l0xx_hal_rcc_ex.c ****                    (+++) @ref HAL_RCCEx_CRS_SyncOkCallback()
 896:Drivers/STM32L0xx_HAL_Driver/Src/stm32l0xx_hal_rcc_ex.c ****                    (+++) @ref HAL_RCCEx_CRS_SyncWarnCallback()
 897:Drivers/STM32L0xx_HAL_Driver/Src/stm32l0xx_hal_rcc_ex.c ****                    (+++) @ref HAL_RCCEx_CRS_ExpectedSyncCallback()
 898:Drivers/STM32L0xx_HAL_Driver/Src/stm32l0xx_hal_rcc_ex.c ****                    (+++) @ref HAL_RCCEx_CRS_ErrorCallback()
 899:Drivers/STM32L0xx_HAL_Driver/Src/stm32l0xx_hal_rcc_ex.c **** 
 900:Drivers/STM32L0xx_HAL_Driver/Src/stm32l0xx_hal_rcc_ex.c ****       (#) To force a SYNC EVENT, user can use the function @ref HAL_RCCEx_CRSSoftwareSynchronizatio
 901:Drivers/STM32L0xx_HAL_Driver/Src/stm32l0xx_hal_rcc_ex.c ****           This function can be called before calling @ref HAL_RCCEx_CRSConfig (for instance in Syst
 902:Drivers/STM32L0xx_HAL_Driver/Src/stm32l0xx_hal_rcc_ex.c **** 
ARM GAS  /tmp/cci8nmgB.s 			page 47


 903:Drivers/STM32L0xx_HAL_Driver/Src/stm32l0xx_hal_rcc_ex.c **** @endverbatim
 904:Drivers/STM32L0xx_HAL_Driver/Src/stm32l0xx_hal_rcc_ex.c ****  * @{
 905:Drivers/STM32L0xx_HAL_Driver/Src/stm32l0xx_hal_rcc_ex.c ****  */
 906:Drivers/STM32L0xx_HAL_Driver/Src/stm32l0xx_hal_rcc_ex.c **** 
 907:Drivers/STM32L0xx_HAL_Driver/Src/stm32l0xx_hal_rcc_ex.c **** /**
 908:Drivers/STM32L0xx_HAL_Driver/Src/stm32l0xx_hal_rcc_ex.c ****   * @brief  Start automatic synchronization for polling mode
 909:Drivers/STM32L0xx_HAL_Driver/Src/stm32l0xx_hal_rcc_ex.c ****   * @param  pInit Pointer on RCC_CRSInitTypeDef structure
 910:Drivers/STM32L0xx_HAL_Driver/Src/stm32l0xx_hal_rcc_ex.c ****   * @retval None
 911:Drivers/STM32L0xx_HAL_Driver/Src/stm32l0xx_hal_rcc_ex.c ****   */
 912:Drivers/STM32L0xx_HAL_Driver/Src/stm32l0xx_hal_rcc_ex.c **** void HAL_RCCEx_CRSConfig(RCC_CRSInitTypeDef *pInit)
 913:Drivers/STM32L0xx_HAL_Driver/Src/stm32l0xx_hal_rcc_ex.c **** {
 1531              		.loc 1 913 1 is_stmt 1 view -0
 1532              		.cfi_startproc
 1533              		@ args = 0, pretend = 0, frame = 0
 1534              		@ frame_needed = 0, uses_anonymous_args = 0
 1535              		@ link register save eliminated.
 914:Drivers/STM32L0xx_HAL_Driver/Src/stm32l0xx_hal_rcc_ex.c ****   uint32_t value;
 1536              		.loc 1 914 3 view .LVU387
 915:Drivers/STM32L0xx_HAL_Driver/Src/stm32l0xx_hal_rcc_ex.c **** 
 916:Drivers/STM32L0xx_HAL_Driver/Src/stm32l0xx_hal_rcc_ex.c ****   /* Check the parameters */
 917:Drivers/STM32L0xx_HAL_Driver/Src/stm32l0xx_hal_rcc_ex.c ****   assert_param(IS_RCC_CRS_SYNC_DIV(pInit->Prescaler));
 1537              		.loc 1 917 3 view .LVU388
 918:Drivers/STM32L0xx_HAL_Driver/Src/stm32l0xx_hal_rcc_ex.c ****   assert_param(IS_RCC_CRS_SYNC_SOURCE(pInit->Source));
 1538              		.loc 1 918 3 view .LVU389
 919:Drivers/STM32L0xx_HAL_Driver/Src/stm32l0xx_hal_rcc_ex.c ****   assert_param(IS_RCC_CRS_SYNC_POLARITY(pInit->Polarity));
 1539              		.loc 1 919 3 view .LVU390
 920:Drivers/STM32L0xx_HAL_Driver/Src/stm32l0xx_hal_rcc_ex.c ****   assert_param(IS_RCC_CRS_RELOADVALUE(pInit->ReloadValue));
 1540              		.loc 1 920 3 view .LVU391
 921:Drivers/STM32L0xx_HAL_Driver/Src/stm32l0xx_hal_rcc_ex.c ****   assert_param(IS_RCC_CRS_ERRORLIMIT(pInit->ErrorLimitValue));
 1541              		.loc 1 921 3 view .LVU392
 922:Drivers/STM32L0xx_HAL_Driver/Src/stm32l0xx_hal_rcc_ex.c ****   assert_param(IS_RCC_CRS_HSI48CALIBRATION(pInit->HSI48CalibrationValue));
 1542              		.loc 1 922 3 view .LVU393
 923:Drivers/STM32L0xx_HAL_Driver/Src/stm32l0xx_hal_rcc_ex.c **** 
 924:Drivers/STM32L0xx_HAL_Driver/Src/stm32l0xx_hal_rcc_ex.c ****   /* CONFIGURATION */
 925:Drivers/STM32L0xx_HAL_Driver/Src/stm32l0xx_hal_rcc_ex.c **** 
 926:Drivers/STM32L0xx_HAL_Driver/Src/stm32l0xx_hal_rcc_ex.c ****   /* Before configuration, reset CRS registers to their default values*/
 927:Drivers/STM32L0xx_HAL_Driver/Src/stm32l0xx_hal_rcc_ex.c ****   __HAL_RCC_CRS_FORCE_RESET();
 1543              		.loc 1 927 3 view .LVU394
 1544 0000 104B     		ldr	r3, .L127
 1545 0002 996A     		ldr	r1, [r3, #40]
 1546 0004 8022     		movs	r2, #128
 1547 0006 1205     		lsls	r2, r2, #20
 1548 0008 0A43     		orrs	r2, r1
 1549 000a 9A62     		str	r2, [r3, #40]
 928:Drivers/STM32L0xx_HAL_Driver/Src/stm32l0xx_hal_rcc_ex.c ****   __HAL_RCC_CRS_RELEASE_RESET();
 1550              		.loc 1 928 3 view .LVU395
 1551 000c 9A6A     		ldr	r2, [r3, #40]
 1552 000e 0E49     		ldr	r1, .L127+4
 1553 0010 0A40     		ands	r2, r1
 1554 0012 9A62     		str	r2, [r3, #40]
 929:Drivers/STM32L0xx_HAL_Driver/Src/stm32l0xx_hal_rcc_ex.c **** 
 930:Drivers/STM32L0xx_HAL_Driver/Src/stm32l0xx_hal_rcc_ex.c ****   /* Set the SYNCDIV[2:0] bits according to Prescaler value */
 931:Drivers/STM32L0xx_HAL_Driver/Src/stm32l0xx_hal_rcc_ex.c ****   /* Set the SYNCSRC[1:0] bits according to Source value */
 932:Drivers/STM32L0xx_HAL_Driver/Src/stm32l0xx_hal_rcc_ex.c ****   /* Set the SYNCSPOL bit according to Polarity value */
 933:Drivers/STM32L0xx_HAL_Driver/Src/stm32l0xx_hal_rcc_ex.c ****   value = (pInit->Prescaler | pInit->Source | pInit->Polarity);
 1555              		.loc 1 933 3 view .LVU396
 1556              		.loc 1 933 29 is_stmt 0 view .LVU397
ARM GAS  /tmp/cci8nmgB.s 			page 48


 1557 0014 0268     		ldr	r2, [r0]
 1558 0016 4368     		ldr	r3, [r0, #4]
 1559 0018 1A43     		orrs	r2, r3
 1560              		.loc 1 933 9 view .LVU398
 1561 001a 8368     		ldr	r3, [r0, #8]
 1562 001c 1A43     		orrs	r2, r3
 1563              	.LVL89:
 934:Drivers/STM32L0xx_HAL_Driver/Src/stm32l0xx_hal_rcc_ex.c ****   /* Set the RELOAD[15:0] bits according to ReloadValue value */
 935:Drivers/STM32L0xx_HAL_Driver/Src/stm32l0xx_hal_rcc_ex.c ****   value |= pInit->ReloadValue;
 1564              		.loc 1 935 3 is_stmt 1 view .LVU399
 1565              		.loc 1 935 9 is_stmt 0 view .LVU400
 1566 001e C368     		ldr	r3, [r0, #12]
 1567 0020 1343     		orrs	r3, r2
 1568              	.LVL90:
 936:Drivers/STM32L0xx_HAL_Driver/Src/stm32l0xx_hal_rcc_ex.c ****   /* Set the FELIM[7:0] bits according to ErrorLimitValue value */
 937:Drivers/STM32L0xx_HAL_Driver/Src/stm32l0xx_hal_rcc_ex.c ****   value |= (pInit->ErrorLimitValue << CRS_CFGR_FELIM_Pos);
 1569              		.loc 1 937 3 is_stmt 1 view .LVU401
 1570              		.loc 1 937 36 is_stmt 0 view .LVU402
 1571 0022 0269     		ldr	r2, [r0, #16]
 1572 0024 1204     		lsls	r2, r2, #16
 1573              		.loc 1 937 9 view .LVU403
 1574 0026 1A43     		orrs	r2, r3
 1575              	.LVL91:
 938:Drivers/STM32L0xx_HAL_Driver/Src/stm32l0xx_hal_rcc_ex.c ****   WRITE_REG(CRS->CFGR, value);
 1576              		.loc 1 938 3 is_stmt 1 view .LVU404
 1577 0028 084B     		ldr	r3, .L127+8
 1578 002a 5A60     		str	r2, [r3, #4]
 939:Drivers/STM32L0xx_HAL_Driver/Src/stm32l0xx_hal_rcc_ex.c **** 
 940:Drivers/STM32L0xx_HAL_Driver/Src/stm32l0xx_hal_rcc_ex.c ****   /* Adjust HSI48 oscillator smooth trimming */
 941:Drivers/STM32L0xx_HAL_Driver/Src/stm32l0xx_hal_rcc_ex.c ****   /* Set the TRIM[5:0] bits according to RCC_CRS_HSI48CalibrationValue value */
 942:Drivers/STM32L0xx_HAL_Driver/Src/stm32l0xx_hal_rcc_ex.c ****   MODIFY_REG(CRS->CR, CRS_CR_TRIM, (pInit->HSI48CalibrationValue << CRS_CR_TRIM_Pos));
 1579              		.loc 1 942 3 view .LVU405
 1580 002c 1A68     		ldr	r2, [r3]
 1581              	.LVL92:
 1582              		.loc 1 942 3 is_stmt 0 view .LVU406
 1583 002e 0849     		ldr	r1, .L127+12
 1584 0030 0A40     		ands	r2, r1
 1585 0032 4169     		ldr	r1, [r0, #20]
 1586 0034 0902     		lsls	r1, r1, #8
 1587 0036 0A43     		orrs	r2, r1
 1588 0038 1A60     		str	r2, [r3]
 1589              	.LVL93:
 943:Drivers/STM32L0xx_HAL_Driver/Src/stm32l0xx_hal_rcc_ex.c **** 
 944:Drivers/STM32L0xx_HAL_Driver/Src/stm32l0xx_hal_rcc_ex.c ****   /* START AUTOMATIC SYNCHRONIZATION*/
 945:Drivers/STM32L0xx_HAL_Driver/Src/stm32l0xx_hal_rcc_ex.c **** 
 946:Drivers/STM32L0xx_HAL_Driver/Src/stm32l0xx_hal_rcc_ex.c ****   /* Enable Automatic trimming & Frequency error counter */
 947:Drivers/STM32L0xx_HAL_Driver/Src/stm32l0xx_hal_rcc_ex.c ****   SET_BIT(CRS->CR, CRS_CR_AUTOTRIMEN | CRS_CR_CEN);
 1590              		.loc 1 947 3 is_stmt 1 view .LVU407
 1591 003a 1A68     		ldr	r2, [r3]
 1592 003c 6021     		movs	r1, #96
 1593 003e 0A43     		orrs	r2, r1
 1594 0040 1A60     		str	r2, [r3]
 948:Drivers/STM32L0xx_HAL_Driver/Src/stm32l0xx_hal_rcc_ex.c **** }
 1595              		.loc 1 948 1 is_stmt 0 view .LVU408
 1596              		@ sp needed
 1597 0042 7047     		bx	lr
 1598              	.L128:
ARM GAS  /tmp/cci8nmgB.s 			page 49


 1599              		.align	2
 1600              	.L127:
 1601 0044 00100240 		.word	1073876992
 1602 0048 FFFFFFF7 		.word	-134217729
 1603 004c 006C0040 		.word	1073769472
 1604 0050 FFC0FFFF 		.word	-16129
 1605              		.cfi_endproc
 1606              	.LFE44:
 1608              		.section	.text.HAL_RCCEx_CRSSoftwareSynchronizationGenerate,"ax",%progbits
 1609              		.align	1
 1610              		.global	HAL_RCCEx_CRSSoftwareSynchronizationGenerate
 1611              		.syntax unified
 1612              		.code	16
 1613              		.thumb_func
 1614              		.fpu softvfp
 1616              	HAL_RCCEx_CRSSoftwareSynchronizationGenerate:
 1617              	.LFB45:
 949:Drivers/STM32L0xx_HAL_Driver/Src/stm32l0xx_hal_rcc_ex.c **** 
 950:Drivers/STM32L0xx_HAL_Driver/Src/stm32l0xx_hal_rcc_ex.c **** /**
 951:Drivers/STM32L0xx_HAL_Driver/Src/stm32l0xx_hal_rcc_ex.c ****   * @brief  Generate the software synchronization event
 952:Drivers/STM32L0xx_HAL_Driver/Src/stm32l0xx_hal_rcc_ex.c ****   * @retval None
 953:Drivers/STM32L0xx_HAL_Driver/Src/stm32l0xx_hal_rcc_ex.c ****   */
 954:Drivers/STM32L0xx_HAL_Driver/Src/stm32l0xx_hal_rcc_ex.c **** void HAL_RCCEx_CRSSoftwareSynchronizationGenerate(void)
 955:Drivers/STM32L0xx_HAL_Driver/Src/stm32l0xx_hal_rcc_ex.c **** {
 1618              		.loc 1 955 1 is_stmt 1 view -0
 1619              		.cfi_startproc
 1620              		@ args = 0, pretend = 0, frame = 0
 1621              		@ frame_needed = 0, uses_anonymous_args = 0
 1622              		@ link register save eliminated.
 956:Drivers/STM32L0xx_HAL_Driver/Src/stm32l0xx_hal_rcc_ex.c ****   SET_BIT(CRS->CR, CRS_CR_SWSYNC);
 1623              		.loc 1 956 3 view .LVU410
 1624 0000 024A     		ldr	r2, .L130
 1625 0002 1368     		ldr	r3, [r2]
 1626 0004 8021     		movs	r1, #128
 1627 0006 0B43     		orrs	r3, r1
 1628 0008 1360     		str	r3, [r2]
 957:Drivers/STM32L0xx_HAL_Driver/Src/stm32l0xx_hal_rcc_ex.c **** }
 1629              		.loc 1 957 1 is_stmt 0 view .LVU411
 1630              		@ sp needed
 1631 000a 7047     		bx	lr
 1632              	.L131:
 1633              		.align	2
 1634              	.L130:
 1635 000c 006C0040 		.word	1073769472
 1636              		.cfi_endproc
 1637              	.LFE45:
 1639              		.section	.text.HAL_RCCEx_CRSGetSynchronizationInfo,"ax",%progbits
 1640              		.align	1
 1641              		.global	HAL_RCCEx_CRSGetSynchronizationInfo
 1642              		.syntax unified
 1643              		.code	16
 1644              		.thumb_func
 1645              		.fpu softvfp
 1647              	HAL_RCCEx_CRSGetSynchronizationInfo:
 1648              	.LVL94:
 1649              	.LFB46:
 958:Drivers/STM32L0xx_HAL_Driver/Src/stm32l0xx_hal_rcc_ex.c **** 
ARM GAS  /tmp/cci8nmgB.s 			page 50


 959:Drivers/STM32L0xx_HAL_Driver/Src/stm32l0xx_hal_rcc_ex.c **** /**
 960:Drivers/STM32L0xx_HAL_Driver/Src/stm32l0xx_hal_rcc_ex.c ****   * @brief  Return synchronization info
 961:Drivers/STM32L0xx_HAL_Driver/Src/stm32l0xx_hal_rcc_ex.c ****   * @param  pSynchroInfo Pointer on RCC_CRSSynchroInfoTypeDef structure
 962:Drivers/STM32L0xx_HAL_Driver/Src/stm32l0xx_hal_rcc_ex.c ****   * @retval None
 963:Drivers/STM32L0xx_HAL_Driver/Src/stm32l0xx_hal_rcc_ex.c ****   */
 964:Drivers/STM32L0xx_HAL_Driver/Src/stm32l0xx_hal_rcc_ex.c **** void HAL_RCCEx_CRSGetSynchronizationInfo(RCC_CRSSynchroInfoTypeDef *pSynchroInfo)
 965:Drivers/STM32L0xx_HAL_Driver/Src/stm32l0xx_hal_rcc_ex.c **** {
 1650              		.loc 1 965 1 is_stmt 1 view -0
 1651              		.cfi_startproc
 1652              		@ args = 0, pretend = 0, frame = 0
 1653              		@ frame_needed = 0, uses_anonymous_args = 0
 1654              		@ link register save eliminated.
 966:Drivers/STM32L0xx_HAL_Driver/Src/stm32l0xx_hal_rcc_ex.c ****   /* Check the parameter */
 967:Drivers/STM32L0xx_HAL_Driver/Src/stm32l0xx_hal_rcc_ex.c ****   assert_param(pSynchroInfo != (void *)NULL);
 1655              		.loc 1 967 3 view .LVU413
 968:Drivers/STM32L0xx_HAL_Driver/Src/stm32l0xx_hal_rcc_ex.c **** 
 969:Drivers/STM32L0xx_HAL_Driver/Src/stm32l0xx_hal_rcc_ex.c ****   /* Get the reload value */
 970:Drivers/STM32L0xx_HAL_Driver/Src/stm32l0xx_hal_rcc_ex.c ****   pSynchroInfo->ReloadValue = (uint32_t)(READ_BIT(CRS->CFGR, CRS_CFGR_RELOAD));
 1656              		.loc 1 970 3 view .LVU414
 1657              		.loc 1 970 42 is_stmt 0 view .LVU415
 1658 0000 094A     		ldr	r2, .L133
 1659 0002 5368     		ldr	r3, [r2, #4]
 1660              		.loc 1 970 31 view .LVU416
 1661 0004 1B04     		lsls	r3, r3, #16
 1662 0006 1B0C     		lsrs	r3, r3, #16
 1663              		.loc 1 970 29 view .LVU417
 1664 0008 0360     		str	r3, [r0]
 971:Drivers/STM32L0xx_HAL_Driver/Src/stm32l0xx_hal_rcc_ex.c **** 
 972:Drivers/STM32L0xx_HAL_Driver/Src/stm32l0xx_hal_rcc_ex.c ****   /* Get HSI48 oscillator smooth trimming */
 973:Drivers/STM32L0xx_HAL_Driver/Src/stm32l0xx_hal_rcc_ex.c ****   pSynchroInfo->HSI48CalibrationValue = (uint32_t)(READ_BIT(CRS->CR, CRS_CR_TRIM) >> CRS_CR_TRIM_Po
 1665              		.loc 1 973 3 is_stmt 1 view .LVU418
 1666              		.loc 1 973 52 is_stmt 0 view .LVU419
 1667 000a 1168     		ldr	r1, [r2]
 1668              		.loc 1 973 41 view .LVU420
 1669 000c 090A     		lsrs	r1, r1, #8
 1670 000e 3F23     		movs	r3, #63
 1671 0010 0B40     		ands	r3, r1
 1672              		.loc 1 973 39 view .LVU421
 1673 0012 4360     		str	r3, [r0, #4]
 974:Drivers/STM32L0xx_HAL_Driver/Src/stm32l0xx_hal_rcc_ex.c **** 
 975:Drivers/STM32L0xx_HAL_Driver/Src/stm32l0xx_hal_rcc_ex.c ****   /* Get Frequency error capture */
 976:Drivers/STM32L0xx_HAL_Driver/Src/stm32l0xx_hal_rcc_ex.c ****   pSynchroInfo->FreqErrorCapture = (uint32_t)(READ_BIT(CRS->ISR, CRS_ISR_FECAP) >> CRS_ISR_FECAP_Po
 1674              		.loc 1 976 3 is_stmt 1 view .LVU422
 1675              		.loc 1 976 47 is_stmt 0 view .LVU423
 1676 0014 9368     		ldr	r3, [r2, #8]
 1677              		.loc 1 976 36 view .LVU424
 1678 0016 1B0C     		lsrs	r3, r3, #16
 1679              		.loc 1 976 34 view .LVU425
 1680 0018 8360     		str	r3, [r0, #8]
 977:Drivers/STM32L0xx_HAL_Driver/Src/stm32l0xx_hal_rcc_ex.c **** 
 978:Drivers/STM32L0xx_HAL_Driver/Src/stm32l0xx_hal_rcc_ex.c ****   /* Get Frequency error direction */
 979:Drivers/STM32L0xx_HAL_Driver/Src/stm32l0xx_hal_rcc_ex.c ****   pSynchroInfo->FreqErrorDirection = (uint32_t)(READ_BIT(CRS->ISR, CRS_ISR_FEDIR));
 1681              		.loc 1 979 3 is_stmt 1 view .LVU426
 1682              		.loc 1 979 49 is_stmt 0 view .LVU427
 1683 001a 9368     		ldr	r3, [r2, #8]
 1684              		.loc 1 979 38 view .LVU428
 1685 001c 8022     		movs	r2, #128
ARM GAS  /tmp/cci8nmgB.s 			page 51


 1686 001e 1202     		lsls	r2, r2, #8
 1687 0020 1340     		ands	r3, r2
 1688              		.loc 1 979 36 view .LVU429
 1689 0022 C360     		str	r3, [r0, #12]
 980:Drivers/STM32L0xx_HAL_Driver/Src/stm32l0xx_hal_rcc_ex.c **** }
 1690              		.loc 1 980 1 view .LVU430
 1691              		@ sp needed
 1692 0024 7047     		bx	lr
 1693              	.L134:
 1694 0026 C046     		.align	2
 1695              	.L133:
 1696 0028 006C0040 		.word	1073769472
 1697              		.cfi_endproc
 1698              	.LFE46:
 1700              		.section	.text.HAL_RCCEx_CRSWaitSynchronization,"ax",%progbits
 1701              		.align	1
 1702              		.global	HAL_RCCEx_CRSWaitSynchronization
 1703              		.syntax unified
 1704              		.code	16
 1705              		.thumb_func
 1706              		.fpu softvfp
 1708              	HAL_RCCEx_CRSWaitSynchronization:
 1709              	.LVL95:
 1710              	.LFB47:
 981:Drivers/STM32L0xx_HAL_Driver/Src/stm32l0xx_hal_rcc_ex.c **** 
 982:Drivers/STM32L0xx_HAL_Driver/Src/stm32l0xx_hal_rcc_ex.c **** /**
 983:Drivers/STM32L0xx_HAL_Driver/Src/stm32l0xx_hal_rcc_ex.c **** * @brief Wait for CRS Synchronization status.
 984:Drivers/STM32L0xx_HAL_Driver/Src/stm32l0xx_hal_rcc_ex.c **** * @param Timeout  Duration of the timeout
 985:Drivers/STM32L0xx_HAL_Driver/Src/stm32l0xx_hal_rcc_ex.c **** * @note  Timeout is based on the maximum time to receive a SYNC event based on synchronization
 986:Drivers/STM32L0xx_HAL_Driver/Src/stm32l0xx_hal_rcc_ex.c **** *        frequency.
 987:Drivers/STM32L0xx_HAL_Driver/Src/stm32l0xx_hal_rcc_ex.c **** * @note    If Timeout set to HAL_MAX_DELAY, HAL_TIMEOUT will be never returned.
 988:Drivers/STM32L0xx_HAL_Driver/Src/stm32l0xx_hal_rcc_ex.c **** * @retval Combination of Synchronization status
 989:Drivers/STM32L0xx_HAL_Driver/Src/stm32l0xx_hal_rcc_ex.c **** *          This parameter can be a combination of the following values:
 990:Drivers/STM32L0xx_HAL_Driver/Src/stm32l0xx_hal_rcc_ex.c **** *            @arg @ref RCC_CRS_TIMEOUT
 991:Drivers/STM32L0xx_HAL_Driver/Src/stm32l0xx_hal_rcc_ex.c **** *            @arg @ref RCC_CRS_SYNCOK
 992:Drivers/STM32L0xx_HAL_Driver/Src/stm32l0xx_hal_rcc_ex.c **** *            @arg @ref RCC_CRS_SYNCWARN
 993:Drivers/STM32L0xx_HAL_Driver/Src/stm32l0xx_hal_rcc_ex.c **** *            @arg @ref RCC_CRS_SYNCERR
 994:Drivers/STM32L0xx_HAL_Driver/Src/stm32l0xx_hal_rcc_ex.c **** *            @arg @ref RCC_CRS_SYNCMISS
 995:Drivers/STM32L0xx_HAL_Driver/Src/stm32l0xx_hal_rcc_ex.c **** *            @arg @ref RCC_CRS_TRIMOVF
 996:Drivers/STM32L0xx_HAL_Driver/Src/stm32l0xx_hal_rcc_ex.c **** */
 997:Drivers/STM32L0xx_HAL_Driver/Src/stm32l0xx_hal_rcc_ex.c **** uint32_t HAL_RCCEx_CRSWaitSynchronization(uint32_t Timeout)
 998:Drivers/STM32L0xx_HAL_Driver/Src/stm32l0xx_hal_rcc_ex.c **** {
 1711              		.loc 1 998 1 is_stmt 1 view -0
 1712              		.cfi_startproc
 1713              		@ args = 0, pretend = 0, frame = 0
 1714              		@ frame_needed = 0, uses_anonymous_args = 0
 1715              		.loc 1 998 1 is_stmt 0 view .LVU432
 1716 0000 70B5     		push	{r4, r5, r6, lr}
 1717              	.LCFI3:
 1718              		.cfi_def_cfa_offset 16
 1719              		.cfi_offset 4, -16
 1720              		.cfi_offset 5, -12
 1721              		.cfi_offset 6, -8
 1722              		.cfi_offset 14, -4
 1723 0002 0500     		movs	r5, r0
 999:Drivers/STM32L0xx_HAL_Driver/Src/stm32l0xx_hal_rcc_ex.c ****   uint32_t crsstatus = RCC_CRS_NONE;
 1724              		.loc 1 999 3 is_stmt 1 view .LVU433
ARM GAS  /tmp/cci8nmgB.s 			page 52


 1725              	.LVL96:
1000:Drivers/STM32L0xx_HAL_Driver/Src/stm32l0xx_hal_rcc_ex.c ****   uint32_t tickstart;
 1726              		.loc 1 1000 3 view .LVU434
1001:Drivers/STM32L0xx_HAL_Driver/Src/stm32l0xx_hal_rcc_ex.c **** 
1002:Drivers/STM32L0xx_HAL_Driver/Src/stm32l0xx_hal_rcc_ex.c ****   /* Get timeout */
1003:Drivers/STM32L0xx_HAL_Driver/Src/stm32l0xx_hal_rcc_ex.c ****   tickstart = HAL_GetTick();
 1727              		.loc 1 1003 3 view .LVU435
 1728              		.loc 1 1003 15 is_stmt 0 view .LVU436
 1729 0004 FFF7FEFF 		bl	HAL_GetTick
 1730              	.LVL97:
 1731              		.loc 1 1003 15 view .LVU437
 1732 0008 0600     		movs	r6, r0
 1733              	.LVL98:
 999:Drivers/STM32L0xx_HAL_Driver/Src/stm32l0xx_hal_rcc_ex.c ****   uint32_t tickstart;
 1734              		.loc 1 999 12 view .LVU438
 1735 000a 0024     		movs	r4, #0
 1736 000c 0FE0     		b	.L143
 1737              	.LVL99:
 1738              	.L147:
1004:Drivers/STM32L0xx_HAL_Driver/Src/stm32l0xx_hal_rcc_ex.c **** 
1005:Drivers/STM32L0xx_HAL_Driver/Src/stm32l0xx_hal_rcc_ex.c ****   /* Wait for CRS flag or timeout detection */
1006:Drivers/STM32L0xx_HAL_Driver/Src/stm32l0xx_hal_rcc_ex.c ****   do
1007:Drivers/STM32L0xx_HAL_Driver/Src/stm32l0xx_hal_rcc_ex.c ****   {
1008:Drivers/STM32L0xx_HAL_Driver/Src/stm32l0xx_hal_rcc_ex.c ****     if(Timeout != HAL_MAX_DELAY)
1009:Drivers/STM32L0xx_HAL_Driver/Src/stm32l0xx_hal_rcc_ex.c ****     {
1010:Drivers/STM32L0xx_HAL_Driver/Src/stm32l0xx_hal_rcc_ex.c ****       if(((HAL_GetTick() - tickstart) > Timeout) || (Timeout == 0U))
 1739              		.loc 1 1010 7 is_stmt 1 view .LVU439
 1740              		.loc 1 1010 12 is_stmt 0 view .LVU440
 1741 000e FFF7FEFF 		bl	HAL_GetTick
 1742              	.LVL100:
 1743              		.loc 1 1010 26 view .LVU441
 1744 0012 801B     		subs	r0, r0, r6
 1745              		.loc 1 1010 9 view .LVU442
 1746 0014 A842     		cmp	r0, r5
 1747 0016 03D8     		bhi	.L144
 1748              		.loc 1 1010 50 discriminator 1 view .LVU443
 1749 0018 002D     		cmp	r5, #0
 1750 001a 0AD1     		bne	.L136
1011:Drivers/STM32L0xx_HAL_Driver/Src/stm32l0xx_hal_rcc_ex.c ****       {
1012:Drivers/STM32L0xx_HAL_Driver/Src/stm32l0xx_hal_rcc_ex.c ****         crsstatus = RCC_CRS_TIMEOUT;
 1751              		.loc 1 1012 19 view .LVU444
 1752 001c 0124     		movs	r4, #1
 1753              	.LVL101:
 1754              		.loc 1 1012 19 view .LVU445
 1755 001e 08E0     		b	.L136
 1756              	.LVL102:
 1757              	.L144:
 1758              		.loc 1 1012 19 view .LVU446
 1759 0020 0124     		movs	r4, #1
 1760              	.LVL103:
 1761              		.loc 1 1012 19 view .LVU447
 1762 0022 06E0     		b	.L136
 1763              	.LVL104:
 1764              	.L148:
1013:Drivers/STM32L0xx_HAL_Driver/Src/stm32l0xx_hal_rcc_ex.c ****       }
1014:Drivers/STM32L0xx_HAL_Driver/Src/stm32l0xx_hal_rcc_ex.c ****     }
1015:Drivers/STM32L0xx_HAL_Driver/Src/stm32l0xx_hal_rcc_ex.c ****     /* Check CRS SYNCOK flag  */
ARM GAS  /tmp/cci8nmgB.s 			page 53


1016:Drivers/STM32L0xx_HAL_Driver/Src/stm32l0xx_hal_rcc_ex.c ****     if(__HAL_RCC_CRS_GET_FLAG(RCC_CRS_FLAG_SYNCOK))
1017:Drivers/STM32L0xx_HAL_Driver/Src/stm32l0xx_hal_rcc_ex.c ****     {
1018:Drivers/STM32L0xx_HAL_Driver/Src/stm32l0xx_hal_rcc_ex.c ****       /* CRS SYNC event OK */
1019:Drivers/STM32L0xx_HAL_Driver/Src/stm32l0xx_hal_rcc_ex.c ****       crsstatus |= RCC_CRS_SYNCOK;
1020:Drivers/STM32L0xx_HAL_Driver/Src/stm32l0xx_hal_rcc_ex.c **** 
1021:Drivers/STM32L0xx_HAL_Driver/Src/stm32l0xx_hal_rcc_ex.c ****       /* Clear CRS SYNC event OK bit */
1022:Drivers/STM32L0xx_HAL_Driver/Src/stm32l0xx_hal_rcc_ex.c ****       __HAL_RCC_CRS_CLEAR_FLAG(RCC_CRS_FLAG_SYNCOK);
1023:Drivers/STM32L0xx_HAL_Driver/Src/stm32l0xx_hal_rcc_ex.c ****     }
1024:Drivers/STM32L0xx_HAL_Driver/Src/stm32l0xx_hal_rcc_ex.c **** 
1025:Drivers/STM32L0xx_HAL_Driver/Src/stm32l0xx_hal_rcc_ex.c ****     /* Check CRS SYNCWARN flag  */
1026:Drivers/STM32L0xx_HAL_Driver/Src/stm32l0xx_hal_rcc_ex.c ****     if(__HAL_RCC_CRS_GET_FLAG(RCC_CRS_FLAG_SYNCWARN))
1027:Drivers/STM32L0xx_HAL_Driver/Src/stm32l0xx_hal_rcc_ex.c ****     {
1028:Drivers/STM32L0xx_HAL_Driver/Src/stm32l0xx_hal_rcc_ex.c ****       /* CRS SYNC warning */
1029:Drivers/STM32L0xx_HAL_Driver/Src/stm32l0xx_hal_rcc_ex.c ****       crsstatus |= RCC_CRS_SYNCWARN;
1030:Drivers/STM32L0xx_HAL_Driver/Src/stm32l0xx_hal_rcc_ex.c **** 
1031:Drivers/STM32L0xx_HAL_Driver/Src/stm32l0xx_hal_rcc_ex.c ****       /* Clear CRS SYNCWARN bit */
1032:Drivers/STM32L0xx_HAL_Driver/Src/stm32l0xx_hal_rcc_ex.c ****       __HAL_RCC_CRS_CLEAR_FLAG(RCC_CRS_FLAG_SYNCWARN);
1033:Drivers/STM32L0xx_HAL_Driver/Src/stm32l0xx_hal_rcc_ex.c ****     }
1034:Drivers/STM32L0xx_HAL_Driver/Src/stm32l0xx_hal_rcc_ex.c **** 
1035:Drivers/STM32L0xx_HAL_Driver/Src/stm32l0xx_hal_rcc_ex.c ****     /* Check CRS TRIM overflow flag  */
1036:Drivers/STM32L0xx_HAL_Driver/Src/stm32l0xx_hal_rcc_ex.c ****     if(__HAL_RCC_CRS_GET_FLAG(RCC_CRS_FLAG_TRIMOVF))
1037:Drivers/STM32L0xx_HAL_Driver/Src/stm32l0xx_hal_rcc_ex.c ****     {
1038:Drivers/STM32L0xx_HAL_Driver/Src/stm32l0xx_hal_rcc_ex.c ****       /* CRS SYNC Error */
1039:Drivers/STM32L0xx_HAL_Driver/Src/stm32l0xx_hal_rcc_ex.c ****       crsstatus |= RCC_CRS_TRIMOVF;
1040:Drivers/STM32L0xx_HAL_Driver/Src/stm32l0xx_hal_rcc_ex.c **** 
1041:Drivers/STM32L0xx_HAL_Driver/Src/stm32l0xx_hal_rcc_ex.c ****       /* Clear CRS Error bit */
1042:Drivers/STM32L0xx_HAL_Driver/Src/stm32l0xx_hal_rcc_ex.c ****       __HAL_RCC_CRS_CLEAR_FLAG(RCC_CRS_FLAG_TRIMOVF);
1043:Drivers/STM32L0xx_HAL_Driver/Src/stm32l0xx_hal_rcc_ex.c ****     }
1044:Drivers/STM32L0xx_HAL_Driver/Src/stm32l0xx_hal_rcc_ex.c **** 
1045:Drivers/STM32L0xx_HAL_Driver/Src/stm32l0xx_hal_rcc_ex.c ****     /* Check CRS Error flag  */
1046:Drivers/STM32L0xx_HAL_Driver/Src/stm32l0xx_hal_rcc_ex.c ****     if(__HAL_RCC_CRS_GET_FLAG(RCC_CRS_FLAG_SYNCERR))
1047:Drivers/STM32L0xx_HAL_Driver/Src/stm32l0xx_hal_rcc_ex.c ****     {
1048:Drivers/STM32L0xx_HAL_Driver/Src/stm32l0xx_hal_rcc_ex.c ****       /* CRS SYNC Error */
1049:Drivers/STM32L0xx_HAL_Driver/Src/stm32l0xx_hal_rcc_ex.c ****       crsstatus |= RCC_CRS_SYNCERR;
1050:Drivers/STM32L0xx_HAL_Driver/Src/stm32l0xx_hal_rcc_ex.c **** 
1051:Drivers/STM32L0xx_HAL_Driver/Src/stm32l0xx_hal_rcc_ex.c ****       /* Clear CRS Error bit */
1052:Drivers/STM32L0xx_HAL_Driver/Src/stm32l0xx_hal_rcc_ex.c ****       __HAL_RCC_CRS_CLEAR_FLAG(RCC_CRS_FLAG_SYNCERR);
1053:Drivers/STM32L0xx_HAL_Driver/Src/stm32l0xx_hal_rcc_ex.c ****     }
1054:Drivers/STM32L0xx_HAL_Driver/Src/stm32l0xx_hal_rcc_ex.c **** 
1055:Drivers/STM32L0xx_HAL_Driver/Src/stm32l0xx_hal_rcc_ex.c ****     /* Check CRS SYNC Missed flag  */
1056:Drivers/STM32L0xx_HAL_Driver/Src/stm32l0xx_hal_rcc_ex.c ****     if(__HAL_RCC_CRS_GET_FLAG(RCC_CRS_FLAG_SYNCMISS))
1057:Drivers/STM32L0xx_HAL_Driver/Src/stm32l0xx_hal_rcc_ex.c ****     {
1058:Drivers/STM32L0xx_HAL_Driver/Src/stm32l0xx_hal_rcc_ex.c ****       /* CRS SYNC Missed */
1059:Drivers/STM32L0xx_HAL_Driver/Src/stm32l0xx_hal_rcc_ex.c ****       crsstatus |= RCC_CRS_SYNCMISS;
1060:Drivers/STM32L0xx_HAL_Driver/Src/stm32l0xx_hal_rcc_ex.c **** 
1061:Drivers/STM32L0xx_HAL_Driver/Src/stm32l0xx_hal_rcc_ex.c ****       /* Clear CRS SYNC Missed bit */
1062:Drivers/STM32L0xx_HAL_Driver/Src/stm32l0xx_hal_rcc_ex.c ****       __HAL_RCC_CRS_CLEAR_FLAG(RCC_CRS_FLAG_SYNCMISS);
1063:Drivers/STM32L0xx_HAL_Driver/Src/stm32l0xx_hal_rcc_ex.c ****     }
1064:Drivers/STM32L0xx_HAL_Driver/Src/stm32l0xx_hal_rcc_ex.c **** 
1065:Drivers/STM32L0xx_HAL_Driver/Src/stm32l0xx_hal_rcc_ex.c ****     /* Check CRS Expected SYNC flag  */
1066:Drivers/STM32L0xx_HAL_Driver/Src/stm32l0xx_hal_rcc_ex.c ****     if(__HAL_RCC_CRS_GET_FLAG(RCC_CRS_FLAG_ESYNC))
1067:Drivers/STM32L0xx_HAL_Driver/Src/stm32l0xx_hal_rcc_ex.c ****     {
1068:Drivers/STM32L0xx_HAL_Driver/Src/stm32l0xx_hal_rcc_ex.c ****       /* frequency error counter reached a zero value */
1069:Drivers/STM32L0xx_HAL_Driver/Src/stm32l0xx_hal_rcc_ex.c ****       __HAL_RCC_CRS_CLEAR_FLAG(RCC_CRS_FLAG_ESYNC);
 1765              		.loc 1 1069 7 is_stmt 1 discriminator 2 view .LVU448
 1766              		.loc 1 1069 7 discriminator 2 view .LVU449
 1767              		.loc 1 1069 7 discriminator 2 view .LVU450
ARM GAS  /tmp/cci8nmgB.s 			page 54


 1768 0024 1D4B     		ldr	r3, .L149
 1769 0026 0822     		movs	r2, #8
 1770 0028 DA60     		str	r2, [r3, #12]
 1771              	.L142:
1070:Drivers/STM32L0xx_HAL_Driver/Src/stm32l0xx_hal_rcc_ex.c ****     }
1071:Drivers/STM32L0xx_HAL_Driver/Src/stm32l0xx_hal_rcc_ex.c ****   } while(RCC_CRS_NONE == crsstatus);
 1772              		.loc 1 1071 3 is_stmt 0 view .LVU451
 1773 002a 002C     		cmp	r4, #0
 1774 002c 33D1     		bne	.L146
 1775              	.LVL105:
 1776              	.L143:
1006:Drivers/STM32L0xx_HAL_Driver/Src/stm32l0xx_hal_rcc_ex.c ****   {
 1777              		.loc 1 1006 3 is_stmt 1 view .LVU452
1008:Drivers/STM32L0xx_HAL_Driver/Src/stm32l0xx_hal_rcc_ex.c ****     {
 1778              		.loc 1 1008 5 view .LVU453
1008:Drivers/STM32L0xx_HAL_Driver/Src/stm32l0xx_hal_rcc_ex.c ****     {
 1779              		.loc 1 1008 7 is_stmt 0 view .LVU454
 1780 002e 6B1C     		adds	r3, r5, #1
 1781 0030 EDD1     		bne	.L147
 1782              	.LVL106:
 1783              	.L136:
1016:Drivers/STM32L0xx_HAL_Driver/Src/stm32l0xx_hal_rcc_ex.c ****     {
 1784              		.loc 1 1016 5 is_stmt 1 view .LVU455
1016:Drivers/STM32L0xx_HAL_Driver/Src/stm32l0xx_hal_rcc_ex.c ****     {
 1785              		.loc 1 1016 8 is_stmt 0 view .LVU456
 1786 0032 1A4B     		ldr	r3, .L149
 1787 0034 9B68     		ldr	r3, [r3, #8]
1016:Drivers/STM32L0xx_HAL_Driver/Src/stm32l0xx_hal_rcc_ex.c ****     {
 1788              		.loc 1 1016 7 view .LVU457
 1789 0036 DB07     		lsls	r3, r3, #31
 1790 0038 04D5     		bpl	.L137
1019:Drivers/STM32L0xx_HAL_Driver/Src/stm32l0xx_hal_rcc_ex.c **** 
 1791              		.loc 1 1019 7 is_stmt 1 view .LVU458
1019:Drivers/STM32L0xx_HAL_Driver/Src/stm32l0xx_hal_rcc_ex.c **** 
 1792              		.loc 1 1019 17 is_stmt 0 view .LVU459
 1793 003a 0223     		movs	r3, #2
 1794 003c 1C43     		orrs	r4, r3
 1795              	.LVL107:
1022:Drivers/STM32L0xx_HAL_Driver/Src/stm32l0xx_hal_rcc_ex.c ****     }
 1796              		.loc 1 1022 7 is_stmt 1 view .LVU460
1022:Drivers/STM32L0xx_HAL_Driver/Src/stm32l0xx_hal_rcc_ex.c ****     }
 1797              		.loc 1 1022 7 view .LVU461
1022:Drivers/STM32L0xx_HAL_Driver/Src/stm32l0xx_hal_rcc_ex.c ****     }
 1798              		.loc 1 1022 7 view .LVU462
 1799 003e 174B     		ldr	r3, .L149
 1800 0040 0122     		movs	r2, #1
 1801 0042 DA60     		str	r2, [r3, #12]
 1802              	.L137:
1026:Drivers/STM32L0xx_HAL_Driver/Src/stm32l0xx_hal_rcc_ex.c ****     {
 1803              		.loc 1 1026 5 view .LVU463
1026:Drivers/STM32L0xx_HAL_Driver/Src/stm32l0xx_hal_rcc_ex.c ****     {
 1804              		.loc 1 1026 8 is_stmt 0 view .LVU464
 1805 0044 154B     		ldr	r3, .L149
 1806 0046 9B68     		ldr	r3, [r3, #8]
1026:Drivers/STM32L0xx_HAL_Driver/Src/stm32l0xx_hal_rcc_ex.c ****     {
 1807              		.loc 1 1026 7 view .LVU465
 1808 0048 9B07     		lsls	r3, r3, #30
ARM GAS  /tmp/cci8nmgB.s 			page 55


 1809 004a 04D5     		bpl	.L138
1029:Drivers/STM32L0xx_HAL_Driver/Src/stm32l0xx_hal_rcc_ex.c **** 
 1810              		.loc 1 1029 7 is_stmt 1 view .LVU466
1029:Drivers/STM32L0xx_HAL_Driver/Src/stm32l0xx_hal_rcc_ex.c **** 
 1811              		.loc 1 1029 17 is_stmt 0 view .LVU467
 1812 004c 0423     		movs	r3, #4
 1813 004e 1C43     		orrs	r4, r3
 1814              	.LVL108:
1032:Drivers/STM32L0xx_HAL_Driver/Src/stm32l0xx_hal_rcc_ex.c ****     }
 1815              		.loc 1 1032 7 is_stmt 1 view .LVU468
1032:Drivers/STM32L0xx_HAL_Driver/Src/stm32l0xx_hal_rcc_ex.c ****     }
 1816              		.loc 1 1032 7 view .LVU469
1032:Drivers/STM32L0xx_HAL_Driver/Src/stm32l0xx_hal_rcc_ex.c ****     }
 1817              		.loc 1 1032 7 view .LVU470
 1818 0050 124B     		ldr	r3, .L149
 1819 0052 0222     		movs	r2, #2
 1820 0054 DA60     		str	r2, [r3, #12]
 1821              	.L138:
1036:Drivers/STM32L0xx_HAL_Driver/Src/stm32l0xx_hal_rcc_ex.c ****     {
 1822              		.loc 1 1036 5 view .LVU471
1036:Drivers/STM32L0xx_HAL_Driver/Src/stm32l0xx_hal_rcc_ex.c ****     {
 1823              		.loc 1 1036 8 is_stmt 0 view .LVU472
 1824 0056 114B     		ldr	r3, .L149
 1825 0058 9B68     		ldr	r3, [r3, #8]
1036:Drivers/STM32L0xx_HAL_Driver/Src/stm32l0xx_hal_rcc_ex.c ****     {
 1826              		.loc 1 1036 7 view .LVU473
 1827 005a 5B05     		lsls	r3, r3, #21
 1828 005c 04D5     		bpl	.L139
1039:Drivers/STM32L0xx_HAL_Driver/Src/stm32l0xx_hal_rcc_ex.c **** 
 1829              		.loc 1 1039 7 is_stmt 1 view .LVU474
1039:Drivers/STM32L0xx_HAL_Driver/Src/stm32l0xx_hal_rcc_ex.c **** 
 1830              		.loc 1 1039 17 is_stmt 0 view .LVU475
 1831 005e 2023     		movs	r3, #32
 1832 0060 1C43     		orrs	r4, r3
 1833              	.LVL109:
1042:Drivers/STM32L0xx_HAL_Driver/Src/stm32l0xx_hal_rcc_ex.c ****     }
 1834              		.loc 1 1042 7 is_stmt 1 view .LVU476
1042:Drivers/STM32L0xx_HAL_Driver/Src/stm32l0xx_hal_rcc_ex.c ****     }
 1835              		.loc 1 1042 7 view .LVU477
1042:Drivers/STM32L0xx_HAL_Driver/Src/stm32l0xx_hal_rcc_ex.c ****     }
 1836              		.loc 1 1042 7 view .LVU478
 1837 0062 0E4B     		ldr	r3, .L149
 1838 0064 0422     		movs	r2, #4
 1839 0066 DA60     		str	r2, [r3, #12]
 1840              	.L139:
1046:Drivers/STM32L0xx_HAL_Driver/Src/stm32l0xx_hal_rcc_ex.c ****     {
 1841              		.loc 1 1046 5 view .LVU479
1046:Drivers/STM32L0xx_HAL_Driver/Src/stm32l0xx_hal_rcc_ex.c ****     {
 1842              		.loc 1 1046 8 is_stmt 0 view .LVU480
 1843 0068 0C4B     		ldr	r3, .L149
 1844 006a 9B68     		ldr	r3, [r3, #8]
1046:Drivers/STM32L0xx_HAL_Driver/Src/stm32l0xx_hal_rcc_ex.c ****     {
 1845              		.loc 1 1046 7 view .LVU481
 1846 006c DB05     		lsls	r3, r3, #23
 1847 006e 04D5     		bpl	.L140
1049:Drivers/STM32L0xx_HAL_Driver/Src/stm32l0xx_hal_rcc_ex.c **** 
 1848              		.loc 1 1049 7 is_stmt 1 view .LVU482
ARM GAS  /tmp/cci8nmgB.s 			page 56


1049:Drivers/STM32L0xx_HAL_Driver/Src/stm32l0xx_hal_rcc_ex.c **** 
 1849              		.loc 1 1049 17 is_stmt 0 view .LVU483
 1850 0070 0823     		movs	r3, #8
 1851 0072 1C43     		orrs	r4, r3
 1852              	.LVL110:
1052:Drivers/STM32L0xx_HAL_Driver/Src/stm32l0xx_hal_rcc_ex.c ****     }
 1853              		.loc 1 1052 7 is_stmt 1 view .LVU484
1052:Drivers/STM32L0xx_HAL_Driver/Src/stm32l0xx_hal_rcc_ex.c ****     }
 1854              		.loc 1 1052 7 view .LVU485
1052:Drivers/STM32L0xx_HAL_Driver/Src/stm32l0xx_hal_rcc_ex.c ****     }
 1855              		.loc 1 1052 7 view .LVU486
 1856 0074 094B     		ldr	r3, .L149
 1857 0076 0422     		movs	r2, #4
 1858 0078 DA60     		str	r2, [r3, #12]
 1859              	.L140:
1056:Drivers/STM32L0xx_HAL_Driver/Src/stm32l0xx_hal_rcc_ex.c ****     {
 1860              		.loc 1 1056 5 view .LVU487
1056:Drivers/STM32L0xx_HAL_Driver/Src/stm32l0xx_hal_rcc_ex.c ****     {
 1861              		.loc 1 1056 8 is_stmt 0 view .LVU488
 1862 007a 084B     		ldr	r3, .L149
 1863 007c 9B68     		ldr	r3, [r3, #8]
1056:Drivers/STM32L0xx_HAL_Driver/Src/stm32l0xx_hal_rcc_ex.c ****     {
 1864              		.loc 1 1056 7 view .LVU489
 1865 007e 9B05     		lsls	r3, r3, #22
 1866 0080 04D5     		bpl	.L141
1059:Drivers/STM32L0xx_HAL_Driver/Src/stm32l0xx_hal_rcc_ex.c **** 
 1867              		.loc 1 1059 7 is_stmt 1 view .LVU490
1059:Drivers/STM32L0xx_HAL_Driver/Src/stm32l0xx_hal_rcc_ex.c **** 
 1868              		.loc 1 1059 17 is_stmt 0 view .LVU491
 1869 0082 1023     		movs	r3, #16
 1870 0084 1C43     		orrs	r4, r3
 1871              	.LVL111:
1062:Drivers/STM32L0xx_HAL_Driver/Src/stm32l0xx_hal_rcc_ex.c ****     }
 1872              		.loc 1 1062 7 is_stmt 1 view .LVU492
1062:Drivers/STM32L0xx_HAL_Driver/Src/stm32l0xx_hal_rcc_ex.c ****     }
 1873              		.loc 1 1062 7 view .LVU493
1062:Drivers/STM32L0xx_HAL_Driver/Src/stm32l0xx_hal_rcc_ex.c ****     }
 1874              		.loc 1 1062 7 view .LVU494
 1875 0086 054B     		ldr	r3, .L149
 1876 0088 0422     		movs	r2, #4
 1877 008a DA60     		str	r2, [r3, #12]
 1878              	.L141:
1066:Drivers/STM32L0xx_HAL_Driver/Src/stm32l0xx_hal_rcc_ex.c ****     {
 1879              		.loc 1 1066 5 view .LVU495
1066:Drivers/STM32L0xx_HAL_Driver/Src/stm32l0xx_hal_rcc_ex.c ****     {
 1880              		.loc 1 1066 8 is_stmt 0 view .LVU496
 1881 008c 034B     		ldr	r3, .L149
 1882 008e 9B68     		ldr	r3, [r3, #8]
1066:Drivers/STM32L0xx_HAL_Driver/Src/stm32l0xx_hal_rcc_ex.c ****     {
 1883              		.loc 1 1066 7 view .LVU497
 1884 0090 1B07     		lsls	r3, r3, #28
 1885 0092 CAD5     		bpl	.L142
1066:Drivers/STM32L0xx_HAL_Driver/Src/stm32l0xx_hal_rcc_ex.c ****     {
 1886              		.loc 1 1066 7 view .LVU498
 1887 0094 C6E7     		b	.L148
 1888              	.L146:
1072:Drivers/STM32L0xx_HAL_Driver/Src/stm32l0xx_hal_rcc_ex.c **** 
ARM GAS  /tmp/cci8nmgB.s 			page 57


1073:Drivers/STM32L0xx_HAL_Driver/Src/stm32l0xx_hal_rcc_ex.c ****   return crsstatus;
 1889              		.loc 1 1073 3 is_stmt 1 view .LVU499
1074:Drivers/STM32L0xx_HAL_Driver/Src/stm32l0xx_hal_rcc_ex.c **** }
 1890              		.loc 1 1074 1 is_stmt 0 view .LVU500
 1891 0096 2000     		movs	r0, r4
 1892              		@ sp needed
 1893              	.LVL112:
 1894              	.LVL113:
 1895              	.LVL114:
 1896              		.loc 1 1074 1 view .LVU501
 1897 0098 70BD     		pop	{r4, r5, r6, pc}
 1898              	.L150:
 1899 009a C046     		.align	2
 1900              	.L149:
 1901 009c 006C0040 		.word	1073769472
 1902              		.cfi_endproc
 1903              	.LFE47:
 1905              		.section	.text.HAL_RCCEx_CRS_SyncOkCallback,"ax",%progbits
 1906              		.align	1
 1907              		.weak	HAL_RCCEx_CRS_SyncOkCallback
 1908              		.syntax unified
 1909              		.code	16
 1910              		.thumb_func
 1911              		.fpu softvfp
 1913              	HAL_RCCEx_CRS_SyncOkCallback:
 1914              	.LFB49:
1075:Drivers/STM32L0xx_HAL_Driver/Src/stm32l0xx_hal_rcc_ex.c **** 
1076:Drivers/STM32L0xx_HAL_Driver/Src/stm32l0xx_hal_rcc_ex.c **** /**
1077:Drivers/STM32L0xx_HAL_Driver/Src/stm32l0xx_hal_rcc_ex.c ****   * @brief Handle the Clock Recovery System interrupt request.
1078:Drivers/STM32L0xx_HAL_Driver/Src/stm32l0xx_hal_rcc_ex.c ****   * @retval None
1079:Drivers/STM32L0xx_HAL_Driver/Src/stm32l0xx_hal_rcc_ex.c ****   */
1080:Drivers/STM32L0xx_HAL_Driver/Src/stm32l0xx_hal_rcc_ex.c **** void HAL_RCCEx_CRS_IRQHandler(void)
1081:Drivers/STM32L0xx_HAL_Driver/Src/stm32l0xx_hal_rcc_ex.c **** {
1082:Drivers/STM32L0xx_HAL_Driver/Src/stm32l0xx_hal_rcc_ex.c ****   uint32_t crserror = RCC_CRS_NONE;
1083:Drivers/STM32L0xx_HAL_Driver/Src/stm32l0xx_hal_rcc_ex.c ****   /* Get current IT flags and IT sources values */
1084:Drivers/STM32L0xx_HAL_Driver/Src/stm32l0xx_hal_rcc_ex.c ****   uint32_t itflags = READ_REG(CRS->ISR);
1085:Drivers/STM32L0xx_HAL_Driver/Src/stm32l0xx_hal_rcc_ex.c ****   uint32_t itsources = READ_REG(CRS->CR);
1086:Drivers/STM32L0xx_HAL_Driver/Src/stm32l0xx_hal_rcc_ex.c **** 
1087:Drivers/STM32L0xx_HAL_Driver/Src/stm32l0xx_hal_rcc_ex.c ****   /* Check CRS SYNCOK flag  */
1088:Drivers/STM32L0xx_HAL_Driver/Src/stm32l0xx_hal_rcc_ex.c ****   if(((itflags & RCC_CRS_FLAG_SYNCOK) != 0U) && ((itsources & RCC_CRS_IT_SYNCOK) != 0U))
1089:Drivers/STM32L0xx_HAL_Driver/Src/stm32l0xx_hal_rcc_ex.c ****   {
1090:Drivers/STM32L0xx_HAL_Driver/Src/stm32l0xx_hal_rcc_ex.c ****     /* Clear CRS SYNC event OK flag */
1091:Drivers/STM32L0xx_HAL_Driver/Src/stm32l0xx_hal_rcc_ex.c ****     WRITE_REG(CRS->ICR, CRS_ICR_SYNCOKC);
1092:Drivers/STM32L0xx_HAL_Driver/Src/stm32l0xx_hal_rcc_ex.c **** 
1093:Drivers/STM32L0xx_HAL_Driver/Src/stm32l0xx_hal_rcc_ex.c ****     /* user callback */
1094:Drivers/STM32L0xx_HAL_Driver/Src/stm32l0xx_hal_rcc_ex.c ****     HAL_RCCEx_CRS_SyncOkCallback();
1095:Drivers/STM32L0xx_HAL_Driver/Src/stm32l0xx_hal_rcc_ex.c ****   }
1096:Drivers/STM32L0xx_HAL_Driver/Src/stm32l0xx_hal_rcc_ex.c ****   /* Check CRS SYNCWARN flag  */
1097:Drivers/STM32L0xx_HAL_Driver/Src/stm32l0xx_hal_rcc_ex.c ****   else if(((itflags & RCC_CRS_FLAG_SYNCWARN) != 0U) && ((itsources & RCC_CRS_IT_SYNCWARN) != 0U))
1098:Drivers/STM32L0xx_HAL_Driver/Src/stm32l0xx_hal_rcc_ex.c ****   {
1099:Drivers/STM32L0xx_HAL_Driver/Src/stm32l0xx_hal_rcc_ex.c ****     /* Clear CRS SYNCWARN flag */
1100:Drivers/STM32L0xx_HAL_Driver/Src/stm32l0xx_hal_rcc_ex.c ****     WRITE_REG(CRS->ICR, CRS_ICR_SYNCWARNC);
1101:Drivers/STM32L0xx_HAL_Driver/Src/stm32l0xx_hal_rcc_ex.c **** 
1102:Drivers/STM32L0xx_HAL_Driver/Src/stm32l0xx_hal_rcc_ex.c ****     /* user callback */
1103:Drivers/STM32L0xx_HAL_Driver/Src/stm32l0xx_hal_rcc_ex.c ****     HAL_RCCEx_CRS_SyncWarnCallback();
1104:Drivers/STM32L0xx_HAL_Driver/Src/stm32l0xx_hal_rcc_ex.c ****   }
1105:Drivers/STM32L0xx_HAL_Driver/Src/stm32l0xx_hal_rcc_ex.c ****   /* Check CRS Expected SYNC flag  */
ARM GAS  /tmp/cci8nmgB.s 			page 58


1106:Drivers/STM32L0xx_HAL_Driver/Src/stm32l0xx_hal_rcc_ex.c ****   else if(((itflags & RCC_CRS_FLAG_ESYNC) != 0U) && ((itsources & RCC_CRS_IT_ESYNC) != 0U))
1107:Drivers/STM32L0xx_HAL_Driver/Src/stm32l0xx_hal_rcc_ex.c ****   {
1108:Drivers/STM32L0xx_HAL_Driver/Src/stm32l0xx_hal_rcc_ex.c ****     /* frequency error counter reached a zero value */
1109:Drivers/STM32L0xx_HAL_Driver/Src/stm32l0xx_hal_rcc_ex.c ****     WRITE_REG(CRS->ICR, CRS_ICR_ESYNCC);
1110:Drivers/STM32L0xx_HAL_Driver/Src/stm32l0xx_hal_rcc_ex.c **** 
1111:Drivers/STM32L0xx_HAL_Driver/Src/stm32l0xx_hal_rcc_ex.c ****     /* user callback */
1112:Drivers/STM32L0xx_HAL_Driver/Src/stm32l0xx_hal_rcc_ex.c ****     HAL_RCCEx_CRS_ExpectedSyncCallback();
1113:Drivers/STM32L0xx_HAL_Driver/Src/stm32l0xx_hal_rcc_ex.c ****   }
1114:Drivers/STM32L0xx_HAL_Driver/Src/stm32l0xx_hal_rcc_ex.c ****   /* Check CRS Error flags  */
1115:Drivers/STM32L0xx_HAL_Driver/Src/stm32l0xx_hal_rcc_ex.c ****   else
1116:Drivers/STM32L0xx_HAL_Driver/Src/stm32l0xx_hal_rcc_ex.c ****   {
1117:Drivers/STM32L0xx_HAL_Driver/Src/stm32l0xx_hal_rcc_ex.c ****     if(((itflags & RCC_CRS_FLAG_ERR) != 0U) && ((itsources & RCC_CRS_IT_ERR) != 0U))
1118:Drivers/STM32L0xx_HAL_Driver/Src/stm32l0xx_hal_rcc_ex.c ****     {
1119:Drivers/STM32L0xx_HAL_Driver/Src/stm32l0xx_hal_rcc_ex.c ****       if((itflags & RCC_CRS_FLAG_SYNCERR) != 0U)
1120:Drivers/STM32L0xx_HAL_Driver/Src/stm32l0xx_hal_rcc_ex.c ****       {
1121:Drivers/STM32L0xx_HAL_Driver/Src/stm32l0xx_hal_rcc_ex.c ****         crserror |= RCC_CRS_SYNCERR;
1122:Drivers/STM32L0xx_HAL_Driver/Src/stm32l0xx_hal_rcc_ex.c ****       }
1123:Drivers/STM32L0xx_HAL_Driver/Src/stm32l0xx_hal_rcc_ex.c ****       if((itflags & RCC_CRS_FLAG_SYNCMISS) != 0U)
1124:Drivers/STM32L0xx_HAL_Driver/Src/stm32l0xx_hal_rcc_ex.c ****       {
1125:Drivers/STM32L0xx_HAL_Driver/Src/stm32l0xx_hal_rcc_ex.c ****         crserror |= RCC_CRS_SYNCMISS;
1126:Drivers/STM32L0xx_HAL_Driver/Src/stm32l0xx_hal_rcc_ex.c ****       }
1127:Drivers/STM32L0xx_HAL_Driver/Src/stm32l0xx_hal_rcc_ex.c ****       if((itflags & RCC_CRS_FLAG_TRIMOVF) != 0U)
1128:Drivers/STM32L0xx_HAL_Driver/Src/stm32l0xx_hal_rcc_ex.c ****       {
1129:Drivers/STM32L0xx_HAL_Driver/Src/stm32l0xx_hal_rcc_ex.c ****         crserror |= RCC_CRS_TRIMOVF;
1130:Drivers/STM32L0xx_HAL_Driver/Src/stm32l0xx_hal_rcc_ex.c ****       }
1131:Drivers/STM32L0xx_HAL_Driver/Src/stm32l0xx_hal_rcc_ex.c **** 
1132:Drivers/STM32L0xx_HAL_Driver/Src/stm32l0xx_hal_rcc_ex.c ****       /* Clear CRS Error flags */
1133:Drivers/STM32L0xx_HAL_Driver/Src/stm32l0xx_hal_rcc_ex.c ****       WRITE_REG(CRS->ICR, CRS_ICR_ERRC);
1134:Drivers/STM32L0xx_HAL_Driver/Src/stm32l0xx_hal_rcc_ex.c **** 
1135:Drivers/STM32L0xx_HAL_Driver/Src/stm32l0xx_hal_rcc_ex.c ****       /* user error callback */
1136:Drivers/STM32L0xx_HAL_Driver/Src/stm32l0xx_hal_rcc_ex.c ****       HAL_RCCEx_CRS_ErrorCallback(crserror);
1137:Drivers/STM32L0xx_HAL_Driver/Src/stm32l0xx_hal_rcc_ex.c ****     }
1138:Drivers/STM32L0xx_HAL_Driver/Src/stm32l0xx_hal_rcc_ex.c ****   }
1139:Drivers/STM32L0xx_HAL_Driver/Src/stm32l0xx_hal_rcc_ex.c **** }
1140:Drivers/STM32L0xx_HAL_Driver/Src/stm32l0xx_hal_rcc_ex.c **** 
1141:Drivers/STM32L0xx_HAL_Driver/Src/stm32l0xx_hal_rcc_ex.c **** /**
1142:Drivers/STM32L0xx_HAL_Driver/Src/stm32l0xx_hal_rcc_ex.c ****   * @brief  RCCEx Clock Recovery System SYNCOK interrupt callback.
1143:Drivers/STM32L0xx_HAL_Driver/Src/stm32l0xx_hal_rcc_ex.c ****   * @retval none
1144:Drivers/STM32L0xx_HAL_Driver/Src/stm32l0xx_hal_rcc_ex.c ****   */
1145:Drivers/STM32L0xx_HAL_Driver/Src/stm32l0xx_hal_rcc_ex.c **** __weak void HAL_RCCEx_CRS_SyncOkCallback(void)
1146:Drivers/STM32L0xx_HAL_Driver/Src/stm32l0xx_hal_rcc_ex.c **** {
 1915              		.loc 1 1146 1 is_stmt 1 view -0
 1916              		.cfi_startproc
 1917              		@ args = 0, pretend = 0, frame = 0
 1918              		@ frame_needed = 0, uses_anonymous_args = 0
 1919              		@ link register save eliminated.
1147:Drivers/STM32L0xx_HAL_Driver/Src/stm32l0xx_hal_rcc_ex.c ****   /* NOTE : This function should not be modified, when the callback is needed,
1148:Drivers/STM32L0xx_HAL_Driver/Src/stm32l0xx_hal_rcc_ex.c ****             the @ref HAL_RCCEx_CRS_SyncOkCallback should be implemented in the user file
1149:Drivers/STM32L0xx_HAL_Driver/Src/stm32l0xx_hal_rcc_ex.c ****    */
1150:Drivers/STM32L0xx_HAL_Driver/Src/stm32l0xx_hal_rcc_ex.c **** }
 1920              		.loc 1 1150 1 view .LVU503
 1921              		@ sp needed
 1922 0000 7047     		bx	lr
 1923              		.cfi_endproc
 1924              	.LFE49:
 1926              		.section	.text.HAL_RCCEx_CRS_SyncWarnCallback,"ax",%progbits
 1927              		.align	1
ARM GAS  /tmp/cci8nmgB.s 			page 59


 1928              		.weak	HAL_RCCEx_CRS_SyncWarnCallback
 1929              		.syntax unified
 1930              		.code	16
 1931              		.thumb_func
 1932              		.fpu softvfp
 1934              	HAL_RCCEx_CRS_SyncWarnCallback:
 1935              	.LFB50:
1151:Drivers/STM32L0xx_HAL_Driver/Src/stm32l0xx_hal_rcc_ex.c **** 
1152:Drivers/STM32L0xx_HAL_Driver/Src/stm32l0xx_hal_rcc_ex.c **** /**
1153:Drivers/STM32L0xx_HAL_Driver/Src/stm32l0xx_hal_rcc_ex.c ****   * @brief  RCCEx Clock Recovery System SYNCWARN interrupt callback.
1154:Drivers/STM32L0xx_HAL_Driver/Src/stm32l0xx_hal_rcc_ex.c ****   * @retval none
1155:Drivers/STM32L0xx_HAL_Driver/Src/stm32l0xx_hal_rcc_ex.c ****   */
1156:Drivers/STM32L0xx_HAL_Driver/Src/stm32l0xx_hal_rcc_ex.c **** __weak void HAL_RCCEx_CRS_SyncWarnCallback(void)
1157:Drivers/STM32L0xx_HAL_Driver/Src/stm32l0xx_hal_rcc_ex.c **** {
 1936              		.loc 1 1157 1 view -0
 1937              		.cfi_startproc
 1938              		@ args = 0, pretend = 0, frame = 0
 1939              		@ frame_needed = 0, uses_anonymous_args = 0
 1940              		@ link register save eliminated.
1158:Drivers/STM32L0xx_HAL_Driver/Src/stm32l0xx_hal_rcc_ex.c ****   /* NOTE : This function should not be modified, when the callback is needed,
1159:Drivers/STM32L0xx_HAL_Driver/Src/stm32l0xx_hal_rcc_ex.c ****             the @ref HAL_RCCEx_CRS_SyncWarnCallback should be implemented in the user file
1160:Drivers/STM32L0xx_HAL_Driver/Src/stm32l0xx_hal_rcc_ex.c ****    */
1161:Drivers/STM32L0xx_HAL_Driver/Src/stm32l0xx_hal_rcc_ex.c **** }
 1941              		.loc 1 1161 1 view .LVU505
 1942              		@ sp needed
 1943 0000 7047     		bx	lr
 1944              		.cfi_endproc
 1945              	.LFE50:
 1947              		.section	.text.HAL_RCCEx_CRS_ExpectedSyncCallback,"ax",%progbits
 1948              		.align	1
 1949              		.weak	HAL_RCCEx_CRS_ExpectedSyncCallback
 1950              		.syntax unified
 1951              		.code	16
 1952              		.thumb_func
 1953              		.fpu softvfp
 1955              	HAL_RCCEx_CRS_ExpectedSyncCallback:
 1956              	.LFB51:
1162:Drivers/STM32L0xx_HAL_Driver/Src/stm32l0xx_hal_rcc_ex.c **** 
1163:Drivers/STM32L0xx_HAL_Driver/Src/stm32l0xx_hal_rcc_ex.c **** /**
1164:Drivers/STM32L0xx_HAL_Driver/Src/stm32l0xx_hal_rcc_ex.c ****   * @brief  RCCEx Clock Recovery System Expected SYNC interrupt callback.
1165:Drivers/STM32L0xx_HAL_Driver/Src/stm32l0xx_hal_rcc_ex.c ****   * @retval none
1166:Drivers/STM32L0xx_HAL_Driver/Src/stm32l0xx_hal_rcc_ex.c ****   */
1167:Drivers/STM32L0xx_HAL_Driver/Src/stm32l0xx_hal_rcc_ex.c **** __weak void HAL_RCCEx_CRS_ExpectedSyncCallback(void)
1168:Drivers/STM32L0xx_HAL_Driver/Src/stm32l0xx_hal_rcc_ex.c **** {
 1957              		.loc 1 1168 1 view -0
 1958              		.cfi_startproc
 1959              		@ args = 0, pretend = 0, frame = 0
 1960              		@ frame_needed = 0, uses_anonymous_args = 0
 1961              		@ link register save eliminated.
1169:Drivers/STM32L0xx_HAL_Driver/Src/stm32l0xx_hal_rcc_ex.c ****   /* NOTE : This function should not be modified, when the callback is needed,
1170:Drivers/STM32L0xx_HAL_Driver/Src/stm32l0xx_hal_rcc_ex.c ****             the @ref HAL_RCCEx_CRS_ExpectedSyncCallback should be implemented in the user file
1171:Drivers/STM32L0xx_HAL_Driver/Src/stm32l0xx_hal_rcc_ex.c ****    */
1172:Drivers/STM32L0xx_HAL_Driver/Src/stm32l0xx_hal_rcc_ex.c **** }
 1962              		.loc 1 1172 1 view .LVU507
 1963              		@ sp needed
 1964 0000 7047     		bx	lr
 1965              		.cfi_endproc
ARM GAS  /tmp/cci8nmgB.s 			page 60


 1966              	.LFE51:
 1968              		.section	.text.HAL_RCCEx_CRS_ErrorCallback,"ax",%progbits
 1969              		.align	1
 1970              		.weak	HAL_RCCEx_CRS_ErrorCallback
 1971              		.syntax unified
 1972              		.code	16
 1973              		.thumb_func
 1974              		.fpu softvfp
 1976              	HAL_RCCEx_CRS_ErrorCallback:
 1977              	.LVL115:
 1978              	.LFB52:
1173:Drivers/STM32L0xx_HAL_Driver/Src/stm32l0xx_hal_rcc_ex.c **** 
1174:Drivers/STM32L0xx_HAL_Driver/Src/stm32l0xx_hal_rcc_ex.c **** /**
1175:Drivers/STM32L0xx_HAL_Driver/Src/stm32l0xx_hal_rcc_ex.c ****   * @brief  RCCEx Clock Recovery System Error interrupt callback.
1176:Drivers/STM32L0xx_HAL_Driver/Src/stm32l0xx_hal_rcc_ex.c ****   * @param  Error Combination of Error status.
1177:Drivers/STM32L0xx_HAL_Driver/Src/stm32l0xx_hal_rcc_ex.c ****   *         This parameter can be a combination of the following values:
1178:Drivers/STM32L0xx_HAL_Driver/Src/stm32l0xx_hal_rcc_ex.c ****   *           @arg @ref RCC_CRS_SYNCERR
1179:Drivers/STM32L0xx_HAL_Driver/Src/stm32l0xx_hal_rcc_ex.c ****   *           @arg @ref RCC_CRS_SYNCMISS
1180:Drivers/STM32L0xx_HAL_Driver/Src/stm32l0xx_hal_rcc_ex.c ****   *           @arg @ref RCC_CRS_TRIMOVF
1181:Drivers/STM32L0xx_HAL_Driver/Src/stm32l0xx_hal_rcc_ex.c ****   * @retval none
1182:Drivers/STM32L0xx_HAL_Driver/Src/stm32l0xx_hal_rcc_ex.c ****   */
1183:Drivers/STM32L0xx_HAL_Driver/Src/stm32l0xx_hal_rcc_ex.c **** __weak void HAL_RCCEx_CRS_ErrorCallback(uint32_t Error)
1184:Drivers/STM32L0xx_HAL_Driver/Src/stm32l0xx_hal_rcc_ex.c **** {
 1979              		.loc 1 1184 1 view -0
 1980              		.cfi_startproc
 1981              		@ args = 0, pretend = 0, frame = 0
 1982              		@ frame_needed = 0, uses_anonymous_args = 0
 1983              		@ link register save eliminated.
1185:Drivers/STM32L0xx_HAL_Driver/Src/stm32l0xx_hal_rcc_ex.c ****   /* Prevent unused argument(s) compilation warning */
1186:Drivers/STM32L0xx_HAL_Driver/Src/stm32l0xx_hal_rcc_ex.c ****   UNUSED(Error);
 1984              		.loc 1 1186 3 view .LVU509
1187:Drivers/STM32L0xx_HAL_Driver/Src/stm32l0xx_hal_rcc_ex.c **** 
1188:Drivers/STM32L0xx_HAL_Driver/Src/stm32l0xx_hal_rcc_ex.c ****   /* NOTE : This function should not be modified, when the callback is needed,
1189:Drivers/STM32L0xx_HAL_Driver/Src/stm32l0xx_hal_rcc_ex.c ****             the @ref HAL_RCCEx_CRS_ErrorCallback should be implemented in the user file
1190:Drivers/STM32L0xx_HAL_Driver/Src/stm32l0xx_hal_rcc_ex.c ****    */
1191:Drivers/STM32L0xx_HAL_Driver/Src/stm32l0xx_hal_rcc_ex.c **** }
 1985              		.loc 1 1191 1 is_stmt 0 view .LVU510
 1986              		@ sp needed
 1987 0000 7047     		bx	lr
 1988              		.cfi_endproc
 1989              	.LFE52:
 1991              		.section	.text.HAL_RCCEx_CRS_IRQHandler,"ax",%progbits
 1992              		.align	1
 1993              		.global	HAL_RCCEx_CRS_IRQHandler
 1994              		.syntax unified
 1995              		.code	16
 1996              		.thumb_func
 1997              		.fpu softvfp
 1999              	HAL_RCCEx_CRS_IRQHandler:
 2000              	.LFB48:
1081:Drivers/STM32L0xx_HAL_Driver/Src/stm32l0xx_hal_rcc_ex.c ****   uint32_t crserror = RCC_CRS_NONE;
 2001              		.loc 1 1081 1 is_stmt 1 view -0
 2002              		.cfi_startproc
 2003              		@ args = 0, pretend = 0, frame = 0
 2004              		@ frame_needed = 0, uses_anonymous_args = 0
 2005 0000 10B5     		push	{r4, lr}
 2006              	.LCFI4:
ARM GAS  /tmp/cci8nmgB.s 			page 61


 2007              		.cfi_def_cfa_offset 8
 2008              		.cfi_offset 4, -8
 2009              		.cfi_offset 14, -4
1082:Drivers/STM32L0xx_HAL_Driver/Src/stm32l0xx_hal_rcc_ex.c ****   /* Get current IT flags and IT sources values */
 2010              		.loc 1 1082 3 view .LVU512
 2011              	.LVL116:
1084:Drivers/STM32L0xx_HAL_Driver/Src/stm32l0xx_hal_rcc_ex.c ****   uint32_t itsources = READ_REG(CRS->CR);
 2012              		.loc 1 1084 3 view .LVU513
1084:Drivers/STM32L0xx_HAL_Driver/Src/stm32l0xx_hal_rcc_ex.c ****   uint32_t itsources = READ_REG(CRS->CR);
 2013              		.loc 1 1084 12 is_stmt 0 view .LVU514
 2014 0002 1D4A     		ldr	r2, .L167
 2015 0004 9368     		ldr	r3, [r2, #8]
 2016              	.LVL117:
1085:Drivers/STM32L0xx_HAL_Driver/Src/stm32l0xx_hal_rcc_ex.c **** 
 2017              		.loc 1 1085 3 is_stmt 1 view .LVU515
1085:Drivers/STM32L0xx_HAL_Driver/Src/stm32l0xx_hal_rcc_ex.c **** 
 2018              		.loc 1 1085 12 is_stmt 0 view .LVU516
 2019 0006 1268     		ldr	r2, [r2]
 2020              	.LVL118:
1088:Drivers/STM32L0xx_HAL_Driver/Src/stm32l0xx_hal_rcc_ex.c ****   {
 2021              		.loc 1 1088 3 is_stmt 1 view .LVU517
1088:Drivers/STM32L0xx_HAL_Driver/Src/stm32l0xx_hal_rcc_ex.c ****   {
 2022              		.loc 1 1088 5 is_stmt 0 view .LVU518
 2023 0008 D907     		lsls	r1, r3, #31
 2024 000a 01D5     		bpl	.L156
1088:Drivers/STM32L0xx_HAL_Driver/Src/stm32l0xx_hal_rcc_ex.c ****   {
 2025              		.loc 1 1088 46 discriminator 1 view .LVU519
 2026 000c D107     		lsls	r1, r2, #31
 2027 000e 20D4     		bmi	.L164
 2028              	.L156:
1097:Drivers/STM32L0xx_HAL_Driver/Src/stm32l0xx_hal_rcc_ex.c ****   {
 2029              		.loc 1 1097 8 is_stmt 1 view .LVU520
1097:Drivers/STM32L0xx_HAL_Driver/Src/stm32l0xx_hal_rcc_ex.c ****   {
 2030              		.loc 1 1097 10 is_stmt 0 view .LVU521
 2031 0010 9907     		lsls	r1, r3, #30
 2032 0012 01D5     		bpl	.L158
1097:Drivers/STM32L0xx_HAL_Driver/Src/stm32l0xx_hal_rcc_ex.c ****   {
 2033              		.loc 1 1097 53 discriminator 1 view .LVU522
 2034 0014 9107     		lsls	r1, r2, #30
 2035 0016 22D4     		bmi	.L165
 2036              	.L158:
1106:Drivers/STM32L0xx_HAL_Driver/Src/stm32l0xx_hal_rcc_ex.c ****   {
 2037              		.loc 1 1106 8 is_stmt 1 view .LVU523
1106:Drivers/STM32L0xx_HAL_Driver/Src/stm32l0xx_hal_rcc_ex.c ****   {
 2038              		.loc 1 1106 10 is_stmt 0 view .LVU524
 2039 0018 1907     		lsls	r1, r3, #28
 2040 001a 01D5     		bpl	.L159
1106:Drivers/STM32L0xx_HAL_Driver/Src/stm32l0xx_hal_rcc_ex.c ****   {
 2041              		.loc 1 1106 50 discriminator 1 view .LVU525
 2042 001c 1107     		lsls	r1, r2, #28
 2043 001e 24D4     		bmi	.L166
 2044              	.L159:
1117:Drivers/STM32L0xx_HAL_Driver/Src/stm32l0xx_hal_rcc_ex.c ****     {
 2045              		.loc 1 1117 5 is_stmt 1 view .LVU526
1117:Drivers/STM32L0xx_HAL_Driver/Src/stm32l0xx_hal_rcc_ex.c ****     {
 2046              		.loc 1 1117 7 is_stmt 0 view .LVU527
 2047 0020 5907     		lsls	r1, r3, #29
ARM GAS  /tmp/cci8nmgB.s 			page 62


 2048 0022 1BD5     		bpl	.L155
1117:Drivers/STM32L0xx_HAL_Driver/Src/stm32l0xx_hal_rcc_ex.c ****     {
 2049              		.loc 1 1117 45 discriminator 1 view .LVU528
 2050 0024 5207     		lsls	r2, r2, #29
 2051 0026 19D5     		bpl	.L155
 2052              	.LVL119:
1119:Drivers/STM32L0xx_HAL_Driver/Src/stm32l0xx_hal_rcc_ex.c ****       {
 2053              		.loc 1 1119 7 is_stmt 1 view .LVU529
1119:Drivers/STM32L0xx_HAL_Driver/Src/stm32l0xx_hal_rcc_ex.c ****       {
 2054              		.loc 1 1119 19 is_stmt 0 view .LVU530
 2055 0028 8022     		movs	r2, #128
 2056 002a 5200     		lsls	r2, r2, #1
 2057 002c 1800     		movs	r0, r3
 2058 002e 1040     		ands	r0, r2
1119:Drivers/STM32L0xx_HAL_Driver/Src/stm32l0xx_hal_rcc_ex.c ****       {
 2059              		.loc 1 1119 9 view .LVU531
 2060 0030 1342     		tst	r3, r2
 2061 0032 00D0     		beq	.L160
1121:Drivers/STM32L0xx_HAL_Driver/Src/stm32l0xx_hal_rcc_ex.c ****       }
 2062              		.loc 1 1121 18 view .LVU532
 2063 0034 0820     		movs	r0, #8
 2064              	.L160:
 2065              	.LVL120:
1123:Drivers/STM32L0xx_HAL_Driver/Src/stm32l0xx_hal_rcc_ex.c ****       {
 2066              		.loc 1 1123 7 is_stmt 1 view .LVU533
1123:Drivers/STM32L0xx_HAL_Driver/Src/stm32l0xx_hal_rcc_ex.c ****       {
 2067              		.loc 1 1123 9 is_stmt 0 view .LVU534
 2068 0036 9A05     		lsls	r2, r3, #22
 2069 0038 01D5     		bpl	.L161
1125:Drivers/STM32L0xx_HAL_Driver/Src/stm32l0xx_hal_rcc_ex.c ****       }
 2070              		.loc 1 1125 9 is_stmt 1 view .LVU535
1125:Drivers/STM32L0xx_HAL_Driver/Src/stm32l0xx_hal_rcc_ex.c ****       }
 2071              		.loc 1 1125 18 is_stmt 0 view .LVU536
 2072 003a 1022     		movs	r2, #16
 2073 003c 1043     		orrs	r0, r2
 2074              	.LVL121:
 2075              	.L161:
1127:Drivers/STM32L0xx_HAL_Driver/Src/stm32l0xx_hal_rcc_ex.c ****       {
 2076              		.loc 1 1127 7 is_stmt 1 view .LVU537
1127:Drivers/STM32L0xx_HAL_Driver/Src/stm32l0xx_hal_rcc_ex.c ****       {
 2077              		.loc 1 1127 9 is_stmt 0 view .LVU538
 2078 003e 5B05     		lsls	r3, r3, #21
 2079 0040 01D5     		bpl	.L162
 2080              	.LVL122:
1129:Drivers/STM32L0xx_HAL_Driver/Src/stm32l0xx_hal_rcc_ex.c ****       }
 2081              		.loc 1 1129 9 is_stmt 1 view .LVU539
1129:Drivers/STM32L0xx_HAL_Driver/Src/stm32l0xx_hal_rcc_ex.c ****       }
 2082              		.loc 1 1129 18 is_stmt 0 view .LVU540
 2083 0042 2023     		movs	r3, #32
 2084 0044 1843     		orrs	r0, r3
 2085              	.LVL123:
 2086              	.L162:
1133:Drivers/STM32L0xx_HAL_Driver/Src/stm32l0xx_hal_rcc_ex.c **** 
 2087              		.loc 1 1133 7 is_stmt 1 view .LVU541
 2088 0046 0C4B     		ldr	r3, .L167
 2089 0048 0422     		movs	r2, #4
 2090 004a DA60     		str	r2, [r3, #12]
ARM GAS  /tmp/cci8nmgB.s 			page 63


1136:Drivers/STM32L0xx_HAL_Driver/Src/stm32l0xx_hal_rcc_ex.c ****     }
 2091              		.loc 1 1136 7 view .LVU542
 2092 004c FFF7FEFF 		bl	HAL_RCCEx_CRS_ErrorCallback
 2093              	.LVL124:
1139:Drivers/STM32L0xx_HAL_Driver/Src/stm32l0xx_hal_rcc_ex.c **** 
 2094              		.loc 1 1139 1 is_stmt 0 view .LVU543
 2095 0050 04E0     		b	.L155
 2096              	.LVL125:
 2097              	.L164:
1091:Drivers/STM32L0xx_HAL_Driver/Src/stm32l0xx_hal_rcc_ex.c **** 
 2098              		.loc 1 1091 5 is_stmt 1 view .LVU544
 2099 0052 094B     		ldr	r3, .L167
 2100              	.LVL126:
1091:Drivers/STM32L0xx_HAL_Driver/Src/stm32l0xx_hal_rcc_ex.c **** 
 2101              		.loc 1 1091 5 is_stmt 0 view .LVU545
 2102 0054 0122     		movs	r2, #1
 2103              	.LVL127:
1091:Drivers/STM32L0xx_HAL_Driver/Src/stm32l0xx_hal_rcc_ex.c **** 
 2104              		.loc 1 1091 5 view .LVU546
 2105 0056 DA60     		str	r2, [r3, #12]
1094:Drivers/STM32L0xx_HAL_Driver/Src/stm32l0xx_hal_rcc_ex.c ****   }
 2106              		.loc 1 1094 5 is_stmt 1 view .LVU547
 2107 0058 FFF7FEFF 		bl	HAL_RCCEx_CRS_SyncOkCallback
 2108              	.LVL128:
 2109              	.L155:
1139:Drivers/STM32L0xx_HAL_Driver/Src/stm32l0xx_hal_rcc_ex.c **** 
 2110              		.loc 1 1139 1 is_stmt 0 view .LVU548
 2111              		@ sp needed
 2112 005c 10BD     		pop	{r4, pc}
 2113              	.LVL129:
 2114              	.L165:
1100:Drivers/STM32L0xx_HAL_Driver/Src/stm32l0xx_hal_rcc_ex.c **** 
 2115              		.loc 1 1100 5 is_stmt 1 view .LVU549
 2116 005e 064B     		ldr	r3, .L167
 2117              	.LVL130:
1100:Drivers/STM32L0xx_HAL_Driver/Src/stm32l0xx_hal_rcc_ex.c **** 
 2118              		.loc 1 1100 5 is_stmt 0 view .LVU550
 2119 0060 0222     		movs	r2, #2
 2120              	.LVL131:
1100:Drivers/STM32L0xx_HAL_Driver/Src/stm32l0xx_hal_rcc_ex.c **** 
 2121              		.loc 1 1100 5 view .LVU551
 2122 0062 DA60     		str	r2, [r3, #12]
1103:Drivers/STM32L0xx_HAL_Driver/Src/stm32l0xx_hal_rcc_ex.c ****   }
 2123              		.loc 1 1103 5 is_stmt 1 view .LVU552
 2124 0064 FFF7FEFF 		bl	HAL_RCCEx_CRS_SyncWarnCallback
 2125              	.LVL132:
 2126 0068 F8E7     		b	.L155
 2127              	.LVL133:
 2128              	.L166:
1109:Drivers/STM32L0xx_HAL_Driver/Src/stm32l0xx_hal_rcc_ex.c **** 
 2129              		.loc 1 1109 5 view .LVU553
 2130 006a 034B     		ldr	r3, .L167
 2131              	.LVL134:
1109:Drivers/STM32L0xx_HAL_Driver/Src/stm32l0xx_hal_rcc_ex.c **** 
 2132              		.loc 1 1109 5 is_stmt 0 view .LVU554
 2133 006c 0822     		movs	r2, #8
 2134              	.LVL135:
ARM GAS  /tmp/cci8nmgB.s 			page 64


1109:Drivers/STM32L0xx_HAL_Driver/Src/stm32l0xx_hal_rcc_ex.c **** 
 2135              		.loc 1 1109 5 view .LVU555
 2136 006e DA60     		str	r2, [r3, #12]
1112:Drivers/STM32L0xx_HAL_Driver/Src/stm32l0xx_hal_rcc_ex.c ****   }
 2137              		.loc 1 1112 5 is_stmt 1 view .LVU556
 2138 0070 FFF7FEFF 		bl	HAL_RCCEx_CRS_ExpectedSyncCallback
 2139              	.LVL136:
 2140 0074 F2E7     		b	.L155
 2141              	.L168:
 2142 0076 C046     		.align	2
 2143              	.L167:
 2144 0078 006C0040 		.word	1073769472
 2145              		.cfi_endproc
 2146              	.LFE48:
 2148              		.text
 2149              	.Letext0:
 2150              		.file 2 "/usr/arm-none-eabi/include/machine/_default_types.h"
 2151              		.file 3 "/usr/arm-none-eabi/include/sys/_stdint.h"
 2152              		.file 4 "Drivers/CMSIS/Device/ST/STM32L0xx/Include/system_stm32l0xx.h"
 2153              		.file 5 "Drivers/CMSIS/Device/ST/STM32L0xx/Include/stm32l052xx.h"
 2154              		.file 6 "Drivers/CMSIS/Device/ST/STM32L0xx/Include/stm32l0xx.h"
 2155              		.file 7 "Drivers/STM32L0xx_HAL_Driver/Inc/stm32l0xx_hal_def.h"
 2156              		.file 8 "Drivers/STM32L0xx_HAL_Driver/Inc/stm32l0xx_hal_rcc_ex.h"
 2157              		.file 9 "Drivers/STM32L0xx_HAL_Driver/Inc/stm32l0xx_hal.h"
 2158              		.file 10 "Drivers/STM32L0xx_HAL_Driver/Inc/stm32l0xx_hal_rcc.h"
ARM GAS  /tmp/cci8nmgB.s 			page 65

