ARM GAS  /tmp/ccT3btxY.s 			page 1


   1              		.cpu cortex-m0
   2              		.eabi_attribute 20, 1
   3              		.eabi_attribute 21, 1
   4              		.eabi_attribute 23, 3
   5              		.eabi_attribute 24, 1
   6              		.eabi_attribute 25, 1
   7              		.eabi_attribute 26, 1
   8              		.eabi_attribute 30, 1
   9              		.eabi_attribute 34, 0
  10              		.eabi_attribute 18, 4
  11              		.file	"lis3dh_reg.c"
  12              		.text
  13              	.Ltext0:
  14              		.cfi_sections	.debug_frame
  15              		.section	.text.lis3dh_read_reg,"ax",%progbits
  16              		.align	1
  17              		.global	lis3dh_read_reg
  18              		.arch armv6s-m
  19              		.syntax unified
  20              		.code	16
  21              		.thumb_func
  22              		.fpu softvfp
  24              	lis3dh_read_reg:
  25              	.LVL0:
  26              	.LFB0:
  27              		.file 1 "Inc/lis3dh_reg.c"
   1:Inc/lis3dh_reg.c **** /**
   2:Inc/lis3dh_reg.c ****   ******************************************************************************
   3:Inc/lis3dh_reg.c ****   * @file    lis3dh_reg.c
   4:Inc/lis3dh_reg.c ****   * @author  Sensors Software Solution Team
   5:Inc/lis3dh_reg.c ****   * @brief   LIS3DH driver file
   6:Inc/lis3dh_reg.c ****   ******************************************************************************
   7:Inc/lis3dh_reg.c ****   * @attention
   8:Inc/lis3dh_reg.c ****   *
   9:Inc/lis3dh_reg.c ****   * <h2><center>&copy; Copyright (c) 2021 STMicroelectronics.
  10:Inc/lis3dh_reg.c ****   * All rights reserved.</center></h2>
  11:Inc/lis3dh_reg.c ****   *
  12:Inc/lis3dh_reg.c ****   * This software component is licensed by ST under BSD 3-Clause license,
  13:Inc/lis3dh_reg.c ****   * the "License"; You may not use this file except in compliance with the
  14:Inc/lis3dh_reg.c ****   * License. You may obtain a copy of the License at:
  15:Inc/lis3dh_reg.c ****   *                        opensource.org/licenses/BSD-3-Clause
  16:Inc/lis3dh_reg.c ****   *
  17:Inc/lis3dh_reg.c ****   ******************************************************************************
  18:Inc/lis3dh_reg.c ****   */
  19:Inc/lis3dh_reg.c **** 
  20:Inc/lis3dh_reg.c **** #include "lis3dh_reg.h"
  21:Inc/lis3dh_reg.c **** 
  22:Inc/lis3dh_reg.c **** /**
  23:Inc/lis3dh_reg.c ****   * @defgroup  LIS3DH
  24:Inc/lis3dh_reg.c ****   * @brief     This file provides a set of functions needed to drive the
  25:Inc/lis3dh_reg.c ****   *            lis3dh enanced inertial module.
  26:Inc/lis3dh_reg.c ****   * @{
  27:Inc/lis3dh_reg.c ****   *
  28:Inc/lis3dh_reg.c ****   */
  29:Inc/lis3dh_reg.c **** 
  30:Inc/lis3dh_reg.c **** /**
  31:Inc/lis3dh_reg.c ****   * @defgroup  LIS3DH_Interfaces_Functions
ARM GAS  /tmp/ccT3btxY.s 			page 2


  32:Inc/lis3dh_reg.c ****   * @brief     This section provide a set of functions used to read and
  33:Inc/lis3dh_reg.c ****   *            write a generic register of the device.
  34:Inc/lis3dh_reg.c ****   *            MANDATORY: return 0 -> no Error.
  35:Inc/lis3dh_reg.c ****   * @{
  36:Inc/lis3dh_reg.c ****   *
  37:Inc/lis3dh_reg.c ****   */
  38:Inc/lis3dh_reg.c **** 
  39:Inc/lis3dh_reg.c **** /**
  40:Inc/lis3dh_reg.c ****   * @brief  Read generic device register
  41:Inc/lis3dh_reg.c ****   *
  42:Inc/lis3dh_reg.c ****   * @param  ctx   read / write interface definitions(ptr)
  43:Inc/lis3dh_reg.c ****   * @param  reg   register to read
  44:Inc/lis3dh_reg.c ****   * @param  data  pointer to buffer that store the data read(ptr)
  45:Inc/lis3dh_reg.c ****   * @param  len   number of consecutive register to read
  46:Inc/lis3dh_reg.c ****   * @retval          interface status (MANDATORY: return 0 -> no Error)
  47:Inc/lis3dh_reg.c ****   *
  48:Inc/lis3dh_reg.c ****   */
  49:Inc/lis3dh_reg.c **** int32_t lis3dh_read_reg(stmdev_ctx_t *ctx, uint8_t reg, uint8_t *data,
  50:Inc/lis3dh_reg.c ****                         uint16_t len)
  51:Inc/lis3dh_reg.c **** {
  28              		.loc 1 51 1 view -0
  29              		.cfi_startproc
  30              		@ args = 0, pretend = 0, frame = 0
  31              		@ frame_needed = 0, uses_anonymous_args = 0
  32              		.loc 1 51 1 is_stmt 0 view .LVU1
  33 0000 10B5     		push	{r4, lr}
  34              	.LCFI0:
  35              		.cfi_def_cfa_offset 8
  36              		.cfi_offset 4, -8
  37              		.cfi_offset 14, -4
  52:Inc/lis3dh_reg.c ****   int32_t ret;
  38              		.loc 1 52 3 is_stmt 1 view .LVU2
  53:Inc/lis3dh_reg.c **** 
  54:Inc/lis3dh_reg.c ****   ret = ctx->read_reg(ctx->handle, reg, data, len);
  39              		.loc 1 54 3 view .LVU3
  40              		.loc 1 54 12 is_stmt 0 view .LVU4
  41 0002 4468     		ldr	r4, [r0, #4]
  42              		.loc 1 54 9 view .LVU5
  43 0004 8068     		ldr	r0, [r0, #8]
  44              	.LVL1:
  45              		.loc 1 54 9 view .LVU6
  46 0006 A047     		blx	r4
  47              	.LVL2:
  55:Inc/lis3dh_reg.c **** 
  56:Inc/lis3dh_reg.c ****   return ret;
  48              		.loc 1 56 3 is_stmt 1 view .LVU7
  57:Inc/lis3dh_reg.c **** }
  49              		.loc 1 57 1 is_stmt 0 view .LVU8
  50              		@ sp needed
  51 0008 10BD     		pop	{r4, pc}
  52              		.cfi_endproc
  53              	.LFE0:
  55              		.section	.text.lis3dh_write_reg,"ax",%progbits
  56              		.align	1
  57              		.global	lis3dh_write_reg
  58              		.syntax unified
  59              		.code	16
ARM GAS  /tmp/ccT3btxY.s 			page 3


  60              		.thumb_func
  61              		.fpu softvfp
  63              	lis3dh_write_reg:
  64              	.LVL3:
  65              	.LFB1:
  58:Inc/lis3dh_reg.c **** 
  59:Inc/lis3dh_reg.c **** /**
  60:Inc/lis3dh_reg.c ****   * @brief  Write generic device register
  61:Inc/lis3dh_reg.c ****   *
  62:Inc/lis3dh_reg.c ****   * @param  ctx   read / write interface definitions(ptr)
  63:Inc/lis3dh_reg.c ****   * @param  reg   register to write
  64:Inc/lis3dh_reg.c ****   * @param  data  pointer to data to write in register reg(ptr)
  65:Inc/lis3dh_reg.c ****   * @param  len   number of consecutive register to write
  66:Inc/lis3dh_reg.c ****   * @retval          interface status (MANDATORY: return 0 -> no Error)
  67:Inc/lis3dh_reg.c ****   *
  68:Inc/lis3dh_reg.c ****   */
  69:Inc/lis3dh_reg.c **** int32_t lis3dh_write_reg(stmdev_ctx_t *ctx, uint8_t reg,
  70:Inc/lis3dh_reg.c ****                          uint8_t *data,
  71:Inc/lis3dh_reg.c ****                          uint16_t len)
  72:Inc/lis3dh_reg.c **** {
  66              		.loc 1 72 1 is_stmt 1 view -0
  67              		.cfi_startproc
  68              		@ args = 0, pretend = 0, frame = 0
  69              		@ frame_needed = 0, uses_anonymous_args = 0
  70              		.loc 1 72 1 is_stmt 0 view .LVU10
  71 0000 10B5     		push	{r4, lr}
  72              	.LCFI1:
  73              		.cfi_def_cfa_offset 8
  74              		.cfi_offset 4, -8
  75              		.cfi_offset 14, -4
  73:Inc/lis3dh_reg.c ****   int32_t ret;
  76              		.loc 1 73 3 is_stmt 1 view .LVU11
  74:Inc/lis3dh_reg.c **** 
  75:Inc/lis3dh_reg.c ****   ret = ctx->write_reg(ctx->handle, reg, data, len);
  77              		.loc 1 75 3 view .LVU12
  78              		.loc 1 75 12 is_stmt 0 view .LVU13
  79 0002 0468     		ldr	r4, [r0]
  80              		.loc 1 75 9 view .LVU14
  81 0004 8068     		ldr	r0, [r0, #8]
  82              	.LVL4:
  83              		.loc 1 75 9 view .LVU15
  84 0006 A047     		blx	r4
  85              	.LVL5:
  76:Inc/lis3dh_reg.c **** 
  77:Inc/lis3dh_reg.c ****   return ret;
  86              		.loc 1 77 3 is_stmt 1 view .LVU16
  78:Inc/lis3dh_reg.c **** }
  87              		.loc 1 78 1 is_stmt 0 view .LVU17
  88              		@ sp needed
  89 0008 10BD     		pop	{r4, pc}
  90              		.cfi_endproc
  91              	.LFE1:
  93              		.global	__aeabi_i2f
  94              		.global	__aeabi_fmul
  95              		.section	.text.lis3dh_from_fs2_hr_to_mg,"ax",%progbits
  96              		.align	1
  97              		.global	lis3dh_from_fs2_hr_to_mg
ARM GAS  /tmp/ccT3btxY.s 			page 4


  98              		.syntax unified
  99              		.code	16
 100              		.thumb_func
 101              		.fpu softvfp
 103              	lis3dh_from_fs2_hr_to_mg:
 104              	.LVL6:
 105              	.LFB2:
  79:Inc/lis3dh_reg.c **** 
  80:Inc/lis3dh_reg.c **** /**
  81:Inc/lis3dh_reg.c ****   * @}
  82:Inc/lis3dh_reg.c ****   *
  83:Inc/lis3dh_reg.c ****   */
  84:Inc/lis3dh_reg.c **** 
  85:Inc/lis3dh_reg.c **** /**
  86:Inc/lis3dh_reg.c ****   * @defgroup    LIS3DH_Sensitivity
  87:Inc/lis3dh_reg.c ****   * @brief       These functions convert raw-data into engineering units.
  88:Inc/lis3dh_reg.c ****   * @{
  89:Inc/lis3dh_reg.c ****   *
  90:Inc/lis3dh_reg.c ****   */
  91:Inc/lis3dh_reg.c **** 
  92:Inc/lis3dh_reg.c **** float_t lis3dh_from_fs2_hr_to_mg(int16_t lsb)
  93:Inc/lis3dh_reg.c **** {
 106              		.loc 1 93 1 is_stmt 1 view -0
 107              		.cfi_startproc
 108              		@ args = 0, pretend = 0, frame = 0
 109              		@ frame_needed = 0, uses_anonymous_args = 0
 110              		.loc 1 93 1 is_stmt 0 view .LVU19
 111 0000 10B5     		push	{r4, lr}
 112              	.LCFI2:
 113              		.cfi_def_cfa_offset 8
 114              		.cfi_offset 4, -8
 115              		.cfi_offset 14, -4
  94:Inc/lis3dh_reg.c ****   return ((float_t)lsb / 16.0f) * 1.0f;
 116              		.loc 1 94 3 is_stmt 1 view .LVU20
 117              		.loc 1 94 11 is_stmt 0 view .LVU21
 118 0002 FFF7FEFF 		bl	__aeabi_i2f
 119              	.LVL7:
 120              		.loc 1 94 33 view .LVU22
 121 0006 F621     		movs	r1, #246
 122 0008 8905     		lsls	r1, r1, #22
 123 000a FFF7FEFF 		bl	__aeabi_fmul
 124              	.LVL8:
  95:Inc/lis3dh_reg.c **** }
 125              		.loc 1 95 1 view .LVU23
 126              		@ sp needed
 127 000e 10BD     		pop	{r4, pc}
 128              		.cfi_endproc
 129              	.LFE2:
 131              		.global	__aeabi_fadd
 132              		.section	.text.lis3dh_from_fs4_hr_to_mg,"ax",%progbits
 133              		.align	1
 134              		.global	lis3dh_from_fs4_hr_to_mg
 135              		.syntax unified
 136              		.code	16
 137              		.thumb_func
 138              		.fpu softvfp
 140              	lis3dh_from_fs4_hr_to_mg:
ARM GAS  /tmp/ccT3btxY.s 			page 5


 141              	.LVL9:
 142              	.LFB3:
  96:Inc/lis3dh_reg.c **** 
  97:Inc/lis3dh_reg.c **** float_t lis3dh_from_fs4_hr_to_mg(int16_t lsb)
  98:Inc/lis3dh_reg.c **** {
 143              		.loc 1 98 1 is_stmt 1 view -0
 144              		.cfi_startproc
 145              		@ args = 0, pretend = 0, frame = 0
 146              		@ frame_needed = 0, uses_anonymous_args = 0
 147              		.loc 1 98 1 is_stmt 0 view .LVU25
 148 0000 10B5     		push	{r4, lr}
 149              	.LCFI3:
 150              		.cfi_def_cfa_offset 8
 151              		.cfi_offset 4, -8
 152              		.cfi_offset 14, -4
  99:Inc/lis3dh_reg.c ****   return ((float_t)lsb / 16.0f) *  2.0f;
 153              		.loc 1 99 3 is_stmt 1 view .LVU26
 154              		.loc 1 99 11 is_stmt 0 view .LVU27
 155 0002 FFF7FEFF 		bl	__aeabi_i2f
 156              	.LVL10:
 157              		.loc 1 99 24 view .LVU28
 158 0006 F621     		movs	r1, #246
 159 0008 8905     		lsls	r1, r1, #22
 160 000a FFF7FEFF 		bl	__aeabi_fmul
 161              	.LVL11:
 162              		.loc 1 99 33 view .LVU29
 163 000e 011C     		adds	r1, r0, #0
 164 0010 FFF7FEFF 		bl	__aeabi_fadd
 165              	.LVL12:
 100:Inc/lis3dh_reg.c **** }
 166              		.loc 1 100 1 view .LVU30
 167              		@ sp needed
 168 0014 10BD     		pop	{r4, pc}
 169              		.cfi_endproc
 170              	.LFE3:
 172              		.section	.text.lis3dh_from_fs8_hr_to_mg,"ax",%progbits
 173              		.align	1
 174              		.global	lis3dh_from_fs8_hr_to_mg
 175              		.syntax unified
 176              		.code	16
 177              		.thumb_func
 178              		.fpu softvfp
 180              	lis3dh_from_fs8_hr_to_mg:
 181              	.LVL13:
 182              	.LFB4:
 101:Inc/lis3dh_reg.c **** 
 102:Inc/lis3dh_reg.c **** float_t lis3dh_from_fs8_hr_to_mg(int16_t lsb)
 103:Inc/lis3dh_reg.c **** {
 183              		.loc 1 103 1 is_stmt 1 view -0
 184              		.cfi_startproc
 185              		@ args = 0, pretend = 0, frame = 0
 186              		@ frame_needed = 0, uses_anonymous_args = 0
 187              		.loc 1 103 1 is_stmt 0 view .LVU32
 188 0000 10B5     		push	{r4, lr}
 189              	.LCFI4:
 190              		.cfi_def_cfa_offset 8
 191              		.cfi_offset 4, -8
ARM GAS  /tmp/ccT3btxY.s 			page 6


 192              		.cfi_offset 14, -4
 104:Inc/lis3dh_reg.c ****   return ((float_t)lsb / 16.0f) * 4.0f;
 193              		.loc 1 104 3 is_stmt 1 view .LVU33
 194              		.loc 1 104 11 is_stmt 0 view .LVU34
 195 0002 FFF7FEFF 		bl	__aeabi_i2f
 196              	.LVL14:
 197              		.loc 1 104 24 view .LVU35
 198 0006 F621     		movs	r1, #246
 199 0008 8905     		lsls	r1, r1, #22
 200 000a FFF7FEFF 		bl	__aeabi_fmul
 201              	.LVL15:
 202              		.loc 1 104 33 view .LVU36
 203 000e 8121     		movs	r1, #129
 204 0010 C905     		lsls	r1, r1, #23
 205 0012 FFF7FEFF 		bl	__aeabi_fmul
 206              	.LVL16:
 105:Inc/lis3dh_reg.c **** }
 207              		.loc 1 105 1 view .LVU37
 208              		@ sp needed
 209 0016 10BD     		pop	{r4, pc}
 210              		.cfi_endproc
 211              	.LFE4:
 213              		.section	.text.lis3dh_from_fs16_hr_to_mg,"ax",%progbits
 214              		.align	1
 215              		.global	lis3dh_from_fs16_hr_to_mg
 216              		.syntax unified
 217              		.code	16
 218              		.thumb_func
 219              		.fpu softvfp
 221              	lis3dh_from_fs16_hr_to_mg:
 222              	.LVL17:
 223              	.LFB5:
 106:Inc/lis3dh_reg.c **** 
 107:Inc/lis3dh_reg.c **** float_t lis3dh_from_fs16_hr_to_mg(int16_t lsb)
 108:Inc/lis3dh_reg.c **** {
 224              		.loc 1 108 1 is_stmt 1 view -0
 225              		.cfi_startproc
 226              		@ args = 0, pretend = 0, frame = 0
 227              		@ frame_needed = 0, uses_anonymous_args = 0
 228              		.loc 1 108 1 is_stmt 0 view .LVU39
 229 0000 10B5     		push	{r4, lr}
 230              	.LCFI5:
 231              		.cfi_def_cfa_offset 8
 232              		.cfi_offset 4, -8
 233              		.cfi_offset 14, -4
 109:Inc/lis3dh_reg.c ****   return ((float_t)lsb / 16.0f) * 12.0f;
 234              		.loc 1 109 3 is_stmt 1 view .LVU40
 235              		.loc 1 109 11 is_stmt 0 view .LVU41
 236 0002 FFF7FEFF 		bl	__aeabi_i2f
 237              	.LVL18:
 238              		.loc 1 109 24 view .LVU42
 239 0006 F621     		movs	r1, #246
 240 0008 8905     		lsls	r1, r1, #22
 241 000a FFF7FEFF 		bl	__aeabi_fmul
 242              	.LVL19:
 243              		.loc 1 109 33 view .LVU43
 244 000e 0249     		ldr	r1, .L7
ARM GAS  /tmp/ccT3btxY.s 			page 7


 245 0010 FFF7FEFF 		bl	__aeabi_fmul
 246              	.LVL20:
 110:Inc/lis3dh_reg.c **** }
 247              		.loc 1 110 1 view .LVU44
 248              		@ sp needed
 249 0014 10BD     		pop	{r4, pc}
 250              	.L8:
 251 0016 C046     		.align	2
 252              	.L7:
 253 0018 00004041 		.word	1094713344
 254              		.cfi_endproc
 255              	.LFE5:
 257              		.section	.text.lis3dh_from_lsb_hr_to_celsius,"ax",%progbits
 258              		.align	1
 259              		.global	lis3dh_from_lsb_hr_to_celsius
 260              		.syntax unified
 261              		.code	16
 262              		.thumb_func
 263              		.fpu softvfp
 265              	lis3dh_from_lsb_hr_to_celsius:
 266              	.LVL21:
 267              	.LFB6:
 111:Inc/lis3dh_reg.c **** 
 112:Inc/lis3dh_reg.c **** float_t lis3dh_from_lsb_hr_to_celsius(int16_t lsb)
 113:Inc/lis3dh_reg.c **** {
 268              		.loc 1 113 1 is_stmt 1 view -0
 269              		.cfi_startproc
 270              		@ args = 0, pretend = 0, frame = 0
 271              		@ frame_needed = 0, uses_anonymous_args = 0
 272              		.loc 1 113 1 is_stmt 0 view .LVU46
 273 0000 10B5     		push	{r4, lr}
 274              	.LCFI6:
 275              		.cfi_def_cfa_offset 8
 276              		.cfi_offset 4, -8
 277              		.cfi_offset 14, -4
 114:Inc/lis3dh_reg.c ****   return (((float_t)lsb / 64.0f) / 4.0f) + 25.0f;
 278              		.loc 1 114 3 is_stmt 1 view .LVU47
 279              		.loc 1 114 12 is_stmt 0 view .LVU48
 280 0002 FFF7FEFF 		bl	__aeabi_i2f
 281              	.LVL22:
 282              		.loc 1 114 25 view .LVU49
 283 0006 F221     		movs	r1, #242
 284 0008 8905     		lsls	r1, r1, #22
 285 000a FFF7FEFF 		bl	__aeabi_fmul
 286              	.LVL23:
 287              		.loc 1 114 34 view .LVU50
 288 000e FA21     		movs	r1, #250
 289 0010 8905     		lsls	r1, r1, #22
 290 0012 FFF7FEFF 		bl	__aeabi_fmul
 291              	.LVL24:
 292              		.loc 1 114 42 view .LVU51
 293 0016 0249     		ldr	r1, .L10
 294 0018 FFF7FEFF 		bl	__aeabi_fadd
 295              	.LVL25:
 115:Inc/lis3dh_reg.c **** }
 296              		.loc 1 115 1 view .LVU52
 297              		@ sp needed
ARM GAS  /tmp/ccT3btxY.s 			page 8


 298 001c 10BD     		pop	{r4, pc}
 299              	.L11:
 300 001e C046     		.align	2
 301              	.L10:
 302 0020 0000C841 		.word	1103626240
 303              		.cfi_endproc
 304              	.LFE6:
 306              		.section	.text.lis3dh_from_fs2_nm_to_mg,"ax",%progbits
 307              		.align	1
 308              		.global	lis3dh_from_fs2_nm_to_mg
 309              		.syntax unified
 310              		.code	16
 311              		.thumb_func
 312              		.fpu softvfp
 314              	lis3dh_from_fs2_nm_to_mg:
 315              	.LVL26:
 316              	.LFB7:
 116:Inc/lis3dh_reg.c **** 
 117:Inc/lis3dh_reg.c **** float_t lis3dh_from_fs2_nm_to_mg(int16_t lsb)
 118:Inc/lis3dh_reg.c **** {
 317              		.loc 1 118 1 is_stmt 1 view -0
 318              		.cfi_startproc
 319              		@ args = 0, pretend = 0, frame = 0
 320              		@ frame_needed = 0, uses_anonymous_args = 0
 321              		.loc 1 118 1 is_stmt 0 view .LVU54
 322 0000 10B5     		push	{r4, lr}
 323              	.LCFI7:
 324              		.cfi_def_cfa_offset 8
 325              		.cfi_offset 4, -8
 326              		.cfi_offset 14, -4
 119:Inc/lis3dh_reg.c ****   return ((float_t)lsb / 64.0f) *  4.0f;
 327              		.loc 1 119 3 is_stmt 1 view .LVU55
 328              		.loc 1 119 11 is_stmt 0 view .LVU56
 329 0002 FFF7FEFF 		bl	__aeabi_i2f
 330              	.LVL27:
 331              		.loc 1 119 24 view .LVU57
 332 0006 F221     		movs	r1, #242
 333 0008 8905     		lsls	r1, r1, #22
 334 000a FFF7FEFF 		bl	__aeabi_fmul
 335              	.LVL28:
 336              		.loc 1 119 33 view .LVU58
 337 000e 8121     		movs	r1, #129
 338 0010 C905     		lsls	r1, r1, #23
 339 0012 FFF7FEFF 		bl	__aeabi_fmul
 340              	.LVL29:
 120:Inc/lis3dh_reg.c **** }
 341              		.loc 1 120 1 view .LVU59
 342              		@ sp needed
 343 0016 10BD     		pop	{r4, pc}
 344              		.cfi_endproc
 345              	.LFE7:
 347              		.section	.text.lis3dh_from_fs4_nm_to_mg,"ax",%progbits
 348              		.align	1
 349              		.global	lis3dh_from_fs4_nm_to_mg
 350              		.syntax unified
 351              		.code	16
 352              		.thumb_func
ARM GAS  /tmp/ccT3btxY.s 			page 9


 353              		.fpu softvfp
 355              	lis3dh_from_fs4_nm_to_mg:
 356              	.LVL30:
 357              	.LFB8:
 121:Inc/lis3dh_reg.c **** 
 122:Inc/lis3dh_reg.c **** float_t lis3dh_from_fs4_nm_to_mg(int16_t lsb)
 123:Inc/lis3dh_reg.c **** {
 358              		.loc 1 123 1 is_stmt 1 view -0
 359              		.cfi_startproc
 360              		@ args = 0, pretend = 0, frame = 0
 361              		@ frame_needed = 0, uses_anonymous_args = 0
 362              		.loc 1 123 1 is_stmt 0 view .LVU61
 363 0000 10B5     		push	{r4, lr}
 364              	.LCFI8:
 365              		.cfi_def_cfa_offset 8
 366              		.cfi_offset 4, -8
 367              		.cfi_offset 14, -4
 124:Inc/lis3dh_reg.c ****   return ((float_t)lsb / 64.0f) *  8.0f;
 368              		.loc 1 124 3 is_stmt 1 view .LVU62
 369              		.loc 1 124 11 is_stmt 0 view .LVU63
 370 0002 FFF7FEFF 		bl	__aeabi_i2f
 371              	.LVL31:
 372              		.loc 1 124 24 view .LVU64
 373 0006 F221     		movs	r1, #242
 374 0008 8905     		lsls	r1, r1, #22
 375 000a FFF7FEFF 		bl	__aeabi_fmul
 376              	.LVL32:
 377              		.loc 1 124 33 view .LVU65
 378 000e 8221     		movs	r1, #130
 379 0010 C905     		lsls	r1, r1, #23
 380 0012 FFF7FEFF 		bl	__aeabi_fmul
 381              	.LVL33:
 125:Inc/lis3dh_reg.c **** }
 382              		.loc 1 125 1 view .LVU66
 383              		@ sp needed
 384 0016 10BD     		pop	{r4, pc}
 385              		.cfi_endproc
 386              	.LFE8:
 388              		.section	.text.lis3dh_from_fs8_nm_to_mg,"ax",%progbits
 389              		.align	1
 390              		.global	lis3dh_from_fs8_nm_to_mg
 391              		.syntax unified
 392              		.code	16
 393              		.thumb_func
 394              		.fpu softvfp
 396              	lis3dh_from_fs8_nm_to_mg:
 397              	.LVL34:
 398              	.LFB9:
 126:Inc/lis3dh_reg.c **** 
 127:Inc/lis3dh_reg.c **** float_t lis3dh_from_fs8_nm_to_mg(int16_t lsb)
 128:Inc/lis3dh_reg.c **** {
 399              		.loc 1 128 1 is_stmt 1 view -0
 400              		.cfi_startproc
 401              		@ args = 0, pretend = 0, frame = 0
 402              		@ frame_needed = 0, uses_anonymous_args = 0
 403              		.loc 1 128 1 is_stmt 0 view .LVU68
 404 0000 10B5     		push	{r4, lr}
ARM GAS  /tmp/ccT3btxY.s 			page 10


 405              	.LCFI9:
 406              		.cfi_def_cfa_offset 8
 407              		.cfi_offset 4, -8
 408              		.cfi_offset 14, -4
 129:Inc/lis3dh_reg.c ****   return ((float_t)lsb / 64.0f) * 16.0f;
 409              		.loc 1 129 3 is_stmt 1 view .LVU69
 410              		.loc 1 129 11 is_stmt 0 view .LVU70
 411 0002 FFF7FEFF 		bl	__aeabi_i2f
 412              	.LVL35:
 413              		.loc 1 129 24 view .LVU71
 414 0006 F221     		movs	r1, #242
 415 0008 8905     		lsls	r1, r1, #22
 416 000a FFF7FEFF 		bl	__aeabi_fmul
 417              	.LVL36:
 418              		.loc 1 129 33 view .LVU72
 419 000e 8321     		movs	r1, #131
 420 0010 C905     		lsls	r1, r1, #23
 421 0012 FFF7FEFF 		bl	__aeabi_fmul
 422              	.LVL37:
 130:Inc/lis3dh_reg.c **** }
 423              		.loc 1 130 1 view .LVU73
 424              		@ sp needed
 425 0016 10BD     		pop	{r4, pc}
 426              		.cfi_endproc
 427              	.LFE9:
 429              		.section	.text.lis3dh_from_fs16_nm_to_mg,"ax",%progbits
 430              		.align	1
 431              		.global	lis3dh_from_fs16_nm_to_mg
 432              		.syntax unified
 433              		.code	16
 434              		.thumb_func
 435              		.fpu softvfp
 437              	lis3dh_from_fs16_nm_to_mg:
 438              	.LVL38:
 439              	.LFB10:
 131:Inc/lis3dh_reg.c **** 
 132:Inc/lis3dh_reg.c **** float_t lis3dh_from_fs16_nm_to_mg(int16_t lsb)
 133:Inc/lis3dh_reg.c **** {
 440              		.loc 1 133 1 is_stmt 1 view -0
 441              		.cfi_startproc
 442              		@ args = 0, pretend = 0, frame = 0
 443              		@ frame_needed = 0, uses_anonymous_args = 0
 444              		.loc 1 133 1 is_stmt 0 view .LVU75
 445 0000 10B5     		push	{r4, lr}
 446              	.LCFI10:
 447              		.cfi_def_cfa_offset 8
 448              		.cfi_offset 4, -8
 449              		.cfi_offset 14, -4
 134:Inc/lis3dh_reg.c ****   return ((float_t)lsb / 64.0f) * 48.0f;
 450              		.loc 1 134 3 is_stmt 1 view .LVU76
 451              		.loc 1 134 11 is_stmt 0 view .LVU77
 452 0002 FFF7FEFF 		bl	__aeabi_i2f
 453              	.LVL39:
 454              		.loc 1 134 24 view .LVU78
 455 0006 F221     		movs	r1, #242
 456 0008 8905     		lsls	r1, r1, #22
 457 000a FFF7FEFF 		bl	__aeabi_fmul
ARM GAS  /tmp/ccT3btxY.s 			page 11


 458              	.LVL40:
 459              		.loc 1 134 33 view .LVU79
 460 000e 0249     		ldr	r1, .L16
 461 0010 FFF7FEFF 		bl	__aeabi_fmul
 462              	.LVL41:
 135:Inc/lis3dh_reg.c **** }
 463              		.loc 1 135 1 view .LVU80
 464              		@ sp needed
 465 0014 10BD     		pop	{r4, pc}
 466              	.L17:
 467 0016 C046     		.align	2
 468              	.L16:
 469 0018 00004042 		.word	1111490560
 470              		.cfi_endproc
 471              	.LFE10:
 473              		.section	.text.lis3dh_from_lsb_nm_to_celsius,"ax",%progbits
 474              		.align	1
 475              		.global	lis3dh_from_lsb_nm_to_celsius
 476              		.syntax unified
 477              		.code	16
 478              		.thumb_func
 479              		.fpu softvfp
 481              	lis3dh_from_lsb_nm_to_celsius:
 482              	.LVL42:
 483              	.LFB11:
 136:Inc/lis3dh_reg.c **** 
 137:Inc/lis3dh_reg.c **** float_t lis3dh_from_lsb_nm_to_celsius(int16_t lsb)
 138:Inc/lis3dh_reg.c **** {
 484              		.loc 1 138 1 is_stmt 1 view -0
 485              		.cfi_startproc
 486              		@ args = 0, pretend = 0, frame = 0
 487              		@ frame_needed = 0, uses_anonymous_args = 0
 488              		.loc 1 138 1 is_stmt 0 view .LVU82
 489 0000 10B5     		push	{r4, lr}
 490              	.LCFI11:
 491              		.cfi_def_cfa_offset 8
 492              		.cfi_offset 4, -8
 493              		.cfi_offset 14, -4
 139:Inc/lis3dh_reg.c ****   return (((float_t)lsb / 64.0f) / 4.0f) + 25.0f;
 494              		.loc 1 139 3 is_stmt 1 view .LVU83
 495              		.loc 1 139 12 is_stmt 0 view .LVU84
 496 0002 FFF7FEFF 		bl	__aeabi_i2f
 497              	.LVL43:
 498              		.loc 1 139 25 view .LVU85
 499 0006 F221     		movs	r1, #242
 500 0008 8905     		lsls	r1, r1, #22
 501 000a FFF7FEFF 		bl	__aeabi_fmul
 502              	.LVL44:
 503              		.loc 1 139 34 view .LVU86
 504 000e FA21     		movs	r1, #250
 505 0010 8905     		lsls	r1, r1, #22
 506 0012 FFF7FEFF 		bl	__aeabi_fmul
 507              	.LVL45:
 508              		.loc 1 139 42 view .LVU87
 509 0016 0249     		ldr	r1, .L19
 510 0018 FFF7FEFF 		bl	__aeabi_fadd
 511              	.LVL46:
ARM GAS  /tmp/ccT3btxY.s 			page 12


 140:Inc/lis3dh_reg.c **** }
 512              		.loc 1 140 1 view .LVU88
 513              		@ sp needed
 514 001c 10BD     		pop	{r4, pc}
 515              	.L20:
 516 001e C046     		.align	2
 517              	.L19:
 518 0020 0000C841 		.word	1103626240
 519              		.cfi_endproc
 520              	.LFE11:
 522              		.section	.text.lis3dh_from_fs2_lp_to_mg,"ax",%progbits
 523              		.align	1
 524              		.global	lis3dh_from_fs2_lp_to_mg
 525              		.syntax unified
 526              		.code	16
 527              		.thumb_func
 528              		.fpu softvfp
 530              	lis3dh_from_fs2_lp_to_mg:
 531              	.LVL47:
 532              	.LFB12:
 141:Inc/lis3dh_reg.c **** 
 142:Inc/lis3dh_reg.c **** float_t lis3dh_from_fs2_lp_to_mg(int16_t lsb)
 143:Inc/lis3dh_reg.c **** {
 533              		.loc 1 143 1 is_stmt 1 view -0
 534              		.cfi_startproc
 535              		@ args = 0, pretend = 0, frame = 0
 536              		@ frame_needed = 0, uses_anonymous_args = 0
 537              		.loc 1 143 1 is_stmt 0 view .LVU90
 538 0000 10B5     		push	{r4, lr}
 539              	.LCFI12:
 540              		.cfi_def_cfa_offset 8
 541              		.cfi_offset 4, -8
 542              		.cfi_offset 14, -4
 144:Inc/lis3dh_reg.c ****   return ((float_t)lsb / 256.0f) * 16.0f;
 543              		.loc 1 144 3 is_stmt 1 view .LVU91
 544              		.loc 1 144 11 is_stmt 0 view .LVU92
 545 0002 FFF7FEFF 		bl	__aeabi_i2f
 546              	.LVL48:
 547              		.loc 1 144 24 view .LVU93
 548 0006 EE21     		movs	r1, #238
 549 0008 8905     		lsls	r1, r1, #22
 550 000a FFF7FEFF 		bl	__aeabi_fmul
 551              	.LVL49:
 552              		.loc 1 144 34 view .LVU94
 553 000e 8321     		movs	r1, #131
 554 0010 C905     		lsls	r1, r1, #23
 555 0012 FFF7FEFF 		bl	__aeabi_fmul
 556              	.LVL50:
 145:Inc/lis3dh_reg.c **** }
 557              		.loc 1 145 1 view .LVU95
 558              		@ sp needed
 559 0016 10BD     		pop	{r4, pc}
 560              		.cfi_endproc
 561              	.LFE12:
 563              		.section	.text.lis3dh_from_fs4_lp_to_mg,"ax",%progbits
 564              		.align	1
 565              		.global	lis3dh_from_fs4_lp_to_mg
ARM GAS  /tmp/ccT3btxY.s 			page 13


 566              		.syntax unified
 567              		.code	16
 568              		.thumb_func
 569              		.fpu softvfp
 571              	lis3dh_from_fs4_lp_to_mg:
 572              	.LVL51:
 573              	.LFB13:
 146:Inc/lis3dh_reg.c **** 
 147:Inc/lis3dh_reg.c **** float_t lis3dh_from_fs4_lp_to_mg(int16_t lsb)
 148:Inc/lis3dh_reg.c **** {
 574              		.loc 1 148 1 is_stmt 1 view -0
 575              		.cfi_startproc
 576              		@ args = 0, pretend = 0, frame = 0
 577              		@ frame_needed = 0, uses_anonymous_args = 0
 578              		.loc 1 148 1 is_stmt 0 view .LVU97
 579 0000 10B5     		push	{r4, lr}
 580              	.LCFI13:
 581              		.cfi_def_cfa_offset 8
 582              		.cfi_offset 4, -8
 583              		.cfi_offset 14, -4
 149:Inc/lis3dh_reg.c ****   return ((float_t)lsb / 256.0f) * 32.0f;
 584              		.loc 1 149 3 is_stmt 1 view .LVU98
 585              		.loc 1 149 11 is_stmt 0 view .LVU99
 586 0002 FFF7FEFF 		bl	__aeabi_i2f
 587              	.LVL52:
 588              		.loc 1 149 24 view .LVU100
 589 0006 EE21     		movs	r1, #238
 590 0008 8905     		lsls	r1, r1, #22
 591 000a FFF7FEFF 		bl	__aeabi_fmul
 592              	.LVL53:
 593              		.loc 1 149 34 view .LVU101
 594 000e 8421     		movs	r1, #132
 595 0010 C905     		lsls	r1, r1, #23
 596 0012 FFF7FEFF 		bl	__aeabi_fmul
 597              	.LVL54:
 150:Inc/lis3dh_reg.c **** }
 598              		.loc 1 150 1 view .LVU102
 599              		@ sp needed
 600 0016 10BD     		pop	{r4, pc}
 601              		.cfi_endproc
 602              	.LFE13:
 604              		.section	.text.lis3dh_from_fs8_lp_to_mg,"ax",%progbits
 605              		.align	1
 606              		.global	lis3dh_from_fs8_lp_to_mg
 607              		.syntax unified
 608              		.code	16
 609              		.thumb_func
 610              		.fpu softvfp
 612              	lis3dh_from_fs8_lp_to_mg:
 613              	.LVL55:
 614              	.LFB14:
 151:Inc/lis3dh_reg.c **** 
 152:Inc/lis3dh_reg.c **** float_t lis3dh_from_fs8_lp_to_mg(int16_t lsb)
 153:Inc/lis3dh_reg.c **** {
 615              		.loc 1 153 1 is_stmt 1 view -0
 616              		.cfi_startproc
 617              		@ args = 0, pretend = 0, frame = 0
ARM GAS  /tmp/ccT3btxY.s 			page 14


 618              		@ frame_needed = 0, uses_anonymous_args = 0
 619              		.loc 1 153 1 is_stmt 0 view .LVU104
 620 0000 10B5     		push	{r4, lr}
 621              	.LCFI14:
 622              		.cfi_def_cfa_offset 8
 623              		.cfi_offset 4, -8
 624              		.cfi_offset 14, -4
 154:Inc/lis3dh_reg.c ****   return ((float_t)lsb / 256.0f) * 64.0f;
 625              		.loc 1 154 3 is_stmt 1 view .LVU105
 626              		.loc 1 154 11 is_stmt 0 view .LVU106
 627 0002 FFF7FEFF 		bl	__aeabi_i2f
 628              	.LVL56:
 629              		.loc 1 154 24 view .LVU107
 630 0006 EE21     		movs	r1, #238
 631 0008 8905     		lsls	r1, r1, #22
 632 000a FFF7FEFF 		bl	__aeabi_fmul
 633              	.LVL57:
 634              		.loc 1 154 34 view .LVU108
 635 000e 8521     		movs	r1, #133
 636 0010 C905     		lsls	r1, r1, #23
 637 0012 FFF7FEFF 		bl	__aeabi_fmul
 638              	.LVL58:
 155:Inc/lis3dh_reg.c **** }
 639              		.loc 1 155 1 view .LVU109
 640              		@ sp needed
 641 0016 10BD     		pop	{r4, pc}
 642              		.cfi_endproc
 643              	.LFE14:
 645              		.section	.text.lis3dh_from_fs16_lp_to_mg,"ax",%progbits
 646              		.align	1
 647              		.global	lis3dh_from_fs16_lp_to_mg
 648              		.syntax unified
 649              		.code	16
 650              		.thumb_func
 651              		.fpu softvfp
 653              	lis3dh_from_fs16_lp_to_mg:
 654              	.LVL59:
 655              	.LFB15:
 156:Inc/lis3dh_reg.c **** 
 157:Inc/lis3dh_reg.c **** float_t lis3dh_from_fs16_lp_to_mg(int16_t lsb)
 158:Inc/lis3dh_reg.c **** {
 656              		.loc 1 158 1 is_stmt 1 view -0
 657              		.cfi_startproc
 658              		@ args = 0, pretend = 0, frame = 0
 659              		@ frame_needed = 0, uses_anonymous_args = 0
 660              		.loc 1 158 1 is_stmt 0 view .LVU111
 661 0000 10B5     		push	{r4, lr}
 662              	.LCFI15:
 663              		.cfi_def_cfa_offset 8
 664              		.cfi_offset 4, -8
 665              		.cfi_offset 14, -4
 159:Inc/lis3dh_reg.c ****   return ((float_t)lsb / 256.0f) * 192.0f;
 666              		.loc 1 159 3 is_stmt 1 view .LVU112
 667              		.loc 1 159 11 is_stmt 0 view .LVU113
 668 0002 FFF7FEFF 		bl	__aeabi_i2f
 669              	.LVL60:
 670              		.loc 1 159 24 view .LVU114
ARM GAS  /tmp/ccT3btxY.s 			page 15


 671 0006 EE21     		movs	r1, #238
 672 0008 8905     		lsls	r1, r1, #22
 673 000a FFF7FEFF 		bl	__aeabi_fmul
 674              	.LVL61:
 675              		.loc 1 159 34 view .LVU115
 676 000e 0249     		ldr	r1, .L25
 677 0010 FFF7FEFF 		bl	__aeabi_fmul
 678              	.LVL62:
 160:Inc/lis3dh_reg.c **** }
 679              		.loc 1 160 1 view .LVU116
 680              		@ sp needed
 681 0014 10BD     		pop	{r4, pc}
 682              	.L26:
 683 0016 C046     		.align	2
 684              	.L25:
 685 0018 00004043 		.word	1128267776
 686              		.cfi_endproc
 687              	.LFE15:
 689              		.section	.text.lis3dh_from_lsb_lp_to_celsius,"ax",%progbits
 690              		.align	1
 691              		.global	lis3dh_from_lsb_lp_to_celsius
 692              		.syntax unified
 693              		.code	16
 694              		.thumb_func
 695              		.fpu softvfp
 697              	lis3dh_from_lsb_lp_to_celsius:
 698              	.LVL63:
 699              	.LFB16:
 161:Inc/lis3dh_reg.c **** 
 162:Inc/lis3dh_reg.c **** float_t lis3dh_from_lsb_lp_to_celsius(int16_t lsb)
 163:Inc/lis3dh_reg.c **** {
 700              		.loc 1 163 1 is_stmt 1 view -0
 701              		.cfi_startproc
 702              		@ args = 0, pretend = 0, frame = 0
 703              		@ frame_needed = 0, uses_anonymous_args = 0
 704              		.loc 1 163 1 is_stmt 0 view .LVU118
 705 0000 10B5     		push	{r4, lr}
 706              	.LCFI16:
 707              		.cfi_def_cfa_offset 8
 708              		.cfi_offset 4, -8
 709              		.cfi_offset 14, -4
 164:Inc/lis3dh_reg.c ****   return (((float_t)lsb / 256.0f) * 1.0f) + 25.0f;
 710              		.loc 1 164 3 is_stmt 1 view .LVU119
 711              		.loc 1 164 12 is_stmt 0 view .LVU120
 712 0002 FFF7FEFF 		bl	__aeabi_i2f
 713              	.LVL64:
 714              		.loc 1 164 35 view .LVU121
 715 0006 EE21     		movs	r1, #238
 716 0008 8905     		lsls	r1, r1, #22
 717 000a FFF7FEFF 		bl	__aeabi_fmul
 718              	.LVL65:
 719              		.loc 1 164 43 view .LVU122
 720 000e 0249     		ldr	r1, .L28
 721 0010 FFF7FEFF 		bl	__aeabi_fadd
 722              	.LVL66:
 165:Inc/lis3dh_reg.c **** }
 723              		.loc 1 165 1 view .LVU123
ARM GAS  /tmp/ccT3btxY.s 			page 16


 724              		@ sp needed
 725 0014 10BD     		pop	{r4, pc}
 726              	.L29:
 727 0016 C046     		.align	2
 728              	.L28:
 729 0018 0000C841 		.word	1103626240
 730              		.cfi_endproc
 731              	.LFE16:
 733              		.section	.text.lis3dh_temp_status_reg_get,"ax",%progbits
 734              		.align	1
 735              		.global	lis3dh_temp_status_reg_get
 736              		.syntax unified
 737              		.code	16
 738              		.thumb_func
 739              		.fpu softvfp
 741              	lis3dh_temp_status_reg_get:
 742              	.LVL67:
 743              	.LFB17:
 166:Inc/lis3dh_reg.c **** 
 167:Inc/lis3dh_reg.c **** /**
 168:Inc/lis3dh_reg.c ****   * @}
 169:Inc/lis3dh_reg.c ****   *
 170:Inc/lis3dh_reg.c ****   */
 171:Inc/lis3dh_reg.c **** 
 172:Inc/lis3dh_reg.c **** /**
 173:Inc/lis3dh_reg.c ****   * @defgroup  LIS3DH_Data_generation
 174:Inc/lis3dh_reg.c ****   * @brief     This section group all the functions concerning data generation.
 175:Inc/lis3dh_reg.c ****   * @{
 176:Inc/lis3dh_reg.c ****   *
 177:Inc/lis3dh_reg.c ****   */
 178:Inc/lis3dh_reg.c **** 
 179:Inc/lis3dh_reg.c **** /**
 180:Inc/lis3dh_reg.c ****   * @brief  Temperature status register.[get]
 181:Inc/lis3dh_reg.c ****   *
 182:Inc/lis3dh_reg.c ****   * @param  ctx      read / write interface definitions
 183:Inc/lis3dh_reg.c ****   * @param  buff     buffer that stores data read
 184:Inc/lis3dh_reg.c ****   * @retval          interface status (MANDATORY: return 0 -> no Error)
 185:Inc/lis3dh_reg.c ****   *
 186:Inc/lis3dh_reg.c ****   */
 187:Inc/lis3dh_reg.c **** int32_t lis3dh_temp_status_reg_get(stmdev_ctx_t *ctx, uint8_t *buff)
 188:Inc/lis3dh_reg.c **** {
 744              		.loc 1 188 1 is_stmt 1 view -0
 745              		.cfi_startproc
 746              		@ args = 0, pretend = 0, frame = 0
 747              		@ frame_needed = 0, uses_anonymous_args = 0
 748              		.loc 1 188 1 is_stmt 0 view .LVU125
 749 0000 10B5     		push	{r4, lr}
 750              	.LCFI17:
 751              		.cfi_def_cfa_offset 8
 752              		.cfi_offset 4, -8
 753              		.cfi_offset 14, -4
 754 0002 0A00     		movs	r2, r1
 189:Inc/lis3dh_reg.c ****   int32_t ret;
 755              		.loc 1 189 3 is_stmt 1 view .LVU126
 190:Inc/lis3dh_reg.c **** 
 191:Inc/lis3dh_reg.c ****   ret = lis3dh_read_reg(ctx, LIS3DH_STATUS_REG_AUX, buff, 1);
 756              		.loc 1 191 3 view .LVU127
ARM GAS  /tmp/ccT3btxY.s 			page 17


 757              		.loc 1 191 9 is_stmt 0 view .LVU128
 758 0004 0123     		movs	r3, #1
 759 0006 0721     		movs	r1, #7
 760              	.LVL68:
 761              		.loc 1 191 9 view .LVU129
 762 0008 FFF7FEFF 		bl	lis3dh_read_reg
 763              	.LVL69:
 192:Inc/lis3dh_reg.c **** 
 193:Inc/lis3dh_reg.c ****   return ret;
 764              		.loc 1 193 3 is_stmt 1 view .LVU130
 194:Inc/lis3dh_reg.c **** }
 765              		.loc 1 194 1 is_stmt 0 view .LVU131
 766              		@ sp needed
 767 000c 10BD     		pop	{r4, pc}
 768              		.cfi_endproc
 769              	.LFE17:
 771              		.section	.text.lis3dh_temp_data_ready_get,"ax",%progbits
 772              		.align	1
 773              		.global	lis3dh_temp_data_ready_get
 774              		.syntax unified
 775              		.code	16
 776              		.thumb_func
 777              		.fpu softvfp
 779              	lis3dh_temp_data_ready_get:
 780              	.LVL70:
 781              	.LFB18:
 195:Inc/lis3dh_reg.c **** /**
 196:Inc/lis3dh_reg.c ****   * @brief  Temperature data available.[get]
 197:Inc/lis3dh_reg.c ****   *
 198:Inc/lis3dh_reg.c ****   * @param  ctx      read / write interface definitions
 199:Inc/lis3dh_reg.c ****   * @param  val      change the values of tda in reg STATUS_REG_AUX
 200:Inc/lis3dh_reg.c ****   * @retval          interface status (MANDATORY: return 0 -> no Error)
 201:Inc/lis3dh_reg.c ****   *
 202:Inc/lis3dh_reg.c ****   */
 203:Inc/lis3dh_reg.c **** int32_t lis3dh_temp_data_ready_get(stmdev_ctx_t *ctx, uint8_t *val)
 204:Inc/lis3dh_reg.c **** {
 782              		.loc 1 204 1 is_stmt 1 view -0
 783              		.cfi_startproc
 784              		@ args = 0, pretend = 0, frame = 8
 785              		@ frame_needed = 0, uses_anonymous_args = 0
 786              		.loc 1 204 1 is_stmt 0 view .LVU133
 787 0000 30B5     		push	{r4, r5, lr}
 788              	.LCFI18:
 789              		.cfi_def_cfa_offset 12
 790              		.cfi_offset 4, -12
 791              		.cfi_offset 5, -8
 792              		.cfi_offset 14, -4
 793 0002 83B0     		sub	sp, sp, #12
 794              	.LCFI19:
 795              		.cfi_def_cfa_offset 24
 796 0004 0C00     		movs	r4, r1
 205:Inc/lis3dh_reg.c ****   lis3dh_status_reg_aux_t status_reg_aux;
 797              		.loc 1 205 3 is_stmt 1 view .LVU134
 206:Inc/lis3dh_reg.c ****   int32_t ret;
 798              		.loc 1 206 3 view .LVU135
 207:Inc/lis3dh_reg.c **** 
 208:Inc/lis3dh_reg.c ****   ret = lis3dh_read_reg(ctx, LIS3DH_STATUS_REG_AUX,
ARM GAS  /tmp/ccT3btxY.s 			page 18


 799              		.loc 1 208 3 view .LVU136
 800              		.loc 1 208 9 is_stmt 0 view .LVU137
 801 0006 01AD     		add	r5, sp, #4
 802 0008 0123     		movs	r3, #1
 803 000a 2A00     		movs	r2, r5
 804 000c 0721     		movs	r1, #7
 805              	.LVL71:
 806              		.loc 1 208 9 view .LVU138
 807 000e FFF7FEFF 		bl	lis3dh_read_reg
 808              	.LVL72:
 209:Inc/lis3dh_reg.c ****                         (uint8_t *)&status_reg_aux, 1);
 210:Inc/lis3dh_reg.c ****   *val = status_reg_aux._3da;
 809              		.loc 1 210 3 is_stmt 1 view .LVU139
 810              		.loc 1 210 24 is_stmt 0 view .LVU140
 811 0012 2B78     		ldrb	r3, [r5]
 812 0014 5B07     		lsls	r3, r3, #29
 813 0016 DB0F     		lsrs	r3, r3, #31
 814              		.loc 1 210 8 view .LVU141
 815 0018 2370     		strb	r3, [r4]
 211:Inc/lis3dh_reg.c **** 
 212:Inc/lis3dh_reg.c ****   return ret;
 816              		.loc 1 212 3 is_stmt 1 view .LVU142
 213:Inc/lis3dh_reg.c **** }
 817              		.loc 1 213 1 is_stmt 0 view .LVU143
 818 001a 03B0     		add	sp, sp, #12
 819              		@ sp needed
 820              	.LVL73:
 821              		.loc 1 213 1 view .LVU144
 822 001c 30BD     		pop	{r4, r5, pc}
 823              		.cfi_endproc
 824              	.LFE18:
 826              		.section	.text.lis3dh_temp_data_ovr_get,"ax",%progbits
 827              		.align	1
 828              		.global	lis3dh_temp_data_ovr_get
 829              		.syntax unified
 830              		.code	16
 831              		.thumb_func
 832              		.fpu softvfp
 834              	lis3dh_temp_data_ovr_get:
 835              	.LVL74:
 836              	.LFB19:
 214:Inc/lis3dh_reg.c **** /**
 215:Inc/lis3dh_reg.c ****   * @brief  Temperature data overrun.[get]
 216:Inc/lis3dh_reg.c ****   *
 217:Inc/lis3dh_reg.c ****   * @param  ctx      read / write interface definitions
 218:Inc/lis3dh_reg.c ****   * @param  val      change the values of tor in reg STATUS_REG_AUX
 219:Inc/lis3dh_reg.c ****   * @retval          interface status (MANDATORY: return 0 -> no Error)
 220:Inc/lis3dh_reg.c ****   *
 221:Inc/lis3dh_reg.c ****   */
 222:Inc/lis3dh_reg.c **** int32_t lis3dh_temp_data_ovr_get(stmdev_ctx_t *ctx, uint8_t *val)
 223:Inc/lis3dh_reg.c **** {
 837              		.loc 1 223 1 is_stmt 1 view -0
 838              		.cfi_startproc
 839              		@ args = 0, pretend = 0, frame = 8
 840              		@ frame_needed = 0, uses_anonymous_args = 0
 841              		.loc 1 223 1 is_stmt 0 view .LVU146
 842 0000 30B5     		push	{r4, r5, lr}
ARM GAS  /tmp/ccT3btxY.s 			page 19


 843              	.LCFI20:
 844              		.cfi_def_cfa_offset 12
 845              		.cfi_offset 4, -12
 846              		.cfi_offset 5, -8
 847              		.cfi_offset 14, -4
 848 0002 83B0     		sub	sp, sp, #12
 849              	.LCFI21:
 850              		.cfi_def_cfa_offset 24
 851 0004 0C00     		movs	r4, r1
 224:Inc/lis3dh_reg.c ****   lis3dh_status_reg_aux_t status_reg_aux;
 852              		.loc 1 224 3 is_stmt 1 view .LVU147
 225:Inc/lis3dh_reg.c ****   int32_t ret;
 853              		.loc 1 225 3 view .LVU148
 226:Inc/lis3dh_reg.c **** 
 227:Inc/lis3dh_reg.c ****   ret = lis3dh_read_reg(ctx, LIS3DH_STATUS_REG_AUX,
 854              		.loc 1 227 3 view .LVU149
 855              		.loc 1 227 9 is_stmt 0 view .LVU150
 856 0006 01AD     		add	r5, sp, #4
 857 0008 0123     		movs	r3, #1
 858 000a 2A00     		movs	r2, r5
 859 000c 0721     		movs	r1, #7
 860              	.LVL75:
 861              		.loc 1 227 9 view .LVU151
 862 000e FFF7FEFF 		bl	lis3dh_read_reg
 863              	.LVL76:
 228:Inc/lis3dh_reg.c ****                         (uint8_t *)&status_reg_aux, 1);
 229:Inc/lis3dh_reg.c ****   *val = status_reg_aux._3or;
 864              		.loc 1 229 3 is_stmt 1 view .LVU152
 865              		.loc 1 229 24 is_stmt 0 view .LVU153
 866 0012 2B78     		ldrb	r3, [r5]
 867 0014 5B06     		lsls	r3, r3, #25
 868 0016 DB0F     		lsrs	r3, r3, #31
 869              		.loc 1 229 8 view .LVU154
 870 0018 2370     		strb	r3, [r4]
 230:Inc/lis3dh_reg.c **** 
 231:Inc/lis3dh_reg.c ****   return ret;
 871              		.loc 1 231 3 is_stmt 1 view .LVU155
 232:Inc/lis3dh_reg.c **** }
 872              		.loc 1 232 1 is_stmt 0 view .LVU156
 873 001a 03B0     		add	sp, sp, #12
 874              		@ sp needed
 875              	.LVL77:
 876              		.loc 1 232 1 view .LVU157
 877 001c 30BD     		pop	{r4, r5, pc}
 878              		.cfi_endproc
 879              	.LFE19:
 881              		.section	.text.lis3dh_temperature_raw_get,"ax",%progbits
 882              		.align	1
 883              		.global	lis3dh_temperature_raw_get
 884              		.syntax unified
 885              		.code	16
 886              		.thumb_func
 887              		.fpu softvfp
 889              	lis3dh_temperature_raw_get:
 890              	.LVL78:
 891              	.LFB20:
 233:Inc/lis3dh_reg.c **** /**
ARM GAS  /tmp/ccT3btxY.s 			page 20


 234:Inc/lis3dh_reg.c ****   * @brief  Temperature output value.[get]
 235:Inc/lis3dh_reg.c ****   *
 236:Inc/lis3dh_reg.c ****   * @param  ctx      read / write interface definitions
 237:Inc/lis3dh_reg.c ****   * @param  buff     buffer that stores data read
 238:Inc/lis3dh_reg.c ****   * @retval          interface status (MANDATORY: return 0 -> no Error)
 239:Inc/lis3dh_reg.c ****   *
 240:Inc/lis3dh_reg.c ****   */
 241:Inc/lis3dh_reg.c **** int32_t lis3dh_temperature_raw_get(stmdev_ctx_t *ctx, int16_t *val)
 242:Inc/lis3dh_reg.c **** {
 892              		.loc 1 242 1 is_stmt 1 view -0
 893              		.cfi_startproc
 894              		@ args = 0, pretend = 0, frame = 8
 895              		@ frame_needed = 0, uses_anonymous_args = 0
 896              		.loc 1 242 1 is_stmt 0 view .LVU159
 897 0000 10B5     		push	{r4, lr}
 898              	.LCFI22:
 899              		.cfi_def_cfa_offset 8
 900              		.cfi_offset 4, -8
 901              		.cfi_offset 14, -4
 902 0002 82B0     		sub	sp, sp, #8
 903              	.LCFI23:
 904              		.cfi_def_cfa_offset 16
 905 0004 0C00     		movs	r4, r1
 243:Inc/lis3dh_reg.c ****   uint8_t buff[2];
 906              		.loc 1 243 3 is_stmt 1 view .LVU160
 244:Inc/lis3dh_reg.c ****   int32_t ret;
 907              		.loc 1 244 3 view .LVU161
 245:Inc/lis3dh_reg.c **** 
 246:Inc/lis3dh_reg.c ****   ret = lis3dh_read_reg(ctx, LIS3DH_OUT_ADC3_L, buff, 2);
 908              		.loc 1 246 3 view .LVU162
 909              		.loc 1 246 9 is_stmt 0 view .LVU163
 910 0006 0223     		movs	r3, #2
 911 0008 01AA     		add	r2, sp, #4
 912 000a 0C21     		movs	r1, #12
 913              	.LVL79:
 914              		.loc 1 246 9 view .LVU164
 915 000c FFF7FEFF 		bl	lis3dh_read_reg
 916              	.LVL80:
 247:Inc/lis3dh_reg.c ****   *val = (int16_t)buff[1];
 917              		.loc 1 247 3 is_stmt 1 view .LVU165
 918              		.loc 1 247 10 is_stmt 0 view .LVU166
 919 0010 6B46     		mov	r3, sp
 920 0012 5B79     		ldrb	r3, [r3, #5]
 921              		.loc 1 247 8 view .LVU167
 922 0014 2380     		strh	r3, [r4]
 248:Inc/lis3dh_reg.c ****   *val = (*val * 256) + (int16_t)buff[0];
 923              		.loc 1 248 3 is_stmt 1 view .LVU168
 924              		.loc 1 248 16 is_stmt 0 view .LVU169
 925 0016 1B02     		lsls	r3, r3, #8
 926              		.loc 1 248 38 view .LVU170
 927 0018 6A46     		mov	r2, sp
 928 001a 1279     		ldrb	r2, [r2, #4]
 929              		.loc 1 248 23 view .LVU171
 930 001c 9B18     		adds	r3, r3, r2
 931              		.loc 1 248 8 view .LVU172
 932 001e 2380     		strh	r3, [r4]
 249:Inc/lis3dh_reg.c **** 
ARM GAS  /tmp/ccT3btxY.s 			page 21


 250:Inc/lis3dh_reg.c ****   return ret;
 933              		.loc 1 250 3 is_stmt 1 view .LVU173
 251:Inc/lis3dh_reg.c **** }
 934              		.loc 1 251 1 is_stmt 0 view .LVU174
 935 0020 02B0     		add	sp, sp, #8
 936              		@ sp needed
 937              	.LVL81:
 938              		.loc 1 251 1 view .LVU175
 939 0022 10BD     		pop	{r4, pc}
 940              		.cfi_endproc
 941              	.LFE20:
 943              		.section	.text.lis3dh_adc_raw_get,"ax",%progbits
 944              		.align	1
 945              		.global	lis3dh_adc_raw_get
 946              		.syntax unified
 947              		.code	16
 948              		.thumb_func
 949              		.fpu softvfp
 951              	lis3dh_adc_raw_get:
 952              	.LVL82:
 953              	.LFB21:
 252:Inc/lis3dh_reg.c **** 
 253:Inc/lis3dh_reg.c **** /**
 254:Inc/lis3dh_reg.c ****   * @brief  ADC output value.[get]
 255:Inc/lis3dh_reg.c ****   *         Sample frequency: the same as the ODR CTRL_REG1
 256:Inc/lis3dh_reg.c ****   *         The resolution:
 257:Inc/lis3dh_reg.c ****   *                    10bit if LPen bit in CTRL_REG1 (20h) is clear
 258:Inc/lis3dh_reg.c ****   *                     8bit if LPen bit in CTRL_REG1 (20h) is set
 259:Inc/lis3dh_reg.c ****   *         Data Format:
 260:Inc/lis3dh_reg.c ****   *                     Outputs are Left Justified in 2 complements
 261:Inc/lis3dh_reg.c ****   *                     range 800mV
 262:Inc/lis3dh_reg.c ****   *                     code zero means an analogue value of about 1.2V
 263:Inc/lis3dh_reg.c ****   *                     Voltage values smaller than centre values are positive
 264:Inc/lis3dh_reg.c ****   *                           (Example:  800mV = 7Fh / 127 dec)
 265:Inc/lis3dh_reg.c ****   *                     Voltage values bigger than centre values are negative
 266:Inc/lis3dh_reg.c ****   *                           (Example: 1600mV = 80h / -128 dec)
 267:Inc/lis3dh_reg.c ****   *
 268:Inc/lis3dh_reg.c ****   * @param  ctx      read / write interface definitions
 269:Inc/lis3dh_reg.c ****   * @param  buff     buffer that stores data read
 270:Inc/lis3dh_reg.c ****   * @retval          interface status (MANDATORY: return 0 -> no Error)
 271:Inc/lis3dh_reg.c ****   *
 272:Inc/lis3dh_reg.c ****   */
 273:Inc/lis3dh_reg.c **** int32_t lis3dh_adc_raw_get(stmdev_ctx_t *ctx, int16_t *val)
 274:Inc/lis3dh_reg.c **** {
 954              		.loc 1 274 1 is_stmt 1 view -0
 955              		.cfi_startproc
 956              		@ args = 0, pretend = 0, frame = 8
 957              		@ frame_needed = 0, uses_anonymous_args = 0
 958              		.loc 1 274 1 is_stmt 0 view .LVU177
 959 0000 10B5     		push	{r4, lr}
 960              	.LCFI24:
 961              		.cfi_def_cfa_offset 8
 962              		.cfi_offset 4, -8
 963              		.cfi_offset 14, -4
 964 0002 82B0     		sub	sp, sp, #8
 965              	.LCFI25:
 966              		.cfi_def_cfa_offset 16
ARM GAS  /tmp/ccT3btxY.s 			page 22


 967 0004 0C00     		movs	r4, r1
 275:Inc/lis3dh_reg.c ****   uint8_t buff[6];
 968              		.loc 1 275 3 is_stmt 1 view .LVU178
 276:Inc/lis3dh_reg.c ****   int32_t ret;
 969              		.loc 1 276 3 view .LVU179
 277:Inc/lis3dh_reg.c **** 
 278:Inc/lis3dh_reg.c ****   ret = lis3dh_read_reg(ctx, LIS3DH_OUT_ADC1_L, buff, 6);
 970              		.loc 1 278 3 view .LVU180
 971              		.loc 1 278 9 is_stmt 0 view .LVU181
 972 0006 0623     		movs	r3, #6
 973 0008 6A46     		mov	r2, sp
 974 000a 0821     		movs	r1, #8
 975              	.LVL83:
 976              		.loc 1 278 9 view .LVU182
 977 000c FFF7FEFF 		bl	lis3dh_read_reg
 978              	.LVL84:
 279:Inc/lis3dh_reg.c ****   val[0] = (int16_t)buff[1];
 979              		.loc 1 279 3 is_stmt 1 view .LVU183
 980              		.loc 1 279 12 is_stmt 0 view .LVU184
 981 0010 6B46     		mov	r3, sp
 982 0012 5B78     		ldrb	r3, [r3, #1]
 983              		.loc 1 279 10 view .LVU185
 984 0014 2380     		strh	r3, [r4]
 280:Inc/lis3dh_reg.c ****   val[0] = (val[0] * 256) + (int16_t)buff[0];
 985              		.loc 1 280 3 is_stmt 1 view .LVU186
 986              		.loc 1 280 20 is_stmt 0 view .LVU187
 987 0016 1B02     		lsls	r3, r3, #8
 988              		.loc 1 280 42 view .LVU188
 989 0018 6A46     		mov	r2, sp
 990 001a 1278     		ldrb	r2, [r2]
 991              		.loc 1 280 27 view .LVU189
 992 001c 9B18     		adds	r3, r3, r2
 993              		.loc 1 280 10 view .LVU190
 994 001e 2380     		strh	r3, [r4]
 281:Inc/lis3dh_reg.c ****   val[1] = (int16_t)buff[3];
 995              		.loc 1 281 3 is_stmt 1 view .LVU191
 996              		.loc 1 281 12 is_stmt 0 view .LVU192
 997 0020 6B46     		mov	r3, sp
 998 0022 DB78     		ldrb	r3, [r3, #3]
 999              		.loc 1 281 10 view .LVU193
 1000 0024 6380     		strh	r3, [r4, #2]
 282:Inc/lis3dh_reg.c ****   val[1] = (val[1] * 256) + (int16_t)buff[2];
 1001              		.loc 1 282 3 is_stmt 1 view .LVU194
 1002              		.loc 1 282 20 is_stmt 0 view .LVU195
 1003 0026 1B02     		lsls	r3, r3, #8
 1004              		.loc 1 282 42 view .LVU196
 1005 0028 6A46     		mov	r2, sp
 1006 002a 9278     		ldrb	r2, [r2, #2]
 1007              		.loc 1 282 27 view .LVU197
 1008 002c 9B18     		adds	r3, r3, r2
 1009              		.loc 1 282 10 view .LVU198
 1010 002e 6380     		strh	r3, [r4, #2]
 283:Inc/lis3dh_reg.c ****   val[2] = (int16_t)buff[5];
 1011              		.loc 1 283 3 is_stmt 1 view .LVU199
 1012              		.loc 1 283 12 is_stmt 0 view .LVU200
 1013 0030 6B46     		mov	r3, sp
 1014 0032 5B79     		ldrb	r3, [r3, #5]
ARM GAS  /tmp/ccT3btxY.s 			page 23


 1015              		.loc 1 283 10 view .LVU201
 1016 0034 A380     		strh	r3, [r4, #4]
 284:Inc/lis3dh_reg.c ****   val[2] = (val[2] * 256) + (int16_t)buff[4];
 1017              		.loc 1 284 3 is_stmt 1 view .LVU202
 1018              		.loc 1 284 20 is_stmt 0 view .LVU203
 1019 0036 1B02     		lsls	r3, r3, #8
 1020              		.loc 1 284 42 view .LVU204
 1021 0038 6A46     		mov	r2, sp
 1022 003a 1279     		ldrb	r2, [r2, #4]
 1023              		.loc 1 284 27 view .LVU205
 1024 003c 9B18     		adds	r3, r3, r2
 1025              		.loc 1 284 10 view .LVU206
 1026 003e A380     		strh	r3, [r4, #4]
 285:Inc/lis3dh_reg.c **** 
 286:Inc/lis3dh_reg.c ****   return ret;
 1027              		.loc 1 286 3 is_stmt 1 view .LVU207
 287:Inc/lis3dh_reg.c **** }
 1028              		.loc 1 287 1 is_stmt 0 view .LVU208
 1029 0040 02B0     		add	sp, sp, #8
 1030              		@ sp needed
 1031              	.LVL85:
 1032              		.loc 1 287 1 view .LVU209
 1033 0042 10BD     		pop	{r4, pc}
 1034              		.cfi_endproc
 1035              	.LFE21:
 1037              		.section	.text.lis3dh_aux_adc_get,"ax",%progbits
 1038              		.align	1
 1039              		.global	lis3dh_aux_adc_get
 1040              		.syntax unified
 1041              		.code	16
 1042              		.thumb_func
 1043              		.fpu softvfp
 1045              	lis3dh_aux_adc_get:
 1046              	.LVL86:
 1047              	.LFB23:
 288:Inc/lis3dh_reg.c **** 
 289:Inc/lis3dh_reg.c **** /**
 290:Inc/lis3dh_reg.c ****   * @brief  Auxiliary ADC.[set]
 291:Inc/lis3dh_reg.c ****   *
 292:Inc/lis3dh_reg.c ****   * @param  ctx      read / write interface definitions
 293:Inc/lis3dh_reg.c ****   * @param  val      configure the auxiliary ADC
 294:Inc/lis3dh_reg.c ****   * @retval          interface status (MANDATORY: return 0 -> no Error)
 295:Inc/lis3dh_reg.c ****   *
 296:Inc/lis3dh_reg.c ****   */
 297:Inc/lis3dh_reg.c **** int32_t lis3dh_aux_adc_set(stmdev_ctx_t *ctx, lis3dh_temp_en_t val)
 298:Inc/lis3dh_reg.c **** {
 299:Inc/lis3dh_reg.c ****   lis3dh_temp_cfg_reg_t temp_cfg_reg;
 300:Inc/lis3dh_reg.c ****   int32_t ret;
 301:Inc/lis3dh_reg.c **** 
 302:Inc/lis3dh_reg.c ****   ret = lis3dh_read_reg(ctx, LIS3DH_TEMP_CFG_REG,
 303:Inc/lis3dh_reg.c ****                         (uint8_t *)&temp_cfg_reg, 1);
 304:Inc/lis3dh_reg.c **** 
 305:Inc/lis3dh_reg.c ****   if (ret == 0)
 306:Inc/lis3dh_reg.c ****   {
 307:Inc/lis3dh_reg.c ****     if (val != LIS3DH_AUX_DISABLE)
 308:Inc/lis3dh_reg.c ****     {
 309:Inc/lis3dh_reg.c ****       /* Required in order to use auxiliary adc */
ARM GAS  /tmp/ccT3btxY.s 			page 24


 310:Inc/lis3dh_reg.c ****       ret = lis3dh_block_data_update_set(ctx, PROPERTY_ENABLE);
 311:Inc/lis3dh_reg.c ****     }
 312:Inc/lis3dh_reg.c ****   }
 313:Inc/lis3dh_reg.c **** 
 314:Inc/lis3dh_reg.c ****   if (ret == 0)
 315:Inc/lis3dh_reg.c ****   {
 316:Inc/lis3dh_reg.c ****     temp_cfg_reg.temp_en = ((uint8_t) val & 0x02U) >> 1;
 317:Inc/lis3dh_reg.c ****     temp_cfg_reg.adc_pd  = (uint8_t) val &  0x01U;
 318:Inc/lis3dh_reg.c ****     ret = lis3dh_write_reg(ctx, LIS3DH_TEMP_CFG_REG,
 319:Inc/lis3dh_reg.c ****                            (uint8_t *)&temp_cfg_reg, 1);
 320:Inc/lis3dh_reg.c ****   }
 321:Inc/lis3dh_reg.c **** 
 322:Inc/lis3dh_reg.c ****   return ret;
 323:Inc/lis3dh_reg.c **** }
 324:Inc/lis3dh_reg.c **** 
 325:Inc/lis3dh_reg.c **** /**
 326:Inc/lis3dh_reg.c ****   * @brief  Auxiliary ADC.[get]
 327:Inc/lis3dh_reg.c ****   *
 328:Inc/lis3dh_reg.c ****   * @param  ctx      read / write interface definitions
 329:Inc/lis3dh_reg.c ****   * @param  val      configure the auxiliary ADC
 330:Inc/lis3dh_reg.c ****   * @retval          interface status (MANDATORY: return 0 -> no Error)
 331:Inc/lis3dh_reg.c ****   *
 332:Inc/lis3dh_reg.c ****   */
 333:Inc/lis3dh_reg.c **** int32_t lis3dh_aux_adc_get(stmdev_ctx_t *ctx, lis3dh_temp_en_t *val)
 334:Inc/lis3dh_reg.c **** {
 1048              		.loc 1 334 1 is_stmt 1 view -0
 1049              		.cfi_startproc
 1050              		@ args = 0, pretend = 0, frame = 8
 1051              		@ frame_needed = 0, uses_anonymous_args = 0
 1052              		.loc 1 334 1 is_stmt 0 view .LVU211
 1053 0000 30B5     		push	{r4, r5, lr}
 1054              	.LCFI26:
 1055              		.cfi_def_cfa_offset 12
 1056              		.cfi_offset 4, -12
 1057              		.cfi_offset 5, -8
 1058              		.cfi_offset 14, -4
 1059 0002 83B0     		sub	sp, sp, #12
 1060              	.LCFI27:
 1061              		.cfi_def_cfa_offset 24
 1062 0004 0C00     		movs	r4, r1
 335:Inc/lis3dh_reg.c ****   lis3dh_temp_cfg_reg_t temp_cfg_reg;
 1063              		.loc 1 335 3 is_stmt 1 view .LVU212
 336:Inc/lis3dh_reg.c ****   int32_t ret;
 1064              		.loc 1 336 3 view .LVU213
 337:Inc/lis3dh_reg.c **** 
 338:Inc/lis3dh_reg.c ****   ret = lis3dh_read_reg(ctx, LIS3DH_TEMP_CFG_REG,
 1065              		.loc 1 338 3 view .LVU214
 1066              		.loc 1 338 9 is_stmt 0 view .LVU215
 1067 0006 01AD     		add	r5, sp, #4
 1068 0008 0123     		movs	r3, #1
 1069 000a 2A00     		movs	r2, r5
 1070 000c 1F21     		movs	r1, #31
 1071              	.LVL87:
 1072              		.loc 1 338 9 view .LVU216
 1073 000e FFF7FEFF 		bl	lis3dh_read_reg
 1074              	.LVL88:
 339:Inc/lis3dh_reg.c ****                         (uint8_t *)&temp_cfg_reg, 1);
ARM GAS  /tmp/ccT3btxY.s 			page 25


 340:Inc/lis3dh_reg.c **** 
 341:Inc/lis3dh_reg.c ****   if ((temp_cfg_reg.temp_en & temp_cfg_reg.adc_pd) ==
 1075              		.loc 1 341 3 is_stmt 1 view .LVU217
 1076              		.loc 1 341 20 is_stmt 0 view .LVU218
 1077 0012 2B78     		ldrb	r3, [r5]
 1078 0014 DA09     		lsrs	r2, r3, #7
 1079              		.loc 1 341 43 view .LVU219
 1080 0016 5B06     		lsls	r3, r3, #25
 1081 0018 DB0F     		lsrs	r3, r3, #31
 1082              		.loc 1 341 6 view .LVU220
 1083 001a 1342     		tst	r3, r2
 1084 001c 09D1     		bne	.L39
 1085              	.L36:
 342:Inc/lis3dh_reg.c ****       PROPERTY_ENABLE)
 343:Inc/lis3dh_reg.c ****   {
 344:Inc/lis3dh_reg.c ****     *val = LIS3DH_AUX_ON_TEMPERATURE;
 345:Inc/lis3dh_reg.c ****   }
 346:Inc/lis3dh_reg.c **** 
 347:Inc/lis3dh_reg.c ****   if ((temp_cfg_reg.temp_en  == PROPERTY_DISABLE) &&
 1086              		.loc 1 347 3 is_stmt 1 view .LVU221
 1087              		.loc 1 347 51 is_stmt 0 view .LVU222
 1088 001e 01AB     		add	r3, sp, #4
 1089 0020 1B78     		ldrb	r3, [r3]
 1090 0022 3F22     		movs	r2, #63
 1091 0024 9343     		bics	r3, r2
 1092              		.loc 1 347 6 view .LVU223
 1093 0026 402B     		cmp	r3, #64
 1094 0028 06D0     		beq	.L40
 348:Inc/lis3dh_reg.c ****       (temp_cfg_reg.adc_pd == PROPERTY_ENABLE))
 349:Inc/lis3dh_reg.c ****   {
 350:Inc/lis3dh_reg.c ****     *val = LIS3DH_AUX_ON_PADS;
 351:Inc/lis3dh_reg.c ****   }
 352:Inc/lis3dh_reg.c **** 
 353:Inc/lis3dh_reg.c ****   else
 354:Inc/lis3dh_reg.c ****   {
 355:Inc/lis3dh_reg.c ****     *val = LIS3DH_AUX_DISABLE;
 1095              		.loc 1 355 5 is_stmt 1 view .LVU224
 1096              		.loc 1 355 10 is_stmt 0 view .LVU225
 1097 002a 0023     		movs	r3, #0
 1098 002c 2370     		strb	r3, [r4]
 356:Inc/lis3dh_reg.c ****   }
 357:Inc/lis3dh_reg.c **** 
 358:Inc/lis3dh_reg.c ****   return ret;
 1099              		.loc 1 358 3 is_stmt 1 view .LVU226
 1100              	.L35:
 359:Inc/lis3dh_reg.c **** }
 1101              		.loc 1 359 1 is_stmt 0 view .LVU227
 1102 002e 03B0     		add	sp, sp, #12
 1103              		@ sp needed
 1104              	.LVL89:
 1105              		.loc 1 359 1 view .LVU228
 1106 0030 30BD     		pop	{r4, r5, pc}
 1107              	.LVL90:
 1108              	.L39:
 344:Inc/lis3dh_reg.c ****   }
 1109              		.loc 1 344 5 is_stmt 1 view .LVU229
 344:Inc/lis3dh_reg.c ****   }
ARM GAS  /tmp/ccT3btxY.s 			page 26


 1110              		.loc 1 344 10 is_stmt 0 view .LVU230
 1111 0032 0323     		movs	r3, #3
 1112 0034 2370     		strb	r3, [r4]
 1113 0036 F2E7     		b	.L36
 1114              	.L40:
 350:Inc/lis3dh_reg.c ****   }
 1115              		.loc 1 350 5 is_stmt 1 view .LVU231
 350:Inc/lis3dh_reg.c ****   }
 1116              		.loc 1 350 10 is_stmt 0 view .LVU232
 1117 0038 3F3B     		subs	r3, r3, #63
 1118 003a 2370     		strb	r3, [r4]
 1119 003c F7E7     		b	.L35
 1120              		.cfi_endproc
 1121              	.LFE23:
 1123              		.section	.text.lis3dh_operating_mode_set,"ax",%progbits
 1124              		.align	1
 1125              		.global	lis3dh_operating_mode_set
 1126              		.syntax unified
 1127              		.code	16
 1128              		.thumb_func
 1129              		.fpu softvfp
 1131              	lis3dh_operating_mode_set:
 1132              	.LVL91:
 1133              	.LFB24:
 360:Inc/lis3dh_reg.c **** 
 361:Inc/lis3dh_reg.c **** /**
 362:Inc/lis3dh_reg.c ****   * @brief  Operating mode selection.[set]
 363:Inc/lis3dh_reg.c ****   *
 364:Inc/lis3dh_reg.c ****   * @param  ctx      read / write interface definitions
 365:Inc/lis3dh_reg.c ****   * @param  val      change the values of lpen in reg CTRL_REG1
 366:Inc/lis3dh_reg.c ****   *                  and HR in reg CTRL_REG4
 367:Inc/lis3dh_reg.c ****   * @retval          interface status (MANDATORY: return 0 -> no Error)
 368:Inc/lis3dh_reg.c ****   *
 369:Inc/lis3dh_reg.c ****   */
 370:Inc/lis3dh_reg.c **** int32_t lis3dh_operating_mode_set(stmdev_ctx_t *ctx,
 371:Inc/lis3dh_reg.c ****                                   lis3dh_op_md_t val)
 372:Inc/lis3dh_reg.c **** {
 1134              		.loc 1 372 1 is_stmt 1 view -0
 1135              		.cfi_startproc
 1136              		@ args = 0, pretend = 0, frame = 8
 1137              		@ frame_needed = 0, uses_anonymous_args = 0
 1138              		.loc 1 372 1 is_stmt 0 view .LVU234
 1139 0000 30B5     		push	{r4, r5, lr}
 1140              	.LCFI28:
 1141              		.cfi_def_cfa_offset 12
 1142              		.cfi_offset 4, -12
 1143              		.cfi_offset 5, -8
 1144              		.cfi_offset 14, -4
 1145 0002 83B0     		sub	sp, sp, #12
 1146              	.LCFI29:
 1147              		.cfi_def_cfa_offset 24
 1148 0004 0400     		movs	r4, r0
 1149 0006 0D00     		movs	r5, r1
 373:Inc/lis3dh_reg.c ****   lis3dh_ctrl_reg1_t ctrl_reg1;
 1150              		.loc 1 373 3 is_stmt 1 view .LVU235
 374:Inc/lis3dh_reg.c ****   lis3dh_ctrl_reg4_t ctrl_reg4;
 1151              		.loc 1 374 3 view .LVU236
ARM GAS  /tmp/ccT3btxY.s 			page 27


 375:Inc/lis3dh_reg.c ****   int32_t ret;
 1152              		.loc 1 375 3 view .LVU237
 376:Inc/lis3dh_reg.c **** 
 377:Inc/lis3dh_reg.c ****   ret = lis3dh_read_reg(ctx, LIS3DH_CTRL_REG1,
 1153              		.loc 1 377 3 view .LVU238
 1154              		.loc 1 377 9 is_stmt 0 view .LVU239
 1155 0008 0123     		movs	r3, #1
 1156 000a 01AA     		add	r2, sp, #4
 1157 000c 2021     		movs	r1, #32
 1158              	.LVL92:
 1159              		.loc 1 377 9 view .LVU240
 1160 000e FFF7FEFF 		bl	lis3dh_read_reg
 1161              	.LVL93:
 378:Inc/lis3dh_reg.c ****                         (uint8_t *)&ctrl_reg1, 1);
 379:Inc/lis3dh_reg.c **** 
 380:Inc/lis3dh_reg.c ****   if (ret == 0)
 1162              		.loc 1 380 3 is_stmt 1 view .LVU241
 1163              		.loc 1 380 6 is_stmt 0 view .LVU242
 1164 0012 0028     		cmp	r0, #0
 1165 0014 1CD0     		beq	.L48
 1166              	.L42:
 381:Inc/lis3dh_reg.c ****   {
 382:Inc/lis3dh_reg.c ****     ret = lis3dh_read_reg(ctx, LIS3DH_CTRL_REG4,
 383:Inc/lis3dh_reg.c ****                           (uint8_t *)&ctrl_reg4, 1);
 384:Inc/lis3dh_reg.c ****   }
 385:Inc/lis3dh_reg.c **** 
 386:Inc/lis3dh_reg.c ****   if (ret == 0)
 1167              		.loc 1 386 3 is_stmt 1 view .LVU243
 1168              		.loc 1 386 6 is_stmt 0 view .LVU244
 1169 0016 0028     		cmp	r0, #0
 1170 0018 16D1     		bne	.L43
 387:Inc/lis3dh_reg.c ****   {
 388:Inc/lis3dh_reg.c ****     if (val == LIS3DH_HR_12bit)
 1171              		.loc 1 388 5 is_stmt 1 view .LVU245
 1172              		.loc 1 388 8 is_stmt 0 view .LVU246
 1173 001a 002D     		cmp	r5, #0
 1174 001c 0AD1     		bne	.L44
 389:Inc/lis3dh_reg.c ****     {
 390:Inc/lis3dh_reg.c ****       ctrl_reg1.lpen = 0;
 1175              		.loc 1 390 7 is_stmt 1 view .LVU247
 1176              		.loc 1 390 22 is_stmt 0 view .LVU248
 1177 001e 01AA     		add	r2, sp, #4
 1178 0020 1378     		ldrb	r3, [r2]
 1179 0022 0821     		movs	r1, #8
 1180 0024 8B43     		bics	r3, r1
 1181 0026 1370     		strb	r3, [r2]
 391:Inc/lis3dh_reg.c ****       ctrl_reg4.hr   = 1;
 1182              		.loc 1 391 7 is_stmt 1 view .LVU249
 1183              		.loc 1 391 22 is_stmt 0 view .LVU250
 1184 0028 6B46     		mov	r3, sp
 1185 002a 1B78     		ldrb	r3, [r3]
 1186 002c 0822     		movs	r2, #8
 1187 002e 1343     		orrs	r3, r2
 1188 0030 6A46     		mov	r2, sp
 1189 0032 1370     		strb	r3, [r2]
 1190              	.L44:
 392:Inc/lis3dh_reg.c ****     }
ARM GAS  /tmp/ccT3btxY.s 			page 28


 393:Inc/lis3dh_reg.c **** 
 394:Inc/lis3dh_reg.c ****     if (val == LIS3DH_NM_10bit)
 1191              		.loc 1 394 5 is_stmt 1 view .LVU251
 1192              		.loc 1 394 8 is_stmt 0 view .LVU252
 1193 0034 012D     		cmp	r5, #1
 1194 0036 12D0     		beq	.L49
 1195              	.L45:
 395:Inc/lis3dh_reg.c ****     {
 396:Inc/lis3dh_reg.c ****       ctrl_reg1.lpen = 0;
 397:Inc/lis3dh_reg.c ****       ctrl_reg4.hr   = 0;
 398:Inc/lis3dh_reg.c ****     }
 399:Inc/lis3dh_reg.c **** 
 400:Inc/lis3dh_reg.c ****     if (val == LIS3DH_LP_8bit)
 1196              		.loc 1 400 5 is_stmt 1 view .LVU253
 1197              		.loc 1 400 8 is_stmt 0 view .LVU254
 1198 0038 022D     		cmp	r5, #2
 1199 003a 1BD0     		beq	.L50
 1200              	.L46:
 401:Inc/lis3dh_reg.c ****     {
 402:Inc/lis3dh_reg.c ****       ctrl_reg1.lpen = 1;
 403:Inc/lis3dh_reg.c ****       ctrl_reg4.hr   = 0;
 404:Inc/lis3dh_reg.c ****     }
 405:Inc/lis3dh_reg.c **** 
 406:Inc/lis3dh_reg.c ****     ret = lis3dh_write_reg(ctx, LIS3DH_CTRL_REG1, (uint8_t *)&ctrl_reg1, 1);
 1201              		.loc 1 406 5 is_stmt 1 view .LVU255
 1202              		.loc 1 406 11 is_stmt 0 view .LVU256
 1203 003c 0123     		movs	r3, #1
 1204 003e 01AA     		add	r2, sp, #4
 1205 0040 2021     		movs	r1, #32
 1206 0042 2000     		movs	r0, r4
 1207              	.LVL94:
 1208              		.loc 1 406 11 view .LVU257
 1209 0044 FFF7FEFF 		bl	lis3dh_write_reg
 1210              	.LVL95:
 1211              	.L43:
 407:Inc/lis3dh_reg.c ****   }
 408:Inc/lis3dh_reg.c **** 
 409:Inc/lis3dh_reg.c ****   if (ret == 0)
 1212              		.loc 1 409 3 is_stmt 1 view .LVU258
 1213              		.loc 1 409 6 is_stmt 0 view .LVU259
 1214 0048 0028     		cmp	r0, #0
 1215 004a 1FD0     		beq	.L51
 1216              	.L41:
 410:Inc/lis3dh_reg.c ****   {
 411:Inc/lis3dh_reg.c ****     ret = lis3dh_write_reg(ctx, LIS3DH_CTRL_REG4, (uint8_t *)&ctrl_reg4, 1);
 412:Inc/lis3dh_reg.c ****   }
 413:Inc/lis3dh_reg.c **** 
 414:Inc/lis3dh_reg.c ****   return ret;
 415:Inc/lis3dh_reg.c **** }
 1217              		.loc 1 415 1 view .LVU260
 1218 004c 03B0     		add	sp, sp, #12
 1219              		@ sp needed
 1220              	.LVL96:
 1221              		.loc 1 415 1 view .LVU261
 1222 004e 30BD     		pop	{r4, r5, pc}
 1223              	.LVL97:
 1224              	.L48:
ARM GAS  /tmp/ccT3btxY.s 			page 29


 382:Inc/lis3dh_reg.c ****                           (uint8_t *)&ctrl_reg4, 1);
 1225              		.loc 1 382 5 is_stmt 1 view .LVU262
 382:Inc/lis3dh_reg.c ****                           (uint8_t *)&ctrl_reg4, 1);
 1226              		.loc 1 382 11 is_stmt 0 view .LVU263
 1227 0050 0123     		movs	r3, #1
 1228 0052 6A46     		mov	r2, sp
 1229 0054 2321     		movs	r1, #35
 1230 0056 2000     		movs	r0, r4
 1231              	.LVL98:
 382:Inc/lis3dh_reg.c ****                           (uint8_t *)&ctrl_reg4, 1);
 1232              		.loc 1 382 11 view .LVU264
 1233 0058 FFF7FEFF 		bl	lis3dh_read_reg
 1234              	.LVL99:
 382:Inc/lis3dh_reg.c ****                           (uint8_t *)&ctrl_reg4, 1);
 1235              		.loc 1 382 11 view .LVU265
 1236 005c DBE7     		b	.L42
 1237              	.L49:
 396:Inc/lis3dh_reg.c ****       ctrl_reg4.hr   = 0;
 1238              		.loc 1 396 7 is_stmt 1 view .LVU266
 396:Inc/lis3dh_reg.c ****       ctrl_reg4.hr   = 0;
 1239              		.loc 1 396 22 is_stmt 0 view .LVU267
 1240 005e 01A9     		add	r1, sp, #4
 1241 0060 0B78     		ldrb	r3, [r1]
 1242 0062 0822     		movs	r2, #8
 1243 0064 9343     		bics	r3, r2
 1244 0066 0B70     		strb	r3, [r1]
 397:Inc/lis3dh_reg.c ****     }
 1245              		.loc 1 397 7 is_stmt 1 view .LVU268
 397:Inc/lis3dh_reg.c ****     }
 1246              		.loc 1 397 22 is_stmt 0 view .LVU269
 1247 0068 6B46     		mov	r3, sp
 1248 006a 1B78     		ldrb	r3, [r3]
 1249 006c 9343     		bics	r3, r2
 1250 006e 6A46     		mov	r2, sp
 1251 0070 1370     		strb	r3, [r2]
 1252 0072 E1E7     		b	.L45
 1253              	.L50:
 402:Inc/lis3dh_reg.c ****       ctrl_reg4.hr   = 0;
 1254              		.loc 1 402 7 is_stmt 1 view .LVU270
 402:Inc/lis3dh_reg.c ****       ctrl_reg4.hr   = 0;
 1255              		.loc 1 402 22 is_stmt 0 view .LVU271
 1256 0074 01AA     		add	r2, sp, #4
 1257 0076 1378     		ldrb	r3, [r2]
 1258 0078 0821     		movs	r1, #8
 1259 007a 0B43     		orrs	r3, r1
 1260 007c 1370     		strb	r3, [r2]
 403:Inc/lis3dh_reg.c ****     }
 1261              		.loc 1 403 7 is_stmt 1 view .LVU272
 403:Inc/lis3dh_reg.c ****     }
 1262              		.loc 1 403 22 is_stmt 0 view .LVU273
 1263 007e 6B46     		mov	r3, sp
 1264 0080 1B78     		ldrb	r3, [r3]
 1265 0082 0822     		movs	r2, #8
 1266 0084 9343     		bics	r3, r2
 1267 0086 6A46     		mov	r2, sp
 1268 0088 1370     		strb	r3, [r2]
 1269 008a D7E7     		b	.L46
ARM GAS  /tmp/ccT3btxY.s 			page 30


 1270              	.L51:
 411:Inc/lis3dh_reg.c ****   }
 1271              		.loc 1 411 5 is_stmt 1 view .LVU274
 411:Inc/lis3dh_reg.c ****   }
 1272              		.loc 1 411 11 is_stmt 0 view .LVU275
 1273 008c 0123     		movs	r3, #1
 1274 008e 6A46     		mov	r2, sp
 1275 0090 2321     		movs	r1, #35
 1276 0092 2000     		movs	r0, r4
 1277              	.LVL100:
 411:Inc/lis3dh_reg.c ****   }
 1278              		.loc 1 411 11 view .LVU276
 1279 0094 FFF7FEFF 		bl	lis3dh_write_reg
 1280              	.LVL101:
 414:Inc/lis3dh_reg.c **** }
 1281              		.loc 1 414 3 is_stmt 1 view .LVU277
 414:Inc/lis3dh_reg.c **** }
 1282              		.loc 1 414 10 is_stmt 0 view .LVU278
 1283 0098 D8E7     		b	.L41
 1284              		.cfi_endproc
 1285              	.LFE24:
 1287              		.section	.text.lis3dh_operating_mode_get,"ax",%progbits
 1288              		.align	1
 1289              		.global	lis3dh_operating_mode_get
 1290              		.syntax unified
 1291              		.code	16
 1292              		.thumb_func
 1293              		.fpu softvfp
 1295              	lis3dh_operating_mode_get:
 1296              	.LVL102:
 1297              	.LFB25:
 416:Inc/lis3dh_reg.c **** 
 417:Inc/lis3dh_reg.c **** /**
 418:Inc/lis3dh_reg.c ****   * @brief  Operating mode selection.[get]
 419:Inc/lis3dh_reg.c ****   *
 420:Inc/lis3dh_reg.c ****   * @param  ctx      read / write interface definitions
 421:Inc/lis3dh_reg.c ****   * @param  val      change the values of lpen in reg CTRL_REG1
 422:Inc/lis3dh_reg.c ****   * @retval          interface status (MANDATORY: return 0 -> no Error)
 423:Inc/lis3dh_reg.c ****   *
 424:Inc/lis3dh_reg.c ****   */
 425:Inc/lis3dh_reg.c **** int32_t lis3dh_operating_mode_get(stmdev_ctx_t *ctx,
 426:Inc/lis3dh_reg.c ****                                   lis3dh_op_md_t *val)
 427:Inc/lis3dh_reg.c **** {
 1298              		.loc 1 427 1 is_stmt 1 view -0
 1299              		.cfi_startproc
 1300              		@ args = 0, pretend = 0, frame = 8
 1301              		@ frame_needed = 0, uses_anonymous_args = 0
 1302              		.loc 1 427 1 is_stmt 0 view .LVU280
 1303 0000 30B5     		push	{r4, r5, lr}
 1304              	.LCFI30:
 1305              		.cfi_def_cfa_offset 12
 1306              		.cfi_offset 4, -12
 1307              		.cfi_offset 5, -8
 1308              		.cfi_offset 14, -4
 1309 0002 83B0     		sub	sp, sp, #12
 1310              	.LCFI31:
 1311              		.cfi_def_cfa_offset 24
ARM GAS  /tmp/ccT3btxY.s 			page 31


 1312 0004 0500     		movs	r5, r0
 1313 0006 0C00     		movs	r4, r1
 428:Inc/lis3dh_reg.c ****   lis3dh_ctrl_reg1_t ctrl_reg1;
 1314              		.loc 1 428 3 is_stmt 1 view .LVU281
 429:Inc/lis3dh_reg.c ****   lis3dh_ctrl_reg4_t ctrl_reg4;
 1315              		.loc 1 429 3 view .LVU282
 430:Inc/lis3dh_reg.c ****   int32_t ret;
 1316              		.loc 1 430 3 view .LVU283
 431:Inc/lis3dh_reg.c **** 
 432:Inc/lis3dh_reg.c ****   ret = lis3dh_read_reg(ctx, LIS3DH_CTRL_REG1, (uint8_t *)&ctrl_reg1, 1);
 1317              		.loc 1 432 3 view .LVU284
 1318              		.loc 1 432 9 is_stmt 0 view .LVU285
 1319 0008 0123     		movs	r3, #1
 1320 000a 01AA     		add	r2, sp, #4
 1321 000c 2021     		movs	r1, #32
 1322              	.LVL103:
 1323              		.loc 1 432 9 view .LVU286
 1324 000e FFF7FEFF 		bl	lis3dh_read_reg
 1325              	.LVL104:
 433:Inc/lis3dh_reg.c **** 
 434:Inc/lis3dh_reg.c ****   if (ret == 0)
 1326              		.loc 1 434 3 is_stmt 1 view .LVU287
 1327              		.loc 1 434 6 is_stmt 0 view .LVU288
 1328 0012 0028     		cmp	r0, #0
 1329 0014 01D0     		beq	.L56
 1330              	.L52:
 435:Inc/lis3dh_reg.c ****   {
 436:Inc/lis3dh_reg.c ****     ret = lis3dh_read_reg(ctx, LIS3DH_CTRL_REG4, (uint8_t *)&ctrl_reg4, 1);
 437:Inc/lis3dh_reg.c **** 
 438:Inc/lis3dh_reg.c ****     if (ctrl_reg1.lpen == PROPERTY_ENABLE)
 439:Inc/lis3dh_reg.c ****     {
 440:Inc/lis3dh_reg.c ****       *val = LIS3DH_LP_8bit;
 441:Inc/lis3dh_reg.c ****     }
 442:Inc/lis3dh_reg.c **** 
 443:Inc/lis3dh_reg.c ****     else if (ctrl_reg4.hr == PROPERTY_ENABLE)
 444:Inc/lis3dh_reg.c ****     {
 445:Inc/lis3dh_reg.c ****       *val = LIS3DH_HR_12bit;
 446:Inc/lis3dh_reg.c ****     }
 447:Inc/lis3dh_reg.c **** 
 448:Inc/lis3dh_reg.c ****     else
 449:Inc/lis3dh_reg.c ****     {
 450:Inc/lis3dh_reg.c ****       *val = LIS3DH_NM_10bit;
 451:Inc/lis3dh_reg.c ****     }
 452:Inc/lis3dh_reg.c ****   }
 453:Inc/lis3dh_reg.c **** 
 454:Inc/lis3dh_reg.c ****   return ret;
 455:Inc/lis3dh_reg.c **** }
 1331              		.loc 1 455 1 view .LVU289
 1332 0016 03B0     		add	sp, sp, #12
 1333              		@ sp needed
 1334              	.LVL105:
 1335              	.LVL106:
 1336              		.loc 1 455 1 view .LVU290
 1337 0018 30BD     		pop	{r4, r5, pc}
 1338              	.LVL107:
 1339              	.L56:
 436:Inc/lis3dh_reg.c **** 
ARM GAS  /tmp/ccT3btxY.s 			page 32


 1340              		.loc 1 436 5 is_stmt 1 view .LVU291
 436:Inc/lis3dh_reg.c **** 
 1341              		.loc 1 436 11 is_stmt 0 view .LVU292
 1342 001a 0123     		movs	r3, #1
 1343 001c 6A46     		mov	r2, sp
 1344 001e 2321     		movs	r1, #35
 1345 0020 2800     		movs	r0, r5
 1346              	.LVL108:
 436:Inc/lis3dh_reg.c **** 
 1347              		.loc 1 436 11 view .LVU293
 1348 0022 FFF7FEFF 		bl	lis3dh_read_reg
 1349              	.LVL109:
 438:Inc/lis3dh_reg.c ****     {
 1350              		.loc 1 438 5 is_stmt 1 view .LVU294
 438:Inc/lis3dh_reg.c ****     {
 1351              		.loc 1 438 24 is_stmt 0 view .LVU295
 1352 0026 01AB     		add	r3, sp, #4
 1353 0028 1B78     		ldrb	r3, [r3]
 438:Inc/lis3dh_reg.c ****     {
 1354              		.loc 1 438 8 view .LVU296
 1355 002a 1B07     		lsls	r3, r3, #28
 1356 002c 02D5     		bpl	.L54
 440:Inc/lis3dh_reg.c ****     }
 1357              		.loc 1 440 7 is_stmt 1 view .LVU297
 440:Inc/lis3dh_reg.c ****     }
 1358              		.loc 1 440 12 is_stmt 0 view .LVU298
 1359 002e 0223     		movs	r3, #2
 1360 0030 2370     		strb	r3, [r4]
 1361 0032 F0E7     		b	.L52
 1362              	.L54:
 443:Inc/lis3dh_reg.c ****     {
 1363              		.loc 1 443 10 is_stmt 1 view .LVU299
 443:Inc/lis3dh_reg.c ****     {
 1364              		.loc 1 443 27 is_stmt 0 view .LVU300
 1365 0034 6B46     		mov	r3, sp
 1366 0036 1B78     		ldrb	r3, [r3]
 443:Inc/lis3dh_reg.c ****     {
 1367              		.loc 1 443 13 view .LVU301
 1368 0038 1B07     		lsls	r3, r3, #28
 1369 003a 02D5     		bpl	.L55
 445:Inc/lis3dh_reg.c ****     }
 1370              		.loc 1 445 7 is_stmt 1 view .LVU302
 445:Inc/lis3dh_reg.c ****     }
 1371              		.loc 1 445 12 is_stmt 0 view .LVU303
 1372 003c 0023     		movs	r3, #0
 1373 003e 2370     		strb	r3, [r4]
 1374 0040 E9E7     		b	.L52
 1375              	.L55:
 450:Inc/lis3dh_reg.c ****     }
 1376              		.loc 1 450 7 is_stmt 1 view .LVU304
 450:Inc/lis3dh_reg.c ****     }
 1377              		.loc 1 450 12 is_stmt 0 view .LVU305
 1378 0042 0123     		movs	r3, #1
 1379 0044 2370     		strb	r3, [r4]
 454:Inc/lis3dh_reg.c **** }
 1380              		.loc 1 454 3 is_stmt 1 view .LVU306
 454:Inc/lis3dh_reg.c **** }
ARM GAS  /tmp/ccT3btxY.s 			page 33


 1381              		.loc 1 454 10 is_stmt 0 view .LVU307
 1382 0046 E6E7     		b	.L52
 1383              		.cfi_endproc
 1384              	.LFE25:
 1386              		.section	.text.lis3dh_data_rate_set,"ax",%progbits
 1387              		.align	1
 1388              		.global	lis3dh_data_rate_set
 1389              		.syntax unified
 1390              		.code	16
 1391              		.thumb_func
 1392              		.fpu softvfp
 1394              	lis3dh_data_rate_set:
 1395              	.LVL110:
 1396              	.LFB26:
 456:Inc/lis3dh_reg.c **** 
 457:Inc/lis3dh_reg.c **** /**
 458:Inc/lis3dh_reg.c ****   * @brief  Output data rate selection.[set]
 459:Inc/lis3dh_reg.c ****   *
 460:Inc/lis3dh_reg.c ****   * @param  ctx      read / write interface definitions
 461:Inc/lis3dh_reg.c ****   * @param  val      change the values of odr in reg CTRL_REG1
 462:Inc/lis3dh_reg.c ****   * @retval          interface status (MANDATORY: return 0 -> no Error)
 463:Inc/lis3dh_reg.c ****   *
 464:Inc/lis3dh_reg.c ****   */
 465:Inc/lis3dh_reg.c **** int32_t lis3dh_data_rate_set(stmdev_ctx_t *ctx, lis3dh_odr_t val)
 466:Inc/lis3dh_reg.c **** {
 1397              		.loc 1 466 1 is_stmt 1 view -0
 1398              		.cfi_startproc
 1399              		@ args = 0, pretend = 0, frame = 8
 1400              		@ frame_needed = 0, uses_anonymous_args = 0
 1401              		.loc 1 466 1 is_stmt 0 view .LVU309
 1402 0000 30B5     		push	{r4, r5, lr}
 1403              	.LCFI32:
 1404              		.cfi_def_cfa_offset 12
 1405              		.cfi_offset 4, -12
 1406              		.cfi_offset 5, -8
 1407              		.cfi_offset 14, -4
 1408 0002 83B0     		sub	sp, sp, #12
 1409              	.LCFI33:
 1410              		.cfi_def_cfa_offset 24
 1411 0004 0500     		movs	r5, r0
 1412 0006 0C00     		movs	r4, r1
 467:Inc/lis3dh_reg.c ****   lis3dh_ctrl_reg1_t ctrl_reg1;
 1413              		.loc 1 467 3 is_stmt 1 view .LVU310
 468:Inc/lis3dh_reg.c ****   int32_t ret;
 1414              		.loc 1 468 3 view .LVU311
 469:Inc/lis3dh_reg.c **** 
 470:Inc/lis3dh_reg.c ****   ret = lis3dh_read_reg(ctx, LIS3DH_CTRL_REG1, (uint8_t *)&ctrl_reg1, 1);
 1415              		.loc 1 470 3 view .LVU312
 1416              		.loc 1 470 9 is_stmt 0 view .LVU313
 1417 0008 0123     		movs	r3, #1
 1418 000a 01AA     		add	r2, sp, #4
 1419 000c 2021     		movs	r1, #32
 1420              	.LVL111:
 1421              		.loc 1 470 9 view .LVU314
 1422 000e FFF7FEFF 		bl	lis3dh_read_reg
 1423              	.LVL112:
 471:Inc/lis3dh_reg.c **** 
ARM GAS  /tmp/ccT3btxY.s 			page 34


 472:Inc/lis3dh_reg.c ****   if (ret == 0)
 1424              		.loc 1 472 3 is_stmt 1 view .LVU315
 1425              		.loc 1 472 6 is_stmt 0 view .LVU316
 1426 0012 0028     		cmp	r0, #0
 1427 0014 01D0     		beq	.L59
 1428              	.L57:
 473:Inc/lis3dh_reg.c ****   {
 474:Inc/lis3dh_reg.c ****     ctrl_reg1.odr = (uint8_t)val;
 475:Inc/lis3dh_reg.c ****     ret = lis3dh_write_reg(ctx, LIS3DH_CTRL_REG1, (uint8_t *)&ctrl_reg1, 1);
 476:Inc/lis3dh_reg.c ****   }
 477:Inc/lis3dh_reg.c **** 
 478:Inc/lis3dh_reg.c ****   return ret;
 479:Inc/lis3dh_reg.c **** }
 1429              		.loc 1 479 1 view .LVU317
 1430 0016 03B0     		add	sp, sp, #12
 1431              		@ sp needed
 1432              	.LVL113:
 1433              		.loc 1 479 1 view .LVU318
 1434 0018 30BD     		pop	{r4, r5, pc}
 1435              	.LVL114:
 1436              	.L59:
 474:Inc/lis3dh_reg.c ****     ret = lis3dh_write_reg(ctx, LIS3DH_CTRL_REG1, (uint8_t *)&ctrl_reg1, 1);
 1437              		.loc 1 474 5 is_stmt 1 view .LVU319
 474:Inc/lis3dh_reg.c ****     ret = lis3dh_write_reg(ctx, LIS3DH_CTRL_REG1, (uint8_t *)&ctrl_reg1, 1);
 1438              		.loc 1 474 21 is_stmt 0 view .LVU320
 1439 001a 0F23     		movs	r3, #15
 1440 001c 1C40     		ands	r4, r3
 474:Inc/lis3dh_reg.c ****     ret = lis3dh_write_reg(ctx, LIS3DH_CTRL_REG1, (uint8_t *)&ctrl_reg1, 1);
 1441              		.loc 1 474 19 view .LVU321
 1442 001e 2401     		lsls	r4, r4, #4
 1443 0020 6A46     		mov	r2, sp
 1444 0022 1279     		ldrb	r2, [r2, #4]
 1445 0024 1340     		ands	r3, r2
 1446 0026 2343     		orrs	r3, r4
 1447 0028 6A46     		mov	r2, sp
 1448 002a 1371     		strb	r3, [r2, #4]
 475:Inc/lis3dh_reg.c ****   }
 1449              		.loc 1 475 5 is_stmt 1 view .LVU322
 475:Inc/lis3dh_reg.c ****   }
 1450              		.loc 1 475 11 is_stmt 0 view .LVU323
 1451 002c 0123     		movs	r3, #1
 1452 002e 01AA     		add	r2, sp, #4
 1453 0030 2021     		movs	r1, #32
 1454 0032 2800     		movs	r0, r5
 1455              	.LVL115:
 475:Inc/lis3dh_reg.c ****   }
 1456              		.loc 1 475 11 view .LVU324
 1457 0034 FFF7FEFF 		bl	lis3dh_write_reg
 1458              	.LVL116:
 478:Inc/lis3dh_reg.c **** }
 1459              		.loc 1 478 3 is_stmt 1 view .LVU325
 478:Inc/lis3dh_reg.c **** }
 1460              		.loc 1 478 10 is_stmt 0 view .LVU326
 1461 0038 EDE7     		b	.L57
 1462              		.cfi_endproc
 1463              	.LFE26:
 1465              		.section	.text.lis3dh_data_rate_get,"ax",%progbits
ARM GAS  /tmp/ccT3btxY.s 			page 35


 1466              		.align	1
 1467              		.global	lis3dh_data_rate_get
 1468              		.syntax unified
 1469              		.code	16
 1470              		.thumb_func
 1471              		.fpu softvfp
 1473              	lis3dh_data_rate_get:
 1474              	.LVL117:
 1475              	.LFB27:
 480:Inc/lis3dh_reg.c **** 
 481:Inc/lis3dh_reg.c **** /**
 482:Inc/lis3dh_reg.c ****   * @brief  Output data rate selection.[get]
 483:Inc/lis3dh_reg.c ****   *
 484:Inc/lis3dh_reg.c ****   * @param  ctx      read / write interface definitions
 485:Inc/lis3dh_reg.c ****   * @param  val      get the values of odr in reg CTRL_REG1
 486:Inc/lis3dh_reg.c ****   * @retval          interface status (MANDATORY: return 0 -> no Error)
 487:Inc/lis3dh_reg.c ****   *
 488:Inc/lis3dh_reg.c ****   */
 489:Inc/lis3dh_reg.c **** int32_t lis3dh_data_rate_get(stmdev_ctx_t *ctx, lis3dh_odr_t *val)
 490:Inc/lis3dh_reg.c **** {
 1476              		.loc 1 490 1 is_stmt 1 view -0
 1477              		.cfi_startproc
 1478              		@ args = 0, pretend = 0, frame = 8
 1479              		@ frame_needed = 0, uses_anonymous_args = 0
 1480              		.loc 1 490 1 is_stmt 0 view .LVU328
 1481 0000 30B5     		push	{r4, r5, lr}
 1482              	.LCFI34:
 1483              		.cfi_def_cfa_offset 12
 1484              		.cfi_offset 4, -12
 1485              		.cfi_offset 5, -8
 1486              		.cfi_offset 14, -4
 1487 0002 83B0     		sub	sp, sp, #12
 1488              	.LCFI35:
 1489              		.cfi_def_cfa_offset 24
 1490 0004 0C00     		movs	r4, r1
 491:Inc/lis3dh_reg.c ****   lis3dh_ctrl_reg1_t ctrl_reg1;
 1491              		.loc 1 491 3 is_stmt 1 view .LVU329
 492:Inc/lis3dh_reg.c ****   int32_t ret;
 1492              		.loc 1 492 3 view .LVU330
 493:Inc/lis3dh_reg.c **** 
 494:Inc/lis3dh_reg.c ****   ret = lis3dh_read_reg(ctx, LIS3DH_CTRL_REG1, (uint8_t *)&ctrl_reg1, 1);
 1493              		.loc 1 494 3 view .LVU331
 1494              		.loc 1 494 9 is_stmt 0 view .LVU332
 1495 0006 01AD     		add	r5, sp, #4
 1496 0008 0123     		movs	r3, #1
 1497 000a 2A00     		movs	r2, r5
 1498 000c 2021     		movs	r1, #32
 1499              	.LVL118:
 1500              		.loc 1 494 9 view .LVU333
 1501 000e FFF7FEFF 		bl	lis3dh_read_reg
 1502              	.LVL119:
 495:Inc/lis3dh_reg.c **** 
 496:Inc/lis3dh_reg.c ****   switch (ctrl_reg1.odr)
 1503              		.loc 1 496 3 is_stmt 1 view .LVU334
 1504              		.loc 1 496 20 is_stmt 0 view .LVU335
 1505 0012 2A78     		ldrb	r2, [r5]
 1506 0014 1309     		lsrs	r3, r2, #4
ARM GAS  /tmp/ccT3btxY.s 			page 36


 1507              		.loc 1 496 3 view .LVU336
 1508 0016 9F2A     		cmp	r2, #159
 1509 0018 22D8     		bhi	.L61
 1510 001a 9B00     		lsls	r3, r3, #2
 1511 001c 124A     		ldr	r2, .L74
 1512 001e D358     		ldr	r3, [r2, r3]
 1513 0020 9F46     		mov	pc, r3
 1514              		.section	.rodata.lis3dh_data_rate_get,"a",%progbits
 1515              		.align	2
 1516              	.L63:
 1517 0000 22000000 		.word	.L72
 1518 0004 2A000000 		.word	.L71
 1519 0008 30000000 		.word	.L70
 1520 000c 36000000 		.word	.L69
 1521 0010 3C000000 		.word	.L68
 1522 0014 42000000 		.word	.L67
 1523 0018 48000000 		.word	.L66
 1524 001c 4E000000 		.word	.L65
 1525 0020 54000000 		.word	.L64
 1526 0024 5A000000 		.word	.L62
 1527              		.section	.text.lis3dh_data_rate_get
 1528              	.L72:
 497:Inc/lis3dh_reg.c ****   {
 498:Inc/lis3dh_reg.c ****     case LIS3DH_POWER_DOWN:
 499:Inc/lis3dh_reg.c ****       *val = LIS3DH_POWER_DOWN;
 1529              		.loc 1 499 7 is_stmt 1 view .LVU337
 1530              		.loc 1 499 12 is_stmt 0 view .LVU338
 1531 0022 0023     		movs	r3, #0
 1532 0024 2370     		strb	r3, [r4]
 500:Inc/lis3dh_reg.c ****       break;
 1533              		.loc 1 500 7 is_stmt 1 view .LVU339
 1534              	.L60:
 501:Inc/lis3dh_reg.c **** 
 502:Inc/lis3dh_reg.c ****     case LIS3DH_ODR_1Hz:
 503:Inc/lis3dh_reg.c ****       *val = LIS3DH_ODR_1Hz;
 504:Inc/lis3dh_reg.c ****       break;
 505:Inc/lis3dh_reg.c **** 
 506:Inc/lis3dh_reg.c ****     case LIS3DH_ODR_10Hz:
 507:Inc/lis3dh_reg.c ****       *val = LIS3DH_ODR_10Hz;
 508:Inc/lis3dh_reg.c ****       break;
 509:Inc/lis3dh_reg.c **** 
 510:Inc/lis3dh_reg.c ****     case LIS3DH_ODR_25Hz:
 511:Inc/lis3dh_reg.c ****       *val = LIS3DH_ODR_25Hz;
 512:Inc/lis3dh_reg.c ****       break;
 513:Inc/lis3dh_reg.c **** 
 514:Inc/lis3dh_reg.c ****     case LIS3DH_ODR_50Hz:
 515:Inc/lis3dh_reg.c ****       *val = LIS3DH_ODR_50Hz;
 516:Inc/lis3dh_reg.c ****       break;
 517:Inc/lis3dh_reg.c **** 
 518:Inc/lis3dh_reg.c ****     case LIS3DH_ODR_100Hz:
 519:Inc/lis3dh_reg.c ****       *val = LIS3DH_ODR_100Hz;
 520:Inc/lis3dh_reg.c ****       break;
 521:Inc/lis3dh_reg.c **** 
 522:Inc/lis3dh_reg.c ****     case LIS3DH_ODR_200Hz:
 523:Inc/lis3dh_reg.c ****       *val = LIS3DH_ODR_200Hz;
 524:Inc/lis3dh_reg.c ****       break;
 525:Inc/lis3dh_reg.c **** 
ARM GAS  /tmp/ccT3btxY.s 			page 37


 526:Inc/lis3dh_reg.c ****     case LIS3DH_ODR_400Hz:
 527:Inc/lis3dh_reg.c ****       *val = LIS3DH_ODR_400Hz;
 528:Inc/lis3dh_reg.c ****       break;
 529:Inc/lis3dh_reg.c **** 
 530:Inc/lis3dh_reg.c ****     case LIS3DH_ODR_1kHz620_LP:
 531:Inc/lis3dh_reg.c ****       *val = LIS3DH_ODR_1kHz620_LP;
 532:Inc/lis3dh_reg.c ****       break;
 533:Inc/lis3dh_reg.c **** 
 534:Inc/lis3dh_reg.c ****     case LIS3DH_ODR_5kHz376_LP_1kHz344_NM_HP:
 535:Inc/lis3dh_reg.c ****       *val = LIS3DH_ODR_5kHz376_LP_1kHz344_NM_HP;
 536:Inc/lis3dh_reg.c ****       break;
 537:Inc/lis3dh_reg.c **** 
 538:Inc/lis3dh_reg.c ****     default:
 539:Inc/lis3dh_reg.c ****       *val = LIS3DH_POWER_DOWN;
 540:Inc/lis3dh_reg.c ****       break;
 541:Inc/lis3dh_reg.c ****   }
 542:Inc/lis3dh_reg.c **** 
 543:Inc/lis3dh_reg.c ****   return ret;
 544:Inc/lis3dh_reg.c **** }
 1535              		.loc 1 544 1 is_stmt 0 view .LVU340
 1536 0026 03B0     		add	sp, sp, #12
 1537              		@ sp needed
 1538              	.LVL120:
 1539              		.loc 1 544 1 view .LVU341
 1540 0028 30BD     		pop	{r4, r5, pc}
 1541              	.LVL121:
 1542              	.L71:
 503:Inc/lis3dh_reg.c ****       break;
 1543              		.loc 1 503 7 is_stmt 1 view .LVU342
 503:Inc/lis3dh_reg.c ****       break;
 1544              		.loc 1 503 12 is_stmt 0 view .LVU343
 1545 002a 0123     		movs	r3, #1
 1546 002c 2370     		strb	r3, [r4]
 504:Inc/lis3dh_reg.c **** 
 1547              		.loc 1 504 7 is_stmt 1 view .LVU344
 1548 002e FAE7     		b	.L60
 1549              	.L70:
 507:Inc/lis3dh_reg.c ****       break;
 1550              		.loc 1 507 7 view .LVU345
 507:Inc/lis3dh_reg.c ****       break;
 1551              		.loc 1 507 12 is_stmt 0 view .LVU346
 1552 0030 0223     		movs	r3, #2
 1553 0032 2370     		strb	r3, [r4]
 508:Inc/lis3dh_reg.c **** 
 1554              		.loc 1 508 7 is_stmt 1 view .LVU347
 1555 0034 F7E7     		b	.L60
 1556              	.L69:
 511:Inc/lis3dh_reg.c ****       break;
 1557              		.loc 1 511 7 view .LVU348
 511:Inc/lis3dh_reg.c ****       break;
 1558              		.loc 1 511 12 is_stmt 0 view .LVU349
 1559 0036 0323     		movs	r3, #3
 1560 0038 2370     		strb	r3, [r4]
 512:Inc/lis3dh_reg.c **** 
 1561              		.loc 1 512 7 is_stmt 1 view .LVU350
 1562 003a F4E7     		b	.L60
 1563              	.L68:
ARM GAS  /tmp/ccT3btxY.s 			page 38


 515:Inc/lis3dh_reg.c ****       break;
 1564              		.loc 1 515 7 view .LVU351
 515:Inc/lis3dh_reg.c ****       break;
 1565              		.loc 1 515 12 is_stmt 0 view .LVU352
 1566 003c 0423     		movs	r3, #4
 1567 003e 2370     		strb	r3, [r4]
 516:Inc/lis3dh_reg.c **** 
 1568              		.loc 1 516 7 is_stmt 1 view .LVU353
 1569 0040 F1E7     		b	.L60
 1570              	.L67:
 519:Inc/lis3dh_reg.c ****       break;
 1571              		.loc 1 519 7 view .LVU354
 519:Inc/lis3dh_reg.c ****       break;
 1572              		.loc 1 519 12 is_stmt 0 view .LVU355
 1573 0042 0523     		movs	r3, #5
 1574 0044 2370     		strb	r3, [r4]
 520:Inc/lis3dh_reg.c **** 
 1575              		.loc 1 520 7 is_stmt 1 view .LVU356
 1576 0046 EEE7     		b	.L60
 1577              	.L66:
 523:Inc/lis3dh_reg.c ****       break;
 1578              		.loc 1 523 7 view .LVU357
 523:Inc/lis3dh_reg.c ****       break;
 1579              		.loc 1 523 12 is_stmt 0 view .LVU358
 1580 0048 0623     		movs	r3, #6
 1581 004a 2370     		strb	r3, [r4]
 524:Inc/lis3dh_reg.c **** 
 1582              		.loc 1 524 7 is_stmt 1 view .LVU359
 1583 004c EBE7     		b	.L60
 1584              	.L65:
 527:Inc/lis3dh_reg.c ****       break;
 1585              		.loc 1 527 7 view .LVU360
 527:Inc/lis3dh_reg.c ****       break;
 1586              		.loc 1 527 12 is_stmt 0 view .LVU361
 1587 004e 0723     		movs	r3, #7
 1588 0050 2370     		strb	r3, [r4]
 528:Inc/lis3dh_reg.c **** 
 1589              		.loc 1 528 7 is_stmt 1 view .LVU362
 1590 0052 E8E7     		b	.L60
 1591              	.L64:
 531:Inc/lis3dh_reg.c ****       break;
 1592              		.loc 1 531 7 view .LVU363
 531:Inc/lis3dh_reg.c ****       break;
 1593              		.loc 1 531 12 is_stmt 0 view .LVU364
 1594 0054 0823     		movs	r3, #8
 1595 0056 2370     		strb	r3, [r4]
 532:Inc/lis3dh_reg.c **** 
 1596              		.loc 1 532 7 is_stmt 1 view .LVU365
 1597 0058 E5E7     		b	.L60
 1598              	.L62:
 535:Inc/lis3dh_reg.c ****       break;
 1599              		.loc 1 535 7 view .LVU366
 535:Inc/lis3dh_reg.c ****       break;
 1600              		.loc 1 535 12 is_stmt 0 view .LVU367
 1601 005a 0923     		movs	r3, #9
 1602 005c 2370     		strb	r3, [r4]
 536:Inc/lis3dh_reg.c **** 
ARM GAS  /tmp/ccT3btxY.s 			page 39


 1603              		.loc 1 536 7 is_stmt 1 view .LVU368
 1604 005e E2E7     		b	.L60
 1605              	.L61:
 539:Inc/lis3dh_reg.c ****       break;
 1606              		.loc 1 539 7 view .LVU369
 539:Inc/lis3dh_reg.c ****       break;
 1607              		.loc 1 539 12 is_stmt 0 view .LVU370
 1608 0060 0023     		movs	r3, #0
 1609 0062 2370     		strb	r3, [r4]
 540:Inc/lis3dh_reg.c ****   }
 1610              		.loc 1 540 7 is_stmt 1 view .LVU371
 543:Inc/lis3dh_reg.c **** }
 1611              		.loc 1 543 3 view .LVU372
 543:Inc/lis3dh_reg.c **** }
 1612              		.loc 1 543 10 is_stmt 0 view .LVU373
 1613 0064 DFE7     		b	.L60
 1614              	.L75:
 1615 0066 C046     		.align	2
 1616              	.L74:
 1617 0068 00000000 		.word	.L63
 1618              		.cfi_endproc
 1619              	.LFE27:
 1621              		.section	.text.lis3dh_high_pass_on_outputs_set,"ax",%progbits
 1622              		.align	1
 1623              		.global	lis3dh_high_pass_on_outputs_set
 1624              		.syntax unified
 1625              		.code	16
 1626              		.thumb_func
 1627              		.fpu softvfp
 1629              	lis3dh_high_pass_on_outputs_set:
 1630              	.LVL122:
 1631              	.LFB28:
 545:Inc/lis3dh_reg.c **** 
 546:Inc/lis3dh_reg.c **** /**
 547:Inc/lis3dh_reg.c ****   * @brief   High pass data from internal filter sent to output register
 548:Inc/lis3dh_reg.c ****   *          and FIFO.
 549:Inc/lis3dh_reg.c ****   *
 550:Inc/lis3dh_reg.c ****   * @param  ctx      read / write interface definitions
 551:Inc/lis3dh_reg.c ****   * @param  val      change the values of fds in reg CTRL_REG2
 552:Inc/lis3dh_reg.c ****   * @retval          interface status (MANDATORY: return 0 -> no Error)
 553:Inc/lis3dh_reg.c ****   *
 554:Inc/lis3dh_reg.c ****   */
 555:Inc/lis3dh_reg.c **** int32_t lis3dh_high_pass_on_outputs_set(stmdev_ctx_t *ctx,
 556:Inc/lis3dh_reg.c ****                                         uint8_t val)
 557:Inc/lis3dh_reg.c **** {
 1632              		.loc 1 557 1 is_stmt 1 view -0
 1633              		.cfi_startproc
 1634              		@ args = 0, pretend = 0, frame = 8
 1635              		@ frame_needed = 0, uses_anonymous_args = 0
 1636              		.loc 1 557 1 is_stmt 0 view .LVU375
 1637 0000 30B5     		push	{r4, r5, lr}
 1638              	.LCFI36:
 1639              		.cfi_def_cfa_offset 12
 1640              		.cfi_offset 4, -12
 1641              		.cfi_offset 5, -8
 1642              		.cfi_offset 14, -4
 1643 0002 83B0     		sub	sp, sp, #12
ARM GAS  /tmp/ccT3btxY.s 			page 40


 1644              	.LCFI37:
 1645              		.cfi_def_cfa_offset 24
 1646 0004 0400     		movs	r4, r0
 1647 0006 0D00     		movs	r5, r1
 558:Inc/lis3dh_reg.c ****   lis3dh_ctrl_reg2_t ctrl_reg2;
 1648              		.loc 1 558 3 is_stmt 1 view .LVU376
 559:Inc/lis3dh_reg.c ****   int32_t ret;
 1649              		.loc 1 559 3 view .LVU377
 560:Inc/lis3dh_reg.c **** 
 561:Inc/lis3dh_reg.c ****   ret = lis3dh_read_reg(ctx, LIS3DH_CTRL_REG2, (uint8_t *)&ctrl_reg2, 1);
 1650              		.loc 1 561 3 view .LVU378
 1651              		.loc 1 561 9 is_stmt 0 view .LVU379
 1652 0008 0123     		movs	r3, #1
 1653 000a 01AA     		add	r2, sp, #4
 1654 000c 2121     		movs	r1, #33
 1655              	.LVL123:
 1656              		.loc 1 561 9 view .LVU380
 1657 000e FFF7FEFF 		bl	lis3dh_read_reg
 1658              	.LVL124:
 562:Inc/lis3dh_reg.c **** 
 563:Inc/lis3dh_reg.c ****   if (ret == 0)
 1659              		.loc 1 563 3 is_stmt 1 view .LVU381
 1660              		.loc 1 563 6 is_stmt 0 view .LVU382
 1661 0012 0028     		cmp	r0, #0
 1662 0014 01D0     		beq	.L78
 1663              	.L76:
 564:Inc/lis3dh_reg.c ****   {
 565:Inc/lis3dh_reg.c ****     ctrl_reg2.fds = val;
 566:Inc/lis3dh_reg.c ****     ret = lis3dh_write_reg(ctx, LIS3DH_CTRL_REG2, (uint8_t *)&ctrl_reg2, 1);
 567:Inc/lis3dh_reg.c ****   }
 568:Inc/lis3dh_reg.c **** 
 569:Inc/lis3dh_reg.c ****   return ret;
 570:Inc/lis3dh_reg.c **** }
 1664              		.loc 1 570 1 view .LVU383
 1665 0016 03B0     		add	sp, sp, #12
 1666              		@ sp needed
 1667              	.LVL125:
 1668              		.loc 1 570 1 view .LVU384
 1669 0018 30BD     		pop	{r4, r5, pc}
 1670              	.LVL126:
 1671              	.L78:
 565:Inc/lis3dh_reg.c ****     ret = lis3dh_write_reg(ctx, LIS3DH_CTRL_REG2, (uint8_t *)&ctrl_reg2, 1);
 1672              		.loc 1 565 5 is_stmt 1 view .LVU385
 565:Inc/lis3dh_reg.c ****     ret = lis3dh_write_reg(ctx, LIS3DH_CTRL_REG2, (uint8_t *)&ctrl_reg2, 1);
 1673              		.loc 1 565 19 is_stmt 0 view .LVU386
 1674 001a 0122     		movs	r2, #1
 1675 001c 2A40     		ands	r2, r5
 1676 001e D200     		lsls	r2, r2, #3
 1677 0020 6B46     		mov	r3, sp
 1678 0022 1B79     		ldrb	r3, [r3, #4]
 1679 0024 0821     		movs	r1, #8
 1680 0026 8B43     		bics	r3, r1
 1681 0028 1343     		orrs	r3, r2
 1682 002a 6A46     		mov	r2, sp
 1683 002c 1371     		strb	r3, [r2, #4]
 566:Inc/lis3dh_reg.c ****   }
 1684              		.loc 1 566 5 is_stmt 1 view .LVU387
ARM GAS  /tmp/ccT3btxY.s 			page 41


 566:Inc/lis3dh_reg.c ****   }
 1685              		.loc 1 566 11 is_stmt 0 view .LVU388
 1686 002e 0123     		movs	r3, #1
 1687 0030 01AA     		add	r2, sp, #4
 1688 0032 1931     		adds	r1, r1, #25
 1689 0034 2000     		movs	r0, r4
 1690              	.LVL127:
 566:Inc/lis3dh_reg.c ****   }
 1691              		.loc 1 566 11 view .LVU389
 1692 0036 FFF7FEFF 		bl	lis3dh_write_reg
 1693              	.LVL128:
 569:Inc/lis3dh_reg.c **** }
 1694              		.loc 1 569 3 is_stmt 1 view .LVU390
 569:Inc/lis3dh_reg.c **** }
 1695              		.loc 1 569 10 is_stmt 0 view .LVU391
 1696 003a ECE7     		b	.L76
 1697              		.cfi_endproc
 1698              	.LFE28:
 1700              		.section	.text.lis3dh_high_pass_on_outputs_get,"ax",%progbits
 1701              		.align	1
 1702              		.global	lis3dh_high_pass_on_outputs_get
 1703              		.syntax unified
 1704              		.code	16
 1705              		.thumb_func
 1706              		.fpu softvfp
 1708              	lis3dh_high_pass_on_outputs_get:
 1709              	.LVL129:
 1710              	.LFB29:
 571:Inc/lis3dh_reg.c **** 
 572:Inc/lis3dh_reg.c **** /**
 573:Inc/lis3dh_reg.c ****   * @brief   High pass data from internal filter sent to output register
 574:Inc/lis3dh_reg.c ****   *          and FIFO.[get]
 575:Inc/lis3dh_reg.c ****   *
 576:Inc/lis3dh_reg.c ****   * @param  ctx      read / write interface definitions
 577:Inc/lis3dh_reg.c ****   * @param  val      change the values of fds in reg CTRL_REG2
 578:Inc/lis3dh_reg.c ****   * @retval          interface status (MANDATORY: return 0 -> no Error)
 579:Inc/lis3dh_reg.c ****   *
 580:Inc/lis3dh_reg.c ****   */
 581:Inc/lis3dh_reg.c **** int32_t lis3dh_high_pass_on_outputs_get(stmdev_ctx_t *ctx,
 582:Inc/lis3dh_reg.c ****                                         uint8_t *val)
 583:Inc/lis3dh_reg.c **** {
 1711              		.loc 1 583 1 is_stmt 1 view -0
 1712              		.cfi_startproc
 1713              		@ args = 0, pretend = 0, frame = 8
 1714              		@ frame_needed = 0, uses_anonymous_args = 0
 1715              		.loc 1 583 1 is_stmt 0 view .LVU393
 1716 0000 30B5     		push	{r4, r5, lr}
 1717              	.LCFI38:
 1718              		.cfi_def_cfa_offset 12
 1719              		.cfi_offset 4, -12
 1720              		.cfi_offset 5, -8
 1721              		.cfi_offset 14, -4
 1722 0002 83B0     		sub	sp, sp, #12
 1723              	.LCFI39:
 1724              		.cfi_def_cfa_offset 24
 1725 0004 0C00     		movs	r4, r1
 584:Inc/lis3dh_reg.c ****   lis3dh_ctrl_reg2_t ctrl_reg2;
ARM GAS  /tmp/ccT3btxY.s 			page 42


 1726              		.loc 1 584 3 is_stmt 1 view .LVU394
 585:Inc/lis3dh_reg.c ****   int32_t ret;
 1727              		.loc 1 585 3 view .LVU395
 586:Inc/lis3dh_reg.c **** 
 587:Inc/lis3dh_reg.c ****   ret = lis3dh_read_reg(ctx, LIS3DH_CTRL_REG2, (uint8_t *)&ctrl_reg2, 1);
 1728              		.loc 1 587 3 view .LVU396
 1729              		.loc 1 587 9 is_stmt 0 view .LVU397
 1730 0006 01AD     		add	r5, sp, #4
 1731 0008 0123     		movs	r3, #1
 1732 000a 2A00     		movs	r2, r5
 1733 000c 2121     		movs	r1, #33
 1734              	.LVL130:
 1735              		.loc 1 587 9 view .LVU398
 1736 000e FFF7FEFF 		bl	lis3dh_read_reg
 1737              	.LVL131:
 588:Inc/lis3dh_reg.c ****   *val = (uint8_t)ctrl_reg2.fds;
 1738              		.loc 1 588 3 is_stmt 1 view .LVU399
 1739              		.loc 1 588 28 is_stmt 0 view .LVU400
 1740 0012 2B78     		ldrb	r3, [r5]
 1741 0014 1B07     		lsls	r3, r3, #28
 1742 0016 DB0F     		lsrs	r3, r3, #31
 1743              		.loc 1 588 8 view .LVU401
 1744 0018 2370     		strb	r3, [r4]
 589:Inc/lis3dh_reg.c **** 
 590:Inc/lis3dh_reg.c ****   return ret;
 1745              		.loc 1 590 3 is_stmt 1 view .LVU402
 591:Inc/lis3dh_reg.c **** }
 1746              		.loc 1 591 1 is_stmt 0 view .LVU403
 1747 001a 03B0     		add	sp, sp, #12
 1748              		@ sp needed
 1749              	.LVL132:
 1750              		.loc 1 591 1 view .LVU404
 1751 001c 30BD     		pop	{r4, r5, pc}
 1752              		.cfi_endproc
 1753              	.LFE29:
 1755              		.section	.text.lis3dh_high_pass_bandwidth_set,"ax",%progbits
 1756              		.align	1
 1757              		.global	lis3dh_high_pass_bandwidth_set
 1758              		.syntax unified
 1759              		.code	16
 1760              		.thumb_func
 1761              		.fpu softvfp
 1763              	lis3dh_high_pass_bandwidth_set:
 1764              	.LVL133:
 1765              	.LFB30:
 592:Inc/lis3dh_reg.c **** 
 593:Inc/lis3dh_reg.c **** /**
 594:Inc/lis3dh_reg.c ****   * @brief   High-pass filter cutoff frequency selection.[set]
 595:Inc/lis3dh_reg.c ****   *
 596:Inc/lis3dh_reg.c ****   * HPCF[2:1]\ft @1Hz    @10Hz  @25Hz  @50Hz @100Hz @200Hz @400Hz @1kHz6 ft@5kHz
 597:Inc/lis3dh_reg.c ****   * AGGRESSIVE   0.02Hz  0.2Hz  0.5Hz  1Hz   2Hz    4Hz    8Hz    32Hz   100Hz
 598:Inc/lis3dh_reg.c ****   * STRONG       0.008Hz 0.08Hz 0.2Hz  0.5Hz 1Hz    2Hz    4Hz    16Hz   50Hz
 599:Inc/lis3dh_reg.c ****   * MEDIUM       0.004Hz 0.04Hz 0.1Hz  0.2Hz 0.5Hz  1Hz    2Hz    8Hz    25Hz
 600:Inc/lis3dh_reg.c ****   * LIGHT        0.002Hz 0.02Hz 0.05Hz 0.1Hz 0.2Hz  0.5Hz  1Hz    4Hz    12Hz
 601:Inc/lis3dh_reg.c ****   *
 602:Inc/lis3dh_reg.c ****   * @param  ctx      read / write interface definitions
 603:Inc/lis3dh_reg.c ****   * @param  val      change the values of hpcf in reg CTRL_REG2
ARM GAS  /tmp/ccT3btxY.s 			page 43


 604:Inc/lis3dh_reg.c ****   * @retval          interface status (MANDATORY: return 0 -> no Error)
 605:Inc/lis3dh_reg.c ****   *
 606:Inc/lis3dh_reg.c ****   */
 607:Inc/lis3dh_reg.c **** int32_t lis3dh_high_pass_bandwidth_set(stmdev_ctx_t *ctx,
 608:Inc/lis3dh_reg.c ****                                        lis3dh_hpcf_t val)
 609:Inc/lis3dh_reg.c **** {
 1766              		.loc 1 609 1 is_stmt 1 view -0
 1767              		.cfi_startproc
 1768              		@ args = 0, pretend = 0, frame = 8
 1769              		@ frame_needed = 0, uses_anonymous_args = 0
 1770              		.loc 1 609 1 is_stmt 0 view .LVU406
 1771 0000 30B5     		push	{r4, r5, lr}
 1772              	.LCFI40:
 1773              		.cfi_def_cfa_offset 12
 1774              		.cfi_offset 4, -12
 1775              		.cfi_offset 5, -8
 1776              		.cfi_offset 14, -4
 1777 0002 83B0     		sub	sp, sp, #12
 1778              	.LCFI41:
 1779              		.cfi_def_cfa_offset 24
 1780 0004 0400     		movs	r4, r0
 1781 0006 0D00     		movs	r5, r1
 610:Inc/lis3dh_reg.c ****   lis3dh_ctrl_reg2_t ctrl_reg2;
 1782              		.loc 1 610 3 is_stmt 1 view .LVU407
 611:Inc/lis3dh_reg.c ****   int32_t ret;
 1783              		.loc 1 611 3 view .LVU408
 612:Inc/lis3dh_reg.c **** 
 613:Inc/lis3dh_reg.c ****   ret = lis3dh_read_reg(ctx, LIS3DH_CTRL_REG2, (uint8_t *)&ctrl_reg2, 1);
 1784              		.loc 1 613 3 view .LVU409
 1785              		.loc 1 613 9 is_stmt 0 view .LVU410
 1786 0008 0123     		movs	r3, #1
 1787 000a 01AA     		add	r2, sp, #4
 1788 000c 2121     		movs	r1, #33
 1789              	.LVL134:
 1790              		.loc 1 613 9 view .LVU411
 1791 000e FFF7FEFF 		bl	lis3dh_read_reg
 1792              	.LVL135:
 614:Inc/lis3dh_reg.c **** 
 615:Inc/lis3dh_reg.c ****   if (ret == 0)
 1793              		.loc 1 615 3 is_stmt 1 view .LVU412
 1794              		.loc 1 615 6 is_stmt 0 view .LVU413
 1795 0012 0028     		cmp	r0, #0
 1796 0014 01D0     		beq	.L82
 1797              	.L80:
 616:Inc/lis3dh_reg.c ****   {
 617:Inc/lis3dh_reg.c ****     ctrl_reg2.hpcf = (uint8_t)val;
 618:Inc/lis3dh_reg.c ****     ret = lis3dh_write_reg(ctx, LIS3DH_CTRL_REG2, (uint8_t *)&ctrl_reg2, 1);
 619:Inc/lis3dh_reg.c ****   }
 620:Inc/lis3dh_reg.c **** 
 621:Inc/lis3dh_reg.c ****   return ret;
 622:Inc/lis3dh_reg.c **** }
 1798              		.loc 1 622 1 view .LVU414
 1799 0016 03B0     		add	sp, sp, #12
 1800              		@ sp needed
 1801              	.LVL136:
 1802              		.loc 1 622 1 view .LVU415
 1803 0018 30BD     		pop	{r4, r5, pc}
ARM GAS  /tmp/ccT3btxY.s 			page 44


 1804              	.LVL137:
 1805              	.L82:
 617:Inc/lis3dh_reg.c ****     ret = lis3dh_write_reg(ctx, LIS3DH_CTRL_REG2, (uint8_t *)&ctrl_reg2, 1);
 1806              		.loc 1 617 5 is_stmt 1 view .LVU416
 617:Inc/lis3dh_reg.c ****     ret = lis3dh_write_reg(ctx, LIS3DH_CTRL_REG2, (uint8_t *)&ctrl_reg2, 1);
 1807              		.loc 1 617 20 is_stmt 0 view .LVU417
 1808 001a 0322     		movs	r2, #3
 1809 001c 2A40     		ands	r2, r5
 1810 001e 1201     		lsls	r2, r2, #4
 1811 0020 6B46     		mov	r3, sp
 1812 0022 1B79     		ldrb	r3, [r3, #4]
 1813 0024 3021     		movs	r1, #48
 1814 0026 8B43     		bics	r3, r1
 1815 0028 1343     		orrs	r3, r2
 1816 002a 6A46     		mov	r2, sp
 1817 002c 1371     		strb	r3, [r2, #4]
 618:Inc/lis3dh_reg.c ****   }
 1818              		.loc 1 618 5 is_stmt 1 view .LVU418
 618:Inc/lis3dh_reg.c ****   }
 1819              		.loc 1 618 11 is_stmt 0 view .LVU419
 1820 002e 0123     		movs	r3, #1
 1821 0030 01AA     		add	r2, sp, #4
 1822 0032 0F39     		subs	r1, r1, #15
 1823 0034 2000     		movs	r0, r4
 1824              	.LVL138:
 618:Inc/lis3dh_reg.c ****   }
 1825              		.loc 1 618 11 view .LVU420
 1826 0036 FFF7FEFF 		bl	lis3dh_write_reg
 1827              	.LVL139:
 621:Inc/lis3dh_reg.c **** }
 1828              		.loc 1 621 3 is_stmt 1 view .LVU421
 621:Inc/lis3dh_reg.c **** }
 1829              		.loc 1 621 10 is_stmt 0 view .LVU422
 1830 003a ECE7     		b	.L80
 1831              		.cfi_endproc
 1832              	.LFE30:
 1834              		.section	.text.lis3dh_high_pass_bandwidth_get,"ax",%progbits
 1835              		.align	1
 1836              		.global	lis3dh_high_pass_bandwidth_get
 1837              		.syntax unified
 1838              		.code	16
 1839              		.thumb_func
 1840              		.fpu softvfp
 1842              	lis3dh_high_pass_bandwidth_get:
 1843              	.LVL140:
 1844              	.LFB31:
 623:Inc/lis3dh_reg.c **** 
 624:Inc/lis3dh_reg.c **** /**
 625:Inc/lis3dh_reg.c ****   * @brief   High-pass filter cutoff frequency selection.[get]
 626:Inc/lis3dh_reg.c ****   *
 627:Inc/lis3dh_reg.c ****   * HPCF[2:1]\ft @1Hz    @10Hz  @25Hz  @50Hz @100Hz @200Hz @400Hz @1kHz6 ft@5kHz
 628:Inc/lis3dh_reg.c ****   * AGGRESSIVE   0.02Hz  0.2Hz  0.5Hz  1Hz   2Hz    4Hz    8Hz    32Hz   100Hz
 629:Inc/lis3dh_reg.c ****   * STRONG       0.008Hz 0.08Hz 0.2Hz  0.5Hz 1Hz    2Hz    4Hz    16Hz   50Hz
 630:Inc/lis3dh_reg.c ****   * MEDIUM       0.004Hz 0.04Hz 0.1Hz  0.2Hz 0.5Hz  1Hz    2Hz    8Hz    25Hz
 631:Inc/lis3dh_reg.c ****   * LIGHT        0.002Hz 0.02Hz 0.05Hz 0.1Hz 0.2Hz  0.5Hz  1Hz    4Hz    12Hz
 632:Inc/lis3dh_reg.c ****   *
 633:Inc/lis3dh_reg.c ****   * @param  ctx      read / write interface definitions
ARM GAS  /tmp/ccT3btxY.s 			page 45


 634:Inc/lis3dh_reg.c ****   * @param  val      get the values of hpcf in reg CTRL_REG2
 635:Inc/lis3dh_reg.c ****   * @retval          interface status (MANDATORY: return 0 -> no Error)
 636:Inc/lis3dh_reg.c ****   *
 637:Inc/lis3dh_reg.c ****   */
 638:Inc/lis3dh_reg.c **** int32_t lis3dh_high_pass_bandwidth_get(stmdev_ctx_t *ctx,
 639:Inc/lis3dh_reg.c ****                                        lis3dh_hpcf_t *val)
 640:Inc/lis3dh_reg.c **** {
 1845              		.loc 1 640 1 is_stmt 1 view -0
 1846              		.cfi_startproc
 1847              		@ args = 0, pretend = 0, frame = 8
 1848              		@ frame_needed = 0, uses_anonymous_args = 0
 1849              		.loc 1 640 1 is_stmt 0 view .LVU424
 1850 0000 30B5     		push	{r4, r5, lr}
 1851              	.LCFI42:
 1852              		.cfi_def_cfa_offset 12
 1853              		.cfi_offset 4, -12
 1854              		.cfi_offset 5, -8
 1855              		.cfi_offset 14, -4
 1856 0002 83B0     		sub	sp, sp, #12
 1857              	.LCFI43:
 1858              		.cfi_def_cfa_offset 24
 1859 0004 0C00     		movs	r4, r1
 641:Inc/lis3dh_reg.c ****   lis3dh_ctrl_reg2_t ctrl_reg2;
 1860              		.loc 1 641 3 is_stmt 1 view .LVU425
 642:Inc/lis3dh_reg.c ****   int32_t ret;
 1861              		.loc 1 642 3 view .LVU426
 643:Inc/lis3dh_reg.c **** 
 644:Inc/lis3dh_reg.c ****   ret = lis3dh_read_reg(ctx, LIS3DH_CTRL_REG2, (uint8_t *)&ctrl_reg2, 1);
 1862              		.loc 1 644 3 view .LVU427
 1863              		.loc 1 644 9 is_stmt 0 view .LVU428
 1864 0006 01AD     		add	r5, sp, #4
 1865 0008 0123     		movs	r3, #1
 1866 000a 2A00     		movs	r2, r5
 1867 000c 2121     		movs	r1, #33
 1868              	.LVL141:
 1869              		.loc 1 644 9 view .LVU429
 1870 000e FFF7FEFF 		bl	lis3dh_read_reg
 1871              	.LVL142:
 645:Inc/lis3dh_reg.c **** 
 646:Inc/lis3dh_reg.c ****   switch (ctrl_reg2.hpcf)
 1872              		.loc 1 646 3 is_stmt 1 view .LVU430
 1873              		.loc 1 646 20 is_stmt 0 view .LVU431
 1874 0012 2B78     		ldrb	r3, [r5]
 1875 0014 9B06     		lsls	r3, r3, #26
 1876 0016 9B0F     		lsrs	r3, r3, #30
 1877              		.loc 1 646 3 view .LVU432
 1878 0018 022B     		cmp	r3, #2
 1879 001a 10D0     		beq	.L84
 1880 001c 06D8     		bhi	.L85
 1881 001e 002B     		cmp	r3, #0
 1882 0020 09D0     		beq	.L86
 1883 0022 012B     		cmp	r3, #1
 1884 0024 0ED1     		bne	.L88
 647:Inc/lis3dh_reg.c ****   {
 648:Inc/lis3dh_reg.c ****     case LIS3DH_AGGRESSIVE:
 649:Inc/lis3dh_reg.c ****       *val = LIS3DH_AGGRESSIVE;
 650:Inc/lis3dh_reg.c ****       break;
ARM GAS  /tmp/ccT3btxY.s 			page 46


 651:Inc/lis3dh_reg.c **** 
 652:Inc/lis3dh_reg.c ****     case LIS3DH_STRONG:
 653:Inc/lis3dh_reg.c ****       *val = LIS3DH_STRONG;
 1885              		.loc 1 653 7 is_stmt 1 view .LVU433
 1886              		.loc 1 653 12 is_stmt 0 view .LVU434
 1887 0026 0123     		movs	r3, #1
 1888 0028 2370     		strb	r3, [r4]
 654:Inc/lis3dh_reg.c ****       break;
 1889              		.loc 1 654 7 is_stmt 1 view .LVU435
 1890 002a 06E0     		b	.L83
 1891              	.L85:
 646:Inc/lis3dh_reg.c ****   {
 1892              		.loc 1 646 3 is_stmt 0 view .LVU436
 1893 002c 032B     		cmp	r3, #3
 1894 002e 09D1     		bne	.L88
 655:Inc/lis3dh_reg.c **** 
 656:Inc/lis3dh_reg.c ****     case LIS3DH_MEDIUM:
 657:Inc/lis3dh_reg.c ****       *val = LIS3DH_MEDIUM;
 658:Inc/lis3dh_reg.c ****       break;
 659:Inc/lis3dh_reg.c **** 
 660:Inc/lis3dh_reg.c ****     case LIS3DH_LIGHT:
 661:Inc/lis3dh_reg.c ****       *val = LIS3DH_LIGHT;
 1895              		.loc 1 661 7 is_stmt 1 view .LVU437
 1896              		.loc 1 661 12 is_stmt 0 view .LVU438
 1897 0030 0323     		movs	r3, #3
 1898 0032 2370     		strb	r3, [r4]
 662:Inc/lis3dh_reg.c ****       break;
 1899              		.loc 1 662 7 is_stmt 1 view .LVU439
 1900 0034 01E0     		b	.L83
 1901              	.L86:
 649:Inc/lis3dh_reg.c ****       break;
 1902              		.loc 1 649 7 view .LVU440
 649:Inc/lis3dh_reg.c ****       break;
 1903              		.loc 1 649 12 is_stmt 0 view .LVU441
 1904 0036 0023     		movs	r3, #0
 1905 0038 2370     		strb	r3, [r4]
 650:Inc/lis3dh_reg.c **** 
 1906              		.loc 1 650 7 is_stmt 1 view .LVU442
 1907              	.L83:
 663:Inc/lis3dh_reg.c **** 
 664:Inc/lis3dh_reg.c ****     default:
 665:Inc/lis3dh_reg.c ****       *val = LIS3DH_LIGHT;
 666:Inc/lis3dh_reg.c ****       break;
 667:Inc/lis3dh_reg.c ****   }
 668:Inc/lis3dh_reg.c **** 
 669:Inc/lis3dh_reg.c ****   return ret;
 670:Inc/lis3dh_reg.c **** }
 1908              		.loc 1 670 1 is_stmt 0 view .LVU443
 1909 003a 03B0     		add	sp, sp, #12
 1910              		@ sp needed
 1911              	.LVL143:
 1912              		.loc 1 670 1 view .LVU444
 1913 003c 30BD     		pop	{r4, r5, pc}
 1914              	.LVL144:
 1915              	.L84:
 657:Inc/lis3dh_reg.c ****       break;
 1916              		.loc 1 657 7 is_stmt 1 view .LVU445
ARM GAS  /tmp/ccT3btxY.s 			page 47


 657:Inc/lis3dh_reg.c ****       break;
 1917              		.loc 1 657 12 is_stmt 0 view .LVU446
 1918 003e 0223     		movs	r3, #2
 1919 0040 2370     		strb	r3, [r4]
 658:Inc/lis3dh_reg.c **** 
 1920              		.loc 1 658 7 is_stmt 1 view .LVU447
 1921 0042 FAE7     		b	.L83
 1922              	.L88:
 665:Inc/lis3dh_reg.c ****       break;
 1923              		.loc 1 665 7 view .LVU448
 665:Inc/lis3dh_reg.c ****       break;
 1924              		.loc 1 665 12 is_stmt 0 view .LVU449
 1925 0044 0323     		movs	r3, #3
 1926 0046 2370     		strb	r3, [r4]
 666:Inc/lis3dh_reg.c ****   }
 1927              		.loc 1 666 7 is_stmt 1 view .LVU450
 669:Inc/lis3dh_reg.c **** }
 1928              		.loc 1 669 3 view .LVU451
 669:Inc/lis3dh_reg.c **** }
 1929              		.loc 1 669 10 is_stmt 0 view .LVU452
 1930 0048 F7E7     		b	.L83
 1931              		.cfi_endproc
 1932              	.LFE31:
 1934              		.section	.text.lis3dh_high_pass_mode_set,"ax",%progbits
 1935              		.align	1
 1936              		.global	lis3dh_high_pass_mode_set
 1937              		.syntax unified
 1938              		.code	16
 1939              		.thumb_func
 1940              		.fpu softvfp
 1942              	lis3dh_high_pass_mode_set:
 1943              	.LVL145:
 1944              	.LFB32:
 671:Inc/lis3dh_reg.c **** 
 672:Inc/lis3dh_reg.c **** /**
 673:Inc/lis3dh_reg.c ****   * @brief  High-pass filter mode selection.[set]
 674:Inc/lis3dh_reg.c ****   *
 675:Inc/lis3dh_reg.c ****   * @param  ctx      read / write interface definitions
 676:Inc/lis3dh_reg.c ****   * @param  val      change the values of hpm in reg CTRL_REG2
 677:Inc/lis3dh_reg.c ****   * @retval          interface status (MANDATORY: return 0 -> no Error)
 678:Inc/lis3dh_reg.c ****   *
 679:Inc/lis3dh_reg.c ****   */
 680:Inc/lis3dh_reg.c **** int32_t lis3dh_high_pass_mode_set(stmdev_ctx_t *ctx, lis3dh_hpm_t val)
 681:Inc/lis3dh_reg.c **** {
 1945              		.loc 1 681 1 is_stmt 1 view -0
 1946              		.cfi_startproc
 1947              		@ args = 0, pretend = 0, frame = 8
 1948              		@ frame_needed = 0, uses_anonymous_args = 0
 1949              		.loc 1 681 1 is_stmt 0 view .LVU454
 1950 0000 30B5     		push	{r4, r5, lr}
 1951              	.LCFI44:
 1952              		.cfi_def_cfa_offset 12
 1953              		.cfi_offset 4, -12
 1954              		.cfi_offset 5, -8
 1955              		.cfi_offset 14, -4
 1956 0002 83B0     		sub	sp, sp, #12
 1957              	.LCFI45:
ARM GAS  /tmp/ccT3btxY.s 			page 48


 1958              		.cfi_def_cfa_offset 24
 1959 0004 0400     		movs	r4, r0
 1960 0006 0D00     		movs	r5, r1
 682:Inc/lis3dh_reg.c ****   lis3dh_ctrl_reg2_t ctrl_reg2;
 1961              		.loc 1 682 3 is_stmt 1 view .LVU455
 683:Inc/lis3dh_reg.c ****   int32_t ret;
 1962              		.loc 1 683 3 view .LVU456
 684:Inc/lis3dh_reg.c **** 
 685:Inc/lis3dh_reg.c ****   ret = lis3dh_read_reg(ctx, LIS3DH_CTRL_REG2, (uint8_t *)&ctrl_reg2, 1);
 1963              		.loc 1 685 3 view .LVU457
 1964              		.loc 1 685 9 is_stmt 0 view .LVU458
 1965 0008 0123     		movs	r3, #1
 1966 000a 01AA     		add	r2, sp, #4
 1967 000c 2121     		movs	r1, #33
 1968              	.LVL146:
 1969              		.loc 1 685 9 view .LVU459
 1970 000e FFF7FEFF 		bl	lis3dh_read_reg
 1971              	.LVL147:
 686:Inc/lis3dh_reg.c **** 
 687:Inc/lis3dh_reg.c ****   if (ret == 0)
 1972              		.loc 1 687 3 is_stmt 1 view .LVU460
 1973              		.loc 1 687 6 is_stmt 0 view .LVU461
 1974 0012 0028     		cmp	r0, #0
 1975 0014 01D0     		beq	.L93
 1976              	.L91:
 688:Inc/lis3dh_reg.c ****   {
 689:Inc/lis3dh_reg.c ****     ctrl_reg2.hpm = (uint8_t)val;
 690:Inc/lis3dh_reg.c ****     ret = lis3dh_write_reg(ctx, LIS3DH_CTRL_REG2, (uint8_t *)&ctrl_reg2, 1);
 691:Inc/lis3dh_reg.c ****   }
 692:Inc/lis3dh_reg.c **** 
 693:Inc/lis3dh_reg.c ****   return ret;
 694:Inc/lis3dh_reg.c **** }
 1977              		.loc 1 694 1 view .LVU462
 1978 0016 03B0     		add	sp, sp, #12
 1979              		@ sp needed
 1980              	.LVL148:
 1981              		.loc 1 694 1 view .LVU463
 1982 0018 30BD     		pop	{r4, r5, pc}
 1983              	.LVL149:
 1984              	.L93:
 689:Inc/lis3dh_reg.c ****     ret = lis3dh_write_reg(ctx, LIS3DH_CTRL_REG2, (uint8_t *)&ctrl_reg2, 1);
 1985              		.loc 1 689 5 is_stmt 1 view .LVU464
 689:Inc/lis3dh_reg.c ****     ret = lis3dh_write_reg(ctx, LIS3DH_CTRL_REG2, (uint8_t *)&ctrl_reg2, 1);
 1986              		.loc 1 689 21 is_stmt 0 view .LVU465
 1987 001a 0322     		movs	r2, #3
 1988 001c 2A40     		ands	r2, r5
 689:Inc/lis3dh_reg.c ****     ret = lis3dh_write_reg(ctx, LIS3DH_CTRL_REG2, (uint8_t *)&ctrl_reg2, 1);
 1989              		.loc 1 689 19 view .LVU466
 1990 001e 9201     		lsls	r2, r2, #6
 1991 0020 6B46     		mov	r3, sp
 1992 0022 1979     		ldrb	r1, [r3, #4]
 1993 0024 3F23     		movs	r3, #63
 1994 0026 0B40     		ands	r3, r1
 1995 0028 1343     		orrs	r3, r2
 1996 002a 6A46     		mov	r2, sp
 1997 002c 1371     		strb	r3, [r2, #4]
 690:Inc/lis3dh_reg.c ****   }
ARM GAS  /tmp/ccT3btxY.s 			page 49


 1998              		.loc 1 690 5 is_stmt 1 view .LVU467
 690:Inc/lis3dh_reg.c ****   }
 1999              		.loc 1 690 11 is_stmt 0 view .LVU468
 2000 002e 0123     		movs	r3, #1
 2001 0030 01AA     		add	r2, sp, #4
 2002 0032 2121     		movs	r1, #33
 2003 0034 2000     		movs	r0, r4
 2004              	.LVL150:
 690:Inc/lis3dh_reg.c ****   }
 2005              		.loc 1 690 11 view .LVU469
 2006 0036 FFF7FEFF 		bl	lis3dh_write_reg
 2007              	.LVL151:
 693:Inc/lis3dh_reg.c **** }
 2008              		.loc 1 693 3 is_stmt 1 view .LVU470
 693:Inc/lis3dh_reg.c **** }
 2009              		.loc 1 693 10 is_stmt 0 view .LVU471
 2010 003a ECE7     		b	.L91
 2011              		.cfi_endproc
 2012              	.LFE32:
 2014              		.section	.text.lis3dh_high_pass_mode_get,"ax",%progbits
 2015              		.align	1
 2016              		.global	lis3dh_high_pass_mode_get
 2017              		.syntax unified
 2018              		.code	16
 2019              		.thumb_func
 2020              		.fpu softvfp
 2022              	lis3dh_high_pass_mode_get:
 2023              	.LVL152:
 2024              	.LFB33:
 695:Inc/lis3dh_reg.c **** 
 696:Inc/lis3dh_reg.c **** /**
 697:Inc/lis3dh_reg.c ****   * @brief  High-pass filter mode selection.[get]
 698:Inc/lis3dh_reg.c ****   *
 699:Inc/lis3dh_reg.c ****   * @param  ctx      read / write interface definitions
 700:Inc/lis3dh_reg.c ****   * @param  val      get the values of hpm in reg CTRL_REG2
 701:Inc/lis3dh_reg.c ****   * @retval          interface status (MANDATORY: return 0 -> no Error)
 702:Inc/lis3dh_reg.c ****   *
 703:Inc/lis3dh_reg.c ****   */
 704:Inc/lis3dh_reg.c **** int32_t lis3dh_high_pass_mode_get(stmdev_ctx_t *ctx,
 705:Inc/lis3dh_reg.c ****                                   lis3dh_hpm_t *val)
 706:Inc/lis3dh_reg.c **** {
 2025              		.loc 1 706 1 is_stmt 1 view -0
 2026              		.cfi_startproc
 2027              		@ args = 0, pretend = 0, frame = 8
 2028              		@ frame_needed = 0, uses_anonymous_args = 0
 2029              		.loc 1 706 1 is_stmt 0 view .LVU473
 2030 0000 30B5     		push	{r4, r5, lr}
 2031              	.LCFI46:
 2032              		.cfi_def_cfa_offset 12
 2033              		.cfi_offset 4, -12
 2034              		.cfi_offset 5, -8
 2035              		.cfi_offset 14, -4
 2036 0002 83B0     		sub	sp, sp, #12
 2037              	.LCFI47:
 2038              		.cfi_def_cfa_offset 24
 2039 0004 0C00     		movs	r4, r1
 707:Inc/lis3dh_reg.c ****   lis3dh_ctrl_reg2_t ctrl_reg2;
ARM GAS  /tmp/ccT3btxY.s 			page 50


 2040              		.loc 1 707 3 is_stmt 1 view .LVU474
 708:Inc/lis3dh_reg.c ****   int32_t ret;
 2041              		.loc 1 708 3 view .LVU475
 709:Inc/lis3dh_reg.c **** 
 710:Inc/lis3dh_reg.c ****   ret = lis3dh_read_reg(ctx, LIS3DH_CTRL_REG2, (uint8_t *)&ctrl_reg2, 1);
 2042              		.loc 1 710 3 view .LVU476
 2043              		.loc 1 710 9 is_stmt 0 view .LVU477
 2044 0006 01AD     		add	r5, sp, #4
 2045 0008 0123     		movs	r3, #1
 2046 000a 2A00     		movs	r2, r5
 2047 000c 2121     		movs	r1, #33
 2048              	.LVL153:
 2049              		.loc 1 710 9 view .LVU478
 2050 000e FFF7FEFF 		bl	lis3dh_read_reg
 2051              	.LVL154:
 711:Inc/lis3dh_reg.c **** 
 712:Inc/lis3dh_reg.c ****   switch (ctrl_reg2.hpm)
 2052              		.loc 1 712 3 is_stmt 1 view .LVU479
 2053              		.loc 1 712 20 is_stmt 0 view .LVU480
 2054 0012 2B78     		ldrb	r3, [r5]
 2055 0014 9B09     		lsrs	r3, r3, #6
 2056              		.loc 1 712 3 view .LVU481
 2057 0016 022B     		cmp	r3, #2
 2058 0018 10D0     		beq	.L95
 2059 001a 06D8     		bhi	.L96
 2060 001c 002B     		cmp	r3, #0
 2061 001e 09D0     		beq	.L97
 2062 0020 012B     		cmp	r3, #1
 2063 0022 0ED1     		bne	.L99
 713:Inc/lis3dh_reg.c ****   {
 714:Inc/lis3dh_reg.c ****     case LIS3DH_NORMAL_WITH_RST:
 715:Inc/lis3dh_reg.c ****       *val = LIS3DH_NORMAL_WITH_RST;
 716:Inc/lis3dh_reg.c ****       break;
 717:Inc/lis3dh_reg.c **** 
 718:Inc/lis3dh_reg.c ****     case LIS3DH_REFERENCE_MODE:
 719:Inc/lis3dh_reg.c ****       *val = LIS3DH_REFERENCE_MODE;
 2064              		.loc 1 719 7 is_stmt 1 view .LVU482
 2065              		.loc 1 719 12 is_stmt 0 view .LVU483
 2066 0024 0123     		movs	r3, #1
 2067 0026 2370     		strb	r3, [r4]
 720:Inc/lis3dh_reg.c ****       break;
 2068              		.loc 1 720 7 is_stmt 1 view .LVU484
 2069 0028 06E0     		b	.L94
 2070              	.L96:
 712:Inc/lis3dh_reg.c ****   {
 2071              		.loc 1 712 3 is_stmt 0 view .LVU485
 2072 002a 032B     		cmp	r3, #3
 2073 002c 09D1     		bne	.L99
 721:Inc/lis3dh_reg.c **** 
 722:Inc/lis3dh_reg.c ****     case LIS3DH_NORMAL:
 723:Inc/lis3dh_reg.c ****       *val = LIS3DH_NORMAL;
 724:Inc/lis3dh_reg.c ****       break;
 725:Inc/lis3dh_reg.c **** 
 726:Inc/lis3dh_reg.c ****     case LIS3DH_AUTORST_ON_INT:
 727:Inc/lis3dh_reg.c ****       *val = LIS3DH_AUTORST_ON_INT;
 2074              		.loc 1 727 7 is_stmt 1 view .LVU486
 2075              		.loc 1 727 12 is_stmt 0 view .LVU487
ARM GAS  /tmp/ccT3btxY.s 			page 51


 2076 002e 0323     		movs	r3, #3
 2077 0030 2370     		strb	r3, [r4]
 728:Inc/lis3dh_reg.c ****       break;
 2078              		.loc 1 728 7 is_stmt 1 view .LVU488
 2079 0032 01E0     		b	.L94
 2080              	.L97:
 715:Inc/lis3dh_reg.c ****       break;
 2081              		.loc 1 715 7 view .LVU489
 715:Inc/lis3dh_reg.c ****       break;
 2082              		.loc 1 715 12 is_stmt 0 view .LVU490
 2083 0034 0023     		movs	r3, #0
 2084 0036 2370     		strb	r3, [r4]
 716:Inc/lis3dh_reg.c **** 
 2085              		.loc 1 716 7 is_stmt 1 view .LVU491
 2086              	.L94:
 729:Inc/lis3dh_reg.c **** 
 730:Inc/lis3dh_reg.c ****     default:
 731:Inc/lis3dh_reg.c ****       *val = LIS3DH_NORMAL_WITH_RST;
 732:Inc/lis3dh_reg.c ****       break;
 733:Inc/lis3dh_reg.c ****   }
 734:Inc/lis3dh_reg.c **** 
 735:Inc/lis3dh_reg.c ****   return ret;
 736:Inc/lis3dh_reg.c **** }
 2087              		.loc 1 736 1 is_stmt 0 view .LVU492
 2088 0038 03B0     		add	sp, sp, #12
 2089              		@ sp needed
 2090              	.LVL155:
 2091              		.loc 1 736 1 view .LVU493
 2092 003a 30BD     		pop	{r4, r5, pc}
 2093              	.LVL156:
 2094              	.L95:
 723:Inc/lis3dh_reg.c ****       break;
 2095              		.loc 1 723 7 is_stmt 1 view .LVU494
 723:Inc/lis3dh_reg.c ****       break;
 2096              		.loc 1 723 12 is_stmt 0 view .LVU495
 2097 003c 0223     		movs	r3, #2
 2098 003e 2370     		strb	r3, [r4]
 724:Inc/lis3dh_reg.c **** 
 2099              		.loc 1 724 7 is_stmt 1 view .LVU496
 2100 0040 FAE7     		b	.L94
 2101              	.L99:
 731:Inc/lis3dh_reg.c ****       break;
 2102              		.loc 1 731 7 view .LVU497
 731:Inc/lis3dh_reg.c ****       break;
 2103              		.loc 1 731 12 is_stmt 0 view .LVU498
 2104 0042 0023     		movs	r3, #0
 2105 0044 2370     		strb	r3, [r4]
 732:Inc/lis3dh_reg.c ****   }
 2106              		.loc 1 732 7 is_stmt 1 view .LVU499
 735:Inc/lis3dh_reg.c **** }
 2107              		.loc 1 735 3 view .LVU500
 735:Inc/lis3dh_reg.c **** }
 2108              		.loc 1 735 10 is_stmt 0 view .LVU501
 2109 0046 F7E7     		b	.L94
 2110              		.cfi_endproc
 2111              	.LFE33:
 2113              		.section	.text.lis3dh_full_scale_set,"ax",%progbits
ARM GAS  /tmp/ccT3btxY.s 			page 52


 2114              		.align	1
 2115              		.global	lis3dh_full_scale_set
 2116              		.syntax unified
 2117              		.code	16
 2118              		.thumb_func
 2119              		.fpu softvfp
 2121              	lis3dh_full_scale_set:
 2122              	.LVL157:
 2123              	.LFB34:
 737:Inc/lis3dh_reg.c **** 
 738:Inc/lis3dh_reg.c **** /**
 739:Inc/lis3dh_reg.c ****   * @brief  Full-scale configuration.[set]
 740:Inc/lis3dh_reg.c ****   *
 741:Inc/lis3dh_reg.c ****   * @param  ctx      read / write interface definitions
 742:Inc/lis3dh_reg.c ****   * @param  val      change the values of fs in reg CTRL_REG4
 743:Inc/lis3dh_reg.c ****   * @retval          interface status (MANDATORY: return 0 -> no Error)
 744:Inc/lis3dh_reg.c ****   *
 745:Inc/lis3dh_reg.c ****   */
 746:Inc/lis3dh_reg.c **** int32_t lis3dh_full_scale_set(stmdev_ctx_t *ctx, lis3dh_fs_t val)
 747:Inc/lis3dh_reg.c **** {
 2124              		.loc 1 747 1 is_stmt 1 view -0
 2125              		.cfi_startproc
 2126              		@ args = 0, pretend = 0, frame = 8
 2127              		@ frame_needed = 0, uses_anonymous_args = 0
 2128              		.loc 1 747 1 is_stmt 0 view .LVU503
 2129 0000 30B5     		push	{r4, r5, lr}
 2130              	.LCFI48:
 2131              		.cfi_def_cfa_offset 12
 2132              		.cfi_offset 4, -12
 2133              		.cfi_offset 5, -8
 2134              		.cfi_offset 14, -4
 2135 0002 83B0     		sub	sp, sp, #12
 2136              	.LCFI49:
 2137              		.cfi_def_cfa_offset 24
 2138 0004 0400     		movs	r4, r0
 2139 0006 0D00     		movs	r5, r1
 748:Inc/lis3dh_reg.c ****   lis3dh_ctrl_reg4_t ctrl_reg4;
 2140              		.loc 1 748 3 is_stmt 1 view .LVU504
 749:Inc/lis3dh_reg.c ****   int32_t ret;
 2141              		.loc 1 749 3 view .LVU505
 750:Inc/lis3dh_reg.c **** 
 751:Inc/lis3dh_reg.c ****   ret = lis3dh_read_reg(ctx, LIS3DH_CTRL_REG4, (uint8_t *)&ctrl_reg4, 1);
 2142              		.loc 1 751 3 view .LVU506
 2143              		.loc 1 751 9 is_stmt 0 view .LVU507
 2144 0008 0123     		movs	r3, #1
 2145 000a 01AA     		add	r2, sp, #4
 2146 000c 2321     		movs	r1, #35
 2147              	.LVL158:
 2148              		.loc 1 751 9 view .LVU508
 2149 000e FFF7FEFF 		bl	lis3dh_read_reg
 2150              	.LVL159:
 752:Inc/lis3dh_reg.c **** 
 753:Inc/lis3dh_reg.c ****   if (ret == 0)
 2151              		.loc 1 753 3 is_stmt 1 view .LVU509
 2152              		.loc 1 753 6 is_stmt 0 view .LVU510
 2153 0012 0028     		cmp	r0, #0
 2154 0014 01D0     		beq	.L104
ARM GAS  /tmp/ccT3btxY.s 			page 53


 2155              	.L102:
 754:Inc/lis3dh_reg.c ****   {
 755:Inc/lis3dh_reg.c ****     ctrl_reg4.fs = (uint8_t)val;
 756:Inc/lis3dh_reg.c ****     ret = lis3dh_write_reg(ctx, LIS3DH_CTRL_REG4, (uint8_t *)&ctrl_reg4, 1);
 757:Inc/lis3dh_reg.c ****   }
 758:Inc/lis3dh_reg.c **** 
 759:Inc/lis3dh_reg.c ****   return ret;
 760:Inc/lis3dh_reg.c **** }
 2156              		.loc 1 760 1 view .LVU511
 2157 0016 03B0     		add	sp, sp, #12
 2158              		@ sp needed
 2159              	.LVL160:
 2160              		.loc 1 760 1 view .LVU512
 2161 0018 30BD     		pop	{r4, r5, pc}
 2162              	.LVL161:
 2163              	.L104:
 755:Inc/lis3dh_reg.c ****     ret = lis3dh_write_reg(ctx, LIS3DH_CTRL_REG4, (uint8_t *)&ctrl_reg4, 1);
 2164              		.loc 1 755 5 is_stmt 1 view .LVU513
 755:Inc/lis3dh_reg.c ****     ret = lis3dh_write_reg(ctx, LIS3DH_CTRL_REG4, (uint8_t *)&ctrl_reg4, 1);
 2165              		.loc 1 755 18 is_stmt 0 view .LVU514
 2166 001a 0322     		movs	r2, #3
 2167 001c 2A40     		ands	r2, r5
 2168 001e 1201     		lsls	r2, r2, #4
 2169 0020 6B46     		mov	r3, sp
 2170 0022 1B79     		ldrb	r3, [r3, #4]
 2171 0024 3021     		movs	r1, #48
 2172 0026 8B43     		bics	r3, r1
 2173 0028 1343     		orrs	r3, r2
 2174 002a 6A46     		mov	r2, sp
 2175 002c 1371     		strb	r3, [r2, #4]
 756:Inc/lis3dh_reg.c ****   }
 2176              		.loc 1 756 5 is_stmt 1 view .LVU515
 756:Inc/lis3dh_reg.c ****   }
 2177              		.loc 1 756 11 is_stmt 0 view .LVU516
 2178 002e 0123     		movs	r3, #1
 2179 0030 01AA     		add	r2, sp, #4
 2180 0032 0D39     		subs	r1, r1, #13
 2181 0034 2000     		movs	r0, r4
 2182              	.LVL162:
 756:Inc/lis3dh_reg.c ****   }
 2183              		.loc 1 756 11 view .LVU517
 2184 0036 FFF7FEFF 		bl	lis3dh_write_reg
 2185              	.LVL163:
 759:Inc/lis3dh_reg.c **** }
 2186              		.loc 1 759 3 is_stmt 1 view .LVU518
 759:Inc/lis3dh_reg.c **** }
 2187              		.loc 1 759 10 is_stmt 0 view .LVU519
 2188 003a ECE7     		b	.L102
 2189              		.cfi_endproc
 2190              	.LFE34:
 2192              		.section	.text.lis3dh_full_scale_get,"ax",%progbits
 2193              		.align	1
 2194              		.global	lis3dh_full_scale_get
 2195              		.syntax unified
 2196              		.code	16
 2197              		.thumb_func
 2198              		.fpu softvfp
ARM GAS  /tmp/ccT3btxY.s 			page 54


 2200              	lis3dh_full_scale_get:
 2201              	.LVL164:
 2202              	.LFB35:
 761:Inc/lis3dh_reg.c **** 
 762:Inc/lis3dh_reg.c **** /**
 763:Inc/lis3dh_reg.c ****   * @brief  Full-scale configuration.[get]
 764:Inc/lis3dh_reg.c ****   *
 765:Inc/lis3dh_reg.c ****   * @param  ctx      read / write interface definitions
 766:Inc/lis3dh_reg.c ****   * @param  val      get the values of fs in reg CTRL_REG4
 767:Inc/lis3dh_reg.c ****   * @retval          interface status (MANDATORY: return 0 -> no Error)
 768:Inc/lis3dh_reg.c ****   *
 769:Inc/lis3dh_reg.c ****   */
 770:Inc/lis3dh_reg.c **** int32_t lis3dh_full_scale_get(stmdev_ctx_t *ctx, lis3dh_fs_t *val)
 771:Inc/lis3dh_reg.c **** {
 2203              		.loc 1 771 1 is_stmt 1 view -0
 2204              		.cfi_startproc
 2205              		@ args = 0, pretend = 0, frame = 8
 2206              		@ frame_needed = 0, uses_anonymous_args = 0
 2207              		.loc 1 771 1 is_stmt 0 view .LVU521
 2208 0000 30B5     		push	{r4, r5, lr}
 2209              	.LCFI50:
 2210              		.cfi_def_cfa_offset 12
 2211              		.cfi_offset 4, -12
 2212              		.cfi_offset 5, -8
 2213              		.cfi_offset 14, -4
 2214 0002 83B0     		sub	sp, sp, #12
 2215              	.LCFI51:
 2216              		.cfi_def_cfa_offset 24
 2217 0004 0C00     		movs	r4, r1
 772:Inc/lis3dh_reg.c ****   lis3dh_ctrl_reg4_t ctrl_reg4;
 2218              		.loc 1 772 3 is_stmt 1 view .LVU522
 773:Inc/lis3dh_reg.c ****   int32_t ret;
 2219              		.loc 1 773 3 view .LVU523
 774:Inc/lis3dh_reg.c **** 
 775:Inc/lis3dh_reg.c ****   ret = lis3dh_read_reg(ctx, LIS3DH_CTRL_REG4, (uint8_t *)&ctrl_reg4, 1);
 2220              		.loc 1 775 3 view .LVU524
 2221              		.loc 1 775 9 is_stmt 0 view .LVU525
 2222 0006 01AD     		add	r5, sp, #4
 2223 0008 0123     		movs	r3, #1
 2224 000a 2A00     		movs	r2, r5
 2225 000c 2321     		movs	r1, #35
 2226              	.LVL165:
 2227              		.loc 1 775 9 view .LVU526
 2228 000e FFF7FEFF 		bl	lis3dh_read_reg
 2229              	.LVL166:
 776:Inc/lis3dh_reg.c **** 
 777:Inc/lis3dh_reg.c ****   switch (ctrl_reg4.fs)
 2230              		.loc 1 777 3 is_stmt 1 view .LVU527
 2231              		.loc 1 777 20 is_stmt 0 view .LVU528
 2232 0012 2B78     		ldrb	r3, [r5]
 2233 0014 9B06     		lsls	r3, r3, #26
 2234 0016 9B0F     		lsrs	r3, r3, #30
 2235              		.loc 1 777 3 view .LVU529
 2236 0018 022B     		cmp	r3, #2
 2237 001a 10D0     		beq	.L106
 2238 001c 06D8     		bhi	.L107
 2239 001e 002B     		cmp	r3, #0
ARM GAS  /tmp/ccT3btxY.s 			page 55


 2240 0020 09D0     		beq	.L108
 2241 0022 012B     		cmp	r3, #1
 2242 0024 0ED1     		bne	.L110
 778:Inc/lis3dh_reg.c ****   {
 779:Inc/lis3dh_reg.c ****     case LIS3DH_2g:
 780:Inc/lis3dh_reg.c ****       *val = LIS3DH_2g;
 781:Inc/lis3dh_reg.c ****       break;
 782:Inc/lis3dh_reg.c **** 
 783:Inc/lis3dh_reg.c ****     case LIS3DH_4g:
 784:Inc/lis3dh_reg.c ****       *val = LIS3DH_4g;
 2243              		.loc 1 784 7 is_stmt 1 view .LVU530
 2244              		.loc 1 784 12 is_stmt 0 view .LVU531
 2245 0026 0123     		movs	r3, #1
 2246 0028 2370     		strb	r3, [r4]
 785:Inc/lis3dh_reg.c ****       break;
 2247              		.loc 1 785 7 is_stmt 1 view .LVU532
 2248 002a 06E0     		b	.L105
 2249              	.L107:
 777:Inc/lis3dh_reg.c ****   {
 2250              		.loc 1 777 3 is_stmt 0 view .LVU533
 2251 002c 032B     		cmp	r3, #3
 2252 002e 09D1     		bne	.L110
 786:Inc/lis3dh_reg.c **** 
 787:Inc/lis3dh_reg.c ****     case LIS3DH_8g:
 788:Inc/lis3dh_reg.c ****       *val = LIS3DH_8g;
 789:Inc/lis3dh_reg.c ****       break;
 790:Inc/lis3dh_reg.c **** 
 791:Inc/lis3dh_reg.c ****     case LIS3DH_16g:
 792:Inc/lis3dh_reg.c ****       *val = LIS3DH_16g;
 2253              		.loc 1 792 7 is_stmt 1 view .LVU534
 2254              		.loc 1 792 12 is_stmt 0 view .LVU535
 2255 0030 0323     		movs	r3, #3
 2256 0032 2370     		strb	r3, [r4]
 793:Inc/lis3dh_reg.c ****       break;
 2257              		.loc 1 793 7 is_stmt 1 view .LVU536
 2258 0034 01E0     		b	.L105
 2259              	.L108:
 780:Inc/lis3dh_reg.c ****       break;
 2260              		.loc 1 780 7 view .LVU537
 780:Inc/lis3dh_reg.c ****       break;
 2261              		.loc 1 780 12 is_stmt 0 view .LVU538
 2262 0036 0023     		movs	r3, #0
 2263 0038 2370     		strb	r3, [r4]
 781:Inc/lis3dh_reg.c **** 
 2264              		.loc 1 781 7 is_stmt 1 view .LVU539
 2265              	.L105:
 794:Inc/lis3dh_reg.c **** 
 795:Inc/lis3dh_reg.c ****     default:
 796:Inc/lis3dh_reg.c ****       *val = LIS3DH_2g;
 797:Inc/lis3dh_reg.c ****       break;
 798:Inc/lis3dh_reg.c ****   }
 799:Inc/lis3dh_reg.c **** 
 800:Inc/lis3dh_reg.c ****   return ret;
 801:Inc/lis3dh_reg.c **** }
 2266              		.loc 1 801 1 is_stmt 0 view .LVU540
 2267 003a 03B0     		add	sp, sp, #12
 2268              		@ sp needed
ARM GAS  /tmp/ccT3btxY.s 			page 56


 2269              	.LVL167:
 2270              		.loc 1 801 1 view .LVU541
 2271 003c 30BD     		pop	{r4, r5, pc}
 2272              	.LVL168:
 2273              	.L106:
 788:Inc/lis3dh_reg.c ****       break;
 2274              		.loc 1 788 7 is_stmt 1 view .LVU542
 788:Inc/lis3dh_reg.c ****       break;
 2275              		.loc 1 788 12 is_stmt 0 view .LVU543
 2276 003e 0223     		movs	r3, #2
 2277 0040 2370     		strb	r3, [r4]
 789:Inc/lis3dh_reg.c **** 
 2278              		.loc 1 789 7 is_stmt 1 view .LVU544
 2279 0042 FAE7     		b	.L105
 2280              	.L110:
 796:Inc/lis3dh_reg.c ****       break;
 2281              		.loc 1 796 7 view .LVU545
 796:Inc/lis3dh_reg.c ****       break;
 2282              		.loc 1 796 12 is_stmt 0 view .LVU546
 2283 0044 0023     		movs	r3, #0
 2284 0046 2370     		strb	r3, [r4]
 797:Inc/lis3dh_reg.c ****   }
 2285              		.loc 1 797 7 is_stmt 1 view .LVU547
 800:Inc/lis3dh_reg.c **** }
 2286              		.loc 1 800 3 view .LVU548
 800:Inc/lis3dh_reg.c **** }
 2287              		.loc 1 800 10 is_stmt 0 view .LVU549
 2288 0048 F7E7     		b	.L105
 2289              		.cfi_endproc
 2290              	.LFE35:
 2292              		.section	.text.lis3dh_block_data_update_set,"ax",%progbits
 2293              		.align	1
 2294              		.global	lis3dh_block_data_update_set
 2295              		.syntax unified
 2296              		.code	16
 2297              		.thumb_func
 2298              		.fpu softvfp
 2300              	lis3dh_block_data_update_set:
 2301              	.LVL169:
 2302              	.LFB36:
 802:Inc/lis3dh_reg.c **** 
 803:Inc/lis3dh_reg.c **** /**
 804:Inc/lis3dh_reg.c ****   * @brief  Block Data Update.[set]
 805:Inc/lis3dh_reg.c ****   *
 806:Inc/lis3dh_reg.c ****   * @param  ctx      read / write interface definitions
 807:Inc/lis3dh_reg.c ****   * @param  val      change the values of bdu in reg CTRL_REG4
 808:Inc/lis3dh_reg.c ****   * @retval          interface status (MANDATORY: return 0 -> no Error)
 809:Inc/lis3dh_reg.c ****   *
 810:Inc/lis3dh_reg.c ****   */
 811:Inc/lis3dh_reg.c **** int32_t lis3dh_block_data_update_set(stmdev_ctx_t *ctx, uint8_t val)
 812:Inc/lis3dh_reg.c **** {
 2303              		.loc 1 812 1 is_stmt 1 view -0
 2304              		.cfi_startproc
 2305              		@ args = 0, pretend = 0, frame = 8
 2306              		@ frame_needed = 0, uses_anonymous_args = 0
 2307              		.loc 1 812 1 is_stmt 0 view .LVU551
 2308 0000 30B5     		push	{r4, r5, lr}
ARM GAS  /tmp/ccT3btxY.s 			page 57


 2309              	.LCFI52:
 2310              		.cfi_def_cfa_offset 12
 2311              		.cfi_offset 4, -12
 2312              		.cfi_offset 5, -8
 2313              		.cfi_offset 14, -4
 2314 0002 83B0     		sub	sp, sp, #12
 2315              	.LCFI53:
 2316              		.cfi_def_cfa_offset 24
 2317 0004 0400     		movs	r4, r0
 2318 0006 0D00     		movs	r5, r1
 813:Inc/lis3dh_reg.c ****   lis3dh_ctrl_reg4_t ctrl_reg4;
 2319              		.loc 1 813 3 is_stmt 1 view .LVU552
 814:Inc/lis3dh_reg.c ****   int32_t ret;
 2320              		.loc 1 814 3 view .LVU553
 815:Inc/lis3dh_reg.c **** 
 816:Inc/lis3dh_reg.c ****   ret = lis3dh_read_reg(ctx, LIS3DH_CTRL_REG4, (uint8_t *)&ctrl_reg4, 1);
 2321              		.loc 1 816 3 view .LVU554
 2322              		.loc 1 816 9 is_stmt 0 view .LVU555
 2323 0008 0123     		movs	r3, #1
 2324 000a 01AA     		add	r2, sp, #4
 2325 000c 2321     		movs	r1, #35
 2326              	.LVL170:
 2327              		.loc 1 816 9 view .LVU556
 2328 000e FFF7FEFF 		bl	lis3dh_read_reg
 2329              	.LVL171:
 817:Inc/lis3dh_reg.c **** 
 818:Inc/lis3dh_reg.c ****   if (ret == 0)
 2330              		.loc 1 818 3 is_stmt 1 view .LVU557
 2331              		.loc 1 818 6 is_stmt 0 view .LVU558
 2332 0012 0028     		cmp	r0, #0
 2333 0014 01D0     		beq	.L115
 2334              	.L113:
 819:Inc/lis3dh_reg.c ****   {
 820:Inc/lis3dh_reg.c ****     ctrl_reg4.bdu = val;
 821:Inc/lis3dh_reg.c ****     ret = lis3dh_write_reg(ctx, LIS3DH_CTRL_REG4, (uint8_t *)&ctrl_reg4, 1);
 822:Inc/lis3dh_reg.c ****   }
 823:Inc/lis3dh_reg.c **** 
 824:Inc/lis3dh_reg.c ****   return ret;
 825:Inc/lis3dh_reg.c **** }
 2335              		.loc 1 825 1 view .LVU559
 2336 0016 03B0     		add	sp, sp, #12
 2337              		@ sp needed
 2338              	.LVL172:
 2339              		.loc 1 825 1 view .LVU560
 2340 0018 30BD     		pop	{r4, r5, pc}
 2341              	.LVL173:
 2342              	.L115:
 820:Inc/lis3dh_reg.c ****     ret = lis3dh_write_reg(ctx, LIS3DH_CTRL_REG4, (uint8_t *)&ctrl_reg4, 1);
 2343              		.loc 1 820 5 is_stmt 1 view .LVU561
 820:Inc/lis3dh_reg.c ****     ret = lis3dh_write_reg(ctx, LIS3DH_CTRL_REG4, (uint8_t *)&ctrl_reg4, 1);
 2344              		.loc 1 820 19 is_stmt 0 view .LVU562
 2345 001a ED01     		lsls	r5, r5, #7
 2346 001c 6B46     		mov	r3, sp
 2347 001e 1A79     		ldrb	r2, [r3, #4]
 2348 0020 7F23     		movs	r3, #127
 2349 0022 1340     		ands	r3, r2
 2350 0024 2B43     		orrs	r3, r5
ARM GAS  /tmp/ccT3btxY.s 			page 58


 2351 0026 6A46     		mov	r2, sp
 2352 0028 1371     		strb	r3, [r2, #4]
 821:Inc/lis3dh_reg.c ****   }
 2353              		.loc 1 821 5 is_stmt 1 view .LVU563
 821:Inc/lis3dh_reg.c ****   }
 2354              		.loc 1 821 11 is_stmt 0 view .LVU564
 2355 002a 0123     		movs	r3, #1
 2356 002c 01AA     		add	r2, sp, #4
 2357 002e 2321     		movs	r1, #35
 2358 0030 2000     		movs	r0, r4
 2359              	.LVL174:
 821:Inc/lis3dh_reg.c ****   }
 2360              		.loc 1 821 11 view .LVU565
 2361 0032 FFF7FEFF 		bl	lis3dh_write_reg
 2362              	.LVL175:
 824:Inc/lis3dh_reg.c **** }
 2363              		.loc 1 824 3 is_stmt 1 view .LVU566
 824:Inc/lis3dh_reg.c **** }
 2364              		.loc 1 824 10 is_stmt 0 view .LVU567
 2365 0036 EEE7     		b	.L113
 2366              		.cfi_endproc
 2367              	.LFE36:
 2369              		.section	.text.lis3dh_aux_adc_set,"ax",%progbits
 2370              		.align	1
 2371              		.global	lis3dh_aux_adc_set
 2372              		.syntax unified
 2373              		.code	16
 2374              		.thumb_func
 2375              		.fpu softvfp
 2377              	lis3dh_aux_adc_set:
 2378              	.LVL176:
 2379              	.LFB22:
 298:Inc/lis3dh_reg.c ****   lis3dh_temp_cfg_reg_t temp_cfg_reg;
 2380              		.loc 1 298 1 is_stmt 1 view -0
 2381              		.cfi_startproc
 2382              		@ args = 0, pretend = 0, frame = 8
 2383              		@ frame_needed = 0, uses_anonymous_args = 0
 298:Inc/lis3dh_reg.c ****   lis3dh_temp_cfg_reg_t temp_cfg_reg;
 2384              		.loc 1 298 1 is_stmt 0 view .LVU569
 2385 0000 70B5     		push	{r4, r5, r6, lr}
 2386              	.LCFI54:
 2387              		.cfi_def_cfa_offset 16
 2388              		.cfi_offset 4, -16
 2389              		.cfi_offset 5, -12
 2390              		.cfi_offset 6, -8
 2391              		.cfi_offset 14, -4
 2392 0002 82B0     		sub	sp, sp, #8
 2393              	.LCFI55:
 2394              		.cfi_def_cfa_offset 24
 2395 0004 0400     		movs	r4, r0
 2396 0006 0D00     		movs	r5, r1
 299:Inc/lis3dh_reg.c ****   int32_t ret;
 2397              		.loc 1 299 3 is_stmt 1 view .LVU570
 300:Inc/lis3dh_reg.c **** 
 2398              		.loc 1 300 3 view .LVU571
 302:Inc/lis3dh_reg.c ****                         (uint8_t *)&temp_cfg_reg, 1);
 2399              		.loc 1 302 3 view .LVU572
ARM GAS  /tmp/ccT3btxY.s 			page 59


 302:Inc/lis3dh_reg.c ****                         (uint8_t *)&temp_cfg_reg, 1);
 2400              		.loc 1 302 9 is_stmt 0 view .LVU573
 2401 0008 0123     		movs	r3, #1
 2402 000a 01AA     		add	r2, sp, #4
 2403 000c 1F21     		movs	r1, #31
 2404              	.LVL177:
 302:Inc/lis3dh_reg.c ****                         (uint8_t *)&temp_cfg_reg, 1);
 2405              		.loc 1 302 9 view .LVU574
 2406 000e FFF7FEFF 		bl	lis3dh_read_reg
 2407              	.LVL178:
 305:Inc/lis3dh_reg.c ****   {
 2408              		.loc 1 305 3 is_stmt 1 view .LVU575
 305:Inc/lis3dh_reg.c ****   {
 2409              		.loc 1 305 6 is_stmt 0 view .LVU576
 2410 0012 0028     		cmp	r0, #0
 2411 0014 01D1     		bne	.L117
 307:Inc/lis3dh_reg.c ****     {
 2412              		.loc 1 307 5 is_stmt 1 view .LVU577
 307:Inc/lis3dh_reg.c ****     {
 2413              		.loc 1 307 8 is_stmt 0 view .LVU578
 2414 0016 002D     		cmp	r5, #0
 2415 0018 03D1     		bne	.L119
 2416              	.L117:
 314:Inc/lis3dh_reg.c ****   {
 2417              		.loc 1 314 3 is_stmt 1 view .LVU579
 314:Inc/lis3dh_reg.c ****   {
 2418              		.loc 1 314 6 is_stmt 0 view .LVU580
 2419 001a 0028     		cmp	r0, #0
 2420 001c 06D0     		beq	.L120
 2421              	.L116:
 323:Inc/lis3dh_reg.c **** 
 2422              		.loc 1 323 1 view .LVU581
 2423 001e 02B0     		add	sp, sp, #8
 2424              		@ sp needed
 2425              	.LVL179:
 323:Inc/lis3dh_reg.c **** 
 2426              		.loc 1 323 1 view .LVU582
 2427 0020 70BD     		pop	{r4, r5, r6, pc}
 2428              	.LVL180:
 2429              	.L119:
 310:Inc/lis3dh_reg.c ****     }
 2430              		.loc 1 310 7 is_stmt 1 view .LVU583
 310:Inc/lis3dh_reg.c ****     }
 2431              		.loc 1 310 13 is_stmt 0 view .LVU584
 2432 0022 0121     		movs	r1, #1
 2433 0024 2000     		movs	r0, r4
 2434              	.LVL181:
 310:Inc/lis3dh_reg.c ****     }
 2435              		.loc 1 310 13 view .LVU585
 2436 0026 FFF7FEFF 		bl	lis3dh_block_data_update_set
 2437              	.LVL182:
 310:Inc/lis3dh_reg.c ****     }
 2438              		.loc 1 310 13 view .LVU586
 2439 002a F6E7     		b	.L117
 2440              	.L120:
 316:Inc/lis3dh_reg.c ****     temp_cfg_reg.adc_pd  = (uint8_t) val &  0x01U;
 2441              		.loc 1 316 5 is_stmt 1 view .LVU587
ARM GAS  /tmp/ccT3btxY.s 			page 60


 316:Inc/lis3dh_reg.c ****     temp_cfg_reg.adc_pd  = (uint8_t) val &  0x01U;
 2442              		.loc 1 316 52 is_stmt 0 view .LVU588
 2443 002c 6808     		lsrs	r0, r5, #1
 2444              	.LVL183:
 316:Inc/lis3dh_reg.c ****     temp_cfg_reg.adc_pd  = (uint8_t) val &  0x01U;
 2445              		.loc 1 316 52 view .LVU589
 2446 002e 0123     		movs	r3, #1
 2447 0030 1840     		ands	r0, r3
 316:Inc/lis3dh_reg.c ****     temp_cfg_reg.adc_pd  = (uint8_t) val &  0x01U;
 2448              		.loc 1 316 26 view .LVU590
 2449 0032 01AA     		add	r2, sp, #4
 2450 0034 C001     		lsls	r0, r0, #7
 2451 0036 1678     		ldrb	r6, [r2]
 2452 0038 7F21     		movs	r1, #127
 2453 003a 3140     		ands	r1, r6
 2454 003c 0143     		orrs	r1, r0
 2455 003e 1170     		strb	r1, [r2]
 317:Inc/lis3dh_reg.c ****     ret = lis3dh_write_reg(ctx, LIS3DH_TEMP_CFG_REG,
 2456              		.loc 1 317 5 is_stmt 1 view .LVU591
 317:Inc/lis3dh_reg.c ****     ret = lis3dh_write_reg(ctx, LIS3DH_TEMP_CFG_REG,
 2457              		.loc 1 317 26 is_stmt 0 view .LVU592
 2458 0040 2B40     		ands	r3, r5
 2459 0042 9B01     		lsls	r3, r3, #6
 2460 0044 C9B2     		uxtb	r1, r1
 2461 0046 4020     		movs	r0, #64
 2462 0048 8143     		bics	r1, r0
 2463 004a 0B43     		orrs	r3, r1
 2464 004c 1370     		strb	r3, [r2]
 318:Inc/lis3dh_reg.c ****                            (uint8_t *)&temp_cfg_reg, 1);
 2465              		.loc 1 318 5 is_stmt 1 view .LVU593
 318:Inc/lis3dh_reg.c ****                            (uint8_t *)&temp_cfg_reg, 1);
 2466              		.loc 1 318 11 is_stmt 0 view .LVU594
 2467 004e 0123     		movs	r3, #1
 2468 0050 1F21     		movs	r1, #31
 2469 0052 2000     		movs	r0, r4
 2470 0054 FFF7FEFF 		bl	lis3dh_write_reg
 2471              	.LVL184:
 322:Inc/lis3dh_reg.c **** }
 2472              		.loc 1 322 3 is_stmt 1 view .LVU595
 322:Inc/lis3dh_reg.c **** }
 2473              		.loc 1 322 10 is_stmt 0 view .LVU596
 2474 0058 E1E7     		b	.L116
 2475              		.cfi_endproc
 2476              	.LFE22:
 2478              		.section	.text.lis3dh_block_data_update_get,"ax",%progbits
 2479              		.align	1
 2480              		.global	lis3dh_block_data_update_get
 2481              		.syntax unified
 2482              		.code	16
 2483              		.thumb_func
 2484              		.fpu softvfp
 2486              	lis3dh_block_data_update_get:
 2487              	.LVL185:
 2488              	.LFB37:
 826:Inc/lis3dh_reg.c **** 
 827:Inc/lis3dh_reg.c **** /**
 828:Inc/lis3dh_reg.c ****   * @brief  Block Data Update.[get]
ARM GAS  /tmp/ccT3btxY.s 			page 61


 829:Inc/lis3dh_reg.c ****   *
 830:Inc/lis3dh_reg.c ****   * @param  ctx      read / write interface definitions
 831:Inc/lis3dh_reg.c ****   * @param  val      change the values of bdu in reg CTRL_REG4
 832:Inc/lis3dh_reg.c ****   * @retval          interface status (MANDATORY: return 0 -> no Error)
 833:Inc/lis3dh_reg.c ****   *
 834:Inc/lis3dh_reg.c ****   */
 835:Inc/lis3dh_reg.c **** int32_t lis3dh_block_data_update_get(stmdev_ctx_t *ctx, uint8_t *val)
 836:Inc/lis3dh_reg.c **** {
 2489              		.loc 1 836 1 is_stmt 1 view -0
 2490              		.cfi_startproc
 2491              		@ args = 0, pretend = 0, frame = 8
 2492              		@ frame_needed = 0, uses_anonymous_args = 0
 2493              		.loc 1 836 1 is_stmt 0 view .LVU598
 2494 0000 30B5     		push	{r4, r5, lr}
 2495              	.LCFI56:
 2496              		.cfi_def_cfa_offset 12
 2497              		.cfi_offset 4, -12
 2498              		.cfi_offset 5, -8
 2499              		.cfi_offset 14, -4
 2500 0002 83B0     		sub	sp, sp, #12
 2501              	.LCFI57:
 2502              		.cfi_def_cfa_offset 24
 2503 0004 0C00     		movs	r4, r1
 837:Inc/lis3dh_reg.c ****   lis3dh_ctrl_reg4_t ctrl_reg4;
 2504              		.loc 1 837 3 is_stmt 1 view .LVU599
 838:Inc/lis3dh_reg.c ****   int32_t ret;
 2505              		.loc 1 838 3 view .LVU600
 839:Inc/lis3dh_reg.c **** 
 840:Inc/lis3dh_reg.c ****   ret = lis3dh_read_reg(ctx, LIS3DH_CTRL_REG4, (uint8_t *)&ctrl_reg4, 1);
 2506              		.loc 1 840 3 view .LVU601
 2507              		.loc 1 840 9 is_stmt 0 view .LVU602
 2508 0006 01AD     		add	r5, sp, #4
 2509 0008 0123     		movs	r3, #1
 2510 000a 2A00     		movs	r2, r5
 2511 000c 2321     		movs	r1, #35
 2512              	.LVL186:
 2513              		.loc 1 840 9 view .LVU603
 2514 000e FFF7FEFF 		bl	lis3dh_read_reg
 2515              	.LVL187:
 841:Inc/lis3dh_reg.c ****   *val = (uint8_t)ctrl_reg4.bdu;
 2516              		.loc 1 841 3 is_stmt 1 view .LVU604
 2517              		.loc 1 841 28 is_stmt 0 view .LVU605
 2518 0012 2B78     		ldrb	r3, [r5]
 2519 0014 DB09     		lsrs	r3, r3, #7
 2520              		.loc 1 841 8 view .LVU606
 2521 0016 2370     		strb	r3, [r4]
 842:Inc/lis3dh_reg.c **** 
 843:Inc/lis3dh_reg.c ****   return ret;
 2522              		.loc 1 843 3 is_stmt 1 view .LVU607
 844:Inc/lis3dh_reg.c **** }
 2523              		.loc 1 844 1 is_stmt 0 view .LVU608
 2524 0018 03B0     		add	sp, sp, #12
 2525              		@ sp needed
 2526              	.LVL188:
 2527              		.loc 1 844 1 view .LVU609
 2528 001a 30BD     		pop	{r4, r5, pc}
 2529              		.cfi_endproc
ARM GAS  /tmp/ccT3btxY.s 			page 62


 2530              	.LFE37:
 2532              		.section	.text.lis3dh_filter_reference_set,"ax",%progbits
 2533              		.align	1
 2534              		.global	lis3dh_filter_reference_set
 2535              		.syntax unified
 2536              		.code	16
 2537              		.thumb_func
 2538              		.fpu softvfp
 2540              	lis3dh_filter_reference_set:
 2541              	.LVL189:
 2542              	.LFB38:
 845:Inc/lis3dh_reg.c **** 
 846:Inc/lis3dh_reg.c **** /**
 847:Inc/lis3dh_reg.c ****   * @brief  Reference value for interrupt generation.[set]
 848:Inc/lis3dh_reg.c ****   *         LSB = ~16@2g / ~31@4g / ~63@8g / ~127@16g
 849:Inc/lis3dh_reg.c ****   *
 850:Inc/lis3dh_reg.c ****   * @param  ctx      read / write interface definitions
 851:Inc/lis3dh_reg.c ****   * @param  buff     buffer that contains data to write
 852:Inc/lis3dh_reg.c ****   * @retval          interface status (MANDATORY: return 0 -> no Error)
 853:Inc/lis3dh_reg.c ****   *
 854:Inc/lis3dh_reg.c ****   */
 855:Inc/lis3dh_reg.c **** int32_t lis3dh_filter_reference_set(stmdev_ctx_t *ctx, uint8_t *buff)
 856:Inc/lis3dh_reg.c **** {
 2543              		.loc 1 856 1 is_stmt 1 view -0
 2544              		.cfi_startproc
 2545              		@ args = 0, pretend = 0, frame = 0
 2546              		@ frame_needed = 0, uses_anonymous_args = 0
 2547              		.loc 1 856 1 is_stmt 0 view .LVU611
 2548 0000 10B5     		push	{r4, lr}
 2549              	.LCFI58:
 2550              		.cfi_def_cfa_offset 8
 2551              		.cfi_offset 4, -8
 2552              		.cfi_offset 14, -4
 2553 0002 0A00     		movs	r2, r1
 857:Inc/lis3dh_reg.c ****   int32_t ret;
 2554              		.loc 1 857 3 is_stmt 1 view .LVU612
 858:Inc/lis3dh_reg.c **** 
 859:Inc/lis3dh_reg.c ****   ret = lis3dh_write_reg(ctx, LIS3DH_REFERENCE, buff, 1);
 2555              		.loc 1 859 3 view .LVU613
 2556              		.loc 1 859 9 is_stmt 0 view .LVU614
 2557 0004 0123     		movs	r3, #1
 2558 0006 2621     		movs	r1, #38
 2559              	.LVL190:
 2560              		.loc 1 859 9 view .LVU615
 2561 0008 FFF7FEFF 		bl	lis3dh_write_reg
 2562              	.LVL191:
 860:Inc/lis3dh_reg.c **** 
 861:Inc/lis3dh_reg.c ****   return ret;
 2563              		.loc 1 861 3 is_stmt 1 view .LVU616
 862:Inc/lis3dh_reg.c **** }
 2564              		.loc 1 862 1 is_stmt 0 view .LVU617
 2565              		@ sp needed
 2566 000c 10BD     		pop	{r4, pc}
 2567              		.cfi_endproc
 2568              	.LFE38:
 2570              		.section	.text.lis3dh_filter_reference_get,"ax",%progbits
 2571              		.align	1
ARM GAS  /tmp/ccT3btxY.s 			page 63


 2572              		.global	lis3dh_filter_reference_get
 2573              		.syntax unified
 2574              		.code	16
 2575              		.thumb_func
 2576              		.fpu softvfp
 2578              	lis3dh_filter_reference_get:
 2579              	.LVL192:
 2580              	.LFB39:
 863:Inc/lis3dh_reg.c **** 
 864:Inc/lis3dh_reg.c **** /**
 865:Inc/lis3dh_reg.c ****   * @brief  Reference value for interrupt generation.[get]
 866:Inc/lis3dh_reg.c ****   *         LSB = ~16@2g / ~31@4g / ~63@8g / ~127@16g
 867:Inc/lis3dh_reg.c ****   *
 868:Inc/lis3dh_reg.c ****   * @param  ctx      read / write interface definitions
 869:Inc/lis3dh_reg.c ****   * @param  buff     buffer that stores data read
 870:Inc/lis3dh_reg.c ****   * @retval          interface status (MANDATORY: return 0 -> no Error)
 871:Inc/lis3dh_reg.c ****   *
 872:Inc/lis3dh_reg.c ****   */
 873:Inc/lis3dh_reg.c **** int32_t lis3dh_filter_reference_get(stmdev_ctx_t *ctx, uint8_t *buff)
 874:Inc/lis3dh_reg.c **** {
 2581              		.loc 1 874 1 is_stmt 1 view -0
 2582              		.cfi_startproc
 2583              		@ args = 0, pretend = 0, frame = 0
 2584              		@ frame_needed = 0, uses_anonymous_args = 0
 2585              		.loc 1 874 1 is_stmt 0 view .LVU619
 2586 0000 10B5     		push	{r4, lr}
 2587              	.LCFI59:
 2588              		.cfi_def_cfa_offset 8
 2589              		.cfi_offset 4, -8
 2590              		.cfi_offset 14, -4
 2591 0002 0A00     		movs	r2, r1
 875:Inc/lis3dh_reg.c ****   int32_t ret;
 2592              		.loc 1 875 3 is_stmt 1 view .LVU620
 876:Inc/lis3dh_reg.c **** 
 877:Inc/lis3dh_reg.c ****   ret = lis3dh_read_reg(ctx, LIS3DH_REFERENCE, buff, 1);
 2593              		.loc 1 877 3 view .LVU621
 2594              		.loc 1 877 9 is_stmt 0 view .LVU622
 2595 0004 0123     		movs	r3, #1
 2596 0006 2621     		movs	r1, #38
 2597              	.LVL193:
 2598              		.loc 1 877 9 view .LVU623
 2599 0008 FFF7FEFF 		bl	lis3dh_read_reg
 2600              	.LVL194:
 878:Inc/lis3dh_reg.c **** 
 879:Inc/lis3dh_reg.c ****   return ret;
 2601              		.loc 1 879 3 is_stmt 1 view .LVU624
 880:Inc/lis3dh_reg.c **** }
 2602              		.loc 1 880 1 is_stmt 0 view .LVU625
 2603              		@ sp needed
 2604 000c 10BD     		pop	{r4, pc}
 2605              		.cfi_endproc
 2606              	.LFE39:
 2608              		.section	.text.lis3dh_xl_data_ready_get,"ax",%progbits
 2609              		.align	1
 2610              		.global	lis3dh_xl_data_ready_get
 2611              		.syntax unified
 2612              		.code	16
ARM GAS  /tmp/ccT3btxY.s 			page 64


 2613              		.thumb_func
 2614              		.fpu softvfp
 2616              	lis3dh_xl_data_ready_get:
 2617              	.LVL195:
 2618              	.LFB40:
 881:Inc/lis3dh_reg.c **** /**
 882:Inc/lis3dh_reg.c ****   * @brief  Acceleration set of data available.[get]
 883:Inc/lis3dh_reg.c ****   *
 884:Inc/lis3dh_reg.c ****   * @param  ctx      read / write interface definitions
 885:Inc/lis3dh_reg.c ****   * @param  val      change the values of zyxda in reg STATUS_REG
 886:Inc/lis3dh_reg.c ****   * @retval          interface status (MANDATORY: return 0 -> no Error)
 887:Inc/lis3dh_reg.c ****   *
 888:Inc/lis3dh_reg.c ****   */
 889:Inc/lis3dh_reg.c **** int32_t lis3dh_xl_data_ready_get(stmdev_ctx_t *ctx, uint8_t *val)
 890:Inc/lis3dh_reg.c **** {
 2619              		.loc 1 890 1 is_stmt 1 view -0
 2620              		.cfi_startproc
 2621              		@ args = 0, pretend = 0, frame = 8
 2622              		@ frame_needed = 0, uses_anonymous_args = 0
 2623              		.loc 1 890 1 is_stmt 0 view .LVU627
 2624 0000 30B5     		push	{r4, r5, lr}
 2625              	.LCFI60:
 2626              		.cfi_def_cfa_offset 12
 2627              		.cfi_offset 4, -12
 2628              		.cfi_offset 5, -8
 2629              		.cfi_offset 14, -4
 2630 0002 83B0     		sub	sp, sp, #12
 2631              	.LCFI61:
 2632              		.cfi_def_cfa_offset 24
 2633 0004 0C00     		movs	r4, r1
 891:Inc/lis3dh_reg.c ****   lis3dh_status_reg_t status_reg;
 2634              		.loc 1 891 3 is_stmt 1 view .LVU628
 892:Inc/lis3dh_reg.c ****   int32_t ret;
 2635              		.loc 1 892 3 view .LVU629
 893:Inc/lis3dh_reg.c **** 
 894:Inc/lis3dh_reg.c ****   ret = lis3dh_read_reg(ctx, LIS3DH_STATUS_REG, (uint8_t *)&status_reg, 1);
 2636              		.loc 1 894 3 view .LVU630
 2637              		.loc 1 894 9 is_stmt 0 view .LVU631
 2638 0006 01AD     		add	r5, sp, #4
 2639 0008 0123     		movs	r3, #1
 2640 000a 2A00     		movs	r2, r5
 2641 000c 2721     		movs	r1, #39
 2642              	.LVL196:
 2643              		.loc 1 894 9 view .LVU632
 2644 000e FFF7FEFF 		bl	lis3dh_read_reg
 2645              	.LVL197:
 895:Inc/lis3dh_reg.c ****   *val = status_reg.zyxda;
 2646              		.loc 1 895 3 is_stmt 1 view .LVU633
 2647              		.loc 1 895 20 is_stmt 0 view .LVU634
 2648 0012 2B78     		ldrb	r3, [r5]
 2649 0014 1B07     		lsls	r3, r3, #28
 2650 0016 DB0F     		lsrs	r3, r3, #31
 2651              		.loc 1 895 8 view .LVU635
 2652 0018 2370     		strb	r3, [r4]
 896:Inc/lis3dh_reg.c **** 
 897:Inc/lis3dh_reg.c ****   return ret;
 2653              		.loc 1 897 3 is_stmt 1 view .LVU636
ARM GAS  /tmp/ccT3btxY.s 			page 65


 898:Inc/lis3dh_reg.c **** }
 2654              		.loc 1 898 1 is_stmt 0 view .LVU637
 2655 001a 03B0     		add	sp, sp, #12
 2656              		@ sp needed
 2657              	.LVL198:
 2658              		.loc 1 898 1 view .LVU638
 2659 001c 30BD     		pop	{r4, r5, pc}
 2660              		.cfi_endproc
 2661              	.LFE40:
 2663              		.section	.text.lis3dh_xl_data_ovr_get,"ax",%progbits
 2664              		.align	1
 2665              		.global	lis3dh_xl_data_ovr_get
 2666              		.syntax unified
 2667              		.code	16
 2668              		.thumb_func
 2669              		.fpu softvfp
 2671              	lis3dh_xl_data_ovr_get:
 2672              	.LVL199:
 2673              	.LFB41:
 899:Inc/lis3dh_reg.c **** /**
 900:Inc/lis3dh_reg.c ****   * @brief  Acceleration set of data overrun.[get]
 901:Inc/lis3dh_reg.c ****   *
 902:Inc/lis3dh_reg.c ****   * @param  ctx      read / write interface definitions
 903:Inc/lis3dh_reg.c ****   * @param  val      change the values of zyxor in reg STATUS_REG
 904:Inc/lis3dh_reg.c ****   * @retval          interface status (MANDATORY: return 0 -> no Error)
 905:Inc/lis3dh_reg.c ****   *
 906:Inc/lis3dh_reg.c ****   */
 907:Inc/lis3dh_reg.c **** int32_t lis3dh_xl_data_ovr_get(stmdev_ctx_t *ctx, uint8_t *val)
 908:Inc/lis3dh_reg.c **** {
 2674              		.loc 1 908 1 is_stmt 1 view -0
 2675              		.cfi_startproc
 2676              		@ args = 0, pretend = 0, frame = 8
 2677              		@ frame_needed = 0, uses_anonymous_args = 0
 2678              		.loc 1 908 1 is_stmt 0 view .LVU640
 2679 0000 30B5     		push	{r4, r5, lr}
 2680              	.LCFI62:
 2681              		.cfi_def_cfa_offset 12
 2682              		.cfi_offset 4, -12
 2683              		.cfi_offset 5, -8
 2684              		.cfi_offset 14, -4
 2685 0002 83B0     		sub	sp, sp, #12
 2686              	.LCFI63:
 2687              		.cfi_def_cfa_offset 24
 2688 0004 0C00     		movs	r4, r1
 909:Inc/lis3dh_reg.c ****   lis3dh_status_reg_t status_reg;
 2689              		.loc 1 909 3 is_stmt 1 view .LVU641
 910:Inc/lis3dh_reg.c ****   int32_t ret;
 2690              		.loc 1 910 3 view .LVU642
 911:Inc/lis3dh_reg.c **** 
 912:Inc/lis3dh_reg.c ****   ret = lis3dh_read_reg(ctx, LIS3DH_STATUS_REG, (uint8_t *)&status_reg, 1);
 2691              		.loc 1 912 3 view .LVU643
 2692              		.loc 1 912 9 is_stmt 0 view .LVU644
 2693 0006 01AD     		add	r5, sp, #4
 2694 0008 0123     		movs	r3, #1
 2695 000a 2A00     		movs	r2, r5
 2696 000c 2721     		movs	r1, #39
 2697              	.LVL200:
ARM GAS  /tmp/ccT3btxY.s 			page 66


 2698              		.loc 1 912 9 view .LVU645
 2699 000e FFF7FEFF 		bl	lis3dh_read_reg
 2700              	.LVL201:
 913:Inc/lis3dh_reg.c ****   *val = status_reg.zyxor;
 2701              		.loc 1 913 3 is_stmt 1 view .LVU646
 2702              		.loc 1 913 20 is_stmt 0 view .LVU647
 2703 0012 2B78     		ldrb	r3, [r5]
 2704 0014 DB09     		lsrs	r3, r3, #7
 2705              		.loc 1 913 8 view .LVU648
 2706 0016 2370     		strb	r3, [r4]
 914:Inc/lis3dh_reg.c **** 
 915:Inc/lis3dh_reg.c ****   return ret;
 2707              		.loc 1 915 3 is_stmt 1 view .LVU649
 916:Inc/lis3dh_reg.c **** }
 2708              		.loc 1 916 1 is_stmt 0 view .LVU650
 2709 0018 03B0     		add	sp, sp, #12
 2710              		@ sp needed
 2711              	.LVL202:
 2712              		.loc 1 916 1 view .LVU651
 2713 001a 30BD     		pop	{r4, r5, pc}
 2714              		.cfi_endproc
 2715              	.LFE41:
 2717              		.section	.text.lis3dh_acceleration_raw_get,"ax",%progbits
 2718              		.align	1
 2719              		.global	lis3dh_acceleration_raw_get
 2720              		.syntax unified
 2721              		.code	16
 2722              		.thumb_func
 2723              		.fpu softvfp
 2725              	lis3dh_acceleration_raw_get:
 2726              	.LVL203:
 2727              	.LFB42:
 917:Inc/lis3dh_reg.c **** /**
 918:Inc/lis3dh_reg.c ****   * @brief  Acceleration output value.[get]
 919:Inc/lis3dh_reg.c ****   *
 920:Inc/lis3dh_reg.c ****   * @param  ctx      read / write interface definitions
 921:Inc/lis3dh_reg.c ****   * @param  buff     buffer that stores data read
 922:Inc/lis3dh_reg.c ****   * @retval          interface status (MANDATORY: return 0 -> no Error)
 923:Inc/lis3dh_reg.c ****   *
 924:Inc/lis3dh_reg.c ****   */
 925:Inc/lis3dh_reg.c **** int32_t lis3dh_acceleration_raw_get(stmdev_ctx_t *ctx, int16_t *val)
 926:Inc/lis3dh_reg.c **** {
 2728              		.loc 1 926 1 is_stmt 1 view -0
 2729              		.cfi_startproc
 2730              		@ args = 0, pretend = 0, frame = 8
 2731              		@ frame_needed = 0, uses_anonymous_args = 0
 2732              		.loc 1 926 1 is_stmt 0 view .LVU653
 2733 0000 10B5     		push	{r4, lr}
 2734              	.LCFI64:
 2735              		.cfi_def_cfa_offset 8
 2736              		.cfi_offset 4, -8
 2737              		.cfi_offset 14, -4
 2738 0002 82B0     		sub	sp, sp, #8
 2739              	.LCFI65:
 2740              		.cfi_def_cfa_offset 16
 2741 0004 0C00     		movs	r4, r1
 927:Inc/lis3dh_reg.c ****   uint8_t buff[6];
ARM GAS  /tmp/ccT3btxY.s 			page 67


 2742              		.loc 1 927 3 is_stmt 1 view .LVU654
 928:Inc/lis3dh_reg.c ****   int32_t ret;
 2743              		.loc 1 928 3 view .LVU655
 929:Inc/lis3dh_reg.c **** 
 930:Inc/lis3dh_reg.c ****   ret = lis3dh_read_reg(ctx, LIS3DH_OUT_X_L, buff, 6);
 2744              		.loc 1 930 3 view .LVU656
 2745              		.loc 1 930 9 is_stmt 0 view .LVU657
 2746 0006 0623     		movs	r3, #6
 2747 0008 6A46     		mov	r2, sp
 2748 000a 2821     		movs	r1, #40
 2749              	.LVL204:
 2750              		.loc 1 930 9 view .LVU658
 2751 000c FFF7FEFF 		bl	lis3dh_read_reg
 2752              	.LVL205:
 931:Inc/lis3dh_reg.c ****   val[0] = (int16_t)buff[1];
 2753              		.loc 1 931 3 is_stmt 1 view .LVU659
 2754              		.loc 1 931 12 is_stmt 0 view .LVU660
 2755 0010 6B46     		mov	r3, sp
 2756 0012 5B78     		ldrb	r3, [r3, #1]
 2757              		.loc 1 931 10 view .LVU661
 2758 0014 2380     		strh	r3, [r4]
 932:Inc/lis3dh_reg.c ****   val[0] = (val[0] * 256) + (int16_t)buff[0];
 2759              		.loc 1 932 3 is_stmt 1 view .LVU662
 2760              		.loc 1 932 20 is_stmt 0 view .LVU663
 2761 0016 1B02     		lsls	r3, r3, #8
 2762              		.loc 1 932 42 view .LVU664
 2763 0018 6A46     		mov	r2, sp
 2764 001a 1278     		ldrb	r2, [r2]
 2765              		.loc 1 932 27 view .LVU665
 2766 001c 9B18     		adds	r3, r3, r2
 2767              		.loc 1 932 10 view .LVU666
 2768 001e 2380     		strh	r3, [r4]
 933:Inc/lis3dh_reg.c ****   val[1] = (int16_t)buff[3];
 2769              		.loc 1 933 3 is_stmt 1 view .LVU667
 2770              		.loc 1 933 12 is_stmt 0 view .LVU668
 2771 0020 6B46     		mov	r3, sp
 2772 0022 DB78     		ldrb	r3, [r3, #3]
 2773              		.loc 1 933 10 view .LVU669
 2774 0024 6380     		strh	r3, [r4, #2]
 934:Inc/lis3dh_reg.c ****   val[1] = (val[1] * 256) + (int16_t)buff[2];
 2775              		.loc 1 934 3 is_stmt 1 view .LVU670
 2776              		.loc 1 934 20 is_stmt 0 view .LVU671
 2777 0026 1B02     		lsls	r3, r3, #8
 2778              		.loc 1 934 42 view .LVU672
 2779 0028 6A46     		mov	r2, sp
 2780 002a 9278     		ldrb	r2, [r2, #2]
 2781              		.loc 1 934 27 view .LVU673
 2782 002c 9B18     		adds	r3, r3, r2
 2783              		.loc 1 934 10 view .LVU674
 2784 002e 6380     		strh	r3, [r4, #2]
 935:Inc/lis3dh_reg.c ****   val[2] = (int16_t)buff[5];
 2785              		.loc 1 935 3 is_stmt 1 view .LVU675
 2786              		.loc 1 935 12 is_stmt 0 view .LVU676
 2787 0030 6B46     		mov	r3, sp
 2788 0032 5B79     		ldrb	r3, [r3, #5]
 2789              		.loc 1 935 10 view .LVU677
 2790 0034 A380     		strh	r3, [r4, #4]
ARM GAS  /tmp/ccT3btxY.s 			page 68


 936:Inc/lis3dh_reg.c ****   val[2] = (val[2] * 256) + (int16_t)buff[4];
 2791              		.loc 1 936 3 is_stmt 1 view .LVU678
 2792              		.loc 1 936 20 is_stmt 0 view .LVU679
 2793 0036 1B02     		lsls	r3, r3, #8
 2794              		.loc 1 936 42 view .LVU680
 2795 0038 6A46     		mov	r2, sp
 2796 003a 1279     		ldrb	r2, [r2, #4]
 2797              		.loc 1 936 27 view .LVU681
 2798 003c 9B18     		adds	r3, r3, r2
 2799              		.loc 1 936 10 view .LVU682
 2800 003e A380     		strh	r3, [r4, #4]
 937:Inc/lis3dh_reg.c **** 
 938:Inc/lis3dh_reg.c ****   return ret;
 2801              		.loc 1 938 3 is_stmt 1 view .LVU683
 939:Inc/lis3dh_reg.c **** }
 2802              		.loc 1 939 1 is_stmt 0 view .LVU684
 2803 0040 02B0     		add	sp, sp, #8
 2804              		@ sp needed
 2805              	.LVL206:
 2806              		.loc 1 939 1 view .LVU685
 2807 0042 10BD     		pop	{r4, pc}
 2808              		.cfi_endproc
 2809              	.LFE42:
 2811              		.section	.text.lis3dh_device_id_get,"ax",%progbits
 2812              		.align	1
 2813              		.global	lis3dh_device_id_get
 2814              		.syntax unified
 2815              		.code	16
 2816              		.thumb_func
 2817              		.fpu softvfp
 2819              	lis3dh_device_id_get:
 2820              	.LVL207:
 2821              	.LFB43:
 940:Inc/lis3dh_reg.c **** /**
 941:Inc/lis3dh_reg.c ****   * @}
 942:Inc/lis3dh_reg.c ****   *
 943:Inc/lis3dh_reg.c ****   */
 944:Inc/lis3dh_reg.c **** 
 945:Inc/lis3dh_reg.c **** /**
 946:Inc/lis3dh_reg.c ****   * @defgroup  LIS3DH_Common
 947:Inc/lis3dh_reg.c ****   * @brief     This section group common useful functions
 948:Inc/lis3dh_reg.c ****   * @{
 949:Inc/lis3dh_reg.c ****   *
 950:Inc/lis3dh_reg.c ****   */
 951:Inc/lis3dh_reg.c **** 
 952:Inc/lis3dh_reg.c **** /**
 953:Inc/lis3dh_reg.c ****   * @brief  DeviceWhoamI .[get]
 954:Inc/lis3dh_reg.c ****   *
 955:Inc/lis3dh_reg.c ****   * @param  ctx      read / write interface definitions
 956:Inc/lis3dh_reg.c ****   * @param  buff     buffer that stores data read
 957:Inc/lis3dh_reg.c ****   * @retval          interface status (MANDATORY: return 0 -> no Error)
 958:Inc/lis3dh_reg.c ****   *
 959:Inc/lis3dh_reg.c ****   */
 960:Inc/lis3dh_reg.c **** int32_t lis3dh_device_id_get(stmdev_ctx_t *ctx, uint8_t *buff)
 961:Inc/lis3dh_reg.c **** {
 2822              		.loc 1 961 1 is_stmt 1 view -0
 2823              		.cfi_startproc
ARM GAS  /tmp/ccT3btxY.s 			page 69


 2824              		@ args = 0, pretend = 0, frame = 0
 2825              		@ frame_needed = 0, uses_anonymous_args = 0
 2826              		.loc 1 961 1 is_stmt 0 view .LVU687
 2827 0000 10B5     		push	{r4, lr}
 2828              	.LCFI66:
 2829              		.cfi_def_cfa_offset 8
 2830              		.cfi_offset 4, -8
 2831              		.cfi_offset 14, -4
 2832 0002 0A00     		movs	r2, r1
 962:Inc/lis3dh_reg.c ****   int32_t ret;
 2833              		.loc 1 962 3 is_stmt 1 view .LVU688
 963:Inc/lis3dh_reg.c **** 
 964:Inc/lis3dh_reg.c ****   ret = lis3dh_read_reg(ctx, LIS3DH_WHO_AM_I, buff, 1);
 2834              		.loc 1 964 3 view .LVU689
 2835              		.loc 1 964 9 is_stmt 0 view .LVU690
 2836 0004 0123     		movs	r3, #1
 2837 0006 0F21     		movs	r1, #15
 2838              	.LVL208:
 2839              		.loc 1 964 9 view .LVU691
 2840 0008 FFF7FEFF 		bl	lis3dh_read_reg
 2841              	.LVL209:
 965:Inc/lis3dh_reg.c **** 
 966:Inc/lis3dh_reg.c ****   return ret;
 2842              		.loc 1 966 3 is_stmt 1 view .LVU692
 967:Inc/lis3dh_reg.c **** }
 2843              		.loc 1 967 1 is_stmt 0 view .LVU693
 2844              		@ sp needed
 2845 000c 10BD     		pop	{r4, pc}
 2846              		.cfi_endproc
 2847              	.LFE43:
 2849              		.section	.text.lis3dh_self_test_set,"ax",%progbits
 2850              		.align	1
 2851              		.global	lis3dh_self_test_set
 2852              		.syntax unified
 2853              		.code	16
 2854              		.thumb_func
 2855              		.fpu softvfp
 2857              	lis3dh_self_test_set:
 2858              	.LVL210:
 2859              	.LFB44:
 968:Inc/lis3dh_reg.c **** /**
 969:Inc/lis3dh_reg.c ****   * @brief  Self Test.[set]
 970:Inc/lis3dh_reg.c ****   *
 971:Inc/lis3dh_reg.c ****   * @param  ctx      read / write interface definitions
 972:Inc/lis3dh_reg.c ****   * @param  val      change the values of st in reg CTRL_REG4
 973:Inc/lis3dh_reg.c ****   * @retval          interface status (MANDATORY: return 0 -> no Error)
 974:Inc/lis3dh_reg.c ****   *
 975:Inc/lis3dh_reg.c ****   */
 976:Inc/lis3dh_reg.c **** int32_t lis3dh_self_test_set(stmdev_ctx_t *ctx, lis3dh_st_t val)
 977:Inc/lis3dh_reg.c **** {
 2860              		.loc 1 977 1 is_stmt 1 view -0
 2861              		.cfi_startproc
 2862              		@ args = 0, pretend = 0, frame = 8
 2863              		@ frame_needed = 0, uses_anonymous_args = 0
 2864              		.loc 1 977 1 is_stmt 0 view .LVU695
 2865 0000 30B5     		push	{r4, r5, lr}
 2866              	.LCFI67:
ARM GAS  /tmp/ccT3btxY.s 			page 70


 2867              		.cfi_def_cfa_offset 12
 2868              		.cfi_offset 4, -12
 2869              		.cfi_offset 5, -8
 2870              		.cfi_offset 14, -4
 2871 0002 83B0     		sub	sp, sp, #12
 2872              	.LCFI68:
 2873              		.cfi_def_cfa_offset 24
 2874 0004 0400     		movs	r4, r0
 2875 0006 0D00     		movs	r5, r1
 978:Inc/lis3dh_reg.c ****   lis3dh_ctrl_reg4_t ctrl_reg4;
 2876              		.loc 1 978 3 is_stmt 1 view .LVU696
 979:Inc/lis3dh_reg.c ****   int32_t ret;
 2877              		.loc 1 979 3 view .LVU697
 980:Inc/lis3dh_reg.c **** 
 981:Inc/lis3dh_reg.c ****   ret = lis3dh_read_reg(ctx, LIS3DH_CTRL_REG4, (uint8_t *)&ctrl_reg4, 1);
 2878              		.loc 1 981 3 view .LVU698
 2879              		.loc 1 981 9 is_stmt 0 view .LVU699
 2880 0008 0123     		movs	r3, #1
 2881 000a 01AA     		add	r2, sp, #4
 2882 000c 2321     		movs	r1, #35
 2883              	.LVL211:
 2884              		.loc 1 981 9 view .LVU700
 2885 000e FFF7FEFF 		bl	lis3dh_read_reg
 2886              	.LVL212:
 982:Inc/lis3dh_reg.c **** 
 983:Inc/lis3dh_reg.c ****   if (ret == 0)
 2887              		.loc 1 983 3 is_stmt 1 view .LVU701
 2888              		.loc 1 983 6 is_stmt 0 view .LVU702
 2889 0012 0028     		cmp	r0, #0
 2890 0014 01D0     		beq	.L130
 2891              	.L128:
 984:Inc/lis3dh_reg.c ****   {
 985:Inc/lis3dh_reg.c ****     ctrl_reg4.st = (uint8_t)val;
 986:Inc/lis3dh_reg.c ****     ret = lis3dh_write_reg(ctx, LIS3DH_CTRL_REG4, (uint8_t *)&ctrl_reg4, 1);
 987:Inc/lis3dh_reg.c ****   }
 988:Inc/lis3dh_reg.c **** 
 989:Inc/lis3dh_reg.c ****   return ret;
 990:Inc/lis3dh_reg.c **** }
 2892              		.loc 1 990 1 view .LVU703
 2893 0016 03B0     		add	sp, sp, #12
 2894              		@ sp needed
 2895              	.LVL213:
 2896              		.loc 1 990 1 view .LVU704
 2897 0018 30BD     		pop	{r4, r5, pc}
 2898              	.LVL214:
 2899              	.L130:
 985:Inc/lis3dh_reg.c ****     ret = lis3dh_write_reg(ctx, LIS3DH_CTRL_REG4, (uint8_t *)&ctrl_reg4, 1);
 2900              		.loc 1 985 5 is_stmt 1 view .LVU705
 985:Inc/lis3dh_reg.c ****     ret = lis3dh_write_reg(ctx, LIS3DH_CTRL_REG4, (uint8_t *)&ctrl_reg4, 1);
 2901              		.loc 1 985 18 is_stmt 0 view .LVU706
 2902 001a 0322     		movs	r2, #3
 2903 001c 2A40     		ands	r2, r5
 2904 001e 5200     		lsls	r2, r2, #1
 2905 0020 6B46     		mov	r3, sp
 2906 0022 1B79     		ldrb	r3, [r3, #4]
 2907 0024 0621     		movs	r1, #6
 2908 0026 8B43     		bics	r3, r1
ARM GAS  /tmp/ccT3btxY.s 			page 71


 2909 0028 1343     		orrs	r3, r2
 2910 002a 6A46     		mov	r2, sp
 2911 002c 1371     		strb	r3, [r2, #4]
 986:Inc/lis3dh_reg.c ****   }
 2912              		.loc 1 986 5 is_stmt 1 view .LVU707
 986:Inc/lis3dh_reg.c ****   }
 2913              		.loc 1 986 11 is_stmt 0 view .LVU708
 2914 002e 0123     		movs	r3, #1
 2915 0030 01AA     		add	r2, sp, #4
 2916 0032 1D31     		adds	r1, r1, #29
 2917 0034 2000     		movs	r0, r4
 2918              	.LVL215:
 986:Inc/lis3dh_reg.c ****   }
 2919              		.loc 1 986 11 view .LVU709
 2920 0036 FFF7FEFF 		bl	lis3dh_write_reg
 2921              	.LVL216:
 989:Inc/lis3dh_reg.c **** }
 2922              		.loc 1 989 3 is_stmt 1 view .LVU710
 989:Inc/lis3dh_reg.c **** }
 2923              		.loc 1 989 10 is_stmt 0 view .LVU711
 2924 003a ECE7     		b	.L128
 2925              		.cfi_endproc
 2926              	.LFE44:
 2928              		.section	.text.lis3dh_self_test_get,"ax",%progbits
 2929              		.align	1
 2930              		.global	lis3dh_self_test_get
 2931              		.syntax unified
 2932              		.code	16
 2933              		.thumb_func
 2934              		.fpu softvfp
 2936              	lis3dh_self_test_get:
 2937              	.LVL217:
 2938              	.LFB45:
 991:Inc/lis3dh_reg.c **** 
 992:Inc/lis3dh_reg.c **** /**
 993:Inc/lis3dh_reg.c ****   * @brief  Self Test.[get]
 994:Inc/lis3dh_reg.c ****   *
 995:Inc/lis3dh_reg.c ****   * @param  ctx      read / write interface definitions
 996:Inc/lis3dh_reg.c ****   * @param  val      Get the values of st in reg CTRL_REG4
 997:Inc/lis3dh_reg.c ****   * @retval          interface status (MANDATORY: return 0 -> no Error)
 998:Inc/lis3dh_reg.c ****   *
 999:Inc/lis3dh_reg.c ****   */
1000:Inc/lis3dh_reg.c **** int32_t lis3dh_self_test_get(stmdev_ctx_t *ctx, lis3dh_st_t *val)
1001:Inc/lis3dh_reg.c **** {
 2939              		.loc 1 1001 1 is_stmt 1 view -0
 2940              		.cfi_startproc
 2941              		@ args = 0, pretend = 0, frame = 8
 2942              		@ frame_needed = 0, uses_anonymous_args = 0
 2943              		.loc 1 1001 1 is_stmt 0 view .LVU713
 2944 0000 30B5     		push	{r4, r5, lr}
 2945              	.LCFI69:
 2946              		.cfi_def_cfa_offset 12
 2947              		.cfi_offset 4, -12
 2948              		.cfi_offset 5, -8
 2949              		.cfi_offset 14, -4
 2950 0002 83B0     		sub	sp, sp, #12
 2951              	.LCFI70:
ARM GAS  /tmp/ccT3btxY.s 			page 72


 2952              		.cfi_def_cfa_offset 24
 2953 0004 0C00     		movs	r4, r1
1002:Inc/lis3dh_reg.c ****   lis3dh_ctrl_reg4_t ctrl_reg4;
 2954              		.loc 1 1002 3 is_stmt 1 view .LVU714
1003:Inc/lis3dh_reg.c ****   int32_t ret;
 2955              		.loc 1 1003 3 view .LVU715
1004:Inc/lis3dh_reg.c **** 
1005:Inc/lis3dh_reg.c ****   ret = lis3dh_read_reg(ctx, LIS3DH_CTRL_REG4, (uint8_t *)&ctrl_reg4, 1);
 2956              		.loc 1 1005 3 view .LVU716
 2957              		.loc 1 1005 9 is_stmt 0 view .LVU717
 2958 0006 01AD     		add	r5, sp, #4
 2959 0008 0123     		movs	r3, #1
 2960 000a 2A00     		movs	r2, r5
 2961 000c 2321     		movs	r1, #35
 2962              	.LVL218:
 2963              		.loc 1 1005 9 view .LVU718
 2964 000e FFF7FEFF 		bl	lis3dh_read_reg
 2965              	.LVL219:
1006:Inc/lis3dh_reg.c **** 
1007:Inc/lis3dh_reg.c ****   switch (ctrl_reg4.st)
 2966              		.loc 1 1007 3 is_stmt 1 view .LVU719
 2967              		.loc 1 1007 20 is_stmt 0 view .LVU720
 2968 0012 2B78     		ldrb	r3, [r5]
 2969 0014 5B07     		lsls	r3, r3, #29
 2970 0016 9B0F     		lsrs	r3, r3, #30
 2971              		.loc 1 1007 3 view .LVU721
 2972 0018 012B     		cmp	r3, #1
 2973 001a 09D0     		beq	.L132
 2974 001c 022B     		cmp	r3, #2
 2975 001e 0AD0     		beq	.L133
 2976 0020 002B     		cmp	r3, #0
 2977 0022 02D0     		beq	.L136
1008:Inc/lis3dh_reg.c ****   {
1009:Inc/lis3dh_reg.c ****     case LIS3DH_ST_DISABLE:
1010:Inc/lis3dh_reg.c ****       *val = LIS3DH_ST_DISABLE;
1011:Inc/lis3dh_reg.c ****       break;
1012:Inc/lis3dh_reg.c **** 
1013:Inc/lis3dh_reg.c ****     case LIS3DH_ST_POSITIVE:
1014:Inc/lis3dh_reg.c ****       *val = LIS3DH_ST_POSITIVE;
1015:Inc/lis3dh_reg.c ****       break;
1016:Inc/lis3dh_reg.c **** 
1017:Inc/lis3dh_reg.c ****     case LIS3DH_ST_NEGATIVE:
1018:Inc/lis3dh_reg.c ****       *val = LIS3DH_ST_NEGATIVE;
1019:Inc/lis3dh_reg.c ****       break;
1020:Inc/lis3dh_reg.c **** 
1021:Inc/lis3dh_reg.c ****     default:
1022:Inc/lis3dh_reg.c ****       *val = LIS3DH_ST_DISABLE;
 2978              		.loc 1 1022 7 is_stmt 1 view .LVU722
 2979              		.loc 1 1022 12 is_stmt 0 view .LVU723
 2980 0024 0023     		movs	r3, #0
 2981 0026 2370     		strb	r3, [r4]
1023:Inc/lis3dh_reg.c ****       break;
 2982              		.loc 1 1023 7 is_stmt 1 view .LVU724
1024:Inc/lis3dh_reg.c ****   }
1025:Inc/lis3dh_reg.c **** 
1026:Inc/lis3dh_reg.c ****   return ret;
 2983              		.loc 1 1026 3 view .LVU725
ARM GAS  /tmp/ccT3btxY.s 			page 73


 2984              		.loc 1 1026 10 is_stmt 0 view .LVU726
 2985 0028 00E0     		b	.L131
 2986              	.L136:
1010:Inc/lis3dh_reg.c ****       break;
 2987              		.loc 1 1010 7 is_stmt 1 view .LVU727
1010:Inc/lis3dh_reg.c ****       break;
 2988              		.loc 1 1010 12 is_stmt 0 view .LVU728
 2989 002a 2370     		strb	r3, [r4]
1011:Inc/lis3dh_reg.c **** 
 2990              		.loc 1 1011 7 is_stmt 1 view .LVU729
 2991              	.L131:
1027:Inc/lis3dh_reg.c **** }
 2992              		.loc 1 1027 1 is_stmt 0 view .LVU730
 2993 002c 03B0     		add	sp, sp, #12
 2994              		@ sp needed
 2995              	.LVL220:
 2996              		.loc 1 1027 1 view .LVU731
 2997 002e 30BD     		pop	{r4, r5, pc}
 2998              	.LVL221:
 2999              	.L132:
1014:Inc/lis3dh_reg.c ****       break;
 3000              		.loc 1 1014 7 is_stmt 1 view .LVU732
1014:Inc/lis3dh_reg.c ****       break;
 3001              		.loc 1 1014 12 is_stmt 0 view .LVU733
 3002 0030 0123     		movs	r3, #1
 3003 0032 2370     		strb	r3, [r4]
1015:Inc/lis3dh_reg.c **** 
 3004              		.loc 1 1015 7 is_stmt 1 view .LVU734
 3005 0034 FAE7     		b	.L131
 3006              	.L133:
1018:Inc/lis3dh_reg.c ****       break;
 3007              		.loc 1 1018 7 view .LVU735
1018:Inc/lis3dh_reg.c ****       break;
 3008              		.loc 1 1018 12 is_stmt 0 view .LVU736
 3009 0036 0223     		movs	r3, #2
 3010 0038 2370     		strb	r3, [r4]
1019:Inc/lis3dh_reg.c **** 
 3011              		.loc 1 1019 7 is_stmt 1 view .LVU737
 3012 003a F7E7     		b	.L131
 3013              		.cfi_endproc
 3014              	.LFE45:
 3016              		.section	.text.lis3dh_data_format_set,"ax",%progbits
 3017              		.align	1
 3018              		.global	lis3dh_data_format_set
 3019              		.syntax unified
 3020              		.code	16
 3021              		.thumb_func
 3022              		.fpu softvfp
 3024              	lis3dh_data_format_set:
 3025              	.LVL222:
 3026              	.LFB46:
1028:Inc/lis3dh_reg.c **** 
1029:Inc/lis3dh_reg.c **** /**
1030:Inc/lis3dh_reg.c ****   * @brief  Big/Little Endian data selection.[set]
1031:Inc/lis3dh_reg.c ****   *
1032:Inc/lis3dh_reg.c ****   * @param  ctx      read / write interface definitions
1033:Inc/lis3dh_reg.c ****   * @param  val      change the values of ble in reg CTRL_REG4
ARM GAS  /tmp/ccT3btxY.s 			page 74


1034:Inc/lis3dh_reg.c ****   * @retval          interface status (MANDATORY: return 0 -> no Error)
1035:Inc/lis3dh_reg.c ****   *
1036:Inc/lis3dh_reg.c ****   */
1037:Inc/lis3dh_reg.c **** int32_t lis3dh_data_format_set(stmdev_ctx_t *ctx, lis3dh_ble_t val)
1038:Inc/lis3dh_reg.c **** {
 3027              		.loc 1 1038 1 view -0
 3028              		.cfi_startproc
 3029              		@ args = 0, pretend = 0, frame = 8
 3030              		@ frame_needed = 0, uses_anonymous_args = 0
 3031              		.loc 1 1038 1 is_stmt 0 view .LVU739
 3032 0000 30B5     		push	{r4, r5, lr}
 3033              	.LCFI71:
 3034              		.cfi_def_cfa_offset 12
 3035              		.cfi_offset 4, -12
 3036              		.cfi_offset 5, -8
 3037              		.cfi_offset 14, -4
 3038 0002 83B0     		sub	sp, sp, #12
 3039              	.LCFI72:
 3040              		.cfi_def_cfa_offset 24
 3041 0004 0400     		movs	r4, r0
 3042 0006 0D00     		movs	r5, r1
1039:Inc/lis3dh_reg.c ****   lis3dh_ctrl_reg4_t ctrl_reg4;
 3043              		.loc 1 1039 3 is_stmt 1 view .LVU740
1040:Inc/lis3dh_reg.c ****   int32_t ret;
 3044              		.loc 1 1040 3 view .LVU741
1041:Inc/lis3dh_reg.c **** 
1042:Inc/lis3dh_reg.c ****   ret = lis3dh_read_reg(ctx, LIS3DH_CTRL_REG4, (uint8_t *)&ctrl_reg4, 1);
 3045              		.loc 1 1042 3 view .LVU742
 3046              		.loc 1 1042 9 is_stmt 0 view .LVU743
 3047 0008 0123     		movs	r3, #1
 3048 000a 01AA     		add	r2, sp, #4
 3049 000c 2321     		movs	r1, #35
 3050              	.LVL223:
 3051              		.loc 1 1042 9 view .LVU744
 3052 000e FFF7FEFF 		bl	lis3dh_read_reg
 3053              	.LVL224:
1043:Inc/lis3dh_reg.c **** 
1044:Inc/lis3dh_reg.c ****   if (ret == 0)
 3054              		.loc 1 1044 3 is_stmt 1 view .LVU745
 3055              		.loc 1 1044 6 is_stmt 0 view .LVU746
 3056 0012 0028     		cmp	r0, #0
 3057 0014 01D0     		beq	.L139
 3058              	.L137:
1045:Inc/lis3dh_reg.c ****   {
1046:Inc/lis3dh_reg.c ****     ctrl_reg4.ble = (uint8_t)val;
1047:Inc/lis3dh_reg.c ****     ret = lis3dh_write_reg(ctx, LIS3DH_CTRL_REG4, (uint8_t *)&ctrl_reg4, 1);
1048:Inc/lis3dh_reg.c ****   }
1049:Inc/lis3dh_reg.c **** 
1050:Inc/lis3dh_reg.c ****   return ret;
1051:Inc/lis3dh_reg.c **** }
 3059              		.loc 1 1051 1 view .LVU747
 3060 0016 03B0     		add	sp, sp, #12
 3061              		@ sp needed
 3062              	.LVL225:
 3063              		.loc 1 1051 1 view .LVU748
 3064 0018 30BD     		pop	{r4, r5, pc}
 3065              	.LVL226:
ARM GAS  /tmp/ccT3btxY.s 			page 75


 3066              	.L139:
1046:Inc/lis3dh_reg.c ****     ret = lis3dh_write_reg(ctx, LIS3DH_CTRL_REG4, (uint8_t *)&ctrl_reg4, 1);
 3067              		.loc 1 1046 5 is_stmt 1 view .LVU749
1046:Inc/lis3dh_reg.c ****     ret = lis3dh_write_reg(ctx, LIS3DH_CTRL_REG4, (uint8_t *)&ctrl_reg4, 1);
 3068              		.loc 1 1046 19 is_stmt 0 view .LVU750
 3069 001a 0122     		movs	r2, #1
 3070 001c 2A40     		ands	r2, r5
 3071 001e 9201     		lsls	r2, r2, #6
 3072 0020 6B46     		mov	r3, sp
 3073 0022 1B79     		ldrb	r3, [r3, #4]
 3074 0024 4021     		movs	r1, #64
 3075 0026 8B43     		bics	r3, r1
 3076 0028 1343     		orrs	r3, r2
 3077 002a 6A46     		mov	r2, sp
 3078 002c 1371     		strb	r3, [r2, #4]
1047:Inc/lis3dh_reg.c ****   }
 3079              		.loc 1 1047 5 is_stmt 1 view .LVU751
1047:Inc/lis3dh_reg.c ****   }
 3080              		.loc 1 1047 11 is_stmt 0 view .LVU752
 3081 002e 0123     		movs	r3, #1
 3082 0030 01AA     		add	r2, sp, #4
 3083 0032 1D39     		subs	r1, r1, #29
 3084 0034 2000     		movs	r0, r4
 3085              	.LVL227:
1047:Inc/lis3dh_reg.c ****   }
 3086              		.loc 1 1047 11 view .LVU753
 3087 0036 FFF7FEFF 		bl	lis3dh_write_reg
 3088              	.LVL228:
1050:Inc/lis3dh_reg.c **** }
 3089              		.loc 1 1050 3 is_stmt 1 view .LVU754
1050:Inc/lis3dh_reg.c **** }
 3090              		.loc 1 1050 10 is_stmt 0 view .LVU755
 3091 003a ECE7     		b	.L137
 3092              		.cfi_endproc
 3093              	.LFE46:
 3095              		.section	.text.lis3dh_data_format_get,"ax",%progbits
 3096              		.align	1
 3097              		.global	lis3dh_data_format_get
 3098              		.syntax unified
 3099              		.code	16
 3100              		.thumb_func
 3101              		.fpu softvfp
 3103              	lis3dh_data_format_get:
 3104              	.LVL229:
 3105              	.LFB47:
1052:Inc/lis3dh_reg.c **** 
1053:Inc/lis3dh_reg.c **** /**
1054:Inc/lis3dh_reg.c ****   * @brief  Big/Little Endian data selection.[get]
1055:Inc/lis3dh_reg.c ****   *
1056:Inc/lis3dh_reg.c ****   * @param  ctx      read / write interface definitions
1057:Inc/lis3dh_reg.c ****   * @param  val      get the values of ble in reg CTRL_REG4
1058:Inc/lis3dh_reg.c ****   * @retval          interface status (MANDATORY: return 0 -> no Error)
1059:Inc/lis3dh_reg.c ****   *
1060:Inc/lis3dh_reg.c ****   */
1061:Inc/lis3dh_reg.c **** int32_t lis3dh_data_format_get(stmdev_ctx_t *ctx, lis3dh_ble_t *val)
1062:Inc/lis3dh_reg.c **** {
 3106              		.loc 1 1062 1 is_stmt 1 view -0
ARM GAS  /tmp/ccT3btxY.s 			page 76


 3107              		.cfi_startproc
 3108              		@ args = 0, pretend = 0, frame = 8
 3109              		@ frame_needed = 0, uses_anonymous_args = 0
 3110              		.loc 1 1062 1 is_stmt 0 view .LVU757
 3111 0000 30B5     		push	{r4, r5, lr}
 3112              	.LCFI73:
 3113              		.cfi_def_cfa_offset 12
 3114              		.cfi_offset 4, -12
 3115              		.cfi_offset 5, -8
 3116              		.cfi_offset 14, -4
 3117 0002 83B0     		sub	sp, sp, #12
 3118              	.LCFI74:
 3119              		.cfi_def_cfa_offset 24
 3120 0004 0D00     		movs	r5, r1
1063:Inc/lis3dh_reg.c ****   lis3dh_ctrl_reg4_t ctrl_reg4;
 3121              		.loc 1 1063 3 is_stmt 1 view .LVU758
1064:Inc/lis3dh_reg.c ****   int32_t ret;
 3122              		.loc 1 1064 3 view .LVU759
1065:Inc/lis3dh_reg.c **** 
1066:Inc/lis3dh_reg.c ****   ret = lis3dh_read_reg(ctx, LIS3DH_CTRL_REG4, (uint8_t *)&ctrl_reg4, 1);
 3123              		.loc 1 1066 3 view .LVU760
 3124              		.loc 1 1066 9 is_stmt 0 view .LVU761
 3125 0006 01AC     		add	r4, sp, #4
 3126 0008 0123     		movs	r3, #1
 3127 000a 2200     		movs	r2, r4
 3128 000c 2321     		movs	r1, #35
 3129              	.LVL230:
 3130              		.loc 1 1066 9 view .LVU762
 3131 000e FFF7FEFF 		bl	lis3dh_read_reg
 3132              	.LVL231:
1067:Inc/lis3dh_reg.c **** 
1068:Inc/lis3dh_reg.c ****   switch (ctrl_reg4.ble)
 3133              		.loc 1 1068 3 is_stmt 1 view .LVU763
 3134              		.loc 1 1068 20 is_stmt 0 view .LVU764
 3135 0012 2378     		ldrb	r3, [r4]
 3136 0014 5B06     		lsls	r3, r3, #25
 3137 0016 DA0F     		lsrs	r2, r3, #31
 3138              		.loc 1 1068 3 view .LVU765
 3139 0018 002B     		cmp	r3, #0
 3140 001a 04DA     		bge	.L141
 3141 001c 012A     		cmp	r2, #1
 3142 001e 06D0     		beq	.L142
1069:Inc/lis3dh_reg.c ****   {
1070:Inc/lis3dh_reg.c ****     case LIS3DH_LSB_AT_LOW_ADD:
1071:Inc/lis3dh_reg.c ****       *val = LIS3DH_LSB_AT_LOW_ADD;
1072:Inc/lis3dh_reg.c ****       break;
1073:Inc/lis3dh_reg.c **** 
1074:Inc/lis3dh_reg.c ****     case LIS3DH_MSB_AT_LOW_ADD:
1075:Inc/lis3dh_reg.c ****       *val = LIS3DH_MSB_AT_LOW_ADD;
1076:Inc/lis3dh_reg.c ****       break;
1077:Inc/lis3dh_reg.c **** 
1078:Inc/lis3dh_reg.c ****     default:
1079:Inc/lis3dh_reg.c ****       *val = LIS3DH_LSB_AT_LOW_ADD;
 3143              		.loc 1 1079 7 is_stmt 1 view .LVU766
 3144              		.loc 1 1079 12 is_stmt 0 view .LVU767
 3145 0020 0023     		movs	r3, #0
 3146 0022 2B70     		strb	r3, [r5]
ARM GAS  /tmp/ccT3btxY.s 			page 77


1080:Inc/lis3dh_reg.c ****       break;
 3147              		.loc 1 1080 7 is_stmt 1 view .LVU768
1081:Inc/lis3dh_reg.c ****   }
1082:Inc/lis3dh_reg.c **** 
1083:Inc/lis3dh_reg.c ****   return ret;
 3148              		.loc 1 1083 3 view .LVU769
 3149              		.loc 1 1083 10 is_stmt 0 view .LVU770
 3150 0024 01E0     		b	.L140
 3151              	.L141:
1071:Inc/lis3dh_reg.c ****       break;
 3152              		.loc 1 1071 7 is_stmt 1 view .LVU771
1071:Inc/lis3dh_reg.c ****       break;
 3153              		.loc 1 1071 12 is_stmt 0 view .LVU772
 3154 0026 0023     		movs	r3, #0
 3155 0028 2B70     		strb	r3, [r5]
1072:Inc/lis3dh_reg.c **** 
 3156              		.loc 1 1072 7 is_stmt 1 view .LVU773
 3157              	.L140:
1084:Inc/lis3dh_reg.c **** }
 3158              		.loc 1 1084 1 is_stmt 0 view .LVU774
 3159 002a 03B0     		add	sp, sp, #12
 3160              		@ sp needed
 3161              	.LVL232:
 3162              		.loc 1 1084 1 view .LVU775
 3163 002c 30BD     		pop	{r4, r5, pc}
 3164              	.LVL233:
 3165              	.L142:
1075:Inc/lis3dh_reg.c ****       break;
 3166              		.loc 1 1075 7 is_stmt 1 view .LVU776
1075:Inc/lis3dh_reg.c ****       break;
 3167              		.loc 1 1075 12 is_stmt 0 view .LVU777
 3168 002e 0123     		movs	r3, #1
 3169 0030 2B70     		strb	r3, [r5]
1076:Inc/lis3dh_reg.c **** 
 3170              		.loc 1 1076 7 is_stmt 1 view .LVU778
 3171 0032 FAE7     		b	.L140
 3172              		.cfi_endproc
 3173              	.LFE47:
 3175              		.section	.text.lis3dh_boot_set,"ax",%progbits
 3176              		.align	1
 3177              		.global	lis3dh_boot_set
 3178              		.syntax unified
 3179              		.code	16
 3180              		.thumb_func
 3181              		.fpu softvfp
 3183              	lis3dh_boot_set:
 3184              	.LVL234:
 3185              	.LFB48:
1085:Inc/lis3dh_reg.c **** 
1086:Inc/lis3dh_reg.c **** /**
1087:Inc/lis3dh_reg.c ****   * @brief  Reboot memory content. Reload the calibration parameters.[set]
1088:Inc/lis3dh_reg.c ****   *
1089:Inc/lis3dh_reg.c ****   * @param  ctx      read / write interface definitions
1090:Inc/lis3dh_reg.c ****   * @param  val      change the values of boot in reg CTRL_REG5
1091:Inc/lis3dh_reg.c ****   * @retval          interface status (MANDATORY: return 0 -> no Error)
1092:Inc/lis3dh_reg.c ****   *
1093:Inc/lis3dh_reg.c ****   */
ARM GAS  /tmp/ccT3btxY.s 			page 78


1094:Inc/lis3dh_reg.c **** int32_t lis3dh_boot_set(stmdev_ctx_t *ctx, uint8_t val)
1095:Inc/lis3dh_reg.c **** {
 3186              		.loc 1 1095 1 view -0
 3187              		.cfi_startproc
 3188              		@ args = 0, pretend = 0, frame = 8
 3189              		@ frame_needed = 0, uses_anonymous_args = 0
 3190              		.loc 1 1095 1 is_stmt 0 view .LVU780
 3191 0000 30B5     		push	{r4, r5, lr}
 3192              	.LCFI75:
 3193              		.cfi_def_cfa_offset 12
 3194              		.cfi_offset 4, -12
 3195              		.cfi_offset 5, -8
 3196              		.cfi_offset 14, -4
 3197 0002 83B0     		sub	sp, sp, #12
 3198              	.LCFI76:
 3199              		.cfi_def_cfa_offset 24
 3200 0004 0400     		movs	r4, r0
 3201 0006 0D00     		movs	r5, r1
1096:Inc/lis3dh_reg.c ****   lis3dh_ctrl_reg5_t ctrl_reg5;
 3202              		.loc 1 1096 3 is_stmt 1 view .LVU781
1097:Inc/lis3dh_reg.c ****   int32_t ret;
 3203              		.loc 1 1097 3 view .LVU782
1098:Inc/lis3dh_reg.c **** 
1099:Inc/lis3dh_reg.c ****   ret = lis3dh_read_reg(ctx, LIS3DH_CTRL_REG5, (uint8_t *)&ctrl_reg5, 1);
 3204              		.loc 1 1099 3 view .LVU783
 3205              		.loc 1 1099 9 is_stmt 0 view .LVU784
 3206 0008 0123     		movs	r3, #1
 3207 000a 01AA     		add	r2, sp, #4
 3208 000c 2421     		movs	r1, #36
 3209              	.LVL235:
 3210              		.loc 1 1099 9 view .LVU785
 3211 000e FFF7FEFF 		bl	lis3dh_read_reg
 3212              	.LVL236:
1100:Inc/lis3dh_reg.c **** 
1101:Inc/lis3dh_reg.c ****   if (ret == 0)
 3213              		.loc 1 1101 3 is_stmt 1 view .LVU786
 3214              		.loc 1 1101 6 is_stmt 0 view .LVU787
 3215 0012 0028     		cmp	r0, #0
 3216 0014 01D0     		beq	.L148
 3217              	.L146:
1102:Inc/lis3dh_reg.c ****   {
1103:Inc/lis3dh_reg.c ****     ctrl_reg5.boot = val;
1104:Inc/lis3dh_reg.c ****     ret = lis3dh_write_reg(ctx, LIS3DH_CTRL_REG5, (uint8_t *)&ctrl_reg5, 1);
1105:Inc/lis3dh_reg.c ****   }
1106:Inc/lis3dh_reg.c **** 
1107:Inc/lis3dh_reg.c ****   return ret;
1108:Inc/lis3dh_reg.c **** }
 3218              		.loc 1 1108 1 view .LVU788
 3219 0016 03B0     		add	sp, sp, #12
 3220              		@ sp needed
 3221              	.LVL237:
 3222              		.loc 1 1108 1 view .LVU789
 3223 0018 30BD     		pop	{r4, r5, pc}
 3224              	.LVL238:
 3225              	.L148:
1103:Inc/lis3dh_reg.c ****     ret = lis3dh_write_reg(ctx, LIS3DH_CTRL_REG5, (uint8_t *)&ctrl_reg5, 1);
 3226              		.loc 1 1103 5 is_stmt 1 view .LVU790
ARM GAS  /tmp/ccT3btxY.s 			page 79


1103:Inc/lis3dh_reg.c ****     ret = lis3dh_write_reg(ctx, LIS3DH_CTRL_REG5, (uint8_t *)&ctrl_reg5, 1);
 3227              		.loc 1 1103 20 is_stmt 0 view .LVU791
 3228 001a ED01     		lsls	r5, r5, #7
 3229 001c 6B46     		mov	r3, sp
 3230 001e 1A79     		ldrb	r2, [r3, #4]
 3231 0020 7F23     		movs	r3, #127
 3232 0022 1340     		ands	r3, r2
 3233 0024 2B43     		orrs	r3, r5
 3234 0026 6A46     		mov	r2, sp
 3235 0028 1371     		strb	r3, [r2, #4]
1104:Inc/lis3dh_reg.c ****   }
 3236              		.loc 1 1104 5 is_stmt 1 view .LVU792
1104:Inc/lis3dh_reg.c ****   }
 3237              		.loc 1 1104 11 is_stmt 0 view .LVU793
 3238 002a 0123     		movs	r3, #1
 3239 002c 01AA     		add	r2, sp, #4
 3240 002e 2421     		movs	r1, #36
 3241 0030 2000     		movs	r0, r4
 3242              	.LVL239:
1104:Inc/lis3dh_reg.c ****   }
 3243              		.loc 1 1104 11 view .LVU794
 3244 0032 FFF7FEFF 		bl	lis3dh_write_reg
 3245              	.LVL240:
1107:Inc/lis3dh_reg.c **** }
 3246              		.loc 1 1107 3 is_stmt 1 view .LVU795
1107:Inc/lis3dh_reg.c **** }
 3247              		.loc 1 1107 10 is_stmt 0 view .LVU796
 3248 0036 EEE7     		b	.L146
 3249              		.cfi_endproc
 3250              	.LFE48:
 3252              		.section	.text.lis3dh_boot_get,"ax",%progbits
 3253              		.align	1
 3254              		.global	lis3dh_boot_get
 3255              		.syntax unified
 3256              		.code	16
 3257              		.thumb_func
 3258              		.fpu softvfp
 3260              	lis3dh_boot_get:
 3261              	.LVL241:
 3262              	.LFB49:
1109:Inc/lis3dh_reg.c **** 
1110:Inc/lis3dh_reg.c **** /**
1111:Inc/lis3dh_reg.c ****   * @brief  Reboot memory content. Reload the calibration parameters.[get]
1112:Inc/lis3dh_reg.c ****   *
1113:Inc/lis3dh_reg.c ****   * @param  ctx      read / write interface definitions
1114:Inc/lis3dh_reg.c ****   * @param  val      change the values of boot in reg CTRL_REG5
1115:Inc/lis3dh_reg.c ****   * @retval          interface status (MANDATORY: return 0 -> no Error)
1116:Inc/lis3dh_reg.c ****   *
1117:Inc/lis3dh_reg.c ****   */
1118:Inc/lis3dh_reg.c **** int32_t lis3dh_boot_get(stmdev_ctx_t *ctx, uint8_t *val)
1119:Inc/lis3dh_reg.c **** {
 3263              		.loc 1 1119 1 is_stmt 1 view -0
 3264              		.cfi_startproc
 3265              		@ args = 0, pretend = 0, frame = 8
 3266              		@ frame_needed = 0, uses_anonymous_args = 0
 3267              		.loc 1 1119 1 is_stmt 0 view .LVU798
 3268 0000 30B5     		push	{r4, r5, lr}
ARM GAS  /tmp/ccT3btxY.s 			page 80


 3269              	.LCFI77:
 3270              		.cfi_def_cfa_offset 12
 3271              		.cfi_offset 4, -12
 3272              		.cfi_offset 5, -8
 3273              		.cfi_offset 14, -4
 3274 0002 83B0     		sub	sp, sp, #12
 3275              	.LCFI78:
 3276              		.cfi_def_cfa_offset 24
 3277 0004 0C00     		movs	r4, r1
1120:Inc/lis3dh_reg.c ****   lis3dh_ctrl_reg5_t ctrl_reg5;
 3278              		.loc 1 1120 3 is_stmt 1 view .LVU799
1121:Inc/lis3dh_reg.c ****   int32_t ret;
 3279              		.loc 1 1121 3 view .LVU800
1122:Inc/lis3dh_reg.c **** 
1123:Inc/lis3dh_reg.c ****   ret = lis3dh_read_reg(ctx, LIS3DH_CTRL_REG5, (uint8_t *)&ctrl_reg5, 1);
 3280              		.loc 1 1123 3 view .LVU801
 3281              		.loc 1 1123 9 is_stmt 0 view .LVU802
 3282 0006 01AD     		add	r5, sp, #4
 3283 0008 0123     		movs	r3, #1
 3284 000a 2A00     		movs	r2, r5
 3285 000c 2421     		movs	r1, #36
 3286              	.LVL242:
 3287              		.loc 1 1123 9 view .LVU803
 3288 000e FFF7FEFF 		bl	lis3dh_read_reg
 3289              	.LVL243:
1124:Inc/lis3dh_reg.c ****   *val = (uint8_t)ctrl_reg5.boot;
 3290              		.loc 1 1124 3 is_stmt 1 view .LVU804
 3291              		.loc 1 1124 28 is_stmt 0 view .LVU805
 3292 0012 2B78     		ldrb	r3, [r5]
 3293 0014 DB09     		lsrs	r3, r3, #7
 3294              		.loc 1 1124 8 view .LVU806
 3295 0016 2370     		strb	r3, [r4]
1125:Inc/lis3dh_reg.c **** 
1126:Inc/lis3dh_reg.c ****   return ret;
 3296              		.loc 1 1126 3 is_stmt 1 view .LVU807
1127:Inc/lis3dh_reg.c **** }
 3297              		.loc 1 1127 1 is_stmt 0 view .LVU808
 3298 0018 03B0     		add	sp, sp, #12
 3299              		@ sp needed
 3300              	.LVL244:
 3301              		.loc 1 1127 1 view .LVU809
 3302 001a 30BD     		pop	{r4, r5, pc}
 3303              		.cfi_endproc
 3304              	.LFE49:
 3306              		.section	.text.lis3dh_status_get,"ax",%progbits
 3307              		.align	1
 3308              		.global	lis3dh_status_get
 3309              		.syntax unified
 3310              		.code	16
 3311              		.thumb_func
 3312              		.fpu softvfp
 3314              	lis3dh_status_get:
 3315              	.LVL245:
 3316              	.LFB50:
1128:Inc/lis3dh_reg.c **** 
1129:Inc/lis3dh_reg.c **** /**
1130:Inc/lis3dh_reg.c ****   * @brief  Info about device status.[get]
ARM GAS  /tmp/ccT3btxY.s 			page 81


1131:Inc/lis3dh_reg.c ****   *
1132:Inc/lis3dh_reg.c ****   * @param  ctx      read / write interface definitions
1133:Inc/lis3dh_reg.c ****   * @param  val      register STATUS_REG
1134:Inc/lis3dh_reg.c ****   * @retval          interface status (MANDATORY: return 0 -> no Error)
1135:Inc/lis3dh_reg.c ****   *
1136:Inc/lis3dh_reg.c ****   */
1137:Inc/lis3dh_reg.c **** int32_t lis3dh_status_get(stmdev_ctx_t *ctx, lis3dh_status_reg_t *val)
1138:Inc/lis3dh_reg.c **** {
 3317              		.loc 1 1138 1 is_stmt 1 view -0
 3318              		.cfi_startproc
 3319              		@ args = 0, pretend = 0, frame = 0
 3320              		@ frame_needed = 0, uses_anonymous_args = 0
 3321              		.loc 1 1138 1 is_stmt 0 view .LVU811
 3322 0000 10B5     		push	{r4, lr}
 3323              	.LCFI79:
 3324              		.cfi_def_cfa_offset 8
 3325              		.cfi_offset 4, -8
 3326              		.cfi_offset 14, -4
 3327 0002 0A00     		movs	r2, r1
1139:Inc/lis3dh_reg.c ****   int32_t ret;
 3328              		.loc 1 1139 3 is_stmt 1 view .LVU812
1140:Inc/lis3dh_reg.c **** 
1141:Inc/lis3dh_reg.c ****   ret = lis3dh_read_reg(ctx, LIS3DH_STATUS_REG, (uint8_t *) val, 1);
 3329              		.loc 1 1141 3 view .LVU813
 3330              		.loc 1 1141 9 is_stmt 0 view .LVU814
 3331 0004 0123     		movs	r3, #1
 3332 0006 2721     		movs	r1, #39
 3333              	.LVL246:
 3334              		.loc 1 1141 9 view .LVU815
 3335 0008 FFF7FEFF 		bl	lis3dh_read_reg
 3336              	.LVL247:
1142:Inc/lis3dh_reg.c **** 
1143:Inc/lis3dh_reg.c ****   return ret;
 3337              		.loc 1 1143 3 is_stmt 1 view .LVU816
1144:Inc/lis3dh_reg.c **** }
 3338              		.loc 1 1144 1 is_stmt 0 view .LVU817
 3339              		@ sp needed
 3340 000c 10BD     		pop	{r4, pc}
 3341              		.cfi_endproc
 3342              	.LFE50:
 3344              		.section	.text.lis3dh_int1_gen_conf_set,"ax",%progbits
 3345              		.align	1
 3346              		.global	lis3dh_int1_gen_conf_set
 3347              		.syntax unified
 3348              		.code	16
 3349              		.thumb_func
 3350              		.fpu softvfp
 3352              	lis3dh_int1_gen_conf_set:
 3353              	.LVL248:
 3354              	.LFB51:
1145:Inc/lis3dh_reg.c **** /**
1146:Inc/lis3dh_reg.c ****   * @}
1147:Inc/lis3dh_reg.c ****   *
1148:Inc/lis3dh_reg.c ****   */
1149:Inc/lis3dh_reg.c **** 
1150:Inc/lis3dh_reg.c **** /**
1151:Inc/lis3dh_reg.c ****   * @defgroup   LIS3DH_Interrupts_generator_1
ARM GAS  /tmp/ccT3btxY.s 			page 82


1152:Inc/lis3dh_reg.c ****   * @brief      This section group all the functions that manage the first
1153:Inc/lis3dh_reg.c ****   *             interrupts generator
1154:Inc/lis3dh_reg.c ****   * @{
1155:Inc/lis3dh_reg.c ****   *
1156:Inc/lis3dh_reg.c ****   */
1157:Inc/lis3dh_reg.c **** 
1158:Inc/lis3dh_reg.c **** /**
1159:Inc/lis3dh_reg.c ****   * @brief  Interrupt generator 1 configuration register.[set]
1160:Inc/lis3dh_reg.c ****   *
1161:Inc/lis3dh_reg.c ****   * @param  ctx      read / write interface definitions
1162:Inc/lis3dh_reg.c ****   * @param  val      register INT1_CFG
1163:Inc/lis3dh_reg.c ****   * @retval          interface status (MANDATORY: return 0 -> no Error)
1164:Inc/lis3dh_reg.c ****   *
1165:Inc/lis3dh_reg.c ****   */
1166:Inc/lis3dh_reg.c **** int32_t lis3dh_int1_gen_conf_set(stmdev_ctx_t *ctx,
1167:Inc/lis3dh_reg.c ****                                  lis3dh_int1_cfg_t *val)
1168:Inc/lis3dh_reg.c **** {
 3355              		.loc 1 1168 1 is_stmt 1 view -0
 3356              		.cfi_startproc
 3357              		@ args = 0, pretend = 0, frame = 0
 3358              		@ frame_needed = 0, uses_anonymous_args = 0
 3359              		.loc 1 1168 1 is_stmt 0 view .LVU819
 3360 0000 10B5     		push	{r4, lr}
 3361              	.LCFI80:
 3362              		.cfi_def_cfa_offset 8
 3363              		.cfi_offset 4, -8
 3364              		.cfi_offset 14, -4
 3365 0002 0A00     		movs	r2, r1
1169:Inc/lis3dh_reg.c ****   int32_t ret;
 3366              		.loc 1 1169 3 is_stmt 1 view .LVU820
1170:Inc/lis3dh_reg.c **** 
1171:Inc/lis3dh_reg.c ****   ret = lis3dh_write_reg(ctx, LIS3DH_INT1_CFG, (uint8_t *) val, 1);
 3367              		.loc 1 1171 3 view .LVU821
 3368              		.loc 1 1171 9 is_stmt 0 view .LVU822
 3369 0004 0123     		movs	r3, #1
 3370 0006 3021     		movs	r1, #48
 3371              	.LVL249:
 3372              		.loc 1 1171 9 view .LVU823
 3373 0008 FFF7FEFF 		bl	lis3dh_write_reg
 3374              	.LVL250:
1172:Inc/lis3dh_reg.c **** 
1173:Inc/lis3dh_reg.c ****   return ret;
 3375              		.loc 1 1173 3 is_stmt 1 view .LVU824
1174:Inc/lis3dh_reg.c **** }
 3376              		.loc 1 1174 1 is_stmt 0 view .LVU825
 3377              		@ sp needed
 3378 000c 10BD     		pop	{r4, pc}
 3379              		.cfi_endproc
 3380              	.LFE51:
 3382              		.section	.text.lis3dh_int1_gen_conf_get,"ax",%progbits
 3383              		.align	1
 3384              		.global	lis3dh_int1_gen_conf_get
 3385              		.syntax unified
 3386              		.code	16
 3387              		.thumb_func
 3388              		.fpu softvfp
 3390              	lis3dh_int1_gen_conf_get:
ARM GAS  /tmp/ccT3btxY.s 			page 83


 3391              	.LVL251:
 3392              	.LFB52:
1175:Inc/lis3dh_reg.c **** 
1176:Inc/lis3dh_reg.c **** /**
1177:Inc/lis3dh_reg.c ****   * @brief  Interrupt generator 1 configuration register.[get]
1178:Inc/lis3dh_reg.c ****   *
1179:Inc/lis3dh_reg.c ****   * @param  ctx      read / write interface definitions
1180:Inc/lis3dh_reg.c ****   * @param  val      register INT1_CFG
1181:Inc/lis3dh_reg.c ****   * @retval          interface status (MANDATORY: return 0 -> no Error)
1182:Inc/lis3dh_reg.c ****   *
1183:Inc/lis3dh_reg.c ****   */
1184:Inc/lis3dh_reg.c **** int32_t lis3dh_int1_gen_conf_get(stmdev_ctx_t *ctx,
1185:Inc/lis3dh_reg.c ****                                  lis3dh_int1_cfg_t *val)
1186:Inc/lis3dh_reg.c **** {
 3393              		.loc 1 1186 1 is_stmt 1 view -0
 3394              		.cfi_startproc
 3395              		@ args = 0, pretend = 0, frame = 0
 3396              		@ frame_needed = 0, uses_anonymous_args = 0
 3397              		.loc 1 1186 1 is_stmt 0 view .LVU827
 3398 0000 10B5     		push	{r4, lr}
 3399              	.LCFI81:
 3400              		.cfi_def_cfa_offset 8
 3401              		.cfi_offset 4, -8
 3402              		.cfi_offset 14, -4
 3403 0002 0A00     		movs	r2, r1
1187:Inc/lis3dh_reg.c ****   int32_t ret;
 3404              		.loc 1 1187 3 is_stmt 1 view .LVU828
1188:Inc/lis3dh_reg.c **** 
1189:Inc/lis3dh_reg.c ****   ret = lis3dh_read_reg(ctx, LIS3DH_INT1_CFG, (uint8_t *) val, 1);
 3405              		.loc 1 1189 3 view .LVU829
 3406              		.loc 1 1189 9 is_stmt 0 view .LVU830
 3407 0004 0123     		movs	r3, #1
 3408 0006 3021     		movs	r1, #48
 3409              	.LVL252:
 3410              		.loc 1 1189 9 view .LVU831
 3411 0008 FFF7FEFF 		bl	lis3dh_read_reg
 3412              	.LVL253:
1190:Inc/lis3dh_reg.c **** 
1191:Inc/lis3dh_reg.c ****   return ret;
 3413              		.loc 1 1191 3 is_stmt 1 view .LVU832
1192:Inc/lis3dh_reg.c **** }
 3414              		.loc 1 1192 1 is_stmt 0 view .LVU833
 3415              		@ sp needed
 3416 000c 10BD     		pop	{r4, pc}
 3417              		.cfi_endproc
 3418              	.LFE52:
 3420              		.section	.text.lis3dh_int1_gen_source_get,"ax",%progbits
 3421              		.align	1
 3422              		.global	lis3dh_int1_gen_source_get
 3423              		.syntax unified
 3424              		.code	16
 3425              		.thumb_func
 3426              		.fpu softvfp
 3428              	lis3dh_int1_gen_source_get:
 3429              	.LVL254:
 3430              	.LFB53:
1193:Inc/lis3dh_reg.c **** 
ARM GAS  /tmp/ccT3btxY.s 			page 84


1194:Inc/lis3dh_reg.c **** /**
1195:Inc/lis3dh_reg.c ****   * @brief  Interrupt generator 1 source register.[get]
1196:Inc/lis3dh_reg.c ****   *
1197:Inc/lis3dh_reg.c ****   * @param  ctx      read / write interface definitions
1198:Inc/lis3dh_reg.c ****   * @param  val      Registers INT1_SRC
1199:Inc/lis3dh_reg.c ****   * @retval          interface status (MANDATORY: return 0 -> no Error)
1200:Inc/lis3dh_reg.c ****   *
1201:Inc/lis3dh_reg.c ****   */
1202:Inc/lis3dh_reg.c **** int32_t lis3dh_int1_gen_source_get(stmdev_ctx_t *ctx,
1203:Inc/lis3dh_reg.c ****                                    lis3dh_int1_src_t *val)
1204:Inc/lis3dh_reg.c **** {
 3431              		.loc 1 1204 1 is_stmt 1 view -0
 3432              		.cfi_startproc
 3433              		@ args = 0, pretend = 0, frame = 0
 3434              		@ frame_needed = 0, uses_anonymous_args = 0
 3435              		.loc 1 1204 1 is_stmt 0 view .LVU835
 3436 0000 10B5     		push	{r4, lr}
 3437              	.LCFI82:
 3438              		.cfi_def_cfa_offset 8
 3439              		.cfi_offset 4, -8
 3440              		.cfi_offset 14, -4
 3441 0002 0A00     		movs	r2, r1
1205:Inc/lis3dh_reg.c ****   int32_t ret;
 3442              		.loc 1 1205 3 is_stmt 1 view .LVU836
1206:Inc/lis3dh_reg.c **** 
1207:Inc/lis3dh_reg.c ****   ret = lis3dh_read_reg(ctx, LIS3DH_INT1_SRC, (uint8_t *) val, 1);
 3443              		.loc 1 1207 3 view .LVU837
 3444              		.loc 1 1207 9 is_stmt 0 view .LVU838
 3445 0004 0123     		movs	r3, #1
 3446 0006 3121     		movs	r1, #49
 3447              	.LVL255:
 3448              		.loc 1 1207 9 view .LVU839
 3449 0008 FFF7FEFF 		bl	lis3dh_read_reg
 3450              	.LVL256:
1208:Inc/lis3dh_reg.c **** 
1209:Inc/lis3dh_reg.c ****   return ret;
 3451              		.loc 1 1209 3 is_stmt 1 view .LVU840
1210:Inc/lis3dh_reg.c **** }
 3452              		.loc 1 1210 1 is_stmt 0 view .LVU841
 3453              		@ sp needed
 3454 000c 10BD     		pop	{r4, pc}
 3455              		.cfi_endproc
 3456              	.LFE53:
 3458              		.section	.text.lis3dh_int1_gen_threshold_set,"ax",%progbits
 3459              		.align	1
 3460              		.global	lis3dh_int1_gen_threshold_set
 3461              		.syntax unified
 3462              		.code	16
 3463              		.thumb_func
 3464              		.fpu softvfp
 3466              	lis3dh_int1_gen_threshold_set:
 3467              	.LVL257:
 3468              	.LFB54:
1211:Inc/lis3dh_reg.c **** /**
1212:Inc/lis3dh_reg.c ****   * @brief  User-defined threshold value for xl interrupt event on
1213:Inc/lis3dh_reg.c ****   *         generator 1.[set]
1214:Inc/lis3dh_reg.c ****   *         LSb = 16mg@2g / 32mg@4g / 62mg@8g / 186mg@16g
ARM GAS  /tmp/ccT3btxY.s 			page 85


1215:Inc/lis3dh_reg.c ****   *
1216:Inc/lis3dh_reg.c ****   * @param  ctx      read / write interface definitions
1217:Inc/lis3dh_reg.c ****   * @param  val      change the values of ths in reg INT1_THS
1218:Inc/lis3dh_reg.c ****   * @retval          interface status (MANDATORY: return 0 -> no Error)
1219:Inc/lis3dh_reg.c ****   *
1220:Inc/lis3dh_reg.c ****   */
1221:Inc/lis3dh_reg.c **** int32_t lis3dh_int1_gen_threshold_set(stmdev_ctx_t *ctx, uint8_t val)
1222:Inc/lis3dh_reg.c **** {
 3469              		.loc 1 1222 1 is_stmt 1 view -0
 3470              		.cfi_startproc
 3471              		@ args = 0, pretend = 0, frame = 8
 3472              		@ frame_needed = 0, uses_anonymous_args = 0
 3473              		.loc 1 1222 1 is_stmt 0 view .LVU843
 3474 0000 30B5     		push	{r4, r5, lr}
 3475              	.LCFI83:
 3476              		.cfi_def_cfa_offset 12
 3477              		.cfi_offset 4, -12
 3478              		.cfi_offset 5, -8
 3479              		.cfi_offset 14, -4
 3480 0002 83B0     		sub	sp, sp, #12
 3481              	.LCFI84:
 3482              		.cfi_def_cfa_offset 24
 3483 0004 0400     		movs	r4, r0
 3484 0006 0D00     		movs	r5, r1
1223:Inc/lis3dh_reg.c ****   lis3dh_int1_ths_t int1_ths;
 3485              		.loc 1 1223 3 is_stmt 1 view .LVU844
1224:Inc/lis3dh_reg.c ****   int32_t ret;
 3486              		.loc 1 1224 3 view .LVU845
1225:Inc/lis3dh_reg.c **** 
1226:Inc/lis3dh_reg.c ****   ret = lis3dh_read_reg(ctx, LIS3DH_INT1_THS, (uint8_t *)&int1_ths, 1);
 3487              		.loc 1 1226 3 view .LVU846
 3488              		.loc 1 1226 9 is_stmt 0 view .LVU847
 3489 0008 0123     		movs	r3, #1
 3490 000a 01AA     		add	r2, sp, #4
 3491 000c 3221     		movs	r1, #50
 3492              	.LVL258:
 3493              		.loc 1 1226 9 view .LVU848
 3494 000e FFF7FEFF 		bl	lis3dh_read_reg
 3495              	.LVL259:
1227:Inc/lis3dh_reg.c **** 
1228:Inc/lis3dh_reg.c ****   if (ret == 0)
 3496              		.loc 1 1228 3 is_stmt 1 view .LVU849
 3497              		.loc 1 1228 6 is_stmt 0 view .LVU850
 3498 0012 0028     		cmp	r0, #0
 3499 0014 01D0     		beq	.L156
 3500              	.L154:
1229:Inc/lis3dh_reg.c ****   {
1230:Inc/lis3dh_reg.c ****     int1_ths.ths = val;
1231:Inc/lis3dh_reg.c ****     ret = lis3dh_write_reg(ctx, LIS3DH_INT1_THS, (uint8_t *)&int1_ths, 1);
1232:Inc/lis3dh_reg.c ****   }
1233:Inc/lis3dh_reg.c **** 
1234:Inc/lis3dh_reg.c ****   return ret;
1235:Inc/lis3dh_reg.c **** }
 3501              		.loc 1 1235 1 view .LVU851
 3502 0016 03B0     		add	sp, sp, #12
 3503              		@ sp needed
 3504              	.LVL260:
ARM GAS  /tmp/ccT3btxY.s 			page 86


 3505              		.loc 1 1235 1 view .LVU852
 3506 0018 30BD     		pop	{r4, r5, pc}
 3507              	.LVL261:
 3508              	.L156:
1230:Inc/lis3dh_reg.c ****     ret = lis3dh_write_reg(ctx, LIS3DH_INT1_THS, (uint8_t *)&int1_ths, 1);
 3509              		.loc 1 1230 5 is_stmt 1 view .LVU853
1230:Inc/lis3dh_reg.c ****     ret = lis3dh_write_reg(ctx, LIS3DH_INT1_THS, (uint8_t *)&int1_ths, 1);
 3510              		.loc 1 1230 18 is_stmt 0 view .LVU854
 3511 001a 7F22     		movs	r2, #127
 3512 001c 2A40     		ands	r2, r5
 3513 001e 6B46     		mov	r3, sp
 3514 0020 1B79     		ldrb	r3, [r3, #4]
 3515 0022 7F21     		movs	r1, #127
 3516 0024 8B43     		bics	r3, r1
 3517 0026 1343     		orrs	r3, r2
 3518 0028 6A46     		mov	r2, sp
 3519 002a 1371     		strb	r3, [r2, #4]
1231:Inc/lis3dh_reg.c ****   }
 3520              		.loc 1 1231 5 is_stmt 1 view .LVU855
1231:Inc/lis3dh_reg.c ****   }
 3521              		.loc 1 1231 11 is_stmt 0 view .LVU856
 3522 002c 0123     		movs	r3, #1
 3523 002e 01AA     		add	r2, sp, #4
 3524 0030 4D39     		subs	r1, r1, #77
 3525 0032 2000     		movs	r0, r4
 3526              	.LVL262:
1231:Inc/lis3dh_reg.c ****   }
 3527              		.loc 1 1231 11 view .LVU857
 3528 0034 FFF7FEFF 		bl	lis3dh_write_reg
 3529              	.LVL263:
1234:Inc/lis3dh_reg.c **** }
 3530              		.loc 1 1234 3 is_stmt 1 view .LVU858
1234:Inc/lis3dh_reg.c **** }
 3531              		.loc 1 1234 10 is_stmt 0 view .LVU859
 3532 0038 EDE7     		b	.L154
 3533              		.cfi_endproc
 3534              	.LFE54:
 3536              		.section	.text.lis3dh_int1_gen_threshold_get,"ax",%progbits
 3537              		.align	1
 3538              		.global	lis3dh_int1_gen_threshold_get
 3539              		.syntax unified
 3540              		.code	16
 3541              		.thumb_func
 3542              		.fpu softvfp
 3544              	lis3dh_int1_gen_threshold_get:
 3545              	.LVL264:
 3546              	.LFB55:
1236:Inc/lis3dh_reg.c **** 
1237:Inc/lis3dh_reg.c **** /**
1238:Inc/lis3dh_reg.c ****   * @brief  User-defined threshold value for xl interrupt event on
1239:Inc/lis3dh_reg.c ****   *         generator 1.[get]
1240:Inc/lis3dh_reg.c ****   *         LSb = 16mg@2g / 32mg@4g / 62mg@8g / 186mg@16g
1241:Inc/lis3dh_reg.c ****   *
1242:Inc/lis3dh_reg.c ****   * @param  ctx      read / write interface definitions
1243:Inc/lis3dh_reg.c ****   * @param  val      change the values of ths in reg INT1_THS
1244:Inc/lis3dh_reg.c ****   * @retval          interface status (MANDATORY: return 0 -> no Error)
1245:Inc/lis3dh_reg.c ****   *
ARM GAS  /tmp/ccT3btxY.s 			page 87


1246:Inc/lis3dh_reg.c ****   */
1247:Inc/lis3dh_reg.c **** int32_t lis3dh_int1_gen_threshold_get(stmdev_ctx_t *ctx, uint8_t *val)
1248:Inc/lis3dh_reg.c **** {
 3547              		.loc 1 1248 1 is_stmt 1 view -0
 3548              		.cfi_startproc
 3549              		@ args = 0, pretend = 0, frame = 8
 3550              		@ frame_needed = 0, uses_anonymous_args = 0
 3551              		.loc 1 1248 1 is_stmt 0 view .LVU861
 3552 0000 30B5     		push	{r4, r5, lr}
 3553              	.LCFI85:
 3554              		.cfi_def_cfa_offset 12
 3555              		.cfi_offset 4, -12
 3556              		.cfi_offset 5, -8
 3557              		.cfi_offset 14, -4
 3558 0002 83B0     		sub	sp, sp, #12
 3559              	.LCFI86:
 3560              		.cfi_def_cfa_offset 24
 3561 0004 0C00     		movs	r4, r1
1249:Inc/lis3dh_reg.c ****   lis3dh_int1_ths_t int1_ths;
 3562              		.loc 1 1249 3 is_stmt 1 view .LVU862
1250:Inc/lis3dh_reg.c ****   int32_t ret;
 3563              		.loc 1 1250 3 view .LVU863
1251:Inc/lis3dh_reg.c **** 
1252:Inc/lis3dh_reg.c ****   ret = lis3dh_read_reg(ctx, LIS3DH_INT1_THS, (uint8_t *)&int1_ths, 1);
 3564              		.loc 1 1252 3 view .LVU864
 3565              		.loc 1 1252 9 is_stmt 0 view .LVU865
 3566 0006 01AD     		add	r5, sp, #4
 3567 0008 0123     		movs	r3, #1
 3568 000a 2A00     		movs	r2, r5
 3569 000c 3221     		movs	r1, #50
 3570              	.LVL265:
 3571              		.loc 1 1252 9 view .LVU866
 3572 000e FFF7FEFF 		bl	lis3dh_read_reg
 3573              	.LVL266:
1253:Inc/lis3dh_reg.c ****   *val = (uint8_t)int1_ths.ths;
 3574              		.loc 1 1253 3 is_stmt 1 view .LVU867
 3575              		.loc 1 1253 27 is_stmt 0 view .LVU868
 3576 0012 2B78     		ldrb	r3, [r5]
 3577 0014 5B06     		lsls	r3, r3, #25
 3578 0016 5B0E     		lsrs	r3, r3, #25
 3579              		.loc 1 1253 8 view .LVU869
 3580 0018 2370     		strb	r3, [r4]
1254:Inc/lis3dh_reg.c **** 
1255:Inc/lis3dh_reg.c ****   return ret;
 3581              		.loc 1 1255 3 is_stmt 1 view .LVU870
1256:Inc/lis3dh_reg.c **** }
 3582              		.loc 1 1256 1 is_stmt 0 view .LVU871
 3583 001a 03B0     		add	sp, sp, #12
 3584              		@ sp needed
 3585              	.LVL267:
 3586              		.loc 1 1256 1 view .LVU872
 3587 001c 30BD     		pop	{r4, r5, pc}
 3588              		.cfi_endproc
 3589              	.LFE55:
 3591              		.section	.text.lis3dh_int1_gen_duration_set,"ax",%progbits
 3592              		.align	1
 3593              		.global	lis3dh_int1_gen_duration_set
ARM GAS  /tmp/ccT3btxY.s 			page 88


 3594              		.syntax unified
 3595              		.code	16
 3596              		.thumb_func
 3597              		.fpu softvfp
 3599              	lis3dh_int1_gen_duration_set:
 3600              	.LVL268:
 3601              	.LFB56:
1257:Inc/lis3dh_reg.c **** 
1258:Inc/lis3dh_reg.c **** /**
1259:Inc/lis3dh_reg.c ****   * @brief  The minimum duration (LSb = 1/ODR) of the Interrupt 1 event to be
1260:Inc/lis3dh_reg.c ****   *         recognized.[set]
1261:Inc/lis3dh_reg.c ****   *
1262:Inc/lis3dh_reg.c ****   * @param  ctx      read / write interface definitions
1263:Inc/lis3dh_reg.c ****   * @param  val      change the values of d in reg INT1_DURATION
1264:Inc/lis3dh_reg.c ****   * @retval          interface status (MANDATORY: return 0 -> no Error)
1265:Inc/lis3dh_reg.c ****   *
1266:Inc/lis3dh_reg.c ****   */
1267:Inc/lis3dh_reg.c **** int32_t lis3dh_int1_gen_duration_set(stmdev_ctx_t *ctx, uint8_t val)
1268:Inc/lis3dh_reg.c **** {
 3602              		.loc 1 1268 1 is_stmt 1 view -0
 3603              		.cfi_startproc
 3604              		@ args = 0, pretend = 0, frame = 8
 3605              		@ frame_needed = 0, uses_anonymous_args = 0
 3606              		.loc 1 1268 1 is_stmt 0 view .LVU874
 3607 0000 30B5     		push	{r4, r5, lr}
 3608              	.LCFI87:
 3609              		.cfi_def_cfa_offset 12
 3610              		.cfi_offset 4, -12
 3611              		.cfi_offset 5, -8
 3612              		.cfi_offset 14, -4
 3613 0002 83B0     		sub	sp, sp, #12
 3614              	.LCFI88:
 3615              		.cfi_def_cfa_offset 24
 3616 0004 0400     		movs	r4, r0
 3617 0006 0D00     		movs	r5, r1
1269:Inc/lis3dh_reg.c ****   lis3dh_int1_duration_t int1_duration;
 3618              		.loc 1 1269 3 is_stmt 1 view .LVU875
1270:Inc/lis3dh_reg.c ****   int32_t ret;
 3619              		.loc 1 1270 3 view .LVU876
1271:Inc/lis3dh_reg.c **** 
1272:Inc/lis3dh_reg.c ****   ret = lis3dh_read_reg(ctx, LIS3DH_INT1_DURATION,
 3620              		.loc 1 1272 3 view .LVU877
 3621              		.loc 1 1272 9 is_stmt 0 view .LVU878
 3622 0008 0123     		movs	r3, #1
 3623 000a 01AA     		add	r2, sp, #4
 3624 000c 3321     		movs	r1, #51
 3625              	.LVL269:
 3626              		.loc 1 1272 9 view .LVU879
 3627 000e FFF7FEFF 		bl	lis3dh_read_reg
 3628              	.LVL270:
1273:Inc/lis3dh_reg.c ****                         (uint8_t *)&int1_duration, 1);
1274:Inc/lis3dh_reg.c **** 
1275:Inc/lis3dh_reg.c ****   if (ret == 0)
 3629              		.loc 1 1275 3 is_stmt 1 view .LVU880
 3630              		.loc 1 1275 6 is_stmt 0 view .LVU881
 3631 0012 0028     		cmp	r0, #0
 3632 0014 01D0     		beq	.L160
ARM GAS  /tmp/ccT3btxY.s 			page 89


 3633              	.L158:
1276:Inc/lis3dh_reg.c ****   {
1277:Inc/lis3dh_reg.c ****     int1_duration.d = val;
1278:Inc/lis3dh_reg.c ****     ret = lis3dh_write_reg(ctx, LIS3DH_INT1_DURATION,
1279:Inc/lis3dh_reg.c ****                            (uint8_t *)&int1_duration, 1);
1280:Inc/lis3dh_reg.c ****   }
1281:Inc/lis3dh_reg.c **** 
1282:Inc/lis3dh_reg.c ****   return ret;
1283:Inc/lis3dh_reg.c **** }
 3634              		.loc 1 1283 1 view .LVU882
 3635 0016 03B0     		add	sp, sp, #12
 3636              		@ sp needed
 3637              	.LVL271:
 3638              		.loc 1 1283 1 view .LVU883
 3639 0018 30BD     		pop	{r4, r5, pc}
 3640              	.LVL272:
 3641              	.L160:
1277:Inc/lis3dh_reg.c ****     ret = lis3dh_write_reg(ctx, LIS3DH_INT1_DURATION,
 3642              		.loc 1 1277 5 is_stmt 1 view .LVU884
1277:Inc/lis3dh_reg.c ****     ret = lis3dh_write_reg(ctx, LIS3DH_INT1_DURATION,
 3643              		.loc 1 1277 21 is_stmt 0 view .LVU885
 3644 001a 7F22     		movs	r2, #127
 3645 001c 2A40     		ands	r2, r5
 3646 001e 6B46     		mov	r3, sp
 3647 0020 1B79     		ldrb	r3, [r3, #4]
 3648 0022 7F21     		movs	r1, #127
 3649 0024 8B43     		bics	r3, r1
 3650 0026 1343     		orrs	r3, r2
 3651 0028 6A46     		mov	r2, sp
 3652 002a 1371     		strb	r3, [r2, #4]
1278:Inc/lis3dh_reg.c ****                            (uint8_t *)&int1_duration, 1);
 3653              		.loc 1 1278 5 is_stmt 1 view .LVU886
1278:Inc/lis3dh_reg.c ****                            (uint8_t *)&int1_duration, 1);
 3654              		.loc 1 1278 11 is_stmt 0 view .LVU887
 3655 002c 0123     		movs	r3, #1
 3656 002e 01AA     		add	r2, sp, #4
 3657 0030 4C39     		subs	r1, r1, #76
 3658 0032 2000     		movs	r0, r4
 3659              	.LVL273:
1278:Inc/lis3dh_reg.c ****                            (uint8_t *)&int1_duration, 1);
 3660              		.loc 1 1278 11 view .LVU888
 3661 0034 FFF7FEFF 		bl	lis3dh_write_reg
 3662              	.LVL274:
1282:Inc/lis3dh_reg.c **** }
 3663              		.loc 1 1282 3 is_stmt 1 view .LVU889
1282:Inc/lis3dh_reg.c **** }
 3664              		.loc 1 1282 10 is_stmt 0 view .LVU890
 3665 0038 EDE7     		b	.L158
 3666              		.cfi_endproc
 3667              	.LFE56:
 3669              		.section	.text.lis3dh_int1_gen_duration_get,"ax",%progbits
 3670              		.align	1
 3671              		.global	lis3dh_int1_gen_duration_get
 3672              		.syntax unified
 3673              		.code	16
 3674              		.thumb_func
 3675              		.fpu softvfp
ARM GAS  /tmp/ccT3btxY.s 			page 90


 3677              	lis3dh_int1_gen_duration_get:
 3678              	.LVL275:
 3679              	.LFB57:
1284:Inc/lis3dh_reg.c **** 
1285:Inc/lis3dh_reg.c **** /**
1286:Inc/lis3dh_reg.c ****   * @brief  The minimum duration (LSb = 1/ODR) of the Interrupt 1 event to be
1287:Inc/lis3dh_reg.c ****   *         recognized.[get]
1288:Inc/lis3dh_reg.c ****   *
1289:Inc/lis3dh_reg.c ****   * @param  ctx      read / write interface definitions
1290:Inc/lis3dh_reg.c ****   * @param  val      change the values of d in reg INT1_DURATION
1291:Inc/lis3dh_reg.c ****   * @retval          interface status (MANDATORY: return 0 -> no Error)
1292:Inc/lis3dh_reg.c ****   *
1293:Inc/lis3dh_reg.c ****   */
1294:Inc/lis3dh_reg.c **** int32_t lis3dh_int1_gen_duration_get(stmdev_ctx_t *ctx, uint8_t *val)
1295:Inc/lis3dh_reg.c **** {
 3680              		.loc 1 1295 1 is_stmt 1 view -0
 3681              		.cfi_startproc
 3682              		@ args = 0, pretend = 0, frame = 8
 3683              		@ frame_needed = 0, uses_anonymous_args = 0
 3684              		.loc 1 1295 1 is_stmt 0 view .LVU892
 3685 0000 30B5     		push	{r4, r5, lr}
 3686              	.LCFI89:
 3687              		.cfi_def_cfa_offset 12
 3688              		.cfi_offset 4, -12
 3689              		.cfi_offset 5, -8
 3690              		.cfi_offset 14, -4
 3691 0002 83B0     		sub	sp, sp, #12
 3692              	.LCFI90:
 3693              		.cfi_def_cfa_offset 24
 3694 0004 0C00     		movs	r4, r1
1296:Inc/lis3dh_reg.c ****   lis3dh_int1_duration_t int1_duration;
 3695              		.loc 1 1296 3 is_stmt 1 view .LVU893
1297:Inc/lis3dh_reg.c ****   int32_t ret;
 3696              		.loc 1 1297 3 view .LVU894
1298:Inc/lis3dh_reg.c **** 
1299:Inc/lis3dh_reg.c ****   ret = lis3dh_read_reg(ctx, LIS3DH_INT1_DURATION,
 3697              		.loc 1 1299 3 view .LVU895
 3698              		.loc 1 1299 9 is_stmt 0 view .LVU896
 3699 0006 01AD     		add	r5, sp, #4
 3700 0008 0123     		movs	r3, #1
 3701 000a 2A00     		movs	r2, r5
 3702 000c 3321     		movs	r1, #51
 3703              	.LVL276:
 3704              		.loc 1 1299 9 view .LVU897
 3705 000e FFF7FEFF 		bl	lis3dh_read_reg
 3706              	.LVL277:
1300:Inc/lis3dh_reg.c ****                         (uint8_t *)&int1_duration, 1);
1301:Inc/lis3dh_reg.c ****   *val = (uint8_t)int1_duration.d;
 3707              		.loc 1 1301 3 is_stmt 1 view .LVU898
 3708              		.loc 1 1301 32 is_stmt 0 view .LVU899
 3709 0012 2B78     		ldrb	r3, [r5]
 3710 0014 5B06     		lsls	r3, r3, #25
 3711 0016 5B0E     		lsrs	r3, r3, #25
 3712              		.loc 1 1301 8 view .LVU900
 3713 0018 2370     		strb	r3, [r4]
1302:Inc/lis3dh_reg.c **** 
1303:Inc/lis3dh_reg.c ****   return ret;
ARM GAS  /tmp/ccT3btxY.s 			page 91


 3714              		.loc 1 1303 3 is_stmt 1 view .LVU901
1304:Inc/lis3dh_reg.c **** }
 3715              		.loc 1 1304 1 is_stmt 0 view .LVU902
 3716 001a 03B0     		add	sp, sp, #12
 3717              		@ sp needed
 3718              	.LVL278:
 3719              		.loc 1 1304 1 view .LVU903
 3720 001c 30BD     		pop	{r4, r5, pc}
 3721              		.cfi_endproc
 3722              	.LFE57:
 3724              		.section	.text.lis3dh_int2_gen_conf_set,"ax",%progbits
 3725              		.align	1
 3726              		.global	lis3dh_int2_gen_conf_set
 3727              		.syntax unified
 3728              		.code	16
 3729              		.thumb_func
 3730              		.fpu softvfp
 3732              	lis3dh_int2_gen_conf_set:
 3733              	.LVL279:
 3734              	.LFB58:
1305:Inc/lis3dh_reg.c **** 
1306:Inc/lis3dh_reg.c **** /**
1307:Inc/lis3dh_reg.c ****   * @}
1308:Inc/lis3dh_reg.c ****   *
1309:Inc/lis3dh_reg.c ****   */
1310:Inc/lis3dh_reg.c **** 
1311:Inc/lis3dh_reg.c **** /**
1312:Inc/lis3dh_reg.c ****   * @defgroup   LIS3DH_Interrupts_generator_2
1313:Inc/lis3dh_reg.c ****   * @brief      This section group all the functions that manage the second
1314:Inc/lis3dh_reg.c ****   *             interrupts generator
1315:Inc/lis3dh_reg.c ****   * @{
1316:Inc/lis3dh_reg.c ****   *
1317:Inc/lis3dh_reg.c ****   */
1318:Inc/lis3dh_reg.c **** 
1319:Inc/lis3dh_reg.c **** /**
1320:Inc/lis3dh_reg.c ****   * @brief  Interrupt generator 2 configuration register.[set]
1321:Inc/lis3dh_reg.c ****   *
1322:Inc/lis3dh_reg.c ****   * @param  ctx      read / write interface definitions
1323:Inc/lis3dh_reg.c ****   * @param  val      registers INT2_CFG
1324:Inc/lis3dh_reg.c ****   * @retval          interface status (MANDATORY: return 0 -> no Error)
1325:Inc/lis3dh_reg.c ****   *
1326:Inc/lis3dh_reg.c ****   */
1327:Inc/lis3dh_reg.c **** int32_t lis3dh_int2_gen_conf_set(stmdev_ctx_t *ctx,
1328:Inc/lis3dh_reg.c ****                                  lis3dh_int2_cfg_t *val)
1329:Inc/lis3dh_reg.c **** {
 3735              		.loc 1 1329 1 is_stmt 1 view -0
 3736              		.cfi_startproc
 3737              		@ args = 0, pretend = 0, frame = 0
 3738              		@ frame_needed = 0, uses_anonymous_args = 0
 3739              		.loc 1 1329 1 is_stmt 0 view .LVU905
 3740 0000 10B5     		push	{r4, lr}
 3741              	.LCFI91:
 3742              		.cfi_def_cfa_offset 8
 3743              		.cfi_offset 4, -8
 3744              		.cfi_offset 14, -4
 3745 0002 0A00     		movs	r2, r1
1330:Inc/lis3dh_reg.c ****   int32_t ret;
ARM GAS  /tmp/ccT3btxY.s 			page 92


 3746              		.loc 1 1330 3 is_stmt 1 view .LVU906
1331:Inc/lis3dh_reg.c **** 
1332:Inc/lis3dh_reg.c ****   ret = lis3dh_write_reg(ctx, LIS3DH_INT2_CFG, (uint8_t *) val, 1);
 3747              		.loc 1 1332 3 view .LVU907
 3748              		.loc 1 1332 9 is_stmt 0 view .LVU908
 3749 0004 0123     		movs	r3, #1
 3750 0006 3421     		movs	r1, #52
 3751              	.LVL280:
 3752              		.loc 1 1332 9 view .LVU909
 3753 0008 FFF7FEFF 		bl	lis3dh_write_reg
 3754              	.LVL281:
1333:Inc/lis3dh_reg.c **** 
1334:Inc/lis3dh_reg.c ****   return ret;
 3755              		.loc 1 1334 3 is_stmt 1 view .LVU910
1335:Inc/lis3dh_reg.c **** }
 3756              		.loc 1 1335 1 is_stmt 0 view .LVU911
 3757              		@ sp needed
 3758 000c 10BD     		pop	{r4, pc}
 3759              		.cfi_endproc
 3760              	.LFE58:
 3762              		.section	.text.lis3dh_int2_gen_conf_get,"ax",%progbits
 3763              		.align	1
 3764              		.global	lis3dh_int2_gen_conf_get
 3765              		.syntax unified
 3766              		.code	16
 3767              		.thumb_func
 3768              		.fpu softvfp
 3770              	lis3dh_int2_gen_conf_get:
 3771              	.LVL282:
 3772              	.LFB59:
1336:Inc/lis3dh_reg.c **** 
1337:Inc/lis3dh_reg.c **** /**
1338:Inc/lis3dh_reg.c ****   * @brief  Interrupt generator 2 configuration register.[get]
1339:Inc/lis3dh_reg.c ****   *
1340:Inc/lis3dh_reg.c ****   * @param  ctx      read / write interface definitions
1341:Inc/lis3dh_reg.c ****   * @param  val      registers INT2_CFG
1342:Inc/lis3dh_reg.c ****   * @retval          interface status (MANDATORY: return 0 -> no Error)
1343:Inc/lis3dh_reg.c ****   *
1344:Inc/lis3dh_reg.c ****   */
1345:Inc/lis3dh_reg.c **** int32_t lis3dh_int2_gen_conf_get(stmdev_ctx_t *ctx,
1346:Inc/lis3dh_reg.c ****                                  lis3dh_int2_cfg_t *val)
1347:Inc/lis3dh_reg.c **** {
 3773              		.loc 1 1347 1 is_stmt 1 view -0
 3774              		.cfi_startproc
 3775              		@ args = 0, pretend = 0, frame = 0
 3776              		@ frame_needed = 0, uses_anonymous_args = 0
 3777              		.loc 1 1347 1 is_stmt 0 view .LVU913
 3778 0000 10B5     		push	{r4, lr}
 3779              	.LCFI92:
 3780              		.cfi_def_cfa_offset 8
 3781              		.cfi_offset 4, -8
 3782              		.cfi_offset 14, -4
 3783 0002 0A00     		movs	r2, r1
1348:Inc/lis3dh_reg.c ****   int32_t ret;
 3784              		.loc 1 1348 3 is_stmt 1 view .LVU914
1349:Inc/lis3dh_reg.c **** 
1350:Inc/lis3dh_reg.c ****   ret = lis3dh_read_reg(ctx, LIS3DH_INT2_CFG, (uint8_t *) val, 1);
ARM GAS  /tmp/ccT3btxY.s 			page 93


 3785              		.loc 1 1350 3 view .LVU915
 3786              		.loc 1 1350 9 is_stmt 0 view .LVU916
 3787 0004 0123     		movs	r3, #1
 3788 0006 3421     		movs	r1, #52
 3789              	.LVL283:
 3790              		.loc 1 1350 9 view .LVU917
 3791 0008 FFF7FEFF 		bl	lis3dh_read_reg
 3792              	.LVL284:
1351:Inc/lis3dh_reg.c **** 
1352:Inc/lis3dh_reg.c ****   return ret;
 3793              		.loc 1 1352 3 is_stmt 1 view .LVU918
1353:Inc/lis3dh_reg.c **** }
 3794              		.loc 1 1353 1 is_stmt 0 view .LVU919
 3795              		@ sp needed
 3796 000c 10BD     		pop	{r4, pc}
 3797              		.cfi_endproc
 3798              	.LFE59:
 3800              		.section	.text.lis3dh_int2_gen_source_get,"ax",%progbits
 3801              		.align	1
 3802              		.global	lis3dh_int2_gen_source_get
 3803              		.syntax unified
 3804              		.code	16
 3805              		.thumb_func
 3806              		.fpu softvfp
 3808              	lis3dh_int2_gen_source_get:
 3809              	.LVL285:
 3810              	.LFB60:
1354:Inc/lis3dh_reg.c **** /**
1355:Inc/lis3dh_reg.c ****   * @brief  Interrupt generator 2 source register.[get]
1356:Inc/lis3dh_reg.c ****   *
1357:Inc/lis3dh_reg.c ****   * @param  ctx      read / write interface definitions
1358:Inc/lis3dh_reg.c ****   * @param  val      registers INT2_SRC
1359:Inc/lis3dh_reg.c ****   * @retval          interface status (MANDATORY: return 0 -> no Error)
1360:Inc/lis3dh_reg.c ****   *
1361:Inc/lis3dh_reg.c ****   */
1362:Inc/lis3dh_reg.c **** int32_t lis3dh_int2_gen_source_get(stmdev_ctx_t *ctx,
1363:Inc/lis3dh_reg.c ****                                    lis3dh_int2_src_t *val)
1364:Inc/lis3dh_reg.c **** {
 3811              		.loc 1 1364 1 is_stmt 1 view -0
 3812              		.cfi_startproc
 3813              		@ args = 0, pretend = 0, frame = 0
 3814              		@ frame_needed = 0, uses_anonymous_args = 0
 3815              		.loc 1 1364 1 is_stmt 0 view .LVU921
 3816 0000 10B5     		push	{r4, lr}
 3817              	.LCFI93:
 3818              		.cfi_def_cfa_offset 8
 3819              		.cfi_offset 4, -8
 3820              		.cfi_offset 14, -4
 3821 0002 0A00     		movs	r2, r1
1365:Inc/lis3dh_reg.c ****   int32_t ret;
 3822              		.loc 1 1365 3 is_stmt 1 view .LVU922
1366:Inc/lis3dh_reg.c **** 
1367:Inc/lis3dh_reg.c ****   ret = lis3dh_read_reg(ctx, LIS3DH_INT2_SRC, (uint8_t *) val, 1);
 3823              		.loc 1 1367 3 view .LVU923
 3824              		.loc 1 1367 9 is_stmt 0 view .LVU924
 3825 0004 0123     		movs	r3, #1
 3826 0006 3521     		movs	r1, #53
ARM GAS  /tmp/ccT3btxY.s 			page 94


 3827              	.LVL286:
 3828              		.loc 1 1367 9 view .LVU925
 3829 0008 FFF7FEFF 		bl	lis3dh_read_reg
 3830              	.LVL287:
1368:Inc/lis3dh_reg.c **** 
1369:Inc/lis3dh_reg.c ****   return ret;
 3831              		.loc 1 1369 3 is_stmt 1 view .LVU926
1370:Inc/lis3dh_reg.c **** }
 3832              		.loc 1 1370 1 is_stmt 0 view .LVU927
 3833              		@ sp needed
 3834 000c 10BD     		pop	{r4, pc}
 3835              		.cfi_endproc
 3836              	.LFE60:
 3838              		.section	.text.lis3dh_int2_gen_threshold_set,"ax",%progbits
 3839              		.align	1
 3840              		.global	lis3dh_int2_gen_threshold_set
 3841              		.syntax unified
 3842              		.code	16
 3843              		.thumb_func
 3844              		.fpu softvfp
 3846              	lis3dh_int2_gen_threshold_set:
 3847              	.LVL288:
 3848              	.LFB61:
1371:Inc/lis3dh_reg.c **** /**
1372:Inc/lis3dh_reg.c ****   * @brief   User-defined threshold value for xl interrupt event on
1373:Inc/lis3dh_reg.c ****   *          generator 2.[set]
1374:Inc/lis3dh_reg.c ****   *          LSb = 16mg@2g / 32mg@4g / 62mg@8g / 186mg@16g
1375:Inc/lis3dh_reg.c ****   *
1376:Inc/lis3dh_reg.c ****   * @param  ctx      read / write interface definitions
1377:Inc/lis3dh_reg.c ****   * @param  val      change the values of ths in reg INT2_THS
1378:Inc/lis3dh_reg.c ****   * @retval          interface status (MANDATORY: return 0 -> no Error)
1379:Inc/lis3dh_reg.c ****   *
1380:Inc/lis3dh_reg.c ****   */
1381:Inc/lis3dh_reg.c **** int32_t lis3dh_int2_gen_threshold_set(stmdev_ctx_t *ctx, uint8_t val)
1382:Inc/lis3dh_reg.c **** {
 3849              		.loc 1 1382 1 is_stmt 1 view -0
 3850              		.cfi_startproc
 3851              		@ args = 0, pretend = 0, frame = 8
 3852              		@ frame_needed = 0, uses_anonymous_args = 0
 3853              		.loc 1 1382 1 is_stmt 0 view .LVU929
 3854 0000 30B5     		push	{r4, r5, lr}
 3855              	.LCFI94:
 3856              		.cfi_def_cfa_offset 12
 3857              		.cfi_offset 4, -12
 3858              		.cfi_offset 5, -8
 3859              		.cfi_offset 14, -4
 3860 0002 83B0     		sub	sp, sp, #12
 3861              	.LCFI95:
 3862              		.cfi_def_cfa_offset 24
 3863 0004 0400     		movs	r4, r0
 3864 0006 0D00     		movs	r5, r1
1383:Inc/lis3dh_reg.c ****   lis3dh_int2_ths_t int2_ths;
 3865              		.loc 1 1383 3 is_stmt 1 view .LVU930
1384:Inc/lis3dh_reg.c ****   int32_t ret;
 3866              		.loc 1 1384 3 view .LVU931
1385:Inc/lis3dh_reg.c **** 
1386:Inc/lis3dh_reg.c ****   ret = lis3dh_read_reg(ctx, LIS3DH_INT2_THS, (uint8_t *)&int2_ths, 1);
ARM GAS  /tmp/ccT3btxY.s 			page 95


 3867              		.loc 1 1386 3 view .LVU932
 3868              		.loc 1 1386 9 is_stmt 0 view .LVU933
 3869 0008 0123     		movs	r3, #1
 3870 000a 01AA     		add	r2, sp, #4
 3871 000c 3621     		movs	r1, #54
 3872              	.LVL289:
 3873              		.loc 1 1386 9 view .LVU934
 3874 000e FFF7FEFF 		bl	lis3dh_read_reg
 3875              	.LVL290:
1387:Inc/lis3dh_reg.c **** 
1388:Inc/lis3dh_reg.c ****   if (ret == 0)
 3876              		.loc 1 1388 3 is_stmt 1 view .LVU935
 3877              		.loc 1 1388 6 is_stmt 0 view .LVU936
 3878 0012 0028     		cmp	r0, #0
 3879 0014 01D0     		beq	.L167
 3880              	.L165:
1389:Inc/lis3dh_reg.c ****   {
1390:Inc/lis3dh_reg.c ****     int2_ths.ths = val;
1391:Inc/lis3dh_reg.c ****     ret = lis3dh_write_reg(ctx, LIS3DH_INT2_THS, (uint8_t *)&int2_ths, 1);
1392:Inc/lis3dh_reg.c ****   }
1393:Inc/lis3dh_reg.c **** 
1394:Inc/lis3dh_reg.c ****   return ret;
1395:Inc/lis3dh_reg.c **** }
 3881              		.loc 1 1395 1 view .LVU937
 3882 0016 03B0     		add	sp, sp, #12
 3883              		@ sp needed
 3884              	.LVL291:
 3885              		.loc 1 1395 1 view .LVU938
 3886 0018 30BD     		pop	{r4, r5, pc}
 3887              	.LVL292:
 3888              	.L167:
1390:Inc/lis3dh_reg.c ****     ret = lis3dh_write_reg(ctx, LIS3DH_INT2_THS, (uint8_t *)&int2_ths, 1);
 3889              		.loc 1 1390 5 is_stmt 1 view .LVU939
1390:Inc/lis3dh_reg.c ****     ret = lis3dh_write_reg(ctx, LIS3DH_INT2_THS, (uint8_t *)&int2_ths, 1);
 3890              		.loc 1 1390 18 is_stmt 0 view .LVU940
 3891 001a 7F22     		movs	r2, #127
 3892 001c 2A40     		ands	r2, r5
 3893 001e 6B46     		mov	r3, sp
 3894 0020 1B79     		ldrb	r3, [r3, #4]
 3895 0022 7F21     		movs	r1, #127
 3896 0024 8B43     		bics	r3, r1
 3897 0026 1343     		orrs	r3, r2
 3898 0028 6A46     		mov	r2, sp
 3899 002a 1371     		strb	r3, [r2, #4]
1391:Inc/lis3dh_reg.c ****   }
 3900              		.loc 1 1391 5 is_stmt 1 view .LVU941
1391:Inc/lis3dh_reg.c ****   }
 3901              		.loc 1 1391 11 is_stmt 0 view .LVU942
 3902 002c 0123     		movs	r3, #1
 3903 002e 01AA     		add	r2, sp, #4
 3904 0030 4939     		subs	r1, r1, #73
 3905 0032 2000     		movs	r0, r4
 3906              	.LVL293:
1391:Inc/lis3dh_reg.c ****   }
 3907              		.loc 1 1391 11 view .LVU943
 3908 0034 FFF7FEFF 		bl	lis3dh_write_reg
 3909              	.LVL294:
ARM GAS  /tmp/ccT3btxY.s 			page 96


1394:Inc/lis3dh_reg.c **** }
 3910              		.loc 1 1394 3 is_stmt 1 view .LVU944
1394:Inc/lis3dh_reg.c **** }
 3911              		.loc 1 1394 10 is_stmt 0 view .LVU945
 3912 0038 EDE7     		b	.L165
 3913              		.cfi_endproc
 3914              	.LFE61:
 3916              		.section	.text.lis3dh_int2_gen_threshold_get,"ax",%progbits
 3917              		.align	1
 3918              		.global	lis3dh_int2_gen_threshold_get
 3919              		.syntax unified
 3920              		.code	16
 3921              		.thumb_func
 3922              		.fpu softvfp
 3924              	lis3dh_int2_gen_threshold_get:
 3925              	.LVL295:
 3926              	.LFB62:
1396:Inc/lis3dh_reg.c **** 
1397:Inc/lis3dh_reg.c **** /**
1398:Inc/lis3dh_reg.c ****   * @brief  User-defined threshold value for xl interrupt event on
1399:Inc/lis3dh_reg.c ****   *         generator 2.[get]
1400:Inc/lis3dh_reg.c ****   *         LSb = 16mg@2g / 32mg@4g / 62mg@8g / 186mg@16g
1401:Inc/lis3dh_reg.c ****   *
1402:Inc/lis3dh_reg.c ****   * @param  ctx      read / write interface definitions
1403:Inc/lis3dh_reg.c ****   * @param  val      change the values of ths in reg INT2_THS
1404:Inc/lis3dh_reg.c ****   * @retval          interface status (MANDATORY: return 0 -> no Error)
1405:Inc/lis3dh_reg.c ****   *
1406:Inc/lis3dh_reg.c ****   */
1407:Inc/lis3dh_reg.c **** int32_t lis3dh_int2_gen_threshold_get(stmdev_ctx_t *ctx, uint8_t *val)
1408:Inc/lis3dh_reg.c **** {
 3927              		.loc 1 1408 1 is_stmt 1 view -0
 3928              		.cfi_startproc
 3929              		@ args = 0, pretend = 0, frame = 8
 3930              		@ frame_needed = 0, uses_anonymous_args = 0
 3931              		.loc 1 1408 1 is_stmt 0 view .LVU947
 3932 0000 30B5     		push	{r4, r5, lr}
 3933              	.LCFI96:
 3934              		.cfi_def_cfa_offset 12
 3935              		.cfi_offset 4, -12
 3936              		.cfi_offset 5, -8
 3937              		.cfi_offset 14, -4
 3938 0002 83B0     		sub	sp, sp, #12
 3939              	.LCFI97:
 3940              		.cfi_def_cfa_offset 24
 3941 0004 0C00     		movs	r4, r1
1409:Inc/lis3dh_reg.c ****   lis3dh_int2_ths_t int2_ths;
 3942              		.loc 1 1409 3 is_stmt 1 view .LVU948
1410:Inc/lis3dh_reg.c ****   int32_t ret;
 3943              		.loc 1 1410 3 view .LVU949
1411:Inc/lis3dh_reg.c **** 
1412:Inc/lis3dh_reg.c ****   ret = lis3dh_read_reg(ctx, LIS3DH_INT2_THS, (uint8_t *)&int2_ths, 1);
 3944              		.loc 1 1412 3 view .LVU950
 3945              		.loc 1 1412 9 is_stmt 0 view .LVU951
 3946 0006 01AD     		add	r5, sp, #4
 3947 0008 0123     		movs	r3, #1
 3948 000a 2A00     		movs	r2, r5
 3949 000c 3621     		movs	r1, #54
ARM GAS  /tmp/ccT3btxY.s 			page 97


 3950              	.LVL296:
 3951              		.loc 1 1412 9 view .LVU952
 3952 000e FFF7FEFF 		bl	lis3dh_read_reg
 3953              	.LVL297:
1413:Inc/lis3dh_reg.c ****   *val = (uint8_t)int2_ths.ths;
 3954              		.loc 1 1413 3 is_stmt 1 view .LVU953
 3955              		.loc 1 1413 27 is_stmt 0 view .LVU954
 3956 0012 2B78     		ldrb	r3, [r5]
 3957 0014 5B06     		lsls	r3, r3, #25
 3958 0016 5B0E     		lsrs	r3, r3, #25
 3959              		.loc 1 1413 8 view .LVU955
 3960 0018 2370     		strb	r3, [r4]
1414:Inc/lis3dh_reg.c **** 
1415:Inc/lis3dh_reg.c ****   return ret;
 3961              		.loc 1 1415 3 is_stmt 1 view .LVU956
1416:Inc/lis3dh_reg.c **** }
 3962              		.loc 1 1416 1 is_stmt 0 view .LVU957
 3963 001a 03B0     		add	sp, sp, #12
 3964              		@ sp needed
 3965              	.LVL298:
 3966              		.loc 1 1416 1 view .LVU958
 3967 001c 30BD     		pop	{r4, r5, pc}
 3968              		.cfi_endproc
 3969              	.LFE62:
 3971              		.section	.text.lis3dh_int2_gen_duration_set,"ax",%progbits
 3972              		.align	1
 3973              		.global	lis3dh_int2_gen_duration_set
 3974              		.syntax unified
 3975              		.code	16
 3976              		.thumb_func
 3977              		.fpu softvfp
 3979              	lis3dh_int2_gen_duration_set:
 3980              	.LVL299:
 3981              	.LFB63:
1417:Inc/lis3dh_reg.c **** 
1418:Inc/lis3dh_reg.c **** /**
1419:Inc/lis3dh_reg.c ****   * @brief  The minimum duration (LSb = 1/ODR) of the Interrupt 1 event to be
1420:Inc/lis3dh_reg.c ****   *         recognized .[set]
1421:Inc/lis3dh_reg.c ****   *
1422:Inc/lis3dh_reg.c ****   * @param  ctx      read / write interface definitions
1423:Inc/lis3dh_reg.c ****   * @param  val      change the values of d in reg INT2_DURATION
1424:Inc/lis3dh_reg.c ****   * @retval          interface status (MANDATORY: return 0 -> no Error)
1425:Inc/lis3dh_reg.c ****   *
1426:Inc/lis3dh_reg.c ****   */
1427:Inc/lis3dh_reg.c **** int32_t lis3dh_int2_gen_duration_set(stmdev_ctx_t *ctx, uint8_t val)
1428:Inc/lis3dh_reg.c **** {
 3982              		.loc 1 1428 1 is_stmt 1 view -0
 3983              		.cfi_startproc
 3984              		@ args = 0, pretend = 0, frame = 8
 3985              		@ frame_needed = 0, uses_anonymous_args = 0
 3986              		.loc 1 1428 1 is_stmt 0 view .LVU960
 3987 0000 30B5     		push	{r4, r5, lr}
 3988              	.LCFI98:
 3989              		.cfi_def_cfa_offset 12
 3990              		.cfi_offset 4, -12
 3991              		.cfi_offset 5, -8
 3992              		.cfi_offset 14, -4
ARM GAS  /tmp/ccT3btxY.s 			page 98


 3993 0002 83B0     		sub	sp, sp, #12
 3994              	.LCFI99:
 3995              		.cfi_def_cfa_offset 24
 3996 0004 0400     		movs	r4, r0
 3997 0006 0D00     		movs	r5, r1
1429:Inc/lis3dh_reg.c ****   lis3dh_int2_duration_t int2_duration;
 3998              		.loc 1 1429 3 is_stmt 1 view .LVU961
1430:Inc/lis3dh_reg.c ****   int32_t ret;
 3999              		.loc 1 1430 3 view .LVU962
1431:Inc/lis3dh_reg.c **** 
1432:Inc/lis3dh_reg.c ****   ret = lis3dh_read_reg(ctx, LIS3DH_INT2_DURATION,
 4000              		.loc 1 1432 3 view .LVU963
 4001              		.loc 1 1432 9 is_stmt 0 view .LVU964
 4002 0008 0123     		movs	r3, #1
 4003 000a 01AA     		add	r2, sp, #4
 4004 000c 3721     		movs	r1, #55
 4005              	.LVL300:
 4006              		.loc 1 1432 9 view .LVU965
 4007 000e FFF7FEFF 		bl	lis3dh_read_reg
 4008              	.LVL301:
1433:Inc/lis3dh_reg.c ****                         (uint8_t *)&int2_duration, 1);
1434:Inc/lis3dh_reg.c **** 
1435:Inc/lis3dh_reg.c ****   if (ret == 0)
 4009              		.loc 1 1435 3 is_stmt 1 view .LVU966
 4010              		.loc 1 1435 6 is_stmt 0 view .LVU967
 4011 0012 0028     		cmp	r0, #0
 4012 0014 01D0     		beq	.L171
 4013              	.L169:
1436:Inc/lis3dh_reg.c ****   {
1437:Inc/lis3dh_reg.c ****     int2_duration.d = val;
1438:Inc/lis3dh_reg.c ****     ret = lis3dh_write_reg(ctx, LIS3DH_INT2_DURATION,
1439:Inc/lis3dh_reg.c ****                            (uint8_t *)&int2_duration, 1);
1440:Inc/lis3dh_reg.c ****   }
1441:Inc/lis3dh_reg.c **** 
1442:Inc/lis3dh_reg.c ****   return ret;
1443:Inc/lis3dh_reg.c **** }
 4014              		.loc 1 1443 1 view .LVU968
 4015 0016 03B0     		add	sp, sp, #12
 4016              		@ sp needed
 4017              	.LVL302:
 4018              		.loc 1 1443 1 view .LVU969
 4019 0018 30BD     		pop	{r4, r5, pc}
 4020              	.LVL303:
 4021              	.L171:
1437:Inc/lis3dh_reg.c ****     ret = lis3dh_write_reg(ctx, LIS3DH_INT2_DURATION,
 4022              		.loc 1 1437 5 is_stmt 1 view .LVU970
1437:Inc/lis3dh_reg.c ****     ret = lis3dh_write_reg(ctx, LIS3DH_INT2_DURATION,
 4023              		.loc 1 1437 21 is_stmt 0 view .LVU971
 4024 001a 7F22     		movs	r2, #127
 4025 001c 2A40     		ands	r2, r5
 4026 001e 6B46     		mov	r3, sp
 4027 0020 1B79     		ldrb	r3, [r3, #4]
 4028 0022 7F21     		movs	r1, #127
 4029 0024 8B43     		bics	r3, r1
 4030 0026 1343     		orrs	r3, r2
 4031 0028 6A46     		mov	r2, sp
 4032 002a 1371     		strb	r3, [r2, #4]
ARM GAS  /tmp/ccT3btxY.s 			page 99


1438:Inc/lis3dh_reg.c ****                            (uint8_t *)&int2_duration, 1);
 4033              		.loc 1 1438 5 is_stmt 1 view .LVU972
1438:Inc/lis3dh_reg.c ****                            (uint8_t *)&int2_duration, 1);
 4034              		.loc 1 1438 11 is_stmt 0 view .LVU973
 4035 002c 0123     		movs	r3, #1
 4036 002e 01AA     		add	r2, sp, #4
 4037 0030 4839     		subs	r1, r1, #72
 4038 0032 2000     		movs	r0, r4
 4039              	.LVL304:
1438:Inc/lis3dh_reg.c ****                            (uint8_t *)&int2_duration, 1);
 4040              		.loc 1 1438 11 view .LVU974
 4041 0034 FFF7FEFF 		bl	lis3dh_write_reg
 4042              	.LVL305:
1442:Inc/lis3dh_reg.c **** }
 4043              		.loc 1 1442 3 is_stmt 1 view .LVU975
1442:Inc/lis3dh_reg.c **** }
 4044              		.loc 1 1442 10 is_stmt 0 view .LVU976
 4045 0038 EDE7     		b	.L169
 4046              		.cfi_endproc
 4047              	.LFE63:
 4049              		.section	.text.lis3dh_int2_gen_duration_get,"ax",%progbits
 4050              		.align	1
 4051              		.global	lis3dh_int2_gen_duration_get
 4052              		.syntax unified
 4053              		.code	16
 4054              		.thumb_func
 4055              		.fpu softvfp
 4057              	lis3dh_int2_gen_duration_get:
 4058              	.LVL306:
 4059              	.LFB64:
1444:Inc/lis3dh_reg.c **** 
1445:Inc/lis3dh_reg.c **** /**
