ARM GAS  /tmp/ccVirEur.s 			page 1


   1              		.cpu cortex-m0
   2              		.eabi_attribute 20, 1
   3              		.eabi_attribute 21, 1
   4              		.eabi_attribute 23, 3
   5              		.eabi_attribute 24, 1
   6              		.eabi_attribute 25, 1
   7              		.eabi_attribute 26, 1
   8              		.eabi_attribute 30, 1
   9              		.eabi_attribute 34, 0
  10              		.eabi_attribute 18, 4
  11              		.file	"main.c"
  12              		.text
  13              	.Ltext0:
  14              		.cfi_sections	.debug_frame
  15              		.section	.text.tx_com,"ax",%progbits
  16              		.align	1
  17              		.arch armv6s-m
  18              		.syntax unified
  19              		.code	16
  20              		.thumb_func
  21              		.fpu softvfp
  23              	tx_com:
  24              	.LVL0:
  25              	.LFB47:
  26              		.file 1 "Src/main.c"
   1:Src/main.c    **** /* USER CODE BEGIN Header */
   2:Src/main.c    **** /**
   3:Src/main.c    ****   ******************************************************************************
   4:Src/main.c    ****   * @file           : main.c
   5:Src/main.c    ****   * @brief          : Main program body
   6:Src/main.c    ****   ******************************************************************************
   7:Src/main.c    ****   * @attention
   8:Src/main.c    ****   *
   9:Src/main.c    ****   * <h2><center>&copy; Copyright (c) 2020 STMicroelectronics.
  10:Src/main.c    ****   * All rights reserved.</center></h2>
  11:Src/main.c    ****   *
  12:Src/main.c    ****   * This software component is licensed by ST under Ultimate Liberty license
  13:Src/main.c    ****   * SLA0044, the "License"; You may not use this file except in compliance with
  14:Src/main.c    ****   * the License. You may obtain a copy of the License at:
  15:Src/main.c    ****   *                             www.st.com/SLA0044
  16:Src/main.c    ****   *
  17:Src/main.c    ****   ******************************************************************************
  18:Src/main.c    ****   */
  19:Src/main.c    **** /* USER CODE END Header */
  20:Src/main.c    **** /* Includes ------------------------------------------------------------------*/
  21:Src/main.c    **** #include "main.h"
  22:Src/main.c    **** #include "usb_device.h"
  23:Src/main.c    **** 
  24:Src/main.c    **** /* Private includes ----------------------------------------------------------*/
  25:Src/main.c    **** /* USER CODE BEGIN Includes */
  26:Src/main.c    **** #include "lis3dh_reg.h"      
  27:Src/main.c    **** 
  28:Src/main.c    **** /* USER CODE END Includes */
  29:Src/main.c    **** 
  30:Src/main.c    **** /* Private typedef -----------------------------------------------------------*/
  31:Src/main.c    **** /* USER CODE BEGIN PTD */
  32:Src/main.c    **** 
ARM GAS  /tmp/ccVirEur.s 			page 2


  33:Src/main.c    **** /* USER CODE END PTD */
  34:Src/main.c    **** 
  35:Src/main.c    **** /* Private define ------------------------------------------------------------*/
  36:Src/main.c    **** /* USER CODE BEGIN PD */
  37:Src/main.c    **** static int16_t data_raw_acceleration[3];
  38:Src/main.c    **** static int16_t data_raw_temperature;
  39:Src/main.c    **** static float acceleration_mg[3];
  40:Src/main.c    **** static float temperature_degC;
  41:Src/main.c    **** static uint8_t whoamI;
  42:Src/main.c    **** static uint8_t tx_buffer[1000];
  43:Src/main.c    **** 
  44:Src/main.c    **** #define SENSOR_BUS hi2c1
  45:Src/main.c    **** 
  46:Src/main.c    **** static int32_t platform_write(void *handle, uint8_t reg, const uint8_t *bufp,
  47:Src/main.c    ****                               uint16_t len);
  48:Src/main.c    **** static int32_t platform_read(void *handle, uint8_t reg, uint8_t *bufp,
  49:Src/main.c    ****                              uint16_t len);
  50:Src/main.c    **** static void tx_com(uint8_t *tx_buffer, uint16_t len);
  51:Src/main.c    **** 
  52:Src/main.c    **** static void lis3dh_read_data_polling(void);
  53:Src/main.c    **** /* USER CODE END PD */
  54:Src/main.c    **** 
  55:Src/main.c    **** /* Private macro -------------------------------------------------------------*/
  56:Src/main.c    **** /* USER CODE BEGIN PM */
  57:Src/main.c    **** 
  58:Src/main.c    **** /* USER CODE END PM */
  59:Src/main.c    **** 
  60:Src/main.c    **** /* Private variables ---------------------------------------------------------*/
  61:Src/main.c    **** I2C_HandleTypeDef hi2c1;
  62:Src/main.c    **** 
  63:Src/main.c    **** /* USER CODE BEGIN PV */
  64:Src/main.c    **** 
  65:Src/main.c    **** /* USER CODE END PV */
  66:Src/main.c    **** 
  67:Src/main.c    **** /* Private function prototypes -----------------------------------------------*/
  68:Src/main.c    **** void SystemClock_Config(void);
  69:Src/main.c    **** static void MX_GPIO_Init(void);
  70:Src/main.c    **** static void MX_I2C1_Init(void);
  71:Src/main.c    **** /* USER CODE BEGIN PFP */
  72:Src/main.c    **** void singleMatrix(int, int);
  73:Src/main.c    **** 
  74:Src/main.c    **** /* USER CODE END PFP */
  75:Src/main.c    **** 
  76:Src/main.c    **** /* Private user code ---------------------------------------------------------*/
  77:Src/main.c    **** /* USER CODE BEGIN 0 */
  78:Src/main.c    **** 
  79:Src/main.c    **** /* USER CODE END 0 */
  80:Src/main.c    **** 
  81:Src/main.c    **** /**
  82:Src/main.c    ****   * @brief  The application entry point.
  83:Src/main.c    ****   * @retval int
  84:Src/main.c    ****   */
  85:Src/main.c    **** int main(void)
  86:Src/main.c    **** {
  87:Src/main.c    ****   /* USER CODE BEGIN 1 */
  88:Src/main.c    **** 
  89:Src/main.c    ****   /* USER CODE END 1 */
ARM GAS  /tmp/ccVirEur.s 			page 3


  90:Src/main.c    **** 
  91:Src/main.c    ****   /* MCU Configuration--------------------------------------------------------*/
  92:Src/main.c    **** 
  93:Src/main.c    ****   /* Reset of all peripherals, Initializes the Flash interface and the Systick. */
  94:Src/main.c    ****   HAL_Init();
  95:Src/main.c    **** 
  96:Src/main.c    ****   /* USER CODE BEGIN Init */
  97:Src/main.c    **** //   uint8_t *data = "Hello World from USB CDC\n";
  98:Src/main.c    **** 
  99:Src/main.c    **** 
 100:Src/main.c    ****   /* USER CODE END Init */
 101:Src/main.c    **** 
 102:Src/main.c    ****   /* Configure the system clock */
 103:Src/main.c    ****   SystemClock_Config();
 104:Src/main.c    **** 
 105:Src/main.c    ****   /* USER CODE BEGIN SysInit */
 106:Src/main.c    **** 
 107:Src/main.c    ****   /* USER CODE END SysInit */
 108:Src/main.c    **** 
 109:Src/main.c    ****   /* Initialize all configured peripherals */
 110:Src/main.c    ****   MX_GPIO_Init();
 111:Src/main.c    ****   MX_I2C1_Init();
 112:Src/main.c    ****   MX_USB_DEVICE_Init();
 113:Src/main.c    ****   /* USER CODE BEGIN 2 */
 114:Src/main.c    **** uint8_t Space[] = " - ";
 115:Src/main.c    **** uint8_t StartMSG[] = "Starting I2C Scanning: \r\n";
 116:Src/main.c    **** uint8_t EndMSG[] = "Done! \r\n\r\n";
 117:Src/main.c    **** uint8_t Buffer[25] = {0};
 118:Src/main.c    **** 
 119:Src/main.c    **** 
 120:Src/main.c    ****   /* USER CODE END 2 */
 121:Src/main.c    **** 
 122:Src/main.c    ****   /* Infinite loop */
 123:Src/main.c    ****   /* USER CODE BEGIN WHILE */
 124:Src/main.c    ****   while (1)
 125:Src/main.c    ****   {
 126:Src/main.c    **** //     CDC_Transmit_FS(data, strlen(data));
 127:Src/main.c    **** if(HAL_GPIO_ReadPin(GPIOA, GPIO_PIN_9) == 0)
 128:Src/main.c    **** {
 129:Src/main.c    ****    lis3dh_read_data_polling();
 130:Src/main.c    **** uint8_t ret;
 131:Src/main.c    **** 
 132:Src/main.c    ****   for(uint8_t i=1; i<128; i++)
 133:Src/main.c    ****     {
 134:Src/main.c    ****     	ret = HAL_I2C_IsDeviceReady(&hi2c1, (uint16_t)(i<<1), 3, 5);
 135:Src/main.c    ****     	if (ret != HAL_OK) /* No ACK Received At That Address */
 136:Src/main.c    ****     	{
 137:Src/main.c    ****     	    CDC_Transmit_FS(Space, sizeof(Space));
 138:Src/main.c    ****         }
 139:Src/main.c    ****     	else if(ret == HAL_OK)
 140:Src/main.c    ****     	{
 141:Src/main.c    ****     	    sprintf(Buffer, "0x%X", i);
 142:Src/main.c    ****     	    CDC_Transmit_FS(Buffer, sizeof(Buffer));
 143:Src/main.c    ****     	}
 144:Src/main.c    ****     }
 145:Src/main.c    ****     CDC_Transmit_FS(EndMSG, sizeof(EndMSG));
 146:Src/main.c    ****     /*--[ Scanning Done ]--*/
ARM GAS  /tmp/ccVirEur.s 			page 4


 147:Src/main.c    **** }
 148:Src/main.c    **** 
 149:Src/main.c    ****     /* USER CODE END WHILE */
 150:Src/main.c    **** 
 151:Src/main.c    ****     /* USER CODE BEGIN 3 */
 152:Src/main.c    ****   }
 153:Src/main.c    ****   /* USER CODE END 3 */
 154:Src/main.c    **** }
 155:Src/main.c    **** 
 156:Src/main.c    **** /**
 157:Src/main.c    ****   * @brief System Clock Configuration
 158:Src/main.c    ****   * @retval None
 159:Src/main.c    ****   */
 160:Src/main.c    **** void SystemClock_Config(void)
 161:Src/main.c    **** {
 162:Src/main.c    ****   RCC_OscInitTypeDef RCC_OscInitStruct = {0};
 163:Src/main.c    ****   RCC_ClkInitTypeDef RCC_ClkInitStruct = {0};
 164:Src/main.c    ****   RCC_PeriphCLKInitTypeDef PeriphClkInit = {0};
 165:Src/main.c    **** 
 166:Src/main.c    ****   /** Initializes the RCC Oscillators according to the specified parameters
 167:Src/main.c    ****   * in the RCC_OscInitTypeDef structure.
 168:Src/main.c    ****   */
 169:Src/main.c    ****   RCC_OscInitStruct.OscillatorType = RCC_OSCILLATORTYPE_HSI|RCC_OSCILLATORTYPE_HSI48;
 170:Src/main.c    ****   RCC_OscInitStruct.HSIState = RCC_HSI_ON;
 171:Src/main.c    ****   RCC_OscInitStruct.HSI48State = RCC_HSI48_ON;
 172:Src/main.c    ****   RCC_OscInitStruct.HSICalibrationValue = RCC_HSICALIBRATION_DEFAULT;
 173:Src/main.c    ****   RCC_OscInitStruct.PLL.PLLState = RCC_PLL_NONE;
 174:Src/main.c    ****   if (HAL_RCC_OscConfig(&RCC_OscInitStruct) != HAL_OK)
 175:Src/main.c    ****   {
 176:Src/main.c    ****     Error_Handler();
 177:Src/main.c    ****   }
 178:Src/main.c    ****   /** Initializes the CPU, AHB and APB buses clocks
 179:Src/main.c    ****   */
 180:Src/main.c    ****   RCC_ClkInitStruct.ClockType = RCC_CLOCKTYPE_HCLK|RCC_CLOCKTYPE_SYSCLK
 181:Src/main.c    ****                               |RCC_CLOCKTYPE_PCLK1;
 182:Src/main.c    ****   RCC_ClkInitStruct.SYSCLKSource = RCC_SYSCLKSOURCE_HSI48;
 183:Src/main.c    ****   RCC_ClkInitStruct.AHBCLKDivider = RCC_SYSCLK_DIV1;
 184:Src/main.c    ****   RCC_ClkInitStruct.APB1CLKDivider = RCC_HCLK_DIV1;
 185:Src/main.c    **** 
 186:Src/main.c    ****   if (HAL_RCC_ClockConfig(&RCC_ClkInitStruct, FLASH_LATENCY_1) != HAL_OK)
 187:Src/main.c    ****   {
 188:Src/main.c    ****     Error_Handler();
 189:Src/main.c    ****   }
 190:Src/main.c    ****   PeriphClkInit.PeriphClockSelection = RCC_PERIPHCLK_USB|RCC_PERIPHCLK_I2C1;
 191:Src/main.c    ****   PeriphClkInit.I2c1ClockSelection = RCC_I2C1CLKSOURCE_HSI;
 192:Src/main.c    ****   PeriphClkInit.UsbClockSelection = RCC_USBCLKSOURCE_HSI48;
 193:Src/main.c    **** 
 194:Src/main.c    ****   if (HAL_RCCEx_PeriphCLKConfig(&PeriphClkInit) != HAL_OK)
 195:Src/main.c    ****   {
 196:Src/main.c    ****     Error_Handler();
 197:Src/main.c    ****   }
 198:Src/main.c    **** }
 199:Src/main.c    **** 
 200:Src/main.c    **** /**
 201:Src/main.c    ****   * @brief I2C1 Initialization Function
 202:Src/main.c    ****   * @param None
 203:Src/main.c    ****   * @retval None
ARM GAS  /tmp/ccVirEur.s 			page 5


 204:Src/main.c    ****   */
 205:Src/main.c    **** static void MX_I2C1_Init(void)
 206:Src/main.c    **** {
 207:Src/main.c    **** 
 208:Src/main.c    ****   /* USER CODE BEGIN I2C1_Init 0 */
 209:Src/main.c    **** 
 210:Src/main.c    ****   /* USER CODE END I2C1_Init 0 */
 211:Src/main.c    **** 
 212:Src/main.c    ****   /* USER CODE BEGIN I2C1_Init 1 */
 213:Src/main.c    **** 
 214:Src/main.c    ****   /* USER CODE END I2C1_Init 1 */
 215:Src/main.c    ****   hi2c1.Instance = I2C1;
 216:Src/main.c    ****   hi2c1.Init.Timing = 0x2000090E;
 217:Src/main.c    ****   hi2c1.Init.OwnAddress1 = 0;
 218:Src/main.c    ****   hi2c1.Init.AddressingMode = I2C_ADDRESSINGMODE_7BIT;
 219:Src/main.c    ****   hi2c1.Init.DualAddressMode = I2C_DUALADDRESS_DISABLE;
 220:Src/main.c    ****   hi2c1.Init.OwnAddress2 = 0;
 221:Src/main.c    ****   hi2c1.Init.OwnAddress2Masks = I2C_OA2_NOMASK;
 222:Src/main.c    ****   hi2c1.Init.GeneralCallMode = I2C_GENERALCALL_DISABLE;
 223:Src/main.c    ****   hi2c1.Init.NoStretchMode = I2C_NOSTRETCH_DISABLE;
 224:Src/main.c    ****   if (HAL_I2C_Init(&hi2c1) != HAL_OK)
 225:Src/main.c    ****   {
 226:Src/main.c    ****     Error_Handler();
 227:Src/main.c    ****   }
 228:Src/main.c    ****   /** Configure Analogue filter
 229:Src/main.c    ****   */
 230:Src/main.c    ****   if (HAL_I2CEx_ConfigAnalogFilter(&hi2c1, I2C_ANALOGFILTER_ENABLE) != HAL_OK)
 231:Src/main.c    ****   {
 232:Src/main.c    ****     Error_Handler();
 233:Src/main.c    ****   }
 234:Src/main.c    ****   /** Configure Digital filter
 235:Src/main.c    ****   */
 236:Src/main.c    ****   if (HAL_I2CEx_ConfigDigitalFilter(&hi2c1, 0) != HAL_OK)
 237:Src/main.c    ****   {
 238:Src/main.c    ****     Error_Handler();
 239:Src/main.c    ****   }
 240:Src/main.c    ****   /* USER CODE BEGIN I2C1_Init 2 */
 241:Src/main.c    **** 
 242:Src/main.c    ****   /* USER CODE END I2C1_Init 2 */
 243:Src/main.c    **** 
 244:Src/main.c    **** }
 245:Src/main.c    **** 
 246:Src/main.c    **** /**
 247:Src/main.c    ****   * @brief GPIO Initialization Function
 248:Src/main.c    ****   * @param None
 249:Src/main.c    ****   * @retval None
 250:Src/main.c    ****   */
 251:Src/main.c    **** static void MX_GPIO_Init(void)
 252:Src/main.c    **** {
 253:Src/main.c    ****   GPIO_InitTypeDef GPIO_InitStruct = {0};
 254:Src/main.c    **** 
 255:Src/main.c    ****   /* GPIO Ports Clock Enable */
 256:Src/main.c    ****   __HAL_RCC_GPIOC_CLK_ENABLE();
 257:Src/main.c    ****   __HAL_RCC_GPIOA_CLK_ENABLE();
 258:Src/main.c    ****   __HAL_RCC_GPIOB_CLK_ENABLE();
 259:Src/main.c    **** 
 260:Src/main.c    ****   /*Configure GPIO pin Output Level */
ARM GAS  /tmp/ccVirEur.s 			page 6


 261:Src/main.c    ****   HAL_GPIO_WritePin(GPIOC, C4_Pin|C3_Pin|C2_Pin, GPIO_PIN_RESET);
 262:Src/main.c    **** 
 263:Src/main.c    ****   /*Configure GPIO pin Output Level */
 264:Src/main.c    ****   HAL_GPIO_WritePin(GPIOA, C1_Pin|R9_Pin|R8_Pin|R7_Pin
 265:Src/main.c    ****                           |R6_Pin|R5_Pin|R4_Pin|R3_Pin, GPIO_PIN_RESET);
 266:Src/main.c    **** 
 267:Src/main.c    ****   /*Configure GPIO pin Output Level */
 268:Src/main.c    ****   HAL_GPIO_WritePin(GPIOB, R2_Pin|R1_Pin|S4_Pin|S3_Pin
 269:Src/main.c    ****                           |S2_Pin|S1_Pin|C9_Pin|C8_Pin
 270:Src/main.c    ****                           |C7_Pin|GPIO_PIN_8|GPIO_PIN_9, GPIO_PIN_RESET);
 271:Src/main.c    **** 
 272:Src/main.c    ****   /*Configure GPIO pins : C4_Pin C3_Pin C2_Pin */
 273:Src/main.c    ****   GPIO_InitStruct.Pin = C4_Pin|C3_Pin|C2_Pin;
 274:Src/main.c    ****   GPIO_InitStruct.Mode = GPIO_MODE_OUTPUT_PP;
 275:Src/main.c    ****   GPIO_InitStruct.Pull = GPIO_NOPULL;
 276:Src/main.c    ****   GPIO_InitStruct.Speed = GPIO_SPEED_FREQ_LOW;
 277:Src/main.c    ****   HAL_GPIO_Init(GPIOC, &GPIO_InitStruct);
 278:Src/main.c    **** 
 279:Src/main.c    ****   /*Configure GPIO pins : C1_Pin R9_Pin R8_Pin R7_Pin
 280:Src/main.c    ****                            R6_Pin R5_Pin R4_Pin R3_Pin */
 281:Src/main.c    ****   GPIO_InitStruct.Pin = C1_Pin|R9_Pin|R8_Pin|R7_Pin
 282:Src/main.c    ****                           |R6_Pin|R5_Pin|R4_Pin|R3_Pin;
 283:Src/main.c    ****   GPIO_InitStruct.Mode = GPIO_MODE_OUTPUT_PP;
 284:Src/main.c    ****   GPIO_InitStruct.Pull = GPIO_NOPULL;
 285:Src/main.c    ****   GPIO_InitStruct.Speed = GPIO_SPEED_FREQ_LOW;
 286:Src/main.c    ****   HAL_GPIO_Init(GPIOA, &GPIO_InitStruct);
 287:Src/main.c    **** 
 288:Src/main.c    ****   /*Configure GPIO pins : R2_Pin R1_Pin S4_Pin S3_Pin
 289:Src/main.c    ****                            S2_Pin S1_Pin C9_Pin C8_Pin
 290:Src/main.c    ****                            C7_Pin PB8 PB9 */
 291:Src/main.c    ****   GPIO_InitStruct.Pin = R2_Pin|R1_Pin|S4_Pin|S3_Pin
 292:Src/main.c    ****                           |S2_Pin|S1_Pin|C9_Pin|C8_Pin
 293:Src/main.c    ****                           |C7_Pin|GPIO_PIN_8|GPIO_PIN_9;
 294:Src/main.c    ****   GPIO_InitStruct.Mode = GPIO_MODE_OUTPUT_PP;
 295:Src/main.c    ****   GPIO_InitStruct.Pull = GPIO_NOPULL;
 296:Src/main.c    ****   GPIO_InitStruct.Speed = GPIO_SPEED_FREQ_LOW;
 297:Src/main.c    ****   HAL_GPIO_Init(GPIOB, &GPIO_InitStruct);
 298:Src/main.c    **** 
 299:Src/main.c    ****   /*Configure GPIO pin : Mode_IN_Pin */
 300:Src/main.c    ****   GPIO_InitStruct.Pin = Mode_IN_Pin;
 301:Src/main.c    ****   GPIO_InitStruct.Mode = GPIO_MODE_INPUT;
 302:Src/main.c    ****   GPIO_InitStruct.Pull = GPIO_PULLUP;
 303:Src/main.c    ****   HAL_GPIO_Init(Mode_IN_GPIO_Port, &GPIO_InitStruct);
 304:Src/main.c    **** 
 305:Src/main.c    **** }
 306:Src/main.c    **** 
 307:Src/main.c    **** /* USER CODE BEGIN 4 */
 308:Src/main.c    **** 
 309:Src/main.c    **** static void tx_com(uint8_t *tx_buffer, uint16_t len){
  27              		.loc 1 309 53 view -0
  28              		.cfi_startproc
  29              		@ args = 0, pretend = 0, frame = 0
  30              		@ frame_needed = 0, uses_anonymous_args = 0
  31              		.loc 1 309 53 is_stmt 0 view .LVU1
  32 0000 10B5     		push	{r4, lr}
  33              	.LCFI0:
  34              		.cfi_def_cfa_offset 8
ARM GAS  /tmp/ccVirEur.s 			page 7


  35              		.cfi_offset 4, -8
  36              		.cfi_offset 14, -4
 310:Src/main.c    **** //  HAL_UART_Transmit(&huart2, tx_buffer, len, 1000);
 311:Src/main.c    ****    CDC_Transmit_FS(tx_buffer, len);
  37              		.loc 1 311 4 is_stmt 1 view .LVU2
  38 0002 FFF7FEFF 		bl	CDC_Transmit_FS
  39              	.LVL1:
 312:Src/main.c    **** }
  40              		.loc 1 312 1 is_stmt 0 view .LVU3
  41              		@ sp needed
  42 0006 10BD     		pop	{r4, pc}
  43              		.cfi_endproc
  44              	.LFE47:
  46              		.section	.text.MX_GPIO_Init,"ax",%progbits
  47              		.align	1
  48              		.syntax unified
  49              		.code	16
  50              		.thumb_func
  51              		.fpu softvfp
  53              	MX_GPIO_Init:
  54              	.LFB46:
 252:Src/main.c    ****   GPIO_InitTypeDef GPIO_InitStruct = {0};
  55              		.loc 1 252 1 is_stmt 1 view -0
  56              		.cfi_startproc
  57              		@ args = 0, pretend = 0, frame = 32
  58              		@ frame_needed = 0, uses_anonymous_args = 0
  59 0000 F0B5     		push	{r4, r5, r6, r7, lr}
  60              	.LCFI1:
  61              		.cfi_def_cfa_offset 20
  62              		.cfi_offset 4, -20
  63              		.cfi_offset 5, -16
  64              		.cfi_offset 6, -12
  65              		.cfi_offset 7, -8
  66              		.cfi_offset 14, -4
  67 0002 CE46     		mov	lr, r9
  68 0004 4746     		mov	r7, r8
  69 0006 80B5     		push	{r7, lr}
  70              	.LCFI2:
  71              		.cfi_def_cfa_offset 28
  72              		.cfi_offset 8, -28
  73              		.cfi_offset 9, -24
  74 0008 89B0     		sub	sp, sp, #36
  75              	.LCFI3:
  76              		.cfi_def_cfa_offset 64
 253:Src/main.c    **** 
  77              		.loc 1 253 3 view .LVU5
 253:Src/main.c    **** 
  78              		.loc 1 253 20 is_stmt 0 view .LVU6
  79 000a 1422     		movs	r2, #20
  80 000c 0021     		movs	r1, #0
  81 000e 03A8     		add	r0, sp, #12
  82 0010 FFF7FEFF 		bl	memset
  83              	.LVL2:
 256:Src/main.c    ****   __HAL_RCC_GPIOA_CLK_ENABLE();
  84              		.loc 1 256 3 is_stmt 1 view .LVU7
  85              	.LBB2:
 256:Src/main.c    ****   __HAL_RCC_GPIOA_CLK_ENABLE();
ARM GAS  /tmp/ccVirEur.s 			page 8


  86              		.loc 1 256 3 view .LVU8
 256:Src/main.c    ****   __HAL_RCC_GPIOA_CLK_ENABLE();
  87              		.loc 1 256 3 view .LVU9
  88 0014 2E4B     		ldr	r3, .L3
  89 0016 5A69     		ldr	r2, [r3, #20]
  90 0018 8021     		movs	r1, #128
  91 001a 0903     		lsls	r1, r1, #12
  92 001c 0A43     		orrs	r2, r1
  93 001e 5A61     		str	r2, [r3, #20]
 256:Src/main.c    ****   __HAL_RCC_GPIOA_CLK_ENABLE();
  94              		.loc 1 256 3 view .LVU10
  95 0020 5A69     		ldr	r2, [r3, #20]
  96 0022 0A40     		ands	r2, r1
  97 0024 0092     		str	r2, [sp]
 256:Src/main.c    ****   __HAL_RCC_GPIOA_CLK_ENABLE();
  98              		.loc 1 256 3 view .LVU11
  99 0026 009A     		ldr	r2, [sp]
 100              	.LBE2:
 256:Src/main.c    ****   __HAL_RCC_GPIOA_CLK_ENABLE();
 101              		.loc 1 256 3 view .LVU12
 257:Src/main.c    ****   __HAL_RCC_GPIOB_CLK_ENABLE();
 102              		.loc 1 257 3 view .LVU13
 103              	.LBB3:
 257:Src/main.c    ****   __HAL_RCC_GPIOB_CLK_ENABLE();
 104              		.loc 1 257 3 view .LVU14
 257:Src/main.c    ****   __HAL_RCC_GPIOB_CLK_ENABLE();
 105              		.loc 1 257 3 view .LVU15
 106 0028 5A69     		ldr	r2, [r3, #20]
 107 002a 8021     		movs	r1, #128
 108 002c 8902     		lsls	r1, r1, #10
 109 002e 0A43     		orrs	r2, r1
 110 0030 5A61     		str	r2, [r3, #20]
 257:Src/main.c    ****   __HAL_RCC_GPIOB_CLK_ENABLE();
 111              		.loc 1 257 3 view .LVU16
 112 0032 5A69     		ldr	r2, [r3, #20]
 113 0034 0A40     		ands	r2, r1
 114 0036 0192     		str	r2, [sp, #4]
 257:Src/main.c    ****   __HAL_RCC_GPIOB_CLK_ENABLE();
 115              		.loc 1 257 3 view .LVU17
 116 0038 019A     		ldr	r2, [sp, #4]
 117              	.LBE3:
 257:Src/main.c    ****   __HAL_RCC_GPIOB_CLK_ENABLE();
 118              		.loc 1 257 3 view .LVU18
 258:Src/main.c    **** 
 119              		.loc 1 258 3 view .LVU19
 120              	.LBB4:
 258:Src/main.c    **** 
 121              		.loc 1 258 3 view .LVU20
 258:Src/main.c    **** 
 122              		.loc 1 258 3 view .LVU21
 123 003a 5A69     		ldr	r2, [r3, #20]
 124 003c 8021     		movs	r1, #128
 125 003e C902     		lsls	r1, r1, #11
 126 0040 0A43     		orrs	r2, r1
 127 0042 5A61     		str	r2, [r3, #20]
 258:Src/main.c    **** 
 128              		.loc 1 258 3 view .LVU22
ARM GAS  /tmp/ccVirEur.s 			page 9


 129 0044 5B69     		ldr	r3, [r3, #20]
 130 0046 0B40     		ands	r3, r1
 131 0048 0293     		str	r3, [sp, #8]
 258:Src/main.c    **** 
 132              		.loc 1 258 3 view .LVU23
 133 004a 029B     		ldr	r3, [sp, #8]
 134              	.LBE4:
 258:Src/main.c    **** 
 135              		.loc 1 258 3 view .LVU24
 261:Src/main.c    **** 
 136              		.loc 1 261 3 view .LVU25
 137 004c E024     		movs	r4, #224
 138 004e 2402     		lsls	r4, r4, #8
 139 0050 204B     		ldr	r3, .L3+4
 140 0052 9946     		mov	r9, r3
 141 0054 0022     		movs	r2, #0
 142 0056 2100     		movs	r1, r4
 143 0058 1800     		movs	r0, r3
 144 005a FFF7FEFF 		bl	HAL_GPIO_WritePin
 145              	.LVL3:
 264:Src/main.c    ****                           |R6_Pin|R5_Pin|R4_Pin|R3_Pin, GPIO_PIN_RESET);
 146              		.loc 1 264 3 view .LVU26
 147 005e 9026     		movs	r6, #144
 148 0060 F605     		lsls	r6, r6, #23
 149 0062 0022     		movs	r2, #0
 150 0064 FF21     		movs	r1, #255
 151 0066 3000     		movs	r0, r6
 152 0068 FFF7FEFF 		bl	HAL_GPIO_WritePin
 153              	.LVL4:
 268:Src/main.c    ****                           |S2_Pin|S1_Pin|C9_Pin|C8_Pin
 154              		.loc 1 268 3 view .LVU27
 155 006c 1A4B     		ldr	r3, .L3+8
 156 006e 9846     		mov	r8, r3
 157 0070 1A4F     		ldr	r7, .L3+12
 158 0072 0022     		movs	r2, #0
 159 0074 1900     		movs	r1, r3
 160 0076 3800     		movs	r0, r7
 161 0078 FFF7FEFF 		bl	HAL_GPIO_WritePin
 162              	.LVL5:
 273:Src/main.c    ****   GPIO_InitStruct.Mode = GPIO_MODE_OUTPUT_PP;
 163              		.loc 1 273 3 view .LVU28
 273:Src/main.c    ****   GPIO_InitStruct.Mode = GPIO_MODE_OUTPUT_PP;
 164              		.loc 1 273 23 is_stmt 0 view .LVU29
 165 007c 0394     		str	r4, [sp, #12]
 274:Src/main.c    ****   GPIO_InitStruct.Pull = GPIO_NOPULL;
 166              		.loc 1 274 3 is_stmt 1 view .LVU30
 274:Src/main.c    ****   GPIO_InitStruct.Pull = GPIO_NOPULL;
 167              		.loc 1 274 24 is_stmt 0 view .LVU31
 168 007e 0125     		movs	r5, #1
 169 0080 0495     		str	r5, [sp, #16]
 275:Src/main.c    ****   GPIO_InitStruct.Speed = GPIO_SPEED_FREQ_LOW;
 170              		.loc 1 275 3 is_stmt 1 view .LVU32
 275:Src/main.c    ****   GPIO_InitStruct.Speed = GPIO_SPEED_FREQ_LOW;
 171              		.loc 1 275 24 is_stmt 0 view .LVU33
 172 0082 0024     		movs	r4, #0
 173 0084 0594     		str	r4, [sp, #20]
 276:Src/main.c    ****   HAL_GPIO_Init(GPIOC, &GPIO_InitStruct);
ARM GAS  /tmp/ccVirEur.s 			page 10


 174              		.loc 1 276 3 is_stmt 1 view .LVU34
 276:Src/main.c    ****   HAL_GPIO_Init(GPIOC, &GPIO_InitStruct);
 175              		.loc 1 276 25 is_stmt 0 view .LVU35
 176 0086 0694     		str	r4, [sp, #24]
 277:Src/main.c    **** 
 177              		.loc 1 277 3 is_stmt 1 view .LVU36
 178 0088 03A9     		add	r1, sp, #12
 179 008a 4846     		mov	r0, r9
 180 008c FFF7FEFF 		bl	HAL_GPIO_Init
 181              	.LVL6:
 281:Src/main.c    ****                           |R6_Pin|R5_Pin|R4_Pin|R3_Pin;
 182              		.loc 1 281 3 view .LVU37
 281:Src/main.c    ****                           |R6_Pin|R5_Pin|R4_Pin|R3_Pin;
 183              		.loc 1 281 23 is_stmt 0 view .LVU38
 184 0090 FF23     		movs	r3, #255
 185 0092 0393     		str	r3, [sp, #12]
 283:Src/main.c    ****   GPIO_InitStruct.Pull = GPIO_NOPULL;
 186              		.loc 1 283 3 is_stmt 1 view .LVU39
 283:Src/main.c    ****   GPIO_InitStruct.Pull = GPIO_NOPULL;
 187              		.loc 1 283 24 is_stmt 0 view .LVU40
 188 0094 0495     		str	r5, [sp, #16]
 284:Src/main.c    ****   GPIO_InitStruct.Speed = GPIO_SPEED_FREQ_LOW;
 189              		.loc 1 284 3 is_stmt 1 view .LVU41
 284:Src/main.c    ****   GPIO_InitStruct.Speed = GPIO_SPEED_FREQ_LOW;
 190              		.loc 1 284 24 is_stmt 0 view .LVU42
 191 0096 0594     		str	r4, [sp, #20]
 285:Src/main.c    ****   HAL_GPIO_Init(GPIOA, &GPIO_InitStruct);
 192              		.loc 1 285 3 is_stmt 1 view .LVU43
 285:Src/main.c    ****   HAL_GPIO_Init(GPIOA, &GPIO_InitStruct);
 193              		.loc 1 285 25 is_stmt 0 view .LVU44
 194 0098 0694     		str	r4, [sp, #24]
 286:Src/main.c    **** 
 195              		.loc 1 286 3 is_stmt 1 view .LVU45
 196 009a 03A9     		add	r1, sp, #12
 197 009c 3000     		movs	r0, r6
 198 009e FFF7FEFF 		bl	HAL_GPIO_Init
 199              	.LVL7:
 291:Src/main.c    ****                           |S2_Pin|S1_Pin|C9_Pin|C8_Pin
 200              		.loc 1 291 3 view .LVU46
 291:Src/main.c    ****                           |S2_Pin|S1_Pin|C9_Pin|C8_Pin
 201              		.loc 1 291 23 is_stmt 0 view .LVU47
 202 00a2 4346     		mov	r3, r8
 203 00a4 0393     		str	r3, [sp, #12]
 294:Src/main.c    ****   GPIO_InitStruct.Pull = GPIO_NOPULL;
 204              		.loc 1 294 3 is_stmt 1 view .LVU48
 294:Src/main.c    ****   GPIO_InitStruct.Pull = GPIO_NOPULL;
 205              		.loc 1 294 24 is_stmt 0 view .LVU49
 206 00a6 0495     		str	r5, [sp, #16]
 295:Src/main.c    ****   GPIO_InitStruct.Speed = GPIO_SPEED_FREQ_LOW;
 207              		.loc 1 295 3 is_stmt 1 view .LVU50
 295:Src/main.c    ****   GPIO_InitStruct.Speed = GPIO_SPEED_FREQ_LOW;
 208              		.loc 1 295 24 is_stmt 0 view .LVU51
 209 00a8 0594     		str	r4, [sp, #20]
 296:Src/main.c    ****   HAL_GPIO_Init(GPIOB, &GPIO_InitStruct);
 210              		.loc 1 296 3 is_stmt 1 view .LVU52
 296:Src/main.c    ****   HAL_GPIO_Init(GPIOB, &GPIO_InitStruct);
 211              		.loc 1 296 25 is_stmt 0 view .LVU53
ARM GAS  /tmp/ccVirEur.s 			page 11


 212 00aa 0694     		str	r4, [sp, #24]
 297:Src/main.c    **** 
 213              		.loc 1 297 3 is_stmt 1 view .LVU54
 214 00ac 03A9     		add	r1, sp, #12
 215 00ae 3800     		movs	r0, r7
 216 00b0 FFF7FEFF 		bl	HAL_GPIO_Init
 217              	.LVL8:
 300:Src/main.c    ****   GPIO_InitStruct.Mode = GPIO_MODE_INPUT;
 218              		.loc 1 300 3 view .LVU55
 300:Src/main.c    ****   GPIO_InitStruct.Mode = GPIO_MODE_INPUT;
 219              		.loc 1 300 23 is_stmt 0 view .LVU56
 220 00b4 8023     		movs	r3, #128
 221 00b6 9B00     		lsls	r3, r3, #2
 222 00b8 0393     		str	r3, [sp, #12]
 301:Src/main.c    ****   GPIO_InitStruct.Pull = GPIO_PULLUP;
 223              		.loc 1 301 3 is_stmt 1 view .LVU57
 301:Src/main.c    ****   GPIO_InitStruct.Pull = GPIO_PULLUP;
 224              		.loc 1 301 24 is_stmt 0 view .LVU58
 225 00ba 0494     		str	r4, [sp, #16]
 302:Src/main.c    ****   HAL_GPIO_Init(Mode_IN_GPIO_Port, &GPIO_InitStruct);
 226              		.loc 1 302 3 is_stmt 1 view .LVU59
 302:Src/main.c    ****   HAL_GPIO_Init(Mode_IN_GPIO_Port, &GPIO_InitStruct);
 227              		.loc 1 302 24 is_stmt 0 view .LVU60
 228 00bc 0595     		str	r5, [sp, #20]
 303:Src/main.c    **** 
 229              		.loc 1 303 3 is_stmt 1 view .LVU61
 230 00be 03A9     		add	r1, sp, #12
 231 00c0 3000     		movs	r0, r6
 232 00c2 FFF7FEFF 		bl	HAL_GPIO_Init
 233              	.LVL9:
 305:Src/main.c    **** 
 234              		.loc 1 305 1 is_stmt 0 view .LVU62
 235 00c6 09B0     		add	sp, sp, #36
 236              		@ sp needed
 237 00c8 C0BC     		pop	{r6, r7}
 238 00ca B946     		mov	r9, r7
 239 00cc B046     		mov	r8, r6
 240 00ce F0BD     		pop	{r4, r5, r6, r7, pc}
 241              	.L4:
 242              		.align	2
 243              	.L3:
 244 00d0 00100240 		.word	1073876992
 245 00d4 00080048 		.word	1207961600
 246 00d8 3F1F0000 		.word	7999
 247 00dc 00040048 		.word	1207960576
 248              		.cfi_endproc
 249              	.LFE46:
 251              		.section	.text.MX_I2C1_Init,"ax",%progbits
 252              		.align	1
 253              		.syntax unified
 254              		.code	16
 255              		.thumb_func
 256              		.fpu softvfp
 258              	MX_I2C1_Init:
 259              	.LFB45:
 206:Src/main.c    **** 
 260              		.loc 1 206 1 is_stmt 1 view -0
ARM GAS  /tmp/ccVirEur.s 			page 12


 261              		.cfi_startproc
 262              		@ args = 0, pretend = 0, frame = 0
 263              		@ frame_needed = 0, uses_anonymous_args = 0
 264 0000 10B5     		push	{r4, lr}
 265              	.LCFI4:
 266              		.cfi_def_cfa_offset 8
 267              		.cfi_offset 4, -8
 268              		.cfi_offset 14, -4
 215:Src/main.c    ****   hi2c1.Init.Timing = 0x2000090E;
 269              		.loc 1 215 3 view .LVU64
 215:Src/main.c    ****   hi2c1.Init.Timing = 0x2000090E;
 270              		.loc 1 215 18 is_stmt 0 view .LVU65
 271 0002 0D4C     		ldr	r4, .L6
 272 0004 0D4B     		ldr	r3, .L6+4
 273 0006 2360     		str	r3, [r4]
 216:Src/main.c    ****   hi2c1.Init.OwnAddress1 = 0;
 274              		.loc 1 216 3 is_stmt 1 view .LVU66
 216:Src/main.c    ****   hi2c1.Init.OwnAddress1 = 0;
 275              		.loc 1 216 21 is_stmt 0 view .LVU67
 276 0008 0D4B     		ldr	r3, .L6+8
 277 000a 6360     		str	r3, [r4, #4]
 217:Src/main.c    ****   hi2c1.Init.AddressingMode = I2C_ADDRESSINGMODE_7BIT;
 278              		.loc 1 217 3 is_stmt 1 view .LVU68
 217:Src/main.c    ****   hi2c1.Init.AddressingMode = I2C_ADDRESSINGMODE_7BIT;
 279              		.loc 1 217 26 is_stmt 0 view .LVU69
 280 000c 0023     		movs	r3, #0
 281 000e A360     		str	r3, [r4, #8]
 218:Src/main.c    ****   hi2c1.Init.DualAddressMode = I2C_DUALADDRESS_DISABLE;
 282              		.loc 1 218 3 is_stmt 1 view .LVU70
 218:Src/main.c    ****   hi2c1.Init.DualAddressMode = I2C_DUALADDRESS_DISABLE;
 283              		.loc 1 218 29 is_stmt 0 view .LVU71
 284 0010 0122     		movs	r2, #1
 285 0012 E260     		str	r2, [r4, #12]
 219:Src/main.c    ****   hi2c1.Init.OwnAddress2 = 0;
 286              		.loc 1 219 3 is_stmt 1 view .LVU72
 219:Src/main.c    ****   hi2c1.Init.OwnAddress2 = 0;
 287              		.loc 1 219 30 is_stmt 0 view .LVU73
 288 0014 2361     		str	r3, [r4, #16]
 220:Src/main.c    ****   hi2c1.Init.OwnAddress2Masks = I2C_OA2_NOMASK;
 289              		.loc 1 220 3 is_stmt 1 view .LVU74
 220:Src/main.c    ****   hi2c1.Init.OwnAddress2Masks = I2C_OA2_NOMASK;
 290              		.loc 1 220 26 is_stmt 0 view .LVU75
 291 0016 6361     		str	r3, [r4, #20]
 221:Src/main.c    ****   hi2c1.Init.GeneralCallMode = I2C_GENERALCALL_DISABLE;
 292              		.loc 1 221 3 is_stmt 1 view .LVU76
 221:Src/main.c    ****   hi2c1.Init.GeneralCallMode = I2C_GENERALCALL_DISABLE;
 293              		.loc 1 221 31 is_stmt 0 view .LVU77
 294 0018 A361     		str	r3, [r4, #24]
 222:Src/main.c    ****   hi2c1.Init.NoStretchMode = I2C_NOSTRETCH_DISABLE;
 295              		.loc 1 222 3 is_stmt 1 view .LVU78
 222:Src/main.c    ****   hi2c1.Init.NoStretchMode = I2C_NOSTRETCH_DISABLE;
 296              		.loc 1 222 30 is_stmt 0 view .LVU79
 297 001a E361     		str	r3, [r4, #28]
 223:Src/main.c    ****   if (HAL_I2C_Init(&hi2c1) != HAL_OK)
 298              		.loc 1 223 3 is_stmt 1 view .LVU80
 223:Src/main.c    ****   if (HAL_I2C_Init(&hi2c1) != HAL_OK)
 299              		.loc 1 223 28 is_stmt 0 view .LVU81
ARM GAS  /tmp/ccVirEur.s 			page 13


 300 001c 2362     		str	r3, [r4, #32]
 224:Src/main.c    ****   {
 301              		.loc 1 224 3 is_stmt 1 view .LVU82
 224:Src/main.c    ****   {
 302              		.loc 1 224 7 is_stmt 0 view .LVU83
 303 001e 2000     		movs	r0, r4
 304 0020 FFF7FEFF 		bl	HAL_I2C_Init
 305              	.LVL10:
 230:Src/main.c    ****   {
 306              		.loc 1 230 3 is_stmt 1 view .LVU84
 230:Src/main.c    ****   {
 307              		.loc 1 230 7 is_stmt 0 view .LVU85
 308 0024 0021     		movs	r1, #0
 309 0026 2000     		movs	r0, r4
 310 0028 FFF7FEFF 		bl	HAL_I2CEx_ConfigAnalogFilter
 311              	.LVL11:
 236:Src/main.c    ****   {
 312              		.loc 1 236 3 is_stmt 1 view .LVU86
 236:Src/main.c    ****   {
 313              		.loc 1 236 7 is_stmt 0 view .LVU87
 314 002c 0021     		movs	r1, #0
 315 002e 2000     		movs	r0, r4
 316 0030 FFF7FEFF 		bl	HAL_I2CEx_ConfigDigitalFilter
 317              	.LVL12:
 244:Src/main.c    **** 
 318              		.loc 1 244 1 view .LVU88
 319              		@ sp needed
 320 0034 10BD     		pop	{r4, pc}
 321              	.L7:
 322 0036 C046     		.align	2
 323              	.L6:
 324 0038 00000000 		.word	.LANCHOR0
 325 003c 00540040 		.word	1073763328
 326 0040 0E090020 		.word	536873230
 327              		.cfi_endproc
 328              	.LFE45:
 330              		.section	.rodata.lis3dh_read_data_polling.str1.4,"aMS",%progbits,1
 331              		.align	2
 332              	.LC5:
 333 0000 44657620 		.ascii	"Dev Not Found\000"
 333      4E6F7420 
 333      466F756E 
 333      6400
 334              		.global	__aeabi_f2d
 335 000e 0000     		.align	2
 336              	.LC9:
 337 0010 41636365 		.ascii	"Acceleration [mg]:%4.2f\011%4.2f\011%4.2f\015\012\000"
 337      6C657261 
 337      74696F6E 
 337      205B6D67 
 337      5D3A2534 
 338 0036 0000     		.align	2
 339              	.LC14:
 340 0038 54656D70 		.ascii	"Temperature [degC]:%6.2f\015\012\000"
 340      65726174 
 340      75726520 
 340      5B646567 
ARM GAS  /tmp/ccVirEur.s 			page 14


 340      435D3A25 
 341              		.section	.text.lis3dh_read_data_polling,"ax",%progbits
 342              		.align	1
 343              		.syntax unified
 344              		.code	16
 345              		.thumb_func
 346              		.fpu softvfp
 348              	lis3dh_read_data_polling:
 349              	.LFB48:
 313:Src/main.c    **** 
 314:Src/main.c    **** void lis3dh_read_data_polling(void)
 315:Src/main.c    **** {
 350              		.loc 1 315 1 is_stmt 1 view -0
 351              		.cfi_startproc
 352              		@ Volatile: function does not return.
 353              		@ args = 0, pretend = 0, frame = 16
 354              		@ frame_needed = 0, uses_anonymous_args = 0
 355 0000 F0B5     		push	{r4, r5, r6, r7, lr}
 356              	.LCFI5:
 357              		.cfi_def_cfa_offset 20
 358              		.cfi_offset 4, -20
 359              		.cfi_offset 5, -16
 360              		.cfi_offset 6, -12
 361              		.cfi_offset 7, -8
 362              		.cfi_offset 14, -4
 363 0002 D646     		mov	lr, r10
 364 0004 4F46     		mov	r7, r9
 365 0006 80B5     		push	{r7, lr}
 366              	.LCFI6:
 367              		.cfi_def_cfa_offset 28
 368              		.cfi_offset 9, -28
 369              		.cfi_offset 10, -24
 370 0008 89B0     		sub	sp, sp, #36
 371              	.LCFI7:
 372              		.cfi_def_cfa_offset 64
 316:Src/main.c    ****   /* Initialize mems driver interface */
 317:Src/main.c    ****   stmdev_ctx_t dev_ctx;
 373              		.loc 1 317 3 view .LVU90
 318:Src/main.c    ****   dev_ctx.write_reg = platform_write;
 374              		.loc 1 318 3 view .LVU91
 375              		.loc 1 318 21 is_stmt 0 view .LVU92
 376 000a 4F4B     		ldr	r3, .L15
 377 000c 0593     		str	r3, [sp, #20]
 319:Src/main.c    ****   dev_ctx.read_reg = platform_read;
 378              		.loc 1 319 3 is_stmt 1 view .LVU93
 379              		.loc 1 319 20 is_stmt 0 view .LVU94
 380 000e 4F4B     		ldr	r3, .L15+4
 381 0010 0693     		str	r3, [sp, #24]
 320:Src/main.c    ****   dev_ctx.handle = &SENSOR_BUS;
 382              		.loc 1 320 3 is_stmt 1 view .LVU95
 383              		.loc 1 320 18 is_stmt 0 view .LVU96
 384 0012 4F4B     		ldr	r3, .L15+8
 385 0014 0793     		str	r3, [sp, #28]
 321:Src/main.c    ****   /* Wait boot time and initialize platform specific hardware */
 322:Src/main.c    ****   //platform_init();
 323:Src/main.c    ****   /* Wait sensor boot time */
 324:Src/main.c    **** //  platform_delay(5);
ARM GAS  /tmp/ccVirEur.s 			page 15


 325:Src/main.c    **** HAL_Delay(5);
 386              		.loc 1 325 1 is_stmt 1 view .LVU97
 387 0016 0520     		movs	r0, #5
 388 0018 FFF7FEFF 		bl	HAL_Delay
 389              	.LVL13:
 326:Src/main.c    ****   /* Check device ID */
 327:Src/main.c    ****   lis3dh_device_id_get(&dev_ctx, &whoamI);
 390              		.loc 1 327 3 view .LVU98
 391 001c 4D4C     		ldr	r4, .L15+12
 392 001e 2100     		movs	r1, r4
 393 0020 05A8     		add	r0, sp, #20
 394 0022 FFF7FEFF 		bl	lis3dh_device_id_get
 395              	.LVL14:
 328:Src/main.c    **** 
 329:Src/main.c    ****   if (whoamI != LIS3DH_ID) {
 396              		.loc 1 329 3 view .LVU99
 397              		.loc 1 329 14 is_stmt 0 view .LVU100
 398 0026 2078     		ldrb	r0, [r4]
 399              		.loc 1 329 6 view .LVU101
 400 0028 3328     		cmp	r0, #51
 401 002a 04D0     		beq	.L9
 402              	.L10:
 330:Src/main.c    ****     while (1) {
 403              		.loc 1 330 5 is_stmt 1 discriminator 1 view .LVU102
 331:Src/main.c    ****       /* manage here device not found */
 332:Src/main.c    ****       tx_com("Dev Not Found", 13);
 404              		.loc 1 332 7 discriminator 1 view .LVU103
 405 002c 4A48     		ldr	r0, .L15+16
 406 002e 0D21     		movs	r1, #13
 407 0030 FFF7FEFF 		bl	tx_com
 408              	.LVL15:
 330:Src/main.c    ****     while (1) {
 409              		.loc 1 330 11 discriminator 1 view .LVU104
 410 0034 FAE7     		b	.L10
 411              	.L9:
 333:Src/main.c    ****     }
 334:Src/main.c    ****   }
 335:Src/main.c    ****   tx_com(whoamI, 20);
 412              		.loc 1 335 3 view .LVU105
 413 0036 1421     		movs	r1, #20
 414 0038 FFF7FEFF 		bl	tx_com
 415              	.LVL16:
 336:Src/main.c    **** 
 337:Src/main.c    ****   /* Enable Block Data Update. */
 338:Src/main.c    ****   lis3dh_block_data_update_set(&dev_ctx, PROPERTY_ENABLE);
 416              		.loc 1 338 3 view .LVU106
 417 003c 0121     		movs	r1, #1
 418 003e 05A8     		add	r0, sp, #20
 419 0040 FFF7FEFF 		bl	lis3dh_block_data_update_set
 420              	.LVL17:
 339:Src/main.c    ****   /* Set Output Data Rate to 1Hz. */
 340:Src/main.c    ****   lis3dh_data_rate_set(&dev_ctx, LIS3DH_ODR_1Hz);
 421              		.loc 1 340 3 view .LVU107
 422 0044 0121     		movs	r1, #1
 423 0046 05A8     		add	r0, sp, #20
 424 0048 FFF7FEFF 		bl	lis3dh_data_rate_set
 425              	.LVL18:
ARM GAS  /tmp/ccVirEur.s 			page 16


 341:Src/main.c    ****   /* Set full scale to 2g. */
 342:Src/main.c    ****   lis3dh_full_scale_set(&dev_ctx, LIS3DH_2g);
 426              		.loc 1 342 3 view .LVU108
 427 004c 0021     		movs	r1, #0
 428 004e 05A8     		add	r0, sp, #20
 429 0050 FFF7FEFF 		bl	lis3dh_full_scale_set
 430              	.LVL19:
 343:Src/main.c    ****   /* Enable temperature sensor. */
 344:Src/main.c    ****   lis3dh_aux_adc_set(&dev_ctx, LIS3DH_AUX_ON_TEMPERATURE);
 431              		.loc 1 344 3 view .LVU109
 432 0054 0321     		movs	r1, #3
 433 0056 05A8     		add	r0, sp, #20
 434 0058 FFF7FEFF 		bl	lis3dh_aux_adc_set
 435              	.LVL20:
 345:Src/main.c    ****   /* Set device in continuous mode with 12 bit resol. */
 346:Src/main.c    ****   lis3dh_operating_mode_set(&dev_ctx, LIS3DH_HR_12bit);
 436              		.loc 1 346 3 view .LVU110
 437 005c 0021     		movs	r1, #0
 438 005e 05A8     		add	r0, sp, #20
 439 0060 FFF7FEFF 		bl	lis3dh_operating_mode_set
 440              	.LVL21:
 441              	.L13:
 347:Src/main.c    **** 
 348:Src/main.c    ****   /* Read samples in polling mode (no int) */
 349:Src/main.c    ****   while (1) {
 442              		.loc 1 349 3 view .LVU111
 443              	.LBB5:
 350:Src/main.c    ****     lis3dh_reg_t reg;
 444              		.loc 1 350 5 view .LVU112
 351:Src/main.c    ****     /* Read output only if new value available */
 352:Src/main.c    ****     lis3dh_xl_data_ready_get(&dev_ctx, &reg.byte);
 445              		.loc 1 352 5 view .LVU113
 446 0064 04AC     		add	r4, sp, #16
 447 0066 2100     		movs	r1, r4
 448 0068 05A8     		add	r0, sp, #20
 449 006a FFF7FEFF 		bl	lis3dh_xl_data_ready_get
 450              	.LVL22:
 353:Src/main.c    **** 
 354:Src/main.c    **** //  tx_com(reg.byte, 20);
 355:Src/main.c    ****     if (reg.byte) {
 451              		.loc 1 355 5 view .LVU114
 452              		.loc 1 355 12 is_stmt 0 view .LVU115
 453 006e 2378     		ldrb	r3, [r4]
 454              		.loc 1 355 8 view .LVU116
 455 0070 002B     		cmp	r3, #0
 456 0072 25D1     		bne	.L14
 457              	.L11:
 356:Src/main.c    ****       /* Read accelerometer data */
 357:Src/main.c    ****       memset(data_raw_acceleration, 0x00, 3 * sizeof(int16_t));
 358:Src/main.c    ****       lis3dh_acceleration_raw_get(&dev_ctx, data_raw_acceleration);
 359:Src/main.c    ****       acceleration_mg[0] =
 360:Src/main.c    ****         lis3dh_from_fs2_hr_to_mg(data_raw_acceleration[0]);
 361:Src/main.c    ****       acceleration_mg[1] =
 362:Src/main.c    ****         lis3dh_from_fs2_hr_to_mg(data_raw_acceleration[1]);
 363:Src/main.c    ****       acceleration_mg[2] =
 364:Src/main.c    ****         lis3dh_from_fs2_hr_to_mg(data_raw_acceleration[2]);
 365:Src/main.c    ****       sprintf((char *)tx_buffer,
ARM GAS  /tmp/ccVirEur.s 			page 17


 366:Src/main.c    ****               "Acceleration [mg]:%4.2f\t%4.2f\t%4.2f\r\n",
 367:Src/main.c    ****               acceleration_mg[0], acceleration_mg[1], acceleration_mg[2]);
 368:Src/main.c    ****       tx_com(tx_buffer, strlen((char const *)tx_buffer));
 369:Src/main.c    ****       tx_com((uint8_t )data_raw_acceleration[0], strlen((char const *)tx_buffer));
 370:Src/main.c    ****     }
 371:Src/main.c    **** 
 372:Src/main.c    ****     lis3dh_temp_data_ready_get(&dev_ctx, &reg.byte);
 458              		.loc 1 372 5 is_stmt 1 view .LVU117
 459 0074 04AC     		add	r4, sp, #16
 460 0076 2100     		movs	r1, r4
 461 0078 05A8     		add	r0, sp, #20
 462 007a FFF7FEFF 		bl	lis3dh_temp_data_ready_get
 463              	.LVL23:
 373:Src/main.c    **** 
 374:Src/main.c    ****     if (reg.byte) {
 464              		.loc 1 374 5 view .LVU118
 465              		.loc 1 374 12 is_stmt 0 view .LVU119
 466 007e 2378     		ldrb	r3, [r4]
 467              		.loc 1 374 8 view .LVU120
 468 0080 002B     		cmp	r3, #0
 469 0082 EFD0     		beq	.L13
 375:Src/main.c    ****       /* Read temperature data */
 376:Src/main.c    ****       memset(&data_raw_temperature, 0x00, sizeof(int16_t));
 470              		.loc 1 376 7 is_stmt 1 view .LVU121
 471 0084 354C     		ldr	r4, .L15+20
 472 0086 0023     		movs	r3, #0
 473 0088 2380     		strh	r3, [r4]
 377:Src/main.c    ****       lis3dh_temperature_raw_get(&dev_ctx, &data_raw_temperature);
 474              		.loc 1 377 7 view .LVU122
 475 008a 2100     		movs	r1, r4
 476 008c 05A8     		add	r0, sp, #20
 477 008e FFF7FEFF 		bl	lis3dh_temperature_raw_get
 478              	.LVL24:
 378:Src/main.c    ****       temperature_degC =
 479              		.loc 1 378 7 view .LVU123
 379:Src/main.c    ****         lis3dh_from_lsb_hr_to_celsius(data_raw_temperature);
 480              		.loc 1 379 9 is_stmt 0 view .LVU124
 481 0092 0023     		movs	r3, #0
 482 0094 E05E     		ldrsh	r0, [r4, r3]
 483 0096 FFF7FEFF 		bl	lis3dh_from_lsb_hr_to_celsius
 484              	.LVL25:
 378:Src/main.c    ****       temperature_degC =
 485              		.loc 1 378 24 view .LVU125
 486 009a 314B     		ldr	r3, .L15+24
 487 009c 1860     		str	r0, [r3]
 380:Src/main.c    ****       sprintf((char *)tx_buffer,
 488              		.loc 1 380 7 is_stmt 1 view .LVU126
 489 009e FFF7FEFF 		bl	__aeabi_f2d
 490              	.LVL26:
 491 00a2 0200     		movs	r2, r0
 492 00a4 0B00     		movs	r3, r1
 493 00a6 2F49     		ldr	r1, .L15+28
 494 00a8 2F4C     		ldr	r4, .L15+32
 495 00aa 2000     		movs	r0, r4
 496 00ac FFF7FEFF 		bl	sprintf
 497              	.LVL27:
 381:Src/main.c    ****               "Temperature [degC]:%6.2f\r\n",
ARM GAS  /tmp/ccVirEur.s 			page 18


 382:Src/main.c    ****               temperature_degC);
 383:Src/main.c    ****       tx_com(tx_buffer, strlen((char const *)tx_buffer));
 498              		.loc 1 383 7 view .LVU127
 499              		.loc 1 383 25 is_stmt 0 view .LVU128
 500 00b0 2000     		movs	r0, r4
 501 00b2 FFF7FEFF 		bl	strlen
 502              	.LVL28:
 503              		.loc 1 383 7 view .LVU129
 504 00b6 81B2     		uxth	r1, r0
 505 00b8 2000     		movs	r0, r4
 506 00ba FFF7FEFF 		bl	tx_com
 507              	.LVL29:
 508              	.LBE5:
 349:Src/main.c    ****     lis3dh_reg_t reg;
 509              		.loc 1 349 9 is_stmt 1 view .LVU130
 349:Src/main.c    ****     lis3dh_reg_t reg;
 510              		.loc 1 349 13 is_stmt 0 view .LVU131
 511 00be D1E7     		b	.L13
 512              	.L14:
 513              	.LBB6:
 357:Src/main.c    ****       lis3dh_acceleration_raw_get(&dev_ctx, data_raw_acceleration);
 514              		.loc 1 357 7 is_stmt 1 view .LVU132
 515 00c0 2A4B     		ldr	r3, .L15+36
 516 00c2 0622     		movs	r2, #6
 517 00c4 0021     		movs	r1, #0
 518 00c6 1D00     		movs	r5, r3
 519 00c8 1800     		movs	r0, r3
 520 00ca FFF7FEFF 		bl	memset
 521              	.LVL30:
 358:Src/main.c    ****       acceleration_mg[0] =
 522              		.loc 1 358 7 view .LVU133
 523 00ce 2900     		movs	r1, r5
 524 00d0 05A8     		add	r0, sp, #20
 525 00d2 FFF7FEFF 		bl	lis3dh_acceleration_raw_get
 526              	.LVL31:
 359:Src/main.c    ****         lis3dh_from_fs2_hr_to_mg(data_raw_acceleration[0]);
 527              		.loc 1 359 7 view .LVU134
 360:Src/main.c    ****       acceleration_mg[1] =
 528              		.loc 1 360 9 is_stmt 0 view .LVU135
 529 00d6 0023     		movs	r3, #0
 530 00d8 E85E     		ldrsh	r0, [r5, r3]
 531 00da FFF7FEFF 		bl	lis3dh_from_fs2_hr_to_mg
 532              	.LVL32:
 359:Src/main.c    ****         lis3dh_from_fs2_hr_to_mg(data_raw_acceleration[0]);
 533              		.loc 1 359 26 view .LVU136
 534 00de 244C     		ldr	r4, .L15+40
 535 00e0 2060     		str	r0, [r4]
 361:Src/main.c    ****         lis3dh_from_fs2_hr_to_mg(data_raw_acceleration[1]);
 536              		.loc 1 361 7 is_stmt 1 view .LVU137
 362:Src/main.c    ****       acceleration_mg[2] =
 537              		.loc 1 362 9 is_stmt 0 view .LVU138
 538 00e2 0223     		movs	r3, #2
 539 00e4 E85E     		ldrsh	r0, [r5, r3]
 540 00e6 FFF7FEFF 		bl	lis3dh_from_fs2_hr_to_mg
 541              	.LVL33:
 361:Src/main.c    ****         lis3dh_from_fs2_hr_to_mg(data_raw_acceleration[1]);
 542              		.loc 1 361 26 view .LVU139
ARM GAS  /tmp/ccVirEur.s 			page 19


 543 00ea 6060     		str	r0, [r4, #4]
 363:Src/main.c    ****         lis3dh_from_fs2_hr_to_mg(data_raw_acceleration[2]);
 544              		.loc 1 363 7 is_stmt 1 view .LVU140
 364:Src/main.c    ****       sprintf((char *)tx_buffer,
 545              		.loc 1 364 9 is_stmt 0 view .LVU141
 546 00ec 0423     		movs	r3, #4
 547 00ee E85E     		ldrsh	r0, [r5, r3]
 548 00f0 FFF7FEFF 		bl	lis3dh_from_fs2_hr_to_mg
 549              	.LVL34:
 550 00f4 8146     		mov	r9, r0
 363:Src/main.c    ****         lis3dh_from_fs2_hr_to_mg(data_raw_acceleration[2]);
 551              		.loc 1 363 26 view .LVU142
 552 00f6 A060     		str	r0, [r4, #8]
 365:Src/main.c    ****               "Acceleration [mg]:%4.2f\t%4.2f\t%4.2f\r\n",
 553              		.loc 1 365 7 is_stmt 1 view .LVU143
 367:Src/main.c    ****       tx_com(tx_buffer, strlen((char const *)tx_buffer));
 554              		.loc 1 367 30 is_stmt 0 view .LVU144
 555 00f8 2068     		ldr	r0, [r4]
 367:Src/main.c    ****       tx_com(tx_buffer, strlen((char const *)tx_buffer));
 556              		.loc 1 367 50 view .LVU145
 557 00fa 6368     		ldr	r3, [r4, #4]
 558 00fc 9A46     		mov	r10, r3
 365:Src/main.c    ****               "Acceleration [mg]:%4.2f\t%4.2f\t%4.2f\r\n",
 559              		.loc 1 365 7 view .LVU146
 560 00fe FFF7FEFF 		bl	__aeabi_f2d
 561              	.LVL35:
 562 0102 0600     		movs	r6, r0
 563 0104 0F00     		movs	r7, r1
 564 0106 184C     		ldr	r4, .L15+32
 565 0108 4846     		mov	r0, r9
 566 010a FFF7FEFF 		bl	__aeabi_f2d
 567              	.LVL36:
 568 010e 0290     		str	r0, [sp, #8]
 569 0110 0391     		str	r1, [sp, #12]
 570 0112 5046     		mov	r0, r10
 571 0114 FFF7FEFF 		bl	__aeabi_f2d
 572              	.LVL37:
 573 0118 0090     		str	r0, [sp]
 574 011a 0191     		str	r1, [sp, #4]
 575 011c 3200     		movs	r2, r6
 576 011e 3B00     		movs	r3, r7
 577 0120 1449     		ldr	r1, .L15+44
 578 0122 2000     		movs	r0, r4
 579 0124 FFF7FEFF 		bl	sprintf
 580              	.LVL38:
 368:Src/main.c    ****       tx_com((uint8_t )data_raw_acceleration[0], strlen((char const *)tx_buffer));
 581              		.loc 1 368 7 is_stmt 1 view .LVU147
 368:Src/main.c    ****       tx_com((uint8_t )data_raw_acceleration[0], strlen((char const *)tx_buffer));
 582              		.loc 1 368 25 is_stmt 0 view .LVU148
 583 0128 2000     		movs	r0, r4
 584 012a FFF7FEFF 		bl	strlen
 585              	.LVL39:
 368:Src/main.c    ****       tx_com((uint8_t )data_raw_acceleration[0], strlen((char const *)tx_buffer));
 586              		.loc 1 368 7 view .LVU149
 587 012e 81B2     		uxth	r1, r0
 588 0130 2000     		movs	r0, r4
 589 0132 FFF7FEFF 		bl	tx_com
ARM GAS  /tmp/ccVirEur.s 			page 20


 590              	.LVL40:
 369:Src/main.c    ****     }
 591              		.loc 1 369 7 is_stmt 1 view .LVU150
 369:Src/main.c    ****     }
 592              		.loc 1 369 14 is_stmt 0 view .LVU151
 593 0136 2D78     		ldrb	r5, [r5]
 369:Src/main.c    ****     }
 594              		.loc 1 369 50 view .LVU152
 595 0138 2000     		movs	r0, r4
 596 013a FFF7FEFF 		bl	strlen
 597              	.LVL41:
 369:Src/main.c    ****     }
 598              		.loc 1 369 7 view .LVU153
 599 013e 81B2     		uxth	r1, r0
 600 0140 2800     		movs	r0, r5
 601 0142 FFF7FEFF 		bl	tx_com
 602              	.LVL42:
 603 0146 95E7     		b	.L11
 604              	.L16:
 605              		.align	2
 606              	.L15:
 607 0148 00000000 		.word	platform_write
 608 014c 00000000 		.word	platform_read
 609 0150 00000000 		.word	.LANCHOR0
 610 0154 00000000 		.word	.LANCHOR1
 611 0158 00000000 		.word	.LC5
 612 015c 00000000 		.word	.LANCHOR4
 613 0160 00000000 		.word	.LANCHOR5
 614 0164 38000000 		.word	.LC14
 615 0168 00000000 		.word	tx_buffer
 616 016c 00000000 		.word	.LANCHOR2
 617 0170 00000000 		.word	.LANCHOR3
 618 0174 10000000 		.word	.LC9
 619              	.LBE6:
 620              		.cfi_endproc
 621              	.LFE48:
 623              		.section	.text.platform_read,"ax",%progbits
 624              		.align	1
 625              		.syntax unified
 626              		.code	16
 627              		.thumb_func
 628              		.fpu softvfp
 630              	platform_read:
 631              	.LVL43:
 632              	.LFB50:
 384:Src/main.c    ****     }
 385:Src/main.c    ****   }
 386:Src/main.c    **** }
 387:Src/main.c    **** 
 388:Src/main.c    **** static int32_t platform_write(void *handle, uint8_t reg, const uint8_t *bufp,
 389:Src/main.c    ****                               uint16_t len){
 390:Src/main.c    ****    reg |= 0x80;
 391:Src/main.c    ****    HAL_I2C_Mem_Write(handle, LIS3DH_I2C_ADD_L, reg,
 392:Src/main.c    ****                            I2C_MEMADD_SIZE_8BIT, (uint8_t*) bufp, len, 1000);
 393:Src/main.c    ****    return 0;
 394:Src/main.c    ****    }
 395:Src/main.c    **** 
ARM GAS  /tmp/ccVirEur.s 			page 21


 396:Src/main.c    **** static int32_t platform_read(void *handle, uint8_t reg, uint8_t *bufp, uint16_t len){
 633              		.loc 1 396 85 is_stmt 1 view -0
 634              		.cfi_startproc
 635              		@ args = 0, pretend = 0, frame = 0
 636              		@ frame_needed = 0, uses_anonymous_args = 0
 637              		.loc 1 396 85 is_stmt 0 view .LVU155
 638 0000 10B5     		push	{r4, lr}
 639              	.LCFI8:
 640              		.cfi_def_cfa_offset 8
 641              		.cfi_offset 4, -8
 642              		.cfi_offset 14, -4
 643 0002 84B0     		sub	sp, sp, #16
 644              	.LCFI9:
 645              		.cfi_def_cfa_offset 24
 397:Src/main.c    ****    /* Read multiple command */
 398:Src/main.c    ****    reg |= 0x80;
 646              		.loc 1 398 4 is_stmt 1 view .LVU156
 647              		.loc 1 398 8 is_stmt 0 view .LVU157
 648 0004 8024     		movs	r4, #128
 649 0006 6442     		rsbs	r4, r4, #0
 650 0008 2143     		orrs	r1, r4
 651              	.LVL44:
 399:Src/main.c    ****    HAL_I2C_Mem_Read(handle, LIS3DH_I2C_ADD_L, reg, I2C_MEMADD_SIZE_8BIT, bufp, len, 1000);
 652              		.loc 1 399 4 is_stmt 1 view .LVU158
 653 000a C9B2     		uxtb	r1, r1
 654              		.loc 1 399 4 is_stmt 0 view .LVU159
 655 000c FA24     		movs	r4, #250
 656 000e A400     		lsls	r4, r4, #2
 657 0010 0294     		str	r4, [sp, #8]
 658 0012 0193     		str	r3, [sp, #4]
 659 0014 0092     		str	r2, [sp]
 660 0016 0123     		movs	r3, #1
 661              	.LVL45:
 662              		.loc 1 399 4 view .LVU160
 663 0018 0A00     		movs	r2, r1
 664              	.LVL46:
 665              		.loc 1 399 4 view .LVU161
 666 001a 1821     		movs	r1, #24
 667              	.LVL47:
 668              		.loc 1 399 4 view .LVU162
 669 001c FFF7FEFF 		bl	HAL_I2C_Mem_Read
 670              	.LVL48:
 400:Src/main.c    ****    return 0;
 671              		.loc 1 400 4 is_stmt 1 view .LVU163
 401:Src/main.c    **** }
 672              		.loc 1 401 1 is_stmt 0 view .LVU164
 673 0020 0020     		movs	r0, #0
 674 0022 04B0     		add	sp, sp, #16
 675              		@ sp needed
 676 0024 10BD     		pop	{r4, pc}
 677              		.cfi_endproc
 678              	.LFE50:
 680              		.section	.text.platform_write,"ax",%progbits
 681              		.align	1
 682              		.syntax unified
 683              		.code	16
 684              		.thumb_func
ARM GAS  /tmp/ccVirEur.s 			page 22


 685              		.fpu softvfp
 687              	platform_write:
 688              	.LVL49:
 689              	.LFB49:
 389:Src/main.c    ****    reg |= 0x80;
 690              		.loc 1 389 44 is_stmt 1 view -0
 691              		.cfi_startproc
 692              		@ args = 0, pretend = 0, frame = 0
 693              		@ frame_needed = 0, uses_anonymous_args = 0
 389:Src/main.c    ****    reg |= 0x80;
 694              		.loc 1 389 44 is_stmt 0 view .LVU166
 695 0000 10B5     		push	{r4, lr}
 696              	.LCFI10:
 697              		.cfi_def_cfa_offset 8
 698              		.cfi_offset 4, -8
 699              		.cfi_offset 14, -4
 700 0002 84B0     		sub	sp, sp, #16
 701              	.LCFI11:
 702              		.cfi_def_cfa_offset 24
 390:Src/main.c    ****    HAL_I2C_Mem_Write(handle, LIS3DH_I2C_ADD_L, reg,
 703              		.loc 1 390 4 is_stmt 1 view .LVU167
 390:Src/main.c    ****    HAL_I2C_Mem_Write(handle, LIS3DH_I2C_ADD_L, reg,
 704              		.loc 1 390 8 is_stmt 0 view .LVU168
 705 0004 8024     		movs	r4, #128
 706 0006 6442     		rsbs	r4, r4, #0
 707 0008 2143     		orrs	r1, r4
 708              	.LVL50:
 391:Src/main.c    ****                            I2C_MEMADD_SIZE_8BIT, (uint8_t*) bufp, len, 1000);
 709              		.loc 1 391 4 is_stmt 1 view .LVU169
 710 000a C9B2     		uxtb	r1, r1
 391:Src/main.c    ****                            I2C_MEMADD_SIZE_8BIT, (uint8_t*) bufp, len, 1000);
 711              		.loc 1 391 4 is_stmt 0 view .LVU170
 712 000c FA24     		movs	r4, #250
 713 000e A400     		lsls	r4, r4, #2
 714 0010 0294     		str	r4, [sp, #8]
 715 0012 0193     		str	r3, [sp, #4]
 716 0014 0092     		str	r2, [sp]
 717 0016 0123     		movs	r3, #1
 718              	.LVL51:
 391:Src/main.c    ****                            I2C_MEMADD_SIZE_8BIT, (uint8_t*) bufp, len, 1000);
 719              		.loc 1 391 4 view .LVU171
 720 0018 0A00     		movs	r2, r1
 721              	.LVL52:
 391:Src/main.c    ****                            I2C_MEMADD_SIZE_8BIT, (uint8_t*) bufp, len, 1000);
 722              		.loc 1 391 4 view .LVU172
 723 001a 1821     		movs	r1, #24
 724              	.LVL53:
 391:Src/main.c    ****                            I2C_MEMADD_SIZE_8BIT, (uint8_t*) bufp, len, 1000);
 725              		.loc 1 391 4 view .LVU173
 726 001c FFF7FEFF 		bl	HAL_I2C_Mem_Write
 727              	.LVL54:
 393:Src/main.c    ****    }
 728              		.loc 1 393 4 is_stmt 1 view .LVU174
 394:Src/main.c    **** 
 729              		.loc 1 394 4 is_stmt 0 view .LVU175
 730 0020 0020     		movs	r0, #0
 731 0022 04B0     		add	sp, sp, #16
ARM GAS  /tmp/ccVirEur.s 			page 23


 732              		@ sp needed
 733 0024 10BD     		pop	{r4, pc}
 734              		.cfi_endproc
 735              	.LFE49:
 737              		.section	.text.SystemClock_Config,"ax",%progbits
 738              		.align	1
 739              		.global	SystemClock_Config
 740              		.syntax unified
 741              		.code	16
 742              		.thumb_func
 743              		.fpu softvfp
 745              	SystemClock_Config:
 746              	.LFB44:
 161:Src/main.c    ****   RCC_OscInitTypeDef RCC_OscInitStruct = {0};
 747              		.loc 1 161 1 is_stmt 1 view -0
 748              		.cfi_startproc
 749              		@ args = 0, pretend = 0, frame = 96
 750              		@ frame_needed = 0, uses_anonymous_args = 0
 751 0000 10B5     		push	{r4, lr}
 752              	.LCFI12:
 753              		.cfi_def_cfa_offset 8
 754              		.cfi_offset 4, -8
 755              		.cfi_offset 14, -4
 756 0002 98B0     		sub	sp, sp, #96
 757              	.LCFI13:
 758              		.cfi_def_cfa_offset 104
 162:Src/main.c    ****   RCC_ClkInitTypeDef RCC_ClkInitStruct = {0};
 759              		.loc 1 162 3 view .LVU177
 162:Src/main.c    ****   RCC_ClkInitTypeDef RCC_ClkInitStruct = {0};
 760              		.loc 1 162 22 is_stmt 0 view .LVU178
 761 0004 3422     		movs	r2, #52
 762 0006 0021     		movs	r1, #0
 763 0008 0BA8     		add	r0, sp, #44
 764 000a FFF7FEFF 		bl	memset
 765              	.LVL55:
 163:Src/main.c    ****   RCC_PeriphCLKInitTypeDef PeriphClkInit = {0};
 766              		.loc 1 163 3 is_stmt 1 view .LVU179
 163:Src/main.c    ****   RCC_PeriphCLKInitTypeDef PeriphClkInit = {0};
 767              		.loc 1 163 22 is_stmt 0 view .LVU180
 768 000e 1022     		movs	r2, #16
 769 0010 0021     		movs	r1, #0
 770 0012 07A8     		add	r0, sp, #28
 771 0014 FFF7FEFF 		bl	memset
 772              	.LVL56:
 164:Src/main.c    **** 
 773              		.loc 1 164 3 is_stmt 1 view .LVU181
 164:Src/main.c    **** 
 774              		.loc 1 164 28 is_stmt 0 view .LVU182
 775 0018 1C22     		movs	r2, #28
 776 001a 0021     		movs	r1, #0
 777 001c 6846     		mov	r0, sp
 778 001e FFF7FEFF 		bl	memset
 779              	.LVL57:
 169:Src/main.c    ****   RCC_OscInitStruct.HSIState = RCC_HSI_ON;
 780              		.loc 1 169 3 is_stmt 1 view .LVU183
 169:Src/main.c    ****   RCC_OscInitStruct.HSIState = RCC_HSI_ON;
 781              		.loc 1 169 36 is_stmt 0 view .LVU184
ARM GAS  /tmp/ccVirEur.s 			page 24


 782 0022 2223     		movs	r3, #34
 783 0024 0B93     		str	r3, [sp, #44]
 170:Src/main.c    ****   RCC_OscInitStruct.HSI48State = RCC_HSI48_ON;
 784              		.loc 1 170 3 is_stmt 1 view .LVU185
 170:Src/main.c    ****   RCC_OscInitStruct.HSI48State = RCC_HSI48_ON;
 785              		.loc 1 170 30 is_stmt 0 view .LVU186
 786 0026 213B     		subs	r3, r3, #33
 787 0028 0E93     		str	r3, [sp, #56]
 171:Src/main.c    ****   RCC_OscInitStruct.HSICalibrationValue = RCC_HSICALIBRATION_DEFAULT;
 788              		.loc 1 171 3 is_stmt 1 view .LVU187
 171:Src/main.c    ****   RCC_OscInitStruct.HSICalibrationValue = RCC_HSICALIBRATION_DEFAULT;
 789              		.loc 1 171 32 is_stmt 0 view .LVU188
 790 002a 1393     		str	r3, [sp, #76]
 172:Src/main.c    ****   RCC_OscInitStruct.PLL.PLLState = RCC_PLL_NONE;
 791              		.loc 1 172 3 is_stmt 1 view .LVU189
 172:Src/main.c    ****   RCC_OscInitStruct.PLL.PLLState = RCC_PLL_NONE;
 792              		.loc 1 172 41 is_stmt 0 view .LVU190
 793 002c 0F33     		adds	r3, r3, #15
 794 002e 0F93     		str	r3, [sp, #60]
 173:Src/main.c    ****   if (HAL_RCC_OscConfig(&RCC_OscInitStruct) != HAL_OK)
 795              		.loc 1 173 3 is_stmt 1 view .LVU191
 174:Src/main.c    ****   {
 796              		.loc 1 174 3 view .LVU192
 174:Src/main.c    ****   {
 797              		.loc 1 174 7 is_stmt 0 view .LVU193
 798 0030 0BA8     		add	r0, sp, #44
 799 0032 FFF7FEFF 		bl	HAL_RCC_OscConfig
 800              	.LVL58:
 180:Src/main.c    ****                               |RCC_CLOCKTYPE_PCLK1;
 801              		.loc 1 180 3 is_stmt 1 view .LVU194
 180:Src/main.c    ****                               |RCC_CLOCKTYPE_PCLK1;
 802              		.loc 1 180 31 is_stmt 0 view .LVU195
 803 0036 0723     		movs	r3, #7
 804 0038 0793     		str	r3, [sp, #28]
 182:Src/main.c    ****   RCC_ClkInitStruct.AHBCLKDivider = RCC_SYSCLK_DIV1;
 805              		.loc 1 182 3 is_stmt 1 view .LVU196
 182:Src/main.c    ****   RCC_ClkInitStruct.AHBCLKDivider = RCC_SYSCLK_DIV1;
 806              		.loc 1 182 34 is_stmt 0 view .LVU197
 807 003a 043B     		subs	r3, r3, #4
 808 003c 0893     		str	r3, [sp, #32]
 183:Src/main.c    ****   RCC_ClkInitStruct.APB1CLKDivider = RCC_HCLK_DIV1;
 809              		.loc 1 183 3 is_stmt 1 view .LVU198
 183:Src/main.c    ****   RCC_ClkInitStruct.APB1CLKDivider = RCC_HCLK_DIV1;
 810              		.loc 1 183 35 is_stmt 0 view .LVU199
 811 003e 0024     		movs	r4, #0
 812 0040 0994     		str	r4, [sp, #36]
 184:Src/main.c    **** 
 813              		.loc 1 184 3 is_stmt 1 view .LVU200
 184:Src/main.c    **** 
 814              		.loc 1 184 36 is_stmt 0 view .LVU201
 815 0042 0A94     		str	r4, [sp, #40]
 186:Src/main.c    ****   {
 816              		.loc 1 186 3 is_stmt 1 view .LVU202
 186:Src/main.c    ****   {
 817              		.loc 1 186 7 is_stmt 0 view .LVU203
 818 0044 0121     		movs	r1, #1
 819 0046 07A8     		add	r0, sp, #28
ARM GAS  /tmp/ccVirEur.s 			page 25


 820 0048 FFF7FEFF 		bl	HAL_RCC_ClockConfig
 821              	.LVL59:
 190:Src/main.c    ****   PeriphClkInit.I2c1ClockSelection = RCC_I2C1CLKSOURCE_HSI;
 822              		.loc 1 190 3 is_stmt 1 view .LVU204
 190:Src/main.c    ****   PeriphClkInit.I2c1ClockSelection = RCC_I2C1CLKSOURCE_HSI;
 823              		.loc 1 190 38 is_stmt 0 view .LVU205
 824 004c 044B     		ldr	r3, .L20
 825 004e 0093     		str	r3, [sp]
 191:Src/main.c    ****   PeriphClkInit.UsbClockSelection = RCC_USBCLKSOURCE_HSI48;
 826              		.loc 1 191 3 is_stmt 1 view .LVU206
 191:Src/main.c    ****   PeriphClkInit.UsbClockSelection = RCC_USBCLKSOURCE_HSI48;
 827              		.loc 1 191 36 is_stmt 0 view .LVU207
 828 0050 0494     		str	r4, [sp, #16]
 192:Src/main.c    **** 
 829              		.loc 1 192 3 is_stmt 1 view .LVU208
 192:Src/main.c    **** 
 830              		.loc 1 192 35 is_stmt 0 view .LVU209
 831 0052 0694     		str	r4, [sp, #24]
 194:Src/main.c    ****   {
 832              		.loc 1 194 3 is_stmt 1 view .LVU210
 194:Src/main.c    ****   {
 833              		.loc 1 194 7 is_stmt 0 view .LVU211
 834 0054 6846     		mov	r0, sp
 835 0056 FFF7FEFF 		bl	HAL_RCCEx_PeriphCLKConfig
 836              	.LVL60:
 198:Src/main.c    **** 
 837              		.loc 1 198 1 view .LVU212
 838 005a 18B0     		add	sp, sp, #96
 839              		@ sp needed
 840 005c 10BD     		pop	{r4, pc}
 841              	.L21:
 842 005e C046     		.align	2
 843              	.L20:
 844 0060 20000200 		.word	131104
 845              		.cfi_endproc
 846              	.LFE44:
 848              		.section	.rodata.main.str1.4,"aMS",%progbits,1
 849              		.align	2
 850              	.LC16:
 851 0000 53746172 		.ascii	"Starting I2C Scanning: \015\012\000"
 851      74696E67 
 851      20493243 
 851      20536361 
 851      6E6E696E 
 852 001a 0000     		.align	2
 853              	.LC18:
 854 001c 446F6E65 		.ascii	"Done! \015\012\015\012\000"
 854      21200D0A 
 854      0D0A00
 855              		.section	.text.main,"ax",%progbits
 856              		.align	1
 857              		.global	main
 858              		.syntax unified
 859              		.code	16
 860              		.thumb_func
 861              		.fpu softvfp
 863              	main:
ARM GAS  /tmp/ccVirEur.s 			page 26


 864              	.LFB43:
  86:Src/main.c    ****   /* USER CODE BEGIN 1 */
 865              		.loc 1 86 1 is_stmt 1 view -0
 866              		.cfi_startproc
 867              		@ args = 0, pretend = 0, frame = 72
 868              		@ frame_needed = 0, uses_anonymous_args = 0
 869 0000 30B5     		push	{r4, r5, lr}
 870              	.LCFI14:
 871              		.cfi_def_cfa_offset 12
 872              		.cfi_offset 4, -12
 873              		.cfi_offset 5, -8
 874              		.cfi_offset 14, -4
 875 0002 93B0     		sub	sp, sp, #76
 876              	.LCFI15:
 877              		.cfi_def_cfa_offset 88
  94:Src/main.c    **** 
 878              		.loc 1 94 3 view .LVU214
 879 0004 FFF7FEFF 		bl	HAL_Init
 880              	.LVL61:
 103:Src/main.c    **** 
 881              		.loc 1 103 3 view .LVU215
 882 0008 FFF7FEFF 		bl	SystemClock_Config
 883              	.LVL62:
 110:Src/main.c    ****   MX_I2C1_Init();
 884              		.loc 1 110 3 view .LVU216
 885 000c FFF7FEFF 		bl	MX_GPIO_Init
 886              	.LVL63:
 111:Src/main.c    ****   MX_USB_DEVICE_Init();
 887              		.loc 1 111 3 view .LVU217
 888 0010 FFF7FEFF 		bl	MX_I2C1_Init
 889              	.LVL64:
 112:Src/main.c    ****   /* USER CODE BEGIN 2 */
 890              		.loc 1 112 3 view .LVU218
 891 0014 FFF7FEFF 		bl	MX_USB_DEVICE_Init
 892              	.LVL65:
 114:Src/main.c    **** uint8_t StartMSG[] = "Starting I2C Scanning: \r\n";
 893              		.loc 1 114 1 view .LVU219
 114:Src/main.c    **** uint8_t StartMSG[] = "Starting I2C Scanning: \r\n";
 894              		.loc 1 114 9 is_stmt 0 view .LVU220
 895 0018 124B     		ldr	r3, .L24
 896 001a 1193     		str	r3, [sp, #68]
 115:Src/main.c    **** uint8_t EndMSG[] = "Done! \r\n\r\n";
 897              		.loc 1 115 1 is_stmt 1 view .LVU221
 115:Src/main.c    **** uint8_t EndMSG[] = "Done! \r\n\r\n";
 898              		.loc 1 115 9 is_stmt 0 view .LVU222
 899 001c 0AA9     		add	r1, sp, #40
 900 001e 124B     		ldr	r3, .L24+4
 901 0020 0A00     		movs	r2, r1
 902 0022 31CB     		ldmia	r3!, {r0, r4, r5}
 903 0024 31C2     		stmia	r2!, {r0, r4, r5}
 904 0026 13CB     		ldmia	r3!, {r0, r1, r4}
 905 0028 13C2     		stmia	r2!, {r0, r1, r4}
 906 002a 1B88     		ldrh	r3, [r3]
 907 002c 1380     		strh	r3, [r2]
 116:Src/main.c    **** uint8_t Buffer[25] = {0};
 908              		.loc 1 116 1 is_stmt 1 view .LVU223
 116:Src/main.c    **** uint8_t Buffer[25] = {0};
ARM GAS  /tmp/ccVirEur.s 			page 27


 909              		.loc 1 116 9 is_stmt 0 view .LVU224
 910 002e 07AA     		add	r2, sp, #28
 911 0030 0E4B     		ldr	r3, .L24+8
 912 0032 11CB     		ldmia	r3!, {r0, r4}
 913 0034 11C2     		stmia	r2!, {r0, r4}
 914 0036 1100     		movs	r1, r2
 915 0038 1A88     		ldrh	r2, [r3]
 916 003a 0A80     		strh	r2, [r1]
 917 003c 9B78     		ldrb	r3, [r3, #2]
 918 003e 8B70     		strb	r3, [r1, #2]
 117:Src/main.c    **** 
 919              		.loc 1 117 1 is_stmt 1 view .LVU225
 117:Src/main.c    **** 
 920              		.loc 1 117 9 is_stmt 0 view .LVU226
 921 0040 0023     		movs	r3, #0
 922 0042 0093     		str	r3, [sp]
 923 0044 1522     		movs	r2, #21
 924 0046 0021     		movs	r1, #0
 925 0048 01A8     		add	r0, sp, #4
 926 004a FFF7FEFF 		bl	memset
 927              	.LVL66:
 928              	.L23:
 124:Src/main.c    ****   {
 929              		.loc 1 124 3 is_stmt 1 view .LVU227
 127:Src/main.c    **** {
 930              		.loc 1 127 1 view .LVU228
 127:Src/main.c    **** {
 931              		.loc 1 127 4 is_stmt 0 view .LVU229
 932 004e 8021     		movs	r1, #128
 933 0050 9020     		movs	r0, #144
 934 0052 8900     		lsls	r1, r1, #2
 935 0054 C005     		lsls	r0, r0, #23
 936 0056 FFF7FEFF 		bl	HAL_GPIO_ReadPin
 937              	.LVL67:
 127:Src/main.c    **** {
 938              		.loc 1 127 3 view .LVU230
 939 005a 0028     		cmp	r0, #0
 940 005c F7D1     		bne	.L23
 941              	.LBB7:
 129:Src/main.c    **** uint8_t ret;
 942              		.loc 1 129 4 is_stmt 1 view .LVU231
 943 005e FFF7FEFF 		bl	lis3dh_read_data_polling
 944              	.LVL68:
 945              	.L25:
 946 0062 C046     		.align	2
 947              	.L24:
 948 0064 202D2000 		.word	2108704
 949 0068 00000000 		.word	.LC16
 950 006c 1C000000 		.word	.LC18
 951              	.LBE7:
 952              		.cfi_endproc
 953              	.LFE43:
 955              		.section	.text.starsON,"ax",%progbits
 956              		.align	1
 957              		.global	starsON
 958              		.syntax unified
 959              		.code	16
ARM GAS  /tmp/ccVirEur.s 			page 28


 960              		.thumb_func
 961              		.fpu softvfp
 963              	starsON:
 964              	.LFB51:
 402:Src/main.c    **** 
 403:Src/main.c    **** void starsON(){
 965              		.loc 1 403 15 view -0
 966              		.cfi_startproc
 967              		@ args = 0, pretend = 0, frame = 0
 968              		@ frame_needed = 0, uses_anonymous_args = 0
 969 0000 10B5     		push	{r4, lr}
 970              	.LCFI16:
 971              		.cfi_def_cfa_offset 8
 972              		.cfi_offset 4, -8
 973              		.cfi_offset 14, -4
 404:Src/main.c    ****    //Light our stars
 405:Src/main.c    ****    HAL_GPIO_WritePin(GPIOB, GPIO_PIN_12, GPIO_PIN_SET);
 974              		.loc 1 405 4 view .LVU233
 975 0002 8021     		movs	r1, #128
 976 0004 0B4C     		ldr	r4, .L27
 977 0006 0122     		movs	r2, #1
 978 0008 4901     		lsls	r1, r1, #5
 979 000a 2000     		movs	r0, r4
 980 000c FFF7FEFF 		bl	HAL_GPIO_WritePin
 981              	.LVL69:
 406:Src/main.c    ****    HAL_GPIO_WritePin(GPIOB, GPIO_PIN_11, GPIO_PIN_SET);
 982              		.loc 1 406 4 view .LVU234
 983 0010 8021     		movs	r1, #128
 984 0012 0122     		movs	r2, #1
 985 0014 0901     		lsls	r1, r1, #4
 986 0016 2000     		movs	r0, r4
 987 0018 FFF7FEFF 		bl	HAL_GPIO_WritePin
 988              	.LVL70:
 407:Src/main.c    ****    HAL_GPIO_WritePin(GPIOB, GPIO_PIN_10, GPIO_PIN_SET);
 989              		.loc 1 407 4 view .LVU235
 990 001c 8021     		movs	r1, #128
 991 001e 0122     		movs	r2, #1
 992 0020 C900     		lsls	r1, r1, #3
 993 0022 2000     		movs	r0, r4
 994 0024 FFF7FEFF 		bl	HAL_GPIO_WritePin
 995              	.LVL71:
 408:Src/main.c    ****    HAL_GPIO_WritePin(GPIOB, GPIO_PIN_2, GPIO_PIN_SET);
 996              		.loc 1 408 4 view .LVU236
 997 0028 0122     		movs	r2, #1
 998 002a 0421     		movs	r1, #4
 999 002c 2000     		movs	r0, r4
 1000 002e FFF7FEFF 		bl	HAL_GPIO_WritePin
 1001              	.LVL72:
 409:Src/main.c    **** }
 1002              		.loc 1 409 1 is_stmt 0 view .LVU237
 1003              		@ sp needed
 1004 0032 10BD     		pop	{r4, pc}
 1005              	.L28:
 1006              		.align	2
 1007              	.L27:
 1008 0034 00040048 		.word	1207960576
 1009              		.cfi_endproc
ARM GAS  /tmp/ccVirEur.s 			page 29


 1010              	.LFE51:
 1012              		.section	.text.singleMatrix,"ax",%progbits
 1013              		.align	1
 1014              		.global	singleMatrix
 1015              		.syntax unified
 1016              		.code	16
 1017              		.thumb_func
 1018              		.fpu softvfp
 1020              	singleMatrix:
 1021              	.LVL73:
 1022              	.LFB53:
 410:Src/main.c    **** 
 411:Src/main.c    **** void cycleMatrix(){
 412:Src/main.c    ****       for(int i=1; i<10; i++){
 413:Src/main.c    ****          for(int j=1; j<10; j++){
 414:Src/main.c    ****             //Second Row Mods
 415:Src/main.c    ****             if(i==2){
 416:Src/main.c    ****                if(j==4)
 417:Src/main.c    ****                   j++;
 418:Src/main.c    ****                else if(j==9){
 419:Src/main.c    ****                   i=3;
 420:Src/main.c    ****                   j=1;
 421:Src/main.c    ****                }
 422:Src/main.c    ****             }
 423:Src/main.c    ****             //Row Three
 424:Src/main.c    ****             if(i==3){
 425:Src/main.c    ****                if(j==3)
 426:Src/main.c    ****                   j=5;
 427:Src/main.c    ****                else if(j>7){
 428:Src/main.c    ****                   i=4;
 429:Src/main.c    ****                   j=1;
 430:Src/main.c    ****                }
 431:Src/main.c    ****             }
 432:Src/main.c    ****             //Row Four
 433:Src/main.c    ****             if(i==4){
 434:Src/main.c    ****                if(j==3)
 435:Src/main.c    ****                   j=5;
 436:Src/main.c    ****                else if(j==6){
 437:Src/main.c    ****                   i=5;
 438:Src/main.c    ****                   j=1;
 439:Src/main.c    ****                }
 440:Src/main.c    ****             }
 441:Src/main.c    ****             //Row Five
 442:Src/main.c    ****             if(i==5){
 443:Src/main.c    ****                if(j==3)
 444:Src/main.c    ****                   j=5;
 445:Src/main.c    ****                else if(j>5){
 446:Src/main.c    ****                   i=6;
 447:Src/main.c    ****                   j=1;
 448:Src/main.c    ****                }
 449:Src/main.c    ****             }
 450:Src/main.c    ****             //Row Six
 451:Src/main.c    ****             if(i==6 && j>4){
 452:Src/main.c    ****                   i=7;
 453:Src/main.c    ****                   j=1;
 454:Src/main.c    ****             }
 455:Src/main.c    ****             //Row Seven
ARM GAS  /tmp/ccVirEur.s 			page 30


 456:Src/main.c    ****             if(i==7 && j>3){
 457:Src/main.c    ****                   i=8;
 458:Src/main.c    ****                   j=1;
 459:Src/main.c    ****             }
 460:Src/main.c    ****             //Row Eight
 461:Src/main.c    ****             if(i==8 && j>3){
 462:Src/main.c    ****                   i=9;
 463:Src/main.c    ****                   j=1;
 464:Src/main.c    ****             }
 465:Src/main.c    ****             //Row Nine
 466:Src/main.c    ****             if(i==9){
 467:Src/main.c    ****                i = 1;
 468:Src/main.c    ****                j++;
 469:Src/main.c    ****             }
 470:Src/main.c    **** 
 471:Src/main.c    ****             singleMatrix(i,j); 
 472:Src/main.c    ****            //Add matrix void jump here 
 473:Src/main.c    ****            HAL_Delay(500);
 474:Src/main.c    ****          }
 475:Src/main.c    ****          }
 476:Src/main.c    **** }
 477:Src/main.c    **** 
 478:Src/main.c    **** void singleMatrix(int x, int y){
 1023              		.loc 1 478 32 is_stmt 1 view -0
 1024              		.cfi_startproc
 1025              		@ args = 0, pretend = 0, frame = 0
 1026              		@ frame_needed = 0, uses_anonymous_args = 0
 1027              		.loc 1 478 32 is_stmt 0 view .LVU239
 1028 0000 70B5     		push	{r4, r5, r6, lr}
 1029              	.LCFI17:
 1030              		.cfi_def_cfa_offset 16
 1031              		.cfi_offset 4, -16
 1032              		.cfi_offset 5, -12
 1033              		.cfi_offset 6, -8
 1034              		.cfi_offset 14, -4
 1035 0002 0400     		movs	r4, r0
 1036 0004 0D00     		movs	r5, r1
 479:Src/main.c    ****    if(y == 1){
 1037              		.loc 1 479 4 is_stmt 1 view .LVU240
 1038              		.loc 1 479 6 is_stmt 0 view .LVU241
 1039 0006 0129     		cmp	r1, #1
 1040 0008 32D0     		beq	.L48
 1041              	.LVL74:
 1042              	.L30:
 480:Src/main.c    ****       //Row 1
 481:Src/main.c    ****       HAL_GPIO_WritePin(GPIOB, GPIO_PIN_1, GPIO_PIN_SET);
 482:Src/main.c    ****       //Row 2
 483:Src/main.c    ****       HAL_GPIO_WritePin(GPIOB, GPIO_PIN_0, GPIO_PIN_RESET);
 484:Src/main.c    ****       //Row 3
 485:Src/main.c    ****       HAL_GPIO_WritePin(GPIOA, GPIO_PIN_7, GPIO_PIN_RESET);
 486:Src/main.c    ****       //Row 4
 487:Src/main.c    ****       HAL_GPIO_WritePin(GPIOA, GPIO_PIN_6, GPIO_PIN_RESET);
 488:Src/main.c    ****       //Row 5
 489:Src/main.c    ****       HAL_GPIO_WritePin(GPIOA, GPIO_PIN_5, GPIO_PIN_RESET);
 490:Src/main.c    ****       //Row 6
 491:Src/main.c    ****       HAL_GPIO_WritePin(GPIOA, GPIO_PIN_4, GPIO_PIN_RESET);
 492:Src/main.c    ****       //Row 7
ARM GAS  /tmp/ccVirEur.s 			page 31


 493:Src/main.c    ****       HAL_GPIO_WritePin(GPIOA, GPIO_PIN_3, GPIO_PIN_RESET);
 494:Src/main.c    ****       //Row 8
 495:Src/main.c    ****       HAL_GPIO_WritePin(GPIOA, GPIO_PIN_2, GPIO_PIN_RESET);
 496:Src/main.c    ****       //Row 9
 497:Src/main.c    ****       HAL_GPIO_WritePin(GPIOA, GPIO_PIN_1, GPIO_PIN_RESET);
 498:Src/main.c    ****    }
 499:Src/main.c    ****    if(y == 2){
 1043              		.loc 1 499 4 is_stmt 1 view .LVU242
 1044              		.loc 1 499 6 is_stmt 0 view .LVU243
 1045 000a 022D     		cmp	r5, #2
 1046 000c 61D0     		beq	.L49
 1047              	.L31:
 500:Src/main.c    ****       //Row 1
 501:Src/main.c    ****       HAL_GPIO_WritePin(GPIOB, GPIO_PIN_1, GPIO_PIN_RESET);
 502:Src/main.c    ****       //Row 2
 503:Src/main.c    ****       HAL_GPIO_WritePin(GPIOB, GPIO_PIN_0, GPIO_PIN_SET);
 504:Src/main.c    ****       //Row 3
 505:Src/main.c    ****       HAL_GPIO_WritePin(GPIOA, GPIO_PIN_7, GPIO_PIN_RESET);
 506:Src/main.c    ****       //Row 4
 507:Src/main.c    ****       HAL_GPIO_WritePin(GPIOA, GPIO_PIN_6, GPIO_PIN_RESET);
 508:Src/main.c    ****       //Row 5
 509:Src/main.c    ****       HAL_GPIO_WritePin(GPIOA, GPIO_PIN_5, GPIO_PIN_RESET);
 510:Src/main.c    ****       //Row 6
 511:Src/main.c    ****       HAL_GPIO_WritePin(GPIOA, GPIO_PIN_4, GPIO_PIN_RESET);
 512:Src/main.c    ****       //Row 7
 513:Src/main.c    ****       HAL_GPIO_WritePin(GPIOA, GPIO_PIN_3, GPIO_PIN_RESET);
 514:Src/main.c    ****       //Row 8
 515:Src/main.c    ****       HAL_GPIO_WritePin(GPIOA, GPIO_PIN_2, GPIO_PIN_RESET);
 516:Src/main.c    ****       //Row 9
 517:Src/main.c    ****       HAL_GPIO_WritePin(GPIOA, GPIO_PIN_1, GPIO_PIN_RESET);
 518:Src/main.c    ****    }
 519:Src/main.c    ****    if(y == 3){
 1048              		.loc 1 519 4 is_stmt 1 view .LVU244
 1049              		.loc 1 519 6 is_stmt 0 view .LVU245
 1050 000e 032D     		cmp	r5, #3
 1051 0010 00D1     		bne	.LCB820
 1052 0012 8FE0     		b	.L50	@long jump
 1053              	.LCB820:
 1054              	.L32:
 520:Src/main.c    ****       //Row 1
 521:Src/main.c    ****       HAL_GPIO_WritePin(GPIOB, GPIO_PIN_1, GPIO_PIN_RESET);
 522:Src/main.c    ****       //Row 2
 523:Src/main.c    ****       HAL_GPIO_WritePin(GPIOB, GPIO_PIN_0, GPIO_PIN_RESET);
 524:Src/main.c    ****       //Row 3
 525:Src/main.c    ****       HAL_GPIO_WritePin(GPIOA, GPIO_PIN_7, GPIO_PIN_SET);
 526:Src/main.c    ****       //Row 4
 527:Src/main.c    ****       HAL_GPIO_WritePin(GPIOA, GPIO_PIN_6, GPIO_PIN_RESET);
 528:Src/main.c    ****       //Row 5
 529:Src/main.c    ****       HAL_GPIO_WritePin(GPIOA, GPIO_PIN_5, GPIO_PIN_RESET);
 530:Src/main.c    ****       //Row 6
 531:Src/main.c    ****       HAL_GPIO_WritePin(GPIOA, GPIO_PIN_4, GPIO_PIN_RESET);
 532:Src/main.c    ****       //Row 7
 533:Src/main.c    ****       HAL_GPIO_WritePin(GPIOA, GPIO_PIN_3, GPIO_PIN_RESET);
 534:Src/main.c    ****       //Row 8
 535:Src/main.c    ****       HAL_GPIO_WritePin(GPIOA, GPIO_PIN_2, GPIO_PIN_RESET);
 536:Src/main.c    ****       //Row 9
 537:Src/main.c    ****       HAL_GPIO_WritePin(GPIOA, GPIO_PIN_1, GPIO_PIN_RESET);
ARM GAS  /tmp/ccVirEur.s 			page 32


 538:Src/main.c    ****    }
 539:Src/main.c    ****    if(y == 4){
 1055              		.loc 1 539 4 is_stmt 1 view .LVU246
 1056              		.loc 1 539 6 is_stmt 0 view .LVU247
 1057 0014 042D     		cmp	r5, #4
 1058 0016 00D1     		bne	.LCB824
 1059 0018 BDE0     		b	.L51	@long jump
 1060              	.LCB824:
 1061              	.L33:
 540:Src/main.c    ****       //Row 1
 541:Src/main.c    ****       HAL_GPIO_WritePin(GPIOB, GPIO_PIN_1, GPIO_PIN_RESET);
 542:Src/main.c    ****       //Row 2
 543:Src/main.c    ****       HAL_GPIO_WritePin(GPIOB, GPIO_PIN_0, GPIO_PIN_RESET);
 544:Src/main.c    ****       //Row 3
 545:Src/main.c    ****       HAL_GPIO_WritePin(GPIOA, GPIO_PIN_7, GPIO_PIN_RESET);
 546:Src/main.c    ****       //Row 4
 547:Src/main.c    ****       HAL_GPIO_WritePin(GPIOA, GPIO_PIN_6, GPIO_PIN_SET);
 548:Src/main.c    ****       //Row 5
 549:Src/main.c    ****       HAL_GPIO_WritePin(GPIOA, GPIO_PIN_5, GPIO_PIN_RESET);
 550:Src/main.c    ****       //Row 6
 551:Src/main.c    ****       HAL_GPIO_WritePin(GPIOA, GPIO_PIN_4, GPIO_PIN_RESET);
 552:Src/main.c    ****       //Row 7
 553:Src/main.c    ****       HAL_GPIO_WritePin(GPIOA, GPIO_PIN_3, GPIO_PIN_RESET);
 554:Src/main.c    ****       //Row 8
 555:Src/main.c    ****       HAL_GPIO_WritePin(GPIOA, GPIO_PIN_2, GPIO_PIN_RESET);
 556:Src/main.c    ****       //Row 9
 557:Src/main.c    ****       HAL_GPIO_WritePin(GPIOA, GPIO_PIN_1, GPIO_PIN_RESET);
 558:Src/main.c    ****    }
 559:Src/main.c    ****    if(y == 5){
 1062              		.loc 1 559 4 is_stmt 1 view .LVU248
 1063              		.loc 1 559 6 is_stmt 0 view .LVU249
 1064 001a 052D     		cmp	r5, #5
 1065 001c 00D1     		bne	.LCB828
 1066 001e EBE0     		b	.L52	@long jump
 1067              	.LCB828:
 1068              	.L34:
 560:Src/main.c    ****       //Row 1
 561:Src/main.c    ****       HAL_GPIO_WritePin(GPIOB, GPIO_PIN_1, GPIO_PIN_RESET);
 562:Src/main.c    ****       //Row 2
 563:Src/main.c    ****       HAL_GPIO_WritePin(GPIOB, GPIO_PIN_0, GPIO_PIN_RESET);
 564:Src/main.c    ****       //Row 3
 565:Src/main.c    ****       HAL_GPIO_WritePin(GPIOA, GPIO_PIN_7, GPIO_PIN_RESET);
 566:Src/main.c    ****       //Row 4
 567:Src/main.c    ****       HAL_GPIO_WritePin(GPIOA, GPIO_PIN_6, GPIO_PIN_RESET);
 568:Src/main.c    ****       //Row 5
 569:Src/main.c    ****       HAL_GPIO_WritePin(GPIOA, GPIO_PIN_5, GPIO_PIN_SET);
 570:Src/main.c    ****       //Row 6
 571:Src/main.c    ****       HAL_GPIO_WritePin(GPIOA, GPIO_PIN_4, GPIO_PIN_RESET);
 572:Src/main.c    ****       //Row 7
 573:Src/main.c    ****       HAL_GPIO_WritePin(GPIOA, GPIO_PIN_3, GPIO_PIN_RESET);
 574:Src/main.c    ****       //Row 8
 575:Src/main.c    ****       HAL_GPIO_WritePin(GPIOA, GPIO_PIN_2, GPIO_PIN_RESET);
 576:Src/main.c    ****       //Row 9
 577:Src/main.c    ****       HAL_GPIO_WritePin(GPIOA, GPIO_PIN_1, GPIO_PIN_RESET);
 578:Src/main.c    ****    }
 579:Src/main.c    ****    if(y == 6){
 1069              		.loc 1 579 4 is_stmt 1 view .LVU250
ARM GAS  /tmp/ccVirEur.s 			page 33


 1070              		.loc 1 579 6 is_stmt 0 view .LVU251
 1071 0020 062D     		cmp	r5, #6
 1072 0022 00D1     		bne	.LCB832
 1073 0024 19E1     		b	.L53	@long jump
 1074              	.LCB832:
 1075              	.L35:
 580:Src/main.c    ****       //Row 1
 581:Src/main.c    ****       HAL_GPIO_WritePin(GPIOB, GPIO_PIN_1, GPIO_PIN_RESET);
 582:Src/main.c    ****       //Row 2
 583:Src/main.c    ****       HAL_GPIO_WritePin(GPIOB, GPIO_PIN_0, GPIO_PIN_RESET);
 584:Src/main.c    ****       //Row 3
 585:Src/main.c    ****       HAL_GPIO_WritePin(GPIOA, GPIO_PIN_7, GPIO_PIN_RESET);
 586:Src/main.c    ****       //Row 4
 587:Src/main.c    ****       HAL_GPIO_WritePin(GPIOA, GPIO_PIN_6, GPIO_PIN_RESET);
 588:Src/main.c    ****       //Row 5
 589:Src/main.c    ****       HAL_GPIO_WritePin(GPIOA, GPIO_PIN_5, GPIO_PIN_RESET);
 590:Src/main.c    ****       //Row 6
 591:Src/main.c    ****       HAL_GPIO_WritePin(GPIOA, GPIO_PIN_4, GPIO_PIN_SET);
 592:Src/main.c    ****       //Row 7
 593:Src/main.c    ****       HAL_GPIO_WritePin(GPIOA, GPIO_PIN_3, GPIO_PIN_RESET);
 594:Src/main.c    ****       //Row 8
 595:Src/main.c    ****       HAL_GPIO_WritePin(GPIOA, GPIO_PIN_2, GPIO_PIN_RESET);
 596:Src/main.c    ****       //Row 9
 597:Src/main.c    ****       HAL_GPIO_WritePin(GPIOA, GPIO_PIN_1, GPIO_PIN_RESET);
 598:Src/main.c    ****    }
 599:Src/main.c    ****    if(y == 7){
 1076              		.loc 1 599 4 is_stmt 1 view .LVU252
 1077              		.loc 1 599 6 is_stmt 0 view .LVU253
 1078 0026 072D     		cmp	r5, #7
 1079 0028 00D1     		bne	.LCB836
 1080 002a 47E1     		b	.L54	@long jump
 1081              	.LCB836:
 1082              	.L36:
 600:Src/main.c    ****       //Row 1
 601:Src/main.c    ****       HAL_GPIO_WritePin(GPIOB, GPIO_PIN_1, GPIO_PIN_RESET);
 602:Src/main.c    ****       //Row 2
 603:Src/main.c    ****       HAL_GPIO_WritePin(GPIOB, GPIO_PIN_0, GPIO_PIN_RESET);
 604:Src/main.c    ****       //Row 3
 605:Src/main.c    ****       HAL_GPIO_WritePin(GPIOA, GPIO_PIN_7, GPIO_PIN_RESET);
 606:Src/main.c    ****       //Row 4
 607:Src/main.c    ****       HAL_GPIO_WritePin(GPIOA, GPIO_PIN_6, GPIO_PIN_RESET);
 608:Src/main.c    ****       //Row 5
 609:Src/main.c    ****       HAL_GPIO_WritePin(GPIOA, GPIO_PIN_5, GPIO_PIN_RESET);
 610:Src/main.c    ****       //Row 6
 611:Src/main.c    ****       HAL_GPIO_WritePin(GPIOA, GPIO_PIN_4, GPIO_PIN_RESET);
 612:Src/main.c    ****       //Row 7
 613:Src/main.c    ****       HAL_GPIO_WritePin(GPIOA, GPIO_PIN_3, GPIO_PIN_SET);
 614:Src/main.c    ****       //Row 8
 615:Src/main.c    ****       HAL_GPIO_WritePin(GPIOA, GPIO_PIN_2, GPIO_PIN_RESET);
 616:Src/main.c    ****       //Row 9
 617:Src/main.c    ****       HAL_GPIO_WritePin(GPIOA, GPIO_PIN_1, GPIO_PIN_RESET);
 618:Src/main.c    ****    }
 619:Src/main.c    ****    if(y == 8){
 1083              		.loc 1 619 4 is_stmt 1 view .LVU254
 1084              		.loc 1 619 6 is_stmt 0 view .LVU255
 1085 002c 082D     		cmp	r5, #8
 1086 002e 00D1     		bne	.LCB840
ARM GAS  /tmp/ccVirEur.s 			page 34


 1087 0030 75E1     		b	.L55	@long jump
 1088              	.LCB840:
 1089              	.L37:
 620:Src/main.c    ****       //Row 1
 621:Src/main.c    ****       HAL_GPIO_WritePin(GPIOB, GPIO_PIN_1, GPIO_PIN_RESET);
 622:Src/main.c    ****       //Row 2
 623:Src/main.c    ****       HAL_GPIO_WritePin(GPIOB, GPIO_PIN_0, GPIO_PIN_RESET);
 624:Src/main.c    ****       //Row 3
 625:Src/main.c    ****       HAL_GPIO_WritePin(GPIOA, GPIO_PIN_7, GPIO_PIN_RESET);
 626:Src/main.c    ****       //Row 4
 627:Src/main.c    ****       HAL_GPIO_WritePin(GPIOA, GPIO_PIN_6, GPIO_PIN_RESET);
 628:Src/main.c    ****       //Row 5
 629:Src/main.c    ****       HAL_GPIO_WritePin(GPIOA, GPIO_PIN_5, GPIO_PIN_RESET);
 630:Src/main.c    ****       //Row 6
 631:Src/main.c    ****       HAL_GPIO_WritePin(GPIOA, GPIO_PIN_4, GPIO_PIN_RESET);
 632:Src/main.c    ****       //Row 7
 633:Src/main.c    ****       HAL_GPIO_WritePin(GPIOA, GPIO_PIN_3, GPIO_PIN_RESET);
 634:Src/main.c    ****       //Row 8
 635:Src/main.c    ****       HAL_GPIO_WritePin(GPIOA, GPIO_PIN_2, GPIO_PIN_SET);
 636:Src/main.c    ****       //Row 9
 637:Src/main.c    ****       HAL_GPIO_WritePin(GPIOA, GPIO_PIN_1, GPIO_PIN_RESET);
 638:Src/main.c    ****    }
 639:Src/main.c    ****    if(y == 9){
 1090              		.loc 1 639 4 is_stmt 1 view .LVU256
 1091              		.loc 1 639 6 is_stmt 0 view .LVU257
 1092 0032 092D     		cmp	r5, #9
 1093 0034 00D1     		bne	.LCB844
 1094 0036 A3E1     		b	.L56	@long jump
 1095              	.LCB844:
 1096              	.LVL75:
 1097              	.L38:
 640:Src/main.c    ****       //Row 1
 641:Src/main.c    ****       HAL_GPIO_WritePin(GPIOB, GPIO_PIN_1, GPIO_PIN_RESET);
 642:Src/main.c    ****       //Row 2
 643:Src/main.c    ****       HAL_GPIO_WritePin(GPIOB, GPIO_PIN_0, GPIO_PIN_RESET);
 644:Src/main.c    ****       //Row 3
 645:Src/main.c    ****       HAL_GPIO_WritePin(GPIOA, GPIO_PIN_7, GPIO_PIN_RESET);
 646:Src/main.c    ****       //Row 4
 647:Src/main.c    ****       HAL_GPIO_WritePin(GPIOA, GPIO_PIN_6, GPIO_PIN_RESET);
 648:Src/main.c    ****       //Row 5
 649:Src/main.c    ****       HAL_GPIO_WritePin(GPIOA, GPIO_PIN_5, GPIO_PIN_RESET);
 650:Src/main.c    ****       //Row 6
 651:Src/main.c    ****       HAL_GPIO_WritePin(GPIOA, GPIO_PIN_4, GPIO_PIN_RESET);
 652:Src/main.c    ****       //Row 7
 653:Src/main.c    ****       HAL_GPIO_WritePin(GPIOA, GPIO_PIN_3, GPIO_PIN_RESET);
 654:Src/main.c    ****       //Row 8
 655:Src/main.c    ****       HAL_GPIO_WritePin(GPIOA, GPIO_PIN_2, GPIO_PIN_RESET);
 656:Src/main.c    ****       //Row 9
 657:Src/main.c    ****       HAL_GPIO_WritePin(GPIOA, GPIO_PIN_1, GPIO_PIN_SET);
 658:Src/main.c    ****    }
 659:Src/main.c    **** 
 660:Src/main.c    ****    // Work on X now
 661:Src/main.c    ****    if(x == 1){
 1098              		.loc 1 661 4 is_stmt 1 view .LVU258
 1099              		.loc 1 661 6 is_stmt 0 view .LVU259
 1100 0038 012C     		cmp	r4, #1
 1101 003a 00D1     		bne	.LCB849
ARM GAS  /tmp/ccVirEur.s 			page 35


 1102 003c D1E1     		b	.L57	@long jump
 1103              	.LCB849:
 1104              	.L39:
 662:Src/main.c    ****       //C1
 663:Src/main.c    ****       HAL_GPIO_WritePin(GPIOA, GPIO_PIN_0, GPIO_PIN_RESET);
 664:Src/main.c    ****       //C2
 665:Src/main.c    ****       HAL_GPIO_WritePin(GPIOC, GPIO_PIN_15, GPIO_PIN_SET);
 666:Src/main.c    ****       //C3
 667:Src/main.c    ****       HAL_GPIO_WritePin(GPIOC, GPIO_PIN_14, GPIO_PIN_SET);
 668:Src/main.c    ****       //C4
 669:Src/main.c    ****       HAL_GPIO_WritePin(GPIOC, GPIO_PIN_13, GPIO_PIN_SET);
 670:Src/main.c    ****       //C5
 671:Src/main.c    ****       HAL_GPIO_WritePin(GPIOB, GPIO_PIN_9, GPIO_PIN_SET);
 672:Src/main.c    ****       //C6
 673:Src/main.c    ****       HAL_GPIO_WritePin(GPIOB, GPIO_PIN_8, GPIO_PIN_SET);
 674:Src/main.c    ****       //C7
 675:Src/main.c    ****       HAL_GPIO_WritePin(GPIOB, GPIO_PIN_5, GPIO_PIN_SET);
 676:Src/main.c    ****       //C8
 677:Src/main.c    ****       HAL_GPIO_WritePin(GPIOB, GPIO_PIN_4, GPIO_PIN_SET);
 678:Src/main.c    ****       //C9
 679:Src/main.c    ****       HAL_GPIO_WritePin(GPIOB, GPIO_PIN_3, GPIO_PIN_SET);
 680:Src/main.c    ****    }
 681:Src/main.c    ****    
 682:Src/main.c    ****    if(x == 2){
 1105              		.loc 1 682 4 is_stmt 1 view .LVU260
 1106              		.loc 1 682 6 is_stmt 0 view .LVU261
 1107 003e 022C     		cmp	r4, #2
 1108 0040 00D1     		bne	.LCB853
 1109 0042 09E2     		b	.L58	@long jump
 1110              	.LCB853:
 1111              	.L40:
 683:Src/main.c    ****       //C1
 684:Src/main.c    ****       HAL_GPIO_WritePin(GPIOA, GPIO_PIN_0, GPIO_PIN_SET);
 685:Src/main.c    ****       //C2
 686:Src/main.c    ****       HAL_GPIO_WritePin(GPIOC, GPIO_PIN_15, GPIO_PIN_RESET);
 687:Src/main.c    ****       //C3
 688:Src/main.c    ****       HAL_GPIO_WritePin(GPIOC, GPIO_PIN_14, GPIO_PIN_SET);
 689:Src/main.c    ****       //C4
 690:Src/main.c    ****       HAL_GPIO_WritePin(GPIOC, GPIO_PIN_13, GPIO_PIN_SET);
 691:Src/main.c    ****       //C5
 692:Src/main.c    ****       HAL_GPIO_WritePin(GPIOB, GPIO_PIN_9, GPIO_PIN_SET);
 693:Src/main.c    ****       //C6
 694:Src/main.c    ****       HAL_GPIO_WritePin(GPIOB, GPIO_PIN_8, GPIO_PIN_SET);
 695:Src/main.c    ****       //C7
 696:Src/main.c    ****       HAL_GPIO_WritePin(GPIOB, GPIO_PIN_5, GPIO_PIN_SET);
 697:Src/main.c    ****       //C8
 698:Src/main.c    ****       HAL_GPIO_WritePin(GPIOB, GPIO_PIN_4, GPIO_PIN_SET);
 699:Src/main.c    ****       //C9
 700:Src/main.c    ****       HAL_GPIO_WritePin(GPIOB, GPIO_PIN_3, GPIO_PIN_SET);
 701:Src/main.c    ****    }
 702:Src/main.c    ****    
 703:Src/main.c    ****    if(x == 3){
 1112              		.loc 1 703 4 is_stmt 1 view .LVU262
 1113              		.loc 1 703 6 is_stmt 0 view .LVU263
 1114 0044 032C     		cmp	r4, #3
 1115 0046 00D1     		bne	.LCB857
 1116 0048 3CE2     		b	.L59	@long jump
ARM GAS  /tmp/ccVirEur.s 			page 36


 1117              	.LCB857:
 1118              	.L41:
 704:Src/main.c    ****       //C1
 705:Src/main.c    ****       HAL_GPIO_WritePin(GPIOA, GPIO_PIN_0, GPIO_PIN_SET);
 706:Src/main.c    ****       //C2
 707:Src/main.c    ****       HAL_GPIO_WritePin(GPIOC, GPIO_PIN_15, GPIO_PIN_SET);
 708:Src/main.c    ****       //C3
 709:Src/main.c    ****       HAL_GPIO_WritePin(GPIOC, GPIO_PIN_14, GPIO_PIN_RESET);
 710:Src/main.c    ****       //C4
 711:Src/main.c    ****       HAL_GPIO_WritePin(GPIOC, GPIO_PIN_13, GPIO_PIN_SET);
 712:Src/main.c    ****       //C5
 713:Src/main.c    ****       HAL_GPIO_WritePin(GPIOB, GPIO_PIN_9, GPIO_PIN_SET);
 714:Src/main.c    ****       //C6
 715:Src/main.c    ****       HAL_GPIO_WritePin(GPIOB, GPIO_PIN_8, GPIO_PIN_SET);
 716:Src/main.c    ****       //C7
 717:Src/main.c    ****       HAL_GPIO_WritePin(GPIOB, GPIO_PIN_5, GPIO_PIN_SET);
 718:Src/main.c    ****       //C8
 719:Src/main.c    ****       HAL_GPIO_WritePin(GPIOB, GPIO_PIN_4, GPIO_PIN_SET);
 720:Src/main.c    ****       //C9
 721:Src/main.c    ****       HAL_GPIO_WritePin(GPIOB, GPIO_PIN_3, GPIO_PIN_SET);
 722:Src/main.c    ****    }
 723:Src/main.c    **** 
 724:Src/main.c    ****    if(x == 4){
 1119              		.loc 1 724 4 is_stmt 1 view .LVU264
 1120              		.loc 1 724 6 is_stmt 0 view .LVU265
 1121 004a 042C     		cmp	r4, #4
 1122 004c 00D1     		bne	.LCB861
 1123 004e 6FE2     		b	.L60	@long jump
 1124              	.LCB861:
 1125              	.L42:
 725:Src/main.c    ****       //C1
 726:Src/main.c    ****       HAL_GPIO_WritePin(GPIOA, GPIO_PIN_0, GPIO_PIN_SET);
 727:Src/main.c    ****       //C2
 728:Src/main.c    ****       HAL_GPIO_WritePin(GPIOC, GPIO_PIN_15, GPIO_PIN_SET);
 729:Src/main.c    ****       //C3
 730:Src/main.c    ****       HAL_GPIO_WritePin(GPIOC, GPIO_PIN_14, GPIO_PIN_SET);
 731:Src/main.c    ****       //C4
 732:Src/main.c    ****       HAL_GPIO_WritePin(GPIOC, GPIO_PIN_13, GPIO_PIN_RESET);
 733:Src/main.c    ****       //C5
 734:Src/main.c    ****       HAL_GPIO_WritePin(GPIOB, GPIO_PIN_9, GPIO_PIN_SET);
 735:Src/main.c    ****       //C6
 736:Src/main.c    ****       HAL_GPIO_WritePin(GPIOB, GPIO_PIN_8, GPIO_PIN_SET);
 737:Src/main.c    ****       //C7
 738:Src/main.c    ****       HAL_GPIO_WritePin(GPIOB, GPIO_PIN_5, GPIO_PIN_SET);
 739:Src/main.c    ****       //C8
 740:Src/main.c    ****       HAL_GPIO_WritePin(GPIOB, GPIO_PIN_4, GPIO_PIN_SET);
 741:Src/main.c    ****       //C9
 742:Src/main.c    ****       HAL_GPIO_WritePin(GPIOB, GPIO_PIN_3, GPIO_PIN_SET);
 743:Src/main.c    ****    }
 744:Src/main.c    ****    if(x == 5){
 1126              		.loc 1 744 4 is_stmt 1 view .LVU266
 1127              		.loc 1 744 6 is_stmt 0 view .LVU267
 1128 0050 052C     		cmp	r4, #5
 1129 0052 00D1     		bne	.LCB865
 1130 0054 A2E2     		b	.L61	@long jump
 1131              	.LCB865:
 1132              	.L43:
ARM GAS  /tmp/ccVirEur.s 			page 37


 745:Src/main.c    ****       //C1
 746:Src/main.c    ****       HAL_GPIO_WritePin(GPIOA, GPIO_PIN_0, GPIO_PIN_SET);
 747:Src/main.c    ****       //C2
 748:Src/main.c    ****       HAL_GPIO_WritePin(GPIOC, GPIO_PIN_15, GPIO_PIN_SET);
 749:Src/main.c    ****       //C3
 750:Src/main.c    ****       HAL_GPIO_WritePin(GPIOC, GPIO_PIN_14, GPIO_PIN_SET);
 751:Src/main.c    ****       //C4
 752:Src/main.c    ****       HAL_GPIO_WritePin(GPIOC, GPIO_PIN_13, GPIO_PIN_SET);
 753:Src/main.c    ****       //C5
 754:Src/main.c    ****       HAL_GPIO_WritePin(GPIOB, GPIO_PIN_9, GPIO_PIN_RESET);
 755:Src/main.c    ****       //C6
 756:Src/main.c    ****       HAL_GPIO_WritePin(GPIOB, GPIO_PIN_8, GPIO_PIN_SET);
 757:Src/main.c    ****       //C7
 758:Src/main.c    ****       HAL_GPIO_WritePin(GPIOB, GPIO_PIN_5, GPIO_PIN_SET);
 759:Src/main.c    ****       //C8
 760:Src/main.c    ****       HAL_GPIO_WritePin(GPIOB, GPIO_PIN_4, GPIO_PIN_SET);
 761:Src/main.c    ****       //C9
 762:Src/main.c    ****       HAL_GPIO_WritePin(GPIOB, GPIO_PIN_3, GPIO_PIN_SET);
 763:Src/main.c    ****    }
 764:Src/main.c    ****    if(x == 6){
 1133              		.loc 1 764 4 is_stmt 1 view .LVU268
 1134              		.loc 1 764 6 is_stmt 0 view .LVU269
 1135 0056 062C     		cmp	r4, #6
 1136 0058 00D1     		bne	.LCB869
 1137 005a D5E2     		b	.L62	@long jump
 1138              	.LCB869:
 1139              	.L44:
 765:Src/main.c    ****       //C1
 766:Src/main.c    ****       HAL_GPIO_WritePin(GPIOA, GPIO_PIN_0, GPIO_PIN_SET);
 767:Src/main.c    ****       //C2
 768:Src/main.c    ****       HAL_GPIO_WritePin(GPIOC, GPIO_PIN_15, GPIO_PIN_SET);
 769:Src/main.c    ****       //C3
 770:Src/main.c    ****       HAL_GPIO_WritePin(GPIOC, GPIO_PIN_14, GPIO_PIN_SET);
 771:Src/main.c    ****       //C4
 772:Src/main.c    ****       HAL_GPIO_WritePin(GPIOC, GPIO_PIN_13, GPIO_PIN_SET);
 773:Src/main.c    ****       //C5
 774:Src/main.c    ****       HAL_GPIO_WritePin(GPIOB, GPIO_PIN_9, GPIO_PIN_SET);
 775:Src/main.c    ****       //C6
 776:Src/main.c    ****       HAL_GPIO_WritePin(GPIOB, GPIO_PIN_8, GPIO_PIN_RESET);
 777:Src/main.c    ****       //C7
 778:Src/main.c    ****       HAL_GPIO_WritePin(GPIOB, GPIO_PIN_5, GPIO_PIN_SET);
 779:Src/main.c    ****       //C8
 780:Src/main.c    ****       HAL_GPIO_WritePin(GPIOB, GPIO_PIN_4, GPIO_PIN_SET);
 781:Src/main.c    ****       //C9
 782:Src/main.c    ****       HAL_GPIO_WritePin(GPIOB, GPIO_PIN_3, GPIO_PIN_SET);
 783:Src/main.c    ****    }
 784:Src/main.c    ****    if(x == 7){
 1140              		.loc 1 784 4 is_stmt 1 view .LVU270
 1141              		.loc 1 784 6 is_stmt 0 view .LVU271
 1142 005c 072C     		cmp	r4, #7
 1143 005e 00D1     		bne	.LCB873
 1144 0060 08E3     		b	.L63	@long jump
 1145              	.LCB873:
 1146              	.L45:
 785:Src/main.c    ****       //C1
 786:Src/main.c    ****       HAL_GPIO_WritePin(GPIOA, GPIO_PIN_0, GPIO_PIN_SET);
 787:Src/main.c    ****       //C2
ARM GAS  /tmp/ccVirEur.s 			page 38


 788:Src/main.c    ****       HAL_GPIO_WritePin(GPIOC, GPIO_PIN_15, GPIO_PIN_SET);
 789:Src/main.c    ****       //C3
 790:Src/main.c    ****       HAL_GPIO_WritePin(GPIOC, GPIO_PIN_14, GPIO_PIN_SET);
 791:Src/main.c    ****       //C4
 792:Src/main.c    ****       HAL_GPIO_WritePin(GPIOC, GPIO_PIN_13, GPIO_PIN_SET);
 793:Src/main.c    ****       //C5
 794:Src/main.c    ****       HAL_GPIO_WritePin(GPIOB, GPIO_PIN_9, GPIO_PIN_SET);
 795:Src/main.c    ****       //C6
 796:Src/main.c    ****       HAL_GPIO_WritePin(GPIOB, GPIO_PIN_8, GPIO_PIN_SET);
 797:Src/main.c    ****       //C7
 798:Src/main.c    ****       HAL_GPIO_WritePin(GPIOB, GPIO_PIN_5, GPIO_PIN_RESET);
 799:Src/main.c    ****       //C8
 800:Src/main.c    ****       HAL_GPIO_WritePin(GPIOB, GPIO_PIN_4, GPIO_PIN_SET);
 801:Src/main.c    ****       //C9
 802:Src/main.c    ****       HAL_GPIO_WritePin(GPIOB, GPIO_PIN_3, GPIO_PIN_SET);
 803:Src/main.c    ****    }
 804:Src/main.c    ****    if(x == 8){
 1147              		.loc 1 804 4 is_stmt 1 view .LVU272
 1148              		.loc 1 804 6 is_stmt 0 view .LVU273
 1149 0062 082C     		cmp	r4, #8
 1150 0064 00D1     		bne	.LCB877
 1151 0066 3BE3     		b	.L64	@long jump
 1152              	.LCB877:
 1153              	.L46:
 805:Src/main.c    ****       //C1
 806:Src/main.c    ****       HAL_GPIO_WritePin(GPIOA, GPIO_PIN_0, GPIO_PIN_SET);
 807:Src/main.c    ****       //C2
 808:Src/main.c    ****       HAL_GPIO_WritePin(GPIOC, GPIO_PIN_15, GPIO_PIN_SET);
 809:Src/main.c    ****       //C3
 810:Src/main.c    ****       HAL_GPIO_WritePin(GPIOC, GPIO_PIN_14, GPIO_PIN_SET);
 811:Src/main.c    ****       //C4
 812:Src/main.c    ****       HAL_GPIO_WritePin(GPIOC, GPIO_PIN_13, GPIO_PIN_SET);
 813:Src/main.c    ****       //C5
 814:Src/main.c    ****       HAL_GPIO_WritePin(GPIOB, GPIO_PIN_9, GPIO_PIN_SET);
 815:Src/main.c    ****       //C6
 816:Src/main.c    ****       HAL_GPIO_WritePin(GPIOB, GPIO_PIN_8, GPIO_PIN_SET);
 817:Src/main.c    ****       //C7
 818:Src/main.c    ****       HAL_GPIO_WritePin(GPIOB, GPIO_PIN_5, GPIO_PIN_SET);
 819:Src/main.c    ****       //C8
 820:Src/main.c    ****       HAL_GPIO_WritePin(GPIOB, GPIO_PIN_4, GPIO_PIN_RESET);
 821:Src/main.c    ****       //C9
 822:Src/main.c    ****       HAL_GPIO_WritePin(GPIOB, GPIO_PIN_3, GPIO_PIN_SET);
 823:Src/main.c    ****    }
 824:Src/main.c    **** 
 825:Src/main.c    ****    if(x == 9){
 1154              		.loc 1 825 4 is_stmt 1 view .LVU274
 1155              		.loc 1 825 6 is_stmt 0 view .LVU275
 1156 0068 092C     		cmp	r4, #9
 1157 006a 00D1     		bne	.LCB881
 1158 006c 6EE3     		b	.L65	@long jump
 1159              	.LCB881:
 1160              	.LVL76:
 1161              	.L29:
 826:Src/main.c    ****       //C1
 827:Src/main.c    ****       HAL_GPIO_WritePin(GPIOA, GPIO_PIN_0, GPIO_PIN_SET);
 828:Src/main.c    ****       //C2
 829:Src/main.c    ****       HAL_GPIO_WritePin(GPIOC, GPIO_PIN_15, GPIO_PIN_SET);
ARM GAS  /tmp/ccVirEur.s 			page 39


 830:Src/main.c    ****       //C3
 831:Src/main.c    ****       HAL_GPIO_WritePin(GPIOC, GPIO_PIN_14, GPIO_PIN_SET);
 832:Src/main.c    ****       //C4
 833:Src/main.c    ****       HAL_GPIO_WritePin(GPIOC, GPIO_PIN_13, GPIO_PIN_SET);
 834:Src/main.c    ****       //C5
 835:Src/main.c    ****       HAL_GPIO_WritePin(GPIOB, GPIO_PIN_9, GPIO_PIN_SET);
 836:Src/main.c    ****       //C6
 837:Src/main.c    ****       HAL_GPIO_WritePin(GPIOB, GPIO_PIN_8, GPIO_PIN_SET);
 838:Src/main.c    ****       //C7
 839:Src/main.c    ****       HAL_GPIO_WritePin(GPIOB, GPIO_PIN_5, GPIO_PIN_SET);
 840:Src/main.c    ****       //C8
 841:Src/main.c    ****       HAL_GPIO_WritePin(GPIOB, GPIO_PIN_4, GPIO_PIN_SET);
 842:Src/main.c    ****       //C9
 843:Src/main.c    ****       HAL_GPIO_WritePin(GPIOB, GPIO_PIN_3, GPIO_PIN_RESET);
 844:Src/main.c    ****    }
 845:Src/main.c    **** 
 846:Src/main.c    **** }
 1162              		.loc 1 846 1 view .LVU276
 1163              		@ sp needed
 1164 006e 70BD     		pop	{r4, r5, r6, pc}
 1165              	.LVL77:
 1166              	.L48:
 481:Src/main.c    ****       //Row 2
 1167              		.loc 1 481 7 is_stmt 1 view .LVU277
 1168 0070 F74E     		ldr	r6, .L66
 1169 0072 0122     		movs	r2, #1
 1170 0074 0221     		movs	r1, #2
 1171              	.LVL78:
 481:Src/main.c    ****       //Row 2
 1172              		.loc 1 481 7 is_stmt 0 view .LVU278
 1173 0076 3000     		movs	r0, r6
 1174              	.LVL79:
 481:Src/main.c    ****       //Row 2
 1175              		.loc 1 481 7 view .LVU279
 1176 0078 FFF7FEFF 		bl	HAL_GPIO_WritePin
 1177              	.LVL80:
 483:Src/main.c    ****       //Row 3
 1178              		.loc 1 483 7 is_stmt 1 view .LVU280
 1179 007c 0022     		movs	r2, #0
 1180 007e 0121     		movs	r1, #1
 1181 0080 3000     		movs	r0, r6
 1182 0082 FFF7FEFF 		bl	HAL_GPIO_WritePin
 1183              	.LVL81:
 485:Src/main.c    ****       //Row 4
 1184              		.loc 1 485 7 view .LVU281
 1185 0086 9026     		movs	r6, #144
 1186 0088 F605     		lsls	r6, r6, #23
 1187 008a 0022     		movs	r2, #0
 1188 008c 8021     		movs	r1, #128
 1189 008e 3000     		movs	r0, r6
 1190 0090 FFF7FEFF 		bl	HAL_GPIO_WritePin
 1191              	.LVL82:
 487:Src/main.c    ****       //Row 5
 1192              		.loc 1 487 7 view .LVU282
 1193 0094 0022     		movs	r2, #0
 1194 0096 4021     		movs	r1, #64
 1195 0098 3000     		movs	r0, r6
ARM GAS  /tmp/ccVirEur.s 			page 40


 1196 009a FFF7FEFF 		bl	HAL_GPIO_WritePin
 1197              	.LVL83:
 489:Src/main.c    ****       //Row 6
 1198              		.loc 1 489 7 view .LVU283
 1199 009e 0022     		movs	r2, #0
 1200 00a0 2021     		movs	r1, #32
 1201 00a2 3000     		movs	r0, r6
 1202 00a4 FFF7FEFF 		bl	HAL_GPIO_WritePin
 1203              	.LVL84:
 491:Src/main.c    ****       //Row 7
 1204              		.loc 1 491 7 view .LVU284
 1205 00a8 0022     		movs	r2, #0
 1206 00aa 1021     		movs	r1, #16
 1207 00ac 3000     		movs	r0, r6
 1208 00ae FFF7FEFF 		bl	HAL_GPIO_WritePin
 1209              	.LVL85:
 493:Src/main.c    ****       //Row 8
 1210              		.loc 1 493 7 view .LVU285
 1211 00b2 0022     		movs	r2, #0
 1212 00b4 0821     		movs	r1, #8
 1213 00b6 3000     		movs	r0, r6
 1214 00b8 FFF7FEFF 		bl	HAL_GPIO_WritePin
 1215              	.LVL86:
 495:Src/main.c    ****       //Row 9
 1216              		.loc 1 495 7 view .LVU286
 1217 00bc 0022     		movs	r2, #0
 1218 00be 0421     		movs	r1, #4
 1219 00c0 3000     		movs	r0, r6
 1220 00c2 FFF7FEFF 		bl	HAL_GPIO_WritePin
 1221              	.LVL87:
 497:Src/main.c    ****    }
 1222              		.loc 1 497 7 view .LVU287
 1223 00c6 0022     		movs	r2, #0
 1224 00c8 0221     		movs	r1, #2
 1225 00ca 3000     		movs	r0, r6
 1226 00cc FFF7FEFF 		bl	HAL_GPIO_WritePin
 1227              	.LVL88:
 1228 00d0 9BE7     		b	.L30
 1229              	.L49:
 501:Src/main.c    ****       //Row 2
 1230              		.loc 1 501 7 view .LVU288
 1231 00d2 DF4E     		ldr	r6, .L66
 1232 00d4 0022     		movs	r2, #0
 1233 00d6 0221     		movs	r1, #2
 1234 00d8 3000     		movs	r0, r6
 1235 00da FFF7FEFF 		bl	HAL_GPIO_WritePin
 1236              	.LVL89:
 503:Src/main.c    ****       //Row 3
 1237              		.loc 1 503 7 view .LVU289
 1238 00de 0122     		movs	r2, #1
 1239 00e0 0121     		movs	r1, #1
 1240 00e2 3000     		movs	r0, r6
 1241 00e4 FFF7FEFF 		bl	HAL_GPIO_WritePin
 1242              	.LVL90:
 505:Src/main.c    ****       //Row 4
 1243              		.loc 1 505 7 view .LVU290
 1244 00e8 9026     		movs	r6, #144
ARM GAS  /tmp/ccVirEur.s 			page 41


 1245 00ea F605     		lsls	r6, r6, #23
 1246 00ec 0022     		movs	r2, #0
 1247 00ee 8021     		movs	r1, #128
 1248 00f0 3000     		movs	r0, r6
 1249 00f2 FFF7FEFF 		bl	HAL_GPIO_WritePin
 1250              	.LVL91:
 507:Src/main.c    ****       //Row 5
 1251              		.loc 1 507 7 view .LVU291
 1252 00f6 0022     		movs	r2, #0
 1253 00f8 4021     		movs	r1, #64
 1254 00fa 3000     		movs	r0, r6
 1255 00fc FFF7FEFF 		bl	HAL_GPIO_WritePin
 1256              	.LVL92:
 509:Src/main.c    ****       //Row 6
 1257              		.loc 1 509 7 view .LVU292
 1258 0100 0022     		movs	r2, #0
 1259 0102 2021     		movs	r1, #32
 1260 0104 3000     		movs	r0, r6
 1261 0106 FFF7FEFF 		bl	HAL_GPIO_WritePin
 1262              	.LVL93:
 511:Src/main.c    ****       //Row 7
 1263              		.loc 1 511 7 view .LVU293
 1264 010a 0022     		movs	r2, #0
 1265 010c 1021     		movs	r1, #16
 1266 010e 3000     		movs	r0, r6
 1267 0110 FFF7FEFF 		bl	HAL_GPIO_WritePin
 1268              	.LVL94:
 513:Src/main.c    ****       //Row 8
 1269              		.loc 1 513 7 view .LVU294
 1270 0114 0022     		movs	r2, #0
 1271 0116 0821     		movs	r1, #8
 1272 0118 3000     		movs	r0, r6
 1273 011a FFF7FEFF 		bl	HAL_GPIO_WritePin
 1274              	.LVL95:
 515:Src/main.c    ****       //Row 9
 1275              		.loc 1 515 7 view .LVU295
 1276 011e 0022     		movs	r2, #0
 1277 0120 0421     		movs	r1, #4
 1278 0122 3000     		movs	r0, r6
 1279 0124 FFF7FEFF 		bl	HAL_GPIO_WritePin
 1280              	.LVL96:
 517:Src/main.c    ****    }
 1281              		.loc 1 517 7 view .LVU296
 1282 0128 0022     		movs	r2, #0
 1283 012a 0221     		movs	r1, #2
 1284 012c 3000     		movs	r0, r6
 1285 012e FFF7FEFF 		bl	HAL_GPIO_WritePin
 1286              	.LVL97:
 1287 0132 6CE7     		b	.L31
 1288              	.L50:
 521:Src/main.c    ****       //Row 2
 1289              		.loc 1 521 7 view .LVU297
 1290 0134 C64E     		ldr	r6, .L66
 1291 0136 0022     		movs	r2, #0
 1292 0138 0221     		movs	r1, #2
 1293 013a 3000     		movs	r0, r6
 1294 013c FFF7FEFF 		bl	HAL_GPIO_WritePin
ARM GAS  /tmp/ccVirEur.s 			page 42


 1295              	.LVL98:
 523:Src/main.c    ****       //Row 3
 1296              		.loc 1 523 7 view .LVU298
 1297 0140 0022     		movs	r2, #0
 1298 0142 0121     		movs	r1, #1
 1299 0144 3000     		movs	r0, r6
 1300 0146 FFF7FEFF 		bl	HAL_GPIO_WritePin
 1301              	.LVL99:
 525:Src/main.c    ****       //Row 4
 1302              		.loc 1 525 7 view .LVU299
 1303 014a 9026     		movs	r6, #144
 1304 014c F605     		lsls	r6, r6, #23
 1305 014e 0122     		movs	r2, #1
 1306 0150 8021     		movs	r1, #128
 1307 0152 3000     		movs	r0, r6
 1308 0154 FFF7FEFF 		bl	HAL_GPIO_WritePin
 1309              	.LVL100:
 527:Src/main.c    ****       //Row 5
 1310              		.loc 1 527 7 view .LVU300
 1311 0158 0022     		movs	r2, #0
 1312 015a 4021     		movs	r1, #64
 1313 015c 3000     		movs	r0, r6
 1314 015e FFF7FEFF 		bl	HAL_GPIO_WritePin
 1315              	.LVL101:
 529:Src/main.c    ****       //Row 6
 1316              		.loc 1 529 7 view .LVU301
 1317 0162 0022     		movs	r2, #0
 1318 0164 2021     		movs	r1, #32
 1319 0166 3000     		movs	r0, r6
 1320 0168 FFF7FEFF 		bl	HAL_GPIO_WritePin
 1321              	.LVL102:
 531:Src/main.c    ****       //Row 7
 1322              		.loc 1 531 7 view .LVU302
 1323 016c 0022     		movs	r2, #0
 1324 016e 1021     		movs	r1, #16
 1325 0170 3000     		movs	r0, r6
 1326 0172 FFF7FEFF 		bl	HAL_GPIO_WritePin
 1327              	.LVL103:
 533:Src/main.c    ****       //Row 8
 1328              		.loc 1 533 7 view .LVU303
 1329 0176 0022     		movs	r2, #0
 1330 0178 0821     		movs	r1, #8
 1331 017a 3000     		movs	r0, r6
 1332 017c FFF7FEFF 		bl	HAL_GPIO_WritePin
 1333              	.LVL104:
 535:Src/main.c    ****       //Row 9
 1334              		.loc 1 535 7 view .LVU304
 1335 0180 0022     		movs	r2, #0
 1336 0182 0421     		movs	r1, #4
 1337 0184 3000     		movs	r0, r6
 1338 0186 FFF7FEFF 		bl	HAL_GPIO_WritePin
 1339              	.LVL105:
 537:Src/main.c    ****    }
 1340              		.loc 1 537 7 view .LVU305
 1341 018a 0022     		movs	r2, #0
 1342 018c 0221     		movs	r1, #2
 1343 018e 3000     		movs	r0, r6
ARM GAS  /tmp/ccVirEur.s 			page 43


 1344 0190 FFF7FEFF 		bl	HAL_GPIO_WritePin
 1345              	.LVL106:
 1346 0194 3EE7     		b	.L32
 1347              	.L51:
 541:Src/main.c    ****       //Row 2
 1348              		.loc 1 541 7 view .LVU306
 1349 0196 AE4E     		ldr	r6, .L66
 1350 0198 0022     		movs	r2, #0
 1351 019a 0221     		movs	r1, #2
 1352 019c 3000     		movs	r0, r6
 1353 019e FFF7FEFF 		bl	HAL_GPIO_WritePin
 1354              	.LVL107:
 543:Src/main.c    ****       //Row 3
 1355              		.loc 1 543 7 view .LVU307
 1356 01a2 0022     		movs	r2, #0
 1357 01a4 0121     		movs	r1, #1
 1358 01a6 3000     		movs	r0, r6
 1359 01a8 FFF7FEFF 		bl	HAL_GPIO_WritePin
 1360              	.LVL108:
 545:Src/main.c    ****       //Row 4
 1361              		.loc 1 545 7 view .LVU308
 1362 01ac 9026     		movs	r6, #144
 1363 01ae F605     		lsls	r6, r6, #23
 1364 01b0 0022     		movs	r2, #0
 1365 01b2 8021     		movs	r1, #128
 1366 01b4 3000     		movs	r0, r6
 1367 01b6 FFF7FEFF 		bl	HAL_GPIO_WritePin
 1368              	.LVL109:
 547:Src/main.c    ****       //Row 5
 1369              		.loc 1 547 7 view .LVU309
 1370 01ba 0122     		movs	r2, #1
 1371 01bc 4021     		movs	r1, #64
 1372 01be 3000     		movs	r0, r6
 1373 01c0 FFF7FEFF 		bl	HAL_GPIO_WritePin
 1374              	.LVL110:
 549:Src/main.c    ****       //Row 6
 1375              		.loc 1 549 7 view .LVU310
 1376 01c4 0022     		movs	r2, #0
 1377 01c6 2021     		movs	r1, #32
 1378 01c8 3000     		movs	r0, r6
 1379 01ca FFF7FEFF 		bl	HAL_GPIO_WritePin
 1380              	.LVL111:
 551:Src/main.c    ****       //Row 7
 1381              		.loc 1 551 7 view .LVU311
 1382 01ce 0022     		movs	r2, #0
 1383 01d0 1021     		movs	r1, #16
 1384 01d2 3000     		movs	r0, r6
 1385 01d4 FFF7FEFF 		bl	HAL_GPIO_WritePin
 1386              	.LVL112:
 553:Src/main.c    ****       //Row 8
 1387              		.loc 1 553 7 view .LVU312
 1388 01d8 0022     		movs	r2, #0
 1389 01da 0821     		movs	r1, #8
 1390 01dc 3000     		movs	r0, r6
 1391 01de FFF7FEFF 		bl	HAL_GPIO_WritePin
 1392              	.LVL113:
 555:Src/main.c    ****       //Row 9
ARM GAS  /tmp/ccVirEur.s 			page 44


 1393              		.loc 1 555 7 view .LVU313
 1394 01e2 0022     		movs	r2, #0
 1395 01e4 0421     		movs	r1, #4
 1396 01e6 3000     		movs	r0, r6
 1397 01e8 FFF7FEFF 		bl	HAL_GPIO_WritePin
 1398              	.LVL114:
 557:Src/main.c    ****    }
 1399              		.loc 1 557 7 view .LVU314
 1400 01ec 0022     		movs	r2, #0
 1401 01ee 0221     		movs	r1, #2
 1402 01f0 3000     		movs	r0, r6
 1403 01f2 FFF7FEFF 		bl	HAL_GPIO_WritePin
 1404              	.LVL115:
 1405 01f6 10E7     		b	.L33
 1406              	.L52:
 561:Src/main.c    ****       //Row 2
 1407              		.loc 1 561 7 view .LVU315
 1408 01f8 954E     		ldr	r6, .L66
 1409 01fa 0022     		movs	r2, #0
 1410 01fc 0221     		movs	r1, #2
 1411 01fe 3000     		movs	r0, r6
 1412 0200 FFF7FEFF 		bl	HAL_GPIO_WritePin
 1413              	.LVL116:
 563:Src/main.c    ****       //Row 3
 1414              		.loc 1 563 7 view .LVU316
 1415 0204 0022     		movs	r2, #0
 1416 0206 0121     		movs	r1, #1
 1417 0208 3000     		movs	r0, r6
 1418 020a FFF7FEFF 		bl	HAL_GPIO_WritePin
 1419              	.LVL117:
 565:Src/main.c    ****       //Row 4
 1420              		.loc 1 565 7 view .LVU317
 1421 020e 9026     		movs	r6, #144
 1422 0210 F605     		lsls	r6, r6, #23
 1423 0212 0022     		movs	r2, #0
 1424 0214 8021     		movs	r1, #128
 1425 0216 3000     		movs	r0, r6
 1426 0218 FFF7FEFF 		bl	HAL_GPIO_WritePin
 1427              	.LVL118:
 567:Src/main.c    ****       //Row 5
 1428              		.loc 1 567 7 view .LVU318
 1429 021c 0022     		movs	r2, #0
 1430 021e 4021     		movs	r1, #64
 1431 0220 3000     		movs	r0, r6
 1432 0222 FFF7FEFF 		bl	HAL_GPIO_WritePin
 1433              	.LVL119:
 569:Src/main.c    ****       //Row 6
 1434              		.loc 1 569 7 view .LVU319
 1435 0226 0122     		movs	r2, #1
 1436 0228 2021     		movs	r1, #32
 1437 022a 3000     		movs	r0, r6
 1438 022c FFF7FEFF 		bl	HAL_GPIO_WritePin
 1439              	.LVL120:
 571:Src/main.c    ****       //Row 7
 1440              		.loc 1 571 7 view .LVU320
 1441 0230 0022     		movs	r2, #0
 1442 0232 1021     		movs	r1, #16
ARM GAS  /tmp/ccVirEur.s 			page 45


 1443 0234 3000     		movs	r0, r6
 1444 0236 FFF7FEFF 		bl	HAL_GPIO_WritePin
 1445              	.LVL121:
 573:Src/main.c    ****       //Row 8
 1446              		.loc 1 573 7 view .LVU321
 1447 023a 0022     		movs	r2, #0
 1448 023c 0821     		movs	r1, #8
 1449 023e 3000     		movs	r0, r6
 1450 0240 FFF7FEFF 		bl	HAL_GPIO_WritePin
 1451              	.LVL122:
 575:Src/main.c    ****       //Row 9
 1452              		.loc 1 575 7 view .LVU322
 1453 0244 0022     		movs	r2, #0
 1454 0246 0421     		movs	r1, #4
 1455 0248 3000     		movs	r0, r6
 1456 024a FFF7FEFF 		bl	HAL_GPIO_WritePin
 1457              	.LVL123:
 577:Src/main.c    ****    }
 1458              		.loc 1 577 7 view .LVU323
 1459 024e 0022     		movs	r2, #0
 1460 0250 0221     		movs	r1, #2
 1461 0252 3000     		movs	r0, r6
 1462 0254 FFF7FEFF 		bl	HAL_GPIO_WritePin
 1463              	.LVL124:
 1464 0258 E2E6     		b	.L34
 1465              	.L53:
 581:Src/main.c    ****       //Row 2
 1466              		.loc 1 581 7 view .LVU324
 1467 025a 7D4E     		ldr	r6, .L66
 1468 025c 0022     		movs	r2, #0
 1469 025e 0221     		movs	r1, #2
 1470 0260 3000     		movs	r0, r6
 1471 0262 FFF7FEFF 		bl	HAL_GPIO_WritePin
 1472              	.LVL125:
 583:Src/main.c    ****       //Row 3
 1473              		.loc 1 583 7 view .LVU325
 1474 0266 0022     		movs	r2, #0
 1475 0268 0121     		movs	r1, #1
 1476 026a 3000     		movs	r0, r6
 1477 026c FFF7FEFF 		bl	HAL_GPIO_WritePin
 1478              	.LVL126:
 585:Src/main.c    ****       //Row 4
 1479              		.loc 1 585 7 view .LVU326
 1480 0270 9026     		movs	r6, #144
 1481 0272 F605     		lsls	r6, r6, #23
 1482 0274 0022     		movs	r2, #0
 1483 0276 8021     		movs	r1, #128
 1484 0278 3000     		movs	r0, r6
 1485 027a FFF7FEFF 		bl	HAL_GPIO_WritePin
 1486              	.LVL127:
 587:Src/main.c    ****       //Row 5
 1487              		.loc 1 587 7 view .LVU327
 1488 027e 0022     		movs	r2, #0
 1489 0280 4021     		movs	r1, #64
 1490 0282 3000     		movs	r0, r6
 1491 0284 FFF7FEFF 		bl	HAL_GPIO_WritePin
 1492              	.LVL128:
ARM GAS  /tmp/ccVirEur.s 			page 46


 589:Src/main.c    ****       //Row 6
 1493              		.loc 1 589 7 view .LVU328
 1494 0288 0022     		movs	r2, #0
 1495 028a 2021     		movs	r1, #32
 1496 028c 3000     		movs	r0, r6
 1497 028e FFF7FEFF 		bl	HAL_GPIO_WritePin
 1498              	.LVL129:
 591:Src/main.c    ****       //Row 7
 1499              		.loc 1 591 7 view .LVU329
 1500 0292 0122     		movs	r2, #1
 1501 0294 1021     		movs	r1, #16
 1502 0296 3000     		movs	r0, r6
 1503 0298 FFF7FEFF 		bl	HAL_GPIO_WritePin
 1504              	.LVL130:
 593:Src/main.c    ****       //Row 8
 1505              		.loc 1 593 7 view .LVU330
 1506 029c 0022     		movs	r2, #0
 1507 029e 0821     		movs	r1, #8
 1508 02a0 3000     		movs	r0, r6
 1509 02a2 FFF7FEFF 		bl	HAL_GPIO_WritePin
 1510              	.LVL131:
 595:Src/main.c    ****       //Row 9
 1511              		.loc 1 595 7 view .LVU331
 1512 02a6 0022     		movs	r2, #0
 1513 02a8 0421     		movs	r1, #4
 1514 02aa 3000     		movs	r0, r6
 1515 02ac FFF7FEFF 		bl	HAL_GPIO_WritePin
 1516              	.LVL132:
 597:Src/main.c    ****    }
 1517              		.loc 1 597 7 view .LVU332
 1518 02b0 0022     		movs	r2, #0
 1519 02b2 0221     		movs	r1, #2
 1520 02b4 3000     		movs	r0, r6
 1521 02b6 FFF7FEFF 		bl	HAL_GPIO_WritePin
 1522              	.LVL133:
 1523 02ba B4E6     		b	.L35
 1524              	.L54:
 601:Src/main.c    ****       //Row 2
 1525              		.loc 1 601 7 view .LVU333
 1526 02bc 644E     		ldr	r6, .L66
 1527 02be 0022     		movs	r2, #0
 1528 02c0 0221     		movs	r1, #2
 1529 02c2 3000     		movs	r0, r6
 1530 02c4 FFF7FEFF 		bl	HAL_GPIO_WritePin
 1531              	.LVL134:
 603:Src/main.c    ****       //Row 3
 1532              		.loc 1 603 7 view .LVU334
 1533 02c8 0022     		movs	r2, #0
 1534 02ca 0121     		movs	r1, #1
 1535 02cc 3000     		movs	r0, r6
 1536 02ce FFF7FEFF 		bl	HAL_GPIO_WritePin
 1537              	.LVL135:
 605:Src/main.c    ****       //Row 4
 1538              		.loc 1 605 7 view .LVU335
 1539 02d2 9026     		movs	r6, #144
 1540 02d4 F605     		lsls	r6, r6, #23
 1541 02d6 0022     		movs	r2, #0
ARM GAS  /tmp/ccVirEur.s 			page 47


 1542 02d8 8021     		movs	r1, #128
 1543 02da 3000     		movs	r0, r6
 1544 02dc FFF7FEFF 		bl	HAL_GPIO_WritePin
 1545              	.LVL136:
 607:Src/main.c    ****       //Row 5
 1546              		.loc 1 607 7 view .LVU336
 1547 02e0 0022     		movs	r2, #0
 1548 02e2 4021     		movs	r1, #64
 1549 02e4 3000     		movs	r0, r6
 1550 02e6 FFF7FEFF 		bl	HAL_GPIO_WritePin
 1551              	.LVL137:
 609:Src/main.c    ****       //Row 6
 1552              		.loc 1 609 7 view .LVU337
 1553 02ea 0022     		movs	r2, #0
 1554 02ec 2021     		movs	r1, #32
 1555 02ee 3000     		movs	r0, r6
 1556 02f0 FFF7FEFF 		bl	HAL_GPIO_WritePin
 1557              	.LVL138:
 611:Src/main.c    ****       //Row 7
 1558              		.loc 1 611 7 view .LVU338
 1559 02f4 0022     		movs	r2, #0
 1560 02f6 1021     		movs	r1, #16
 1561 02f8 3000     		movs	r0, r6
 1562 02fa FFF7FEFF 		bl	HAL_GPIO_WritePin
 1563              	.LVL139:
 613:Src/main.c    ****       //Row 8
 1564              		.loc 1 613 7 view .LVU339
 1565 02fe 0122     		movs	r2, #1
 1566 0300 0821     		movs	r1, #8
 1567 0302 3000     		movs	r0, r6
 1568 0304 FFF7FEFF 		bl	HAL_GPIO_WritePin
 1569              	.LVL140:
 615:Src/main.c    ****       //Row 9
 1570              		.loc 1 615 7 view .LVU340
 1571 0308 0022     		movs	r2, #0
 1572 030a 0421     		movs	r1, #4
 1573 030c 3000     		movs	r0, r6
 1574 030e FFF7FEFF 		bl	HAL_GPIO_WritePin
 1575              	.LVL141:
 617:Src/main.c    ****    }
 1576              		.loc 1 617 7 view .LVU341
 1577 0312 0022     		movs	r2, #0
 1578 0314 0221     		movs	r1, #2
 1579 0316 3000     		movs	r0, r6
 1580 0318 FFF7FEFF 		bl	HAL_GPIO_WritePin
 1581              	.LVL142:
 1582 031c 86E6     		b	.L36
 1583              	.L55:
 621:Src/main.c    ****       //Row 2
 1584              		.loc 1 621 7 view .LVU342
 1585 031e 4C4E     		ldr	r6, .L66
 1586 0320 0022     		movs	r2, #0
 1587 0322 0221     		movs	r1, #2
 1588 0324 3000     		movs	r0, r6
 1589 0326 FFF7FEFF 		bl	HAL_GPIO_WritePin
 1590              	.LVL143:
 623:Src/main.c    ****       //Row 3
ARM GAS  /tmp/ccVirEur.s 			page 48


 1591              		.loc 1 623 7 view .LVU343
 1592 032a 0022     		movs	r2, #0
 1593 032c 0121     		movs	r1, #1
 1594 032e 3000     		movs	r0, r6
 1595 0330 FFF7FEFF 		bl	HAL_GPIO_WritePin
 1596              	.LVL144:
 625:Src/main.c    ****       //Row 4
 1597              		.loc 1 625 7 view .LVU344
 1598 0334 9026     		movs	r6, #144
 1599 0336 F605     		lsls	r6, r6, #23
 1600 0338 0022     		movs	r2, #0
 1601 033a 8021     		movs	r1, #128
 1602 033c 3000     		movs	r0, r6
 1603 033e FFF7FEFF 		bl	HAL_GPIO_WritePin
 1604              	.LVL145:
 627:Src/main.c    ****       //Row 5
 1605              		.loc 1 627 7 view .LVU345
 1606 0342 0022     		movs	r2, #0
 1607 0344 4021     		movs	r1, #64
 1608 0346 3000     		movs	r0, r6
 1609 0348 FFF7FEFF 		bl	HAL_GPIO_WritePin
 1610              	.LVL146:
 629:Src/main.c    ****       //Row 6
 1611              		.loc 1 629 7 view .LVU346
 1612 034c 0022     		movs	r2, #0
 1613 034e 2021     		movs	r1, #32
 1614 0350 3000     		movs	r0, r6
 1615 0352 FFF7FEFF 		bl	HAL_GPIO_WritePin
 1616              	.LVL147:
 631:Src/main.c    ****       //Row 7
 1617              		.loc 1 631 7 view .LVU347
 1618 0356 0022     		movs	r2, #0
 1619 0358 1021     		movs	r1, #16
 1620 035a 3000     		movs	r0, r6
 1621 035c FFF7FEFF 		bl	HAL_GPIO_WritePin
 1622              	.LVL148:
 633:Src/main.c    ****       //Row 8
 1623              		.loc 1 633 7 view .LVU348
 1624 0360 0022     		movs	r2, #0
 1625 0362 0821     		movs	r1, #8
 1626 0364 3000     		movs	r0, r6
 1627 0366 FFF7FEFF 		bl	HAL_GPIO_WritePin
 1628              	.LVL149:
 635:Src/main.c    ****       //Row 9
 1629              		.loc 1 635 7 view .LVU349
 1630 036a 0122     		movs	r2, #1
 1631 036c 0421     		movs	r1, #4
 1632 036e 3000     		movs	r0, r6
 1633 0370 FFF7FEFF 		bl	HAL_GPIO_WritePin
 1634              	.LVL150:
 637:Src/main.c    ****    }
 1635              		.loc 1 637 7 view .LVU350
 1636 0374 0022     		movs	r2, #0
 1637 0376 0221     		movs	r1, #2
 1638 0378 3000     		movs	r0, r6
 1639 037a FFF7FEFF 		bl	HAL_GPIO_WritePin
 1640              	.LVL151:
ARM GAS  /tmp/ccVirEur.s 			page 49


 1641 037e 58E6     		b	.L37
 1642              	.L56:
 641:Src/main.c    ****       //Row 2
 1643              		.loc 1 641 7 view .LVU351
 1644 0380 334D     		ldr	r5, .L66
 1645              	.LVL152:
 641:Src/main.c    ****       //Row 2
 1646              		.loc 1 641 7 is_stmt 0 view .LVU352
 1647 0382 0022     		movs	r2, #0
 1648 0384 0221     		movs	r1, #2
 1649 0386 2800     		movs	r0, r5
 1650 0388 FFF7FEFF 		bl	HAL_GPIO_WritePin
 1651              	.LVL153:
 643:Src/main.c    ****       //Row 3
 1652              		.loc 1 643 7 is_stmt 1 view .LVU353
 1653 038c 0022     		movs	r2, #0
 1654 038e 0121     		movs	r1, #1
 1655 0390 2800     		movs	r0, r5
 1656 0392 FFF7FEFF 		bl	HAL_GPIO_WritePin
 1657              	.LVL154:
 645:Src/main.c    ****       //Row 4
 1658              		.loc 1 645 7 view .LVU354
 1659 0396 9025     		movs	r5, #144
 1660 0398 ED05     		lsls	r5, r5, #23
 1661 039a 0022     		movs	r2, #0
 1662 039c 8021     		movs	r1, #128
 1663 039e 2800     		movs	r0, r5
 1664 03a0 FFF7FEFF 		bl	HAL_GPIO_WritePin
 1665              	.LVL155:
 647:Src/main.c    ****       //Row 5
 1666              		.loc 1 647 7 view .LVU355
 1667 03a4 0022     		movs	r2, #0
 1668 03a6 4021     		movs	r1, #64
 1669 03a8 2800     		movs	r0, r5
 1670 03aa FFF7FEFF 		bl	HAL_GPIO_WritePin
 1671              	.LVL156:
 649:Src/main.c    ****       //Row 6
 1672              		.loc 1 649 7 view .LVU356
 1673 03ae 0022     		movs	r2, #0
 1674 03b0 2021     		movs	r1, #32
 1675 03b2 2800     		movs	r0, r5
 1676 03b4 FFF7FEFF 		bl	HAL_GPIO_WritePin
 1677              	.LVL157:
 651:Src/main.c    ****       //Row 7
 1678              		.loc 1 651 7 view .LVU357
 1679 03b8 0022     		movs	r2, #0
 1680 03ba 1021     		movs	r1, #16
 1681 03bc 2800     		movs	r0, r5
 1682 03be FFF7FEFF 		bl	HAL_GPIO_WritePin
 1683              	.LVL158:
 653:Src/main.c    ****       //Row 8
 1684              		.loc 1 653 7 view .LVU358
 1685 03c2 0022     		movs	r2, #0
 1686 03c4 0821     		movs	r1, #8
 1687 03c6 2800     		movs	r0, r5
 1688 03c8 FFF7FEFF 		bl	HAL_GPIO_WritePin
 1689              	.LVL159:
ARM GAS  /tmp/ccVirEur.s 			page 50


 655:Src/main.c    ****       //Row 9
 1690              		.loc 1 655 7 view .LVU359
 1691 03cc 0022     		movs	r2, #0
 1692 03ce 0421     		movs	r1, #4
 1693 03d0 2800     		movs	r0, r5
 1694 03d2 FFF7FEFF 		bl	HAL_GPIO_WritePin
 1695              	.LVL160:
 657:Src/main.c    ****    }
 1696              		.loc 1 657 7 view .LVU360
 1697 03d6 0122     		movs	r2, #1
 1698 03d8 0221     		movs	r1, #2
 1699 03da 2800     		movs	r0, r5
 1700 03dc FFF7FEFF 		bl	HAL_GPIO_WritePin
 1701              	.LVL161:
 1702 03e0 2AE6     		b	.L38
 1703              	.L57:
 663:Src/main.c    ****       //C2
 1704              		.loc 1 663 7 view .LVU361
 1705 03e2 9020     		movs	r0, #144
 1706 03e4 0022     		movs	r2, #0
 1707 03e6 0121     		movs	r1, #1
 1708 03e8 C005     		lsls	r0, r0, #23
 1709 03ea FFF7FEFF 		bl	HAL_GPIO_WritePin
 1710              	.LVL162:
 665:Src/main.c    ****       //C3
 1711              		.loc 1 665 7 view .LVU362
 1712 03ee 8021     		movs	r1, #128
 1713 03f0 184D     		ldr	r5, .L66+4
 1714 03f2 0122     		movs	r2, #1
 1715 03f4 0902     		lsls	r1, r1, #8
 1716 03f6 2800     		movs	r0, r5
 1717 03f8 FFF7FEFF 		bl	HAL_GPIO_WritePin
 1718              	.LVL163:
 667:Src/main.c    ****       //C4
 1719              		.loc 1 667 7 view .LVU363
 1720 03fc 8021     		movs	r1, #128
 1721 03fe 0122     		movs	r2, #1
 1722 0400 C901     		lsls	r1, r1, #7
 1723 0402 2800     		movs	r0, r5
 1724 0404 FFF7FEFF 		bl	HAL_GPIO_WritePin
 1725              	.LVL164:
 669:Src/main.c    ****       //C5
 1726              		.loc 1 669 7 view .LVU364
 1727 0408 8021     		movs	r1, #128
 1728 040a 0122     		movs	r2, #1
 1729 040c 8901     		lsls	r1, r1, #6
 1730 040e 2800     		movs	r0, r5
 1731 0410 FFF7FEFF 		bl	HAL_GPIO_WritePin
 1732              	.LVL165:
 671:Src/main.c    ****       //C6
 1733              		.loc 1 671 7 view .LVU365
 1734 0414 8021     		movs	r1, #128
 1735 0416 0E4D     		ldr	r5, .L66
 1736 0418 0122     		movs	r2, #1
 1737 041a 8900     		lsls	r1, r1, #2
 1738 041c 2800     		movs	r0, r5
 1739 041e FFF7FEFF 		bl	HAL_GPIO_WritePin
ARM GAS  /tmp/ccVirEur.s 			page 51


 1740              	.LVL166:
 673:Src/main.c    ****       //C7
 1741              		.loc 1 673 7 view .LVU366
 1742 0422 8021     		movs	r1, #128
 1743 0424 0122     		movs	r2, #1
 1744 0426 4900     		lsls	r1, r1, #1
 1745 0428 2800     		movs	r0, r5
 1746 042a FFF7FEFF 		bl	HAL_GPIO_WritePin
 1747              	.LVL167:
 675:Src/main.c    ****       //C8
 1748              		.loc 1 675 7 view .LVU367
 1749 042e 0122     		movs	r2, #1
 1750 0430 2021     		movs	r1, #32
 1751 0432 2800     		movs	r0, r5
 1752 0434 FFF7FEFF 		bl	HAL_GPIO_WritePin
 1753              	.LVL168:
 677:Src/main.c    ****       //C9
 1754              		.loc 1 677 7 view .LVU368
 1755 0438 0122     		movs	r2, #1
 1756 043a 1021     		movs	r1, #16
 1757 043c 2800     		movs	r0, r5
 1758 043e FFF7FEFF 		bl	HAL_GPIO_WritePin
 1759              	.LVL169:
 679:Src/main.c    ****    }
 1760              		.loc 1 679 7 view .LVU369
 1761 0442 0122     		movs	r2, #1
 1762 0444 0821     		movs	r1, #8
 1763 0446 2800     		movs	r0, r5
 1764 0448 FFF7FEFF 		bl	HAL_GPIO_WritePin
 1765              	.LVL170:
 1766 044c F7E5     		b	.L39
 1767              	.L67:
 1768 044e C046     		.align	2
 1769              	.L66:
 1770 0450 00040048 		.word	1207960576
 1771 0454 00080048 		.word	1207961600
 1772              	.L58:
 684:Src/main.c    ****       //C2
 1773              		.loc 1 684 7 view .LVU370
 1774 0458 9020     		movs	r0, #144
 1775 045a 0122     		movs	r2, #1
 1776 045c 0121     		movs	r1, #1
 1777 045e C005     		lsls	r0, r0, #23
 1778 0460 FFF7FEFF 		bl	HAL_GPIO_WritePin
 1779              	.LVL171:
 686:Src/main.c    ****       //C3
 1780              		.loc 1 686 7 view .LVU371
 1781 0464 8021     		movs	r1, #128
 1782 0466 D44D     		ldr	r5, .L68
 1783 0468 0022     		movs	r2, #0
 1784 046a 0902     		lsls	r1, r1, #8
 1785 046c 2800     		movs	r0, r5
 1786 046e FFF7FEFF 		bl	HAL_GPIO_WritePin
 1787              	.LVL172:
 688:Src/main.c    ****       //C4
 1788              		.loc 1 688 7 view .LVU372
 1789 0472 8021     		movs	r1, #128
ARM GAS  /tmp/ccVirEur.s 			page 52


 1790 0474 0122     		movs	r2, #1
 1791 0476 C901     		lsls	r1, r1, #7
 1792 0478 2800     		movs	r0, r5
 1793 047a FFF7FEFF 		bl	HAL_GPIO_WritePin
 1794              	.LVL173:
 690:Src/main.c    ****       //C5
 1795              		.loc 1 690 7 view .LVU373
 1796 047e 8021     		movs	r1, #128
 1797 0480 0122     		movs	r2, #1
 1798 0482 8901     		lsls	r1, r1, #6
 1799 0484 2800     		movs	r0, r5
 1800 0486 FFF7FEFF 		bl	HAL_GPIO_WritePin
 1801              	.LVL174:
 692:Src/main.c    ****       //C6
 1802              		.loc 1 692 7 view .LVU374
 1803 048a 8021     		movs	r1, #128
 1804 048c CB4D     		ldr	r5, .L68+4
 1805 048e 0122     		movs	r2, #1
 1806 0490 8900     		lsls	r1, r1, #2
 1807 0492 2800     		movs	r0, r5
 1808 0494 FFF7FEFF 		bl	HAL_GPIO_WritePin
 1809              	.LVL175:
 694:Src/main.c    ****       //C7
 1810              		.loc 1 694 7 view .LVU375
 1811 0498 8021     		movs	r1, #128
 1812 049a 0122     		movs	r2, #1
 1813 049c 4900     		lsls	r1, r1, #1
 1814 049e 2800     		movs	r0, r5
 1815 04a0 FFF7FEFF 		bl	HAL_GPIO_WritePin
 1816              	.LVL176:
 696:Src/main.c    ****       //C8
 1817              		.loc 1 696 7 view .LVU376
 1818 04a4 0122     		movs	r2, #1
 1819 04a6 2021     		movs	r1, #32
 1820 04a8 2800     		movs	r0, r5
 1821 04aa FFF7FEFF 		bl	HAL_GPIO_WritePin
 1822              	.LVL177:
 698:Src/main.c    ****       //C9
 1823              		.loc 1 698 7 view .LVU377
 1824 04ae 0122     		movs	r2, #1
 1825 04b0 1021     		movs	r1, #16
 1826 04b2 2800     		movs	r0, r5
 1827 04b4 FFF7FEFF 		bl	HAL_GPIO_WritePin
 1828              	.LVL178:
 700:Src/main.c    ****    }
 1829              		.loc 1 700 7 view .LVU378
 1830 04b8 0122     		movs	r2, #1
 1831 04ba 0821     		movs	r1, #8
 1832 04bc 2800     		movs	r0, r5
 1833 04be FFF7FEFF 		bl	HAL_GPIO_WritePin
 1834              	.LVL179:
 1835 04c2 BFE5     		b	.L40
 1836              	.L59:
 705:Src/main.c    ****       //C2
 1837              		.loc 1 705 7 view .LVU379
 1838 04c4 9020     		movs	r0, #144
 1839 04c6 0122     		movs	r2, #1
ARM GAS  /tmp/ccVirEur.s 			page 53


 1840 04c8 0121     		movs	r1, #1
 1841 04ca C005     		lsls	r0, r0, #23
 1842 04cc FFF7FEFF 		bl	HAL_GPIO_WritePin
 1843              	.LVL180:
 707:Src/main.c    ****       //C3
 1844              		.loc 1 707 7 view .LVU380
 1845 04d0 8021     		movs	r1, #128
 1846 04d2 B94D     		ldr	r5, .L68
 1847 04d4 0122     		movs	r2, #1
 1848 04d6 0902     		lsls	r1, r1, #8
 1849 04d8 2800     		movs	r0, r5
 1850 04da FFF7FEFF 		bl	HAL_GPIO_WritePin
 1851              	.LVL181:
 709:Src/main.c    ****       //C4
 1852              		.loc 1 709 7 view .LVU381
 1853 04de 8021     		movs	r1, #128
 1854 04e0 0022     		movs	r2, #0
 1855 04e2 C901     		lsls	r1, r1, #7
 1856 04e4 2800     		movs	r0, r5
 1857 04e6 FFF7FEFF 		bl	HAL_GPIO_WritePin
 1858              	.LVL182:
 711:Src/main.c    ****       //C5
 1859              		.loc 1 711 7 view .LVU382
 1860 04ea 8021     		movs	r1, #128
 1861 04ec 0122     		movs	r2, #1
 1862 04ee 8901     		lsls	r1, r1, #6
 1863 04f0 2800     		movs	r0, r5
 1864 04f2 FFF7FEFF 		bl	HAL_GPIO_WritePin
 1865              	.LVL183:
 713:Src/main.c    ****       //C6
 1866              		.loc 1 713 7 view .LVU383
 1867 04f6 8021     		movs	r1, #128
 1868 04f8 B04D     		ldr	r5, .L68+4
 1869 04fa 0122     		movs	r2, #1
 1870 04fc 8900     		lsls	r1, r1, #2
 1871 04fe 2800     		movs	r0, r5
 1872 0500 FFF7FEFF 		bl	HAL_GPIO_WritePin
 1873              	.LVL184:
 715:Src/main.c    ****       //C7
 1874              		.loc 1 715 7 view .LVU384
 1875 0504 8021     		movs	r1, #128
 1876 0506 0122     		movs	r2, #1
 1877 0508 4900     		lsls	r1, r1, #1
 1878 050a 2800     		movs	r0, r5
 1879 050c FFF7FEFF 		bl	HAL_GPIO_WritePin
 1880              	.LVL185:
 717:Src/main.c    ****       //C8
 1881              		.loc 1 717 7 view .LVU385
 1882 0510 0122     		movs	r2, #1
 1883 0512 2021     		movs	r1, #32
 1884 0514 2800     		movs	r0, r5
 1885 0516 FFF7FEFF 		bl	HAL_GPIO_WritePin
 1886              	.LVL186:
 719:Src/main.c    ****       //C9
 1887              		.loc 1 719 7 view .LVU386
 1888 051a 0122     		movs	r2, #1
 1889 051c 1021     		movs	r1, #16
ARM GAS  /tmp/ccVirEur.s 			page 54


 1890 051e 2800     		movs	r0, r5
 1891 0520 FFF7FEFF 		bl	HAL_GPIO_WritePin
 1892              	.LVL187:
 721:Src/main.c    ****    }
 1893              		.loc 1 721 7 view .LVU387
 1894 0524 0122     		movs	r2, #1
 1895 0526 0821     		movs	r1, #8
 1896 0528 2800     		movs	r0, r5
 1897 052a FFF7FEFF 		bl	HAL_GPIO_WritePin
 1898              	.LVL188:
 1899 052e 8CE5     		b	.L41
 1900              	.L60:
 726:Src/main.c    ****       //C2
 1901              		.loc 1 726 7 view .LVU388
 1902 0530 9020     		movs	r0, #144
 1903 0532 0122     		movs	r2, #1
 1904 0534 0121     		movs	r1, #1
 1905 0536 C005     		lsls	r0, r0, #23
 1906 0538 FFF7FEFF 		bl	HAL_GPIO_WritePin
 1907              	.LVL189:
 728:Src/main.c    ****       //C3
 1908              		.loc 1 728 7 view .LVU389
 1909 053c 8021     		movs	r1, #128
 1910 053e 9E4D     		ldr	r5, .L68
 1911 0540 0122     		movs	r2, #1
 1912 0542 0902     		lsls	r1, r1, #8
 1913 0544 2800     		movs	r0, r5
 1914 0546 FFF7FEFF 		bl	HAL_GPIO_WritePin
 1915              	.LVL190:
 730:Src/main.c    ****       //C4
 1916              		.loc 1 730 7 view .LVU390
 1917 054a 8021     		movs	r1, #128
 1918 054c 0122     		movs	r2, #1
 1919 054e C901     		lsls	r1, r1, #7
 1920 0550 2800     		movs	r0, r5
 1921 0552 FFF7FEFF 		bl	HAL_GPIO_WritePin
 1922              	.LVL191:
 732:Src/main.c    ****       //C5
 1923              		.loc 1 732 7 view .LVU391
 1924 0556 8021     		movs	r1, #128
 1925 0558 0022     		movs	r2, #0
 1926 055a 8901     		lsls	r1, r1, #6
 1927 055c 2800     		movs	r0, r5
 1928 055e FFF7FEFF 		bl	HAL_GPIO_WritePin
 1929              	.LVL192:
 734:Src/main.c    ****       //C6
 1930              		.loc 1 734 7 view .LVU392
 1931 0562 8021     		movs	r1, #128
 1932 0564 954D     		ldr	r5, .L68+4
 1933 0566 0122     		movs	r2, #1
 1934 0568 8900     		lsls	r1, r1, #2
 1935 056a 2800     		movs	r0, r5
 1936 056c FFF7FEFF 		bl	HAL_GPIO_WritePin
 1937              	.LVL193:
 736:Src/main.c    ****       //C7
 1938              		.loc 1 736 7 view .LVU393
 1939 0570 8021     		movs	r1, #128
ARM GAS  /tmp/ccVirEur.s 			page 55


 1940 0572 0122     		movs	r2, #1
 1941 0574 4900     		lsls	r1, r1, #1
 1942 0576 2800     		movs	r0, r5
 1943 0578 FFF7FEFF 		bl	HAL_GPIO_WritePin
 1944              	.LVL194:
 738:Src/main.c    ****       //C8
 1945              		.loc 1 738 7 view .LVU394
 1946 057c 0122     		movs	r2, #1
 1947 057e 2021     		movs	r1, #32
 1948 0580 2800     		movs	r0, r5
 1949 0582 FFF7FEFF 		bl	HAL_GPIO_WritePin
 1950              	.LVL195:
 740:Src/main.c    ****       //C9
 1951              		.loc 1 740 7 view .LVU395
 1952 0586 0122     		movs	r2, #1
 1953 0588 1021     		movs	r1, #16
 1954 058a 2800     		movs	r0, r5
 1955 058c FFF7FEFF 		bl	HAL_GPIO_WritePin
 1956              	.LVL196:
 742:Src/main.c    ****    }
 1957              		.loc 1 742 7 view .LVU396
 1958 0590 0122     		movs	r2, #1
 1959 0592 0821     		movs	r1, #8
 1960 0594 2800     		movs	r0, r5
 1961 0596 FFF7FEFF 		bl	HAL_GPIO_WritePin
 1962              	.LVL197:
 1963 059a 59E5     		b	.L42
 1964              	.L61:
 746:Src/main.c    ****       //C2
 1965              		.loc 1 746 7 view .LVU397
 1966 059c 9020     		movs	r0, #144
 1967 059e 0122     		movs	r2, #1
 1968 05a0 0121     		movs	r1, #1
 1969 05a2 C005     		lsls	r0, r0, #23
 1970 05a4 FFF7FEFF 		bl	HAL_GPIO_WritePin
 1971              	.LVL198:
 748:Src/main.c    ****       //C3
 1972              		.loc 1 748 7 view .LVU398
 1973 05a8 8021     		movs	r1, #128
 1974 05aa 834D     		ldr	r5, .L68
 1975 05ac 0122     		movs	r2, #1
 1976 05ae 0902     		lsls	r1, r1, #8
 1977 05b0 2800     		movs	r0, r5
 1978 05b2 FFF7FEFF 		bl	HAL_GPIO_WritePin
 1979              	.LVL199:
 750:Src/main.c    ****       //C4
 1980              		.loc 1 750 7 view .LVU399
 1981 05b6 8021     		movs	r1, #128
 1982 05b8 0122     		movs	r2, #1
 1983 05ba C901     		lsls	r1, r1, #7
 1984 05bc 2800     		movs	r0, r5
 1985 05be FFF7FEFF 		bl	HAL_GPIO_WritePin
 1986              	.LVL200:
 752:Src/main.c    ****       //C5
 1987              		.loc 1 752 7 view .LVU400
 1988 05c2 8021     		movs	r1, #128
 1989 05c4 0122     		movs	r2, #1
ARM GAS  /tmp/ccVirEur.s 			page 56


 1990 05c6 8901     		lsls	r1, r1, #6
 1991 05c8 2800     		movs	r0, r5
 1992 05ca FFF7FEFF 		bl	HAL_GPIO_WritePin
 1993              	.LVL201:
 754:Src/main.c    ****       //C6
 1994              		.loc 1 754 7 view .LVU401
 1995 05ce 8021     		movs	r1, #128
 1996 05d0 7A4D     		ldr	r5, .L68+4
 1997 05d2 0022     		movs	r2, #0
 1998 05d4 8900     		lsls	r1, r1, #2
 1999 05d6 2800     		movs	r0, r5
 2000 05d8 FFF7FEFF 		bl	HAL_GPIO_WritePin
 2001              	.LVL202:
 756:Src/main.c    ****       //C7
 2002              		.loc 1 756 7 view .LVU402
 2003 05dc 8021     		movs	r1, #128
 2004 05de 0122     		movs	r2, #1
 2005 05e0 4900     		lsls	r1, r1, #1
 2006 05e2 2800     		movs	r0, r5
 2007 05e4 FFF7FEFF 		bl	HAL_GPIO_WritePin
 2008              	.LVL203:
 758:Src/main.c    ****       //C8
 2009              		.loc 1 758 7 view .LVU403
 2010 05e8 0122     		movs	r2, #1
 2011 05ea 2021     		movs	r1, #32
 2012 05ec 2800     		movs	r0, r5
 2013 05ee FFF7FEFF 		bl	HAL_GPIO_WritePin
 2014              	.LVL204:
 760:Src/main.c    ****       //C9
 2015              		.loc 1 760 7 view .LVU404
 2016 05f2 0122     		movs	r2, #1
 2017 05f4 1021     		movs	r1, #16
 2018 05f6 2800     		movs	r0, r5
 2019 05f8 FFF7FEFF 		bl	HAL_GPIO_WritePin
 2020              	.LVL205:
 762:Src/main.c    ****    }
 2021              		.loc 1 762 7 view .LVU405
 2022 05fc 0122     		movs	r2, #1
 2023 05fe 0821     		movs	r1, #8
 2024 0600 2800     		movs	r0, r5
 2025 0602 FFF7FEFF 		bl	HAL_GPIO_WritePin
 2026              	.LVL206:
 2027 0606 26E5     		b	.L43
 2028              	.L62:
 766:Src/main.c    ****       //C2
 2029              		.loc 1 766 7 view .LVU406
 2030 0608 9020     		movs	r0, #144
 2031 060a 0122     		movs	r2, #1
 2032 060c 0121     		movs	r1, #1
 2033 060e C005     		lsls	r0, r0, #23
 2034 0610 FFF7FEFF 		bl	HAL_GPIO_WritePin
 2035              	.LVL207:
 768:Src/main.c    ****       //C3
 2036              		.loc 1 768 7 view .LVU407
 2037 0614 8021     		movs	r1, #128
 2038 0616 684D     		ldr	r5, .L68
 2039 0618 0122     		movs	r2, #1
ARM GAS  /tmp/ccVirEur.s 			page 57


 2040 061a 0902     		lsls	r1, r1, #8
 2041 061c 2800     		movs	r0, r5
 2042 061e FFF7FEFF 		bl	HAL_GPIO_WritePin
 2043              	.LVL208:
 770:Src/main.c    ****       //C4
 2044              		.loc 1 770 7 view .LVU408
 2045 0622 8021     		movs	r1, #128
 2046 0624 0122     		movs	r2, #1
 2047 0626 C901     		lsls	r1, r1, #7
 2048 0628 2800     		movs	r0, r5
 2049 062a FFF7FEFF 		bl	HAL_GPIO_WritePin
 2050              	.LVL209:
 772:Src/main.c    ****       //C5
 2051              		.loc 1 772 7 view .LVU409
 2052 062e 8021     		movs	r1, #128
 2053 0630 0122     		movs	r2, #1
 2054 0632 8901     		lsls	r1, r1, #6
 2055 0634 2800     		movs	r0, r5
 2056 0636 FFF7FEFF 		bl	HAL_GPIO_WritePin
 2057              	.LVL210:
 774:Src/main.c    ****       //C6
 2058              		.loc 1 774 7 view .LVU410
 2059 063a 8021     		movs	r1, #128
 2060 063c 5F4D     		ldr	r5, .L68+4
 2061 063e 0122     		movs	r2, #1
 2062 0640 8900     		lsls	r1, r1, #2
 2063 0642 2800     		movs	r0, r5
 2064 0644 FFF7FEFF 		bl	HAL_GPIO_WritePin
 2065              	.LVL211:
 776:Src/main.c    ****       //C7
 2066              		.loc 1 776 7 view .LVU411
 2067 0648 8021     		movs	r1, #128
 2068 064a 0022     		movs	r2, #0
 2069 064c 4900     		lsls	r1, r1, #1
 2070 064e 2800     		movs	r0, r5
 2071 0650 FFF7FEFF 		bl	HAL_GPIO_WritePin
 2072              	.LVL212:
 778:Src/main.c    ****       //C8
 2073              		.loc 1 778 7 view .LVU412
 2074 0654 0122     		movs	r2, #1
 2075 0656 2021     		movs	r1, #32
 2076 0658 2800     		movs	r0, r5
 2077 065a FFF7FEFF 		bl	HAL_GPIO_WritePin
 2078              	.LVL213:
 780:Src/main.c    ****       //C9
 2079              		.loc 1 780 7 view .LVU413
 2080 065e 0122     		movs	r2, #1
 2081 0660 1021     		movs	r1, #16
 2082 0662 2800     		movs	r0, r5
 2083 0664 FFF7FEFF 		bl	HAL_GPIO_WritePin
 2084              	.LVL214:
 782:Src/main.c    ****    }
 2085              		.loc 1 782 7 view .LVU414
 2086 0668 0122     		movs	r2, #1
 2087 066a 0821     		movs	r1, #8
 2088 066c 2800     		movs	r0, r5
 2089 066e FFF7FEFF 		bl	HAL_GPIO_WritePin
ARM GAS  /tmp/ccVirEur.s 			page 58


 2090              	.LVL215:
 2091 0672 F3E4     		b	.L44
 2092              	.L63:
 786:Src/main.c    ****       //C2
 2093              		.loc 1 786 7 view .LVU415
 2094 0674 9020     		movs	r0, #144
 2095 0676 0122     		movs	r2, #1
 2096 0678 0121     		movs	r1, #1
 2097 067a C005     		lsls	r0, r0, #23
 2098 067c FFF7FEFF 		bl	HAL_GPIO_WritePin
 2099              	.LVL216:
 788:Src/main.c    ****       //C3
 2100              		.loc 1 788 7 view .LVU416
 2101 0680 8021     		movs	r1, #128
 2102 0682 4D4D     		ldr	r5, .L68
 2103 0684 0122     		movs	r2, #1
 2104 0686 0902     		lsls	r1, r1, #8
 2105 0688 2800     		movs	r0, r5
 2106 068a FFF7FEFF 		bl	HAL_GPIO_WritePin
 2107              	.LVL217:
 790:Src/main.c    ****       //C4
 2108              		.loc 1 790 7 view .LVU417
 2109 068e 8021     		movs	r1, #128
 2110 0690 0122     		movs	r2, #1
 2111 0692 C901     		lsls	r1, r1, #7
 2112 0694 2800     		movs	r0, r5
 2113 0696 FFF7FEFF 		bl	HAL_GPIO_WritePin
 2114              	.LVL218:
 792:Src/main.c    ****       //C5
 2115              		.loc 1 792 7 view .LVU418
 2116 069a 8021     		movs	r1, #128
 2117 069c 0122     		movs	r2, #1
 2118 069e 8901     		lsls	r1, r1, #6
 2119 06a0 2800     		movs	r0, r5
 2120 06a2 FFF7FEFF 		bl	HAL_GPIO_WritePin
 2121              	.LVL219:
 794:Src/main.c    ****       //C6
 2122              		.loc 1 794 7 view .LVU419
 2123 06a6 8021     		movs	r1, #128
 2124 06a8 444D     		ldr	r5, .L68+4
 2125 06aa 0122     		movs	r2, #1
 2126 06ac 8900     		lsls	r1, r1, #2
 2127 06ae 2800     		movs	r0, r5
 2128 06b0 FFF7FEFF 		bl	HAL_GPIO_WritePin
 2129              	.LVL220:
 796:Src/main.c    ****       //C7
 2130              		.loc 1 796 7 view .LVU420
 2131 06b4 8021     		movs	r1, #128
 2132 06b6 0122     		movs	r2, #1
 2133 06b8 4900     		lsls	r1, r1, #1
 2134 06ba 2800     		movs	r0, r5
 2135 06bc FFF7FEFF 		bl	HAL_GPIO_WritePin
 2136              	.LVL221:
 798:Src/main.c    ****       //C8
 2137              		.loc 1 798 7 view .LVU421
 2138 06c0 0022     		movs	r2, #0
 2139 06c2 2021     		movs	r1, #32
ARM GAS  /tmp/ccVirEur.s 			page 59


 2140 06c4 2800     		movs	r0, r5
 2141 06c6 FFF7FEFF 		bl	HAL_GPIO_WritePin
 2142              	.LVL222:
 800:Src/main.c    ****       //C9
 2143              		.loc 1 800 7 view .LVU422
 2144 06ca 0122     		movs	r2, #1
 2145 06cc 1021     		movs	r1, #16
 2146 06ce 2800     		movs	r0, r5
 2147 06d0 FFF7FEFF 		bl	HAL_GPIO_WritePin
 2148              	.LVL223:
 802:Src/main.c    ****    }
 2149              		.loc 1 802 7 view .LVU423
 2150 06d4 0122     		movs	r2, #1
 2151 06d6 0821     		movs	r1, #8
 2152 06d8 2800     		movs	r0, r5
 2153 06da FFF7FEFF 		bl	HAL_GPIO_WritePin
 2154              	.LVL224:
 2155 06de C0E4     		b	.L45
 2156              	.L64:
 806:Src/main.c    ****       //C2
 2157              		.loc 1 806 7 view .LVU424
 2158 06e0 9020     		movs	r0, #144
 2159 06e2 0122     		movs	r2, #1
 2160 06e4 0121     		movs	r1, #1
 2161 06e6 C005     		lsls	r0, r0, #23
 2162 06e8 FFF7FEFF 		bl	HAL_GPIO_WritePin
 2163              	.LVL225:
 808:Src/main.c    ****       //C3
 2164              		.loc 1 808 7 view .LVU425
 2165 06ec 8021     		movs	r1, #128
 2166 06ee 324D     		ldr	r5, .L68
 2167 06f0 0122     		movs	r2, #1
 2168 06f2 0902     		lsls	r1, r1, #8
 2169 06f4 2800     		movs	r0, r5
 2170 06f6 FFF7FEFF 		bl	HAL_GPIO_WritePin
 2171              	.LVL226:
 810:Src/main.c    ****       //C4
 2172              		.loc 1 810 7 view .LVU426
 2173 06fa 8021     		movs	r1, #128
 2174 06fc 0122     		movs	r2, #1
 2175 06fe C901     		lsls	r1, r1, #7
 2176 0700 2800     		movs	r0, r5
 2177 0702 FFF7FEFF 		bl	HAL_GPIO_WritePin
 2178              	.LVL227:
 812:Src/main.c    ****       //C5
 2179              		.loc 1 812 7 view .LVU427
 2180 0706 8021     		movs	r1, #128
 2181 0708 0122     		movs	r2, #1
 2182 070a 8901     		lsls	r1, r1, #6
 2183 070c 2800     		movs	r0, r5
 2184 070e FFF7FEFF 		bl	HAL_GPIO_WritePin
 2185              	.LVL228:
 814:Src/main.c    ****       //C6
 2186              		.loc 1 814 7 view .LVU428
 2187 0712 8021     		movs	r1, #128
 2188 0714 294D     		ldr	r5, .L68+4
 2189 0716 0122     		movs	r2, #1
ARM GAS  /tmp/ccVirEur.s 			page 60


 2190 0718 8900     		lsls	r1, r1, #2
 2191 071a 2800     		movs	r0, r5
 2192 071c FFF7FEFF 		bl	HAL_GPIO_WritePin
 2193              	.LVL229:
 816:Src/main.c    ****       //C7
 2194              		.loc 1 816 7 view .LVU429
 2195 0720 8021     		movs	r1, #128
 2196 0722 0122     		movs	r2, #1
 2197 0724 4900     		lsls	r1, r1, #1
 2198 0726 2800     		movs	r0, r5
 2199 0728 FFF7FEFF 		bl	HAL_GPIO_WritePin
 2200              	.LVL230:
 818:Src/main.c    ****       //C8
 2201              		.loc 1 818 7 view .LVU430
 2202 072c 0122     		movs	r2, #1
 2203 072e 2021     		movs	r1, #32
 2204 0730 2800     		movs	r0, r5
 2205 0732 FFF7FEFF 		bl	HAL_GPIO_WritePin
 2206              	.LVL231:
 820:Src/main.c    ****       //C9
 2207              		.loc 1 820 7 view .LVU431
 2208 0736 0022     		movs	r2, #0
 2209 0738 1021     		movs	r1, #16
 2210 073a 2800     		movs	r0, r5
 2211 073c FFF7FEFF 		bl	HAL_GPIO_WritePin
 2212              	.LVL232:
 822:Src/main.c    ****    }
 2213              		.loc 1 822 7 view .LVU432
 2214 0740 0122     		movs	r2, #1
 2215 0742 0821     		movs	r1, #8
 2216 0744 2800     		movs	r0, r5
 2217 0746 FFF7FEFF 		bl	HAL_GPIO_WritePin
 2218              	.LVL233:
 2219 074a 8DE4     		b	.L46
 2220              	.L65:
 827:Src/main.c    ****       //C2
 2221              		.loc 1 827 7 view .LVU433
 2222 074c 9020     		movs	r0, #144
 2223 074e 0122     		movs	r2, #1
 2224 0750 0121     		movs	r1, #1
 2225 0752 C005     		lsls	r0, r0, #23
 2226 0754 FFF7FEFF 		bl	HAL_GPIO_WritePin
 2227              	.LVL234:
 829:Src/main.c    ****       //C3
 2228              		.loc 1 829 7 view .LVU434
 2229 0758 8021     		movs	r1, #128
 2230 075a 174C     		ldr	r4, .L68
 2231              	.LVL235:
 829:Src/main.c    ****       //C3
 2232              		.loc 1 829 7 is_stmt 0 view .LVU435
 2233 075c 0122     		movs	r2, #1
 2234 075e 0902     		lsls	r1, r1, #8
 2235 0760 2000     		movs	r0, r4
 2236 0762 FFF7FEFF 		bl	HAL_GPIO_WritePin
 2237              	.LVL236:
 831:Src/main.c    ****       //C4
 2238              		.loc 1 831 7 is_stmt 1 view .LVU436
ARM GAS  /tmp/ccVirEur.s 			page 61


 2239 0766 8021     		movs	r1, #128
 2240 0768 0122     		movs	r2, #1
 2241 076a C901     		lsls	r1, r1, #7
 2242 076c 2000     		movs	r0, r4
 2243 076e FFF7FEFF 		bl	HAL_GPIO_WritePin
 2244              	.LVL237:
 833:Src/main.c    ****       //C5
 2245              		.loc 1 833 7 view .LVU437
 2246 0772 8021     		movs	r1, #128
 2247 0774 0122     		movs	r2, #1
 2248 0776 8901     		lsls	r1, r1, #6
 2249 0778 2000     		movs	r0, r4
 2250 077a FFF7FEFF 		bl	HAL_GPIO_WritePin
 2251              	.LVL238:
 835:Src/main.c    ****       //C6
 2252              		.loc 1 835 7 view .LVU438
 2253 077e 8021     		movs	r1, #128
 2254 0780 0E4C     		ldr	r4, .L68+4
 2255 0782 0122     		movs	r2, #1
 2256 0784 8900     		lsls	r1, r1, #2
 2257 0786 2000     		movs	r0, r4
 2258 0788 FFF7FEFF 		bl	HAL_GPIO_WritePin
 2259              	.LVL239:
 837:Src/main.c    ****       //C7
 2260              		.loc 1 837 7 view .LVU439
 2261 078c 8021     		movs	r1, #128
 2262 078e 0122     		movs	r2, #1
 2263 0790 4900     		lsls	r1, r1, #1
 2264 0792 2000     		movs	r0, r4
 2265 0794 FFF7FEFF 		bl	HAL_GPIO_WritePin
 2266              	.LVL240:
 839:Src/main.c    ****       //C8
 2267              		.loc 1 839 7 view .LVU440
 2268 0798 0122     		movs	r2, #1
 2269 079a 2021     		movs	r1, #32
 2270 079c 2000     		movs	r0, r4
 2271 079e FFF7FEFF 		bl	HAL_GPIO_WritePin
 2272              	.LVL241:
 841:Src/main.c    ****       //C9
 2273              		.loc 1 841 7 view .LVU441
 2274 07a2 0122     		movs	r2, #1
 2275 07a4 1021     		movs	r1, #16
 2276 07a6 2000     		movs	r0, r4
 2277 07a8 FFF7FEFF 		bl	HAL_GPIO_WritePin
 2278              	.LVL242:
 843:Src/main.c    ****    }
 2279              		.loc 1 843 7 view .LVU442
 2280 07ac 0022     		movs	r2, #0
 2281 07ae 0821     		movs	r1, #8
 2282 07b0 2000     		movs	r0, r4
 2283 07b2 FFF7FEFF 		bl	HAL_GPIO_WritePin
 2284              	.LVL243:
 2285              		.loc 1 846 1 is_stmt 0 view .LVU443
 2286 07b6 5AE4     		b	.L29
 2287              	.L69:
 2288              		.align	2
 2289              	.L68:
ARM GAS  /tmp/ccVirEur.s 			page 62


 2290 07b8 00080048 		.word	1207961600
 2291 07bc 00040048 		.word	1207960576
 2292              		.cfi_endproc
 2293              	.LFE53:
 2295              		.section	.text.cycleMatrix,"ax",%progbits
 2296              		.align	1
 2297              		.global	cycleMatrix
 2298              		.syntax unified
 2299              		.code	16
 2300              		.thumb_func
 2301              		.fpu softvfp
 2303              	cycleMatrix:
 2304              	.LFB52:
 411:Src/main.c    ****       for(int i=1; i<10; i++){
 2305              		.loc 1 411 19 is_stmt 1 view -0
 2306              		.cfi_startproc
 2307              		@ args = 0, pretend = 0, frame = 0
 2308              		@ frame_needed = 0, uses_anonymous_args = 0
 2309 0000 70B5     		push	{r4, r5, r6, lr}
 2310              	.LCFI18:
 2311              		.cfi_def_cfa_offset 16
 2312              		.cfi_offset 4, -16
 2313              		.cfi_offset 5, -12
 2314              		.cfi_offset 6, -8
 2315              		.cfi_offset 14, -4
 412:Src/main.c    ****          for(int j=1; j<10; j++){
 2316              		.loc 1 412 7 view .LVU445
 2317              	.LBB8:
 412:Src/main.c    ****          for(int j=1; j<10; j++){
 2318              		.loc 1 412 11 view .LVU446
 2319              	.LVL244:
 412:Src/main.c    ****          for(int j=1; j<10; j++){
 2320              		.loc 1 412 15 is_stmt 0 view .LVU447
 2321 0002 0125     		movs	r5, #1
 412:Src/main.c    ****          for(int j=1; j<10; j++){
 2322              		.loc 1 412 7 view .LVU448
 2323 0004 49E0     		b	.L71
 2324              	.LVL245:
 2325              	.L103:
 2326              	.LBB9:
 416:Src/main.c    ****                   j++;
 2327              		.loc 1 416 16 is_stmt 1 view .LVU449
 416:Src/main.c    ****                   j++;
 2328              		.loc 1 416 18 is_stmt 0 view .LVU450
 2329 0006 042C     		cmp	r4, #4
 2330 0008 3ED0     		beq	.L101
 418:Src/main.c    ****                   i=3;
 2331              		.loc 1 418 21 is_stmt 1 view .LVU451
 418:Src/main.c    ****                   i=3;
 2332              		.loc 1 418 23 is_stmt 0 view .LVU452
 2333 000a 092C     		cmp	r4, #9
 2334 000c 2DD1     		bne	.L72
 420:Src/main.c    ****                }
 2335              		.loc 1 420 20 view .LVU453
 2336 000e 0124     		movs	r4, #1
 2337              	.LVL246:
 419:Src/main.c    ****                   j=1;
ARM GAS  /tmp/ccVirEur.s 			page 63


 2338              		.loc 1 419 20 view .LVU454
 2339 0010 0325     		movs	r5, #3
 2340              	.LVL247:
 2341              	.L74:
 425:Src/main.c    ****                   j=5;
 2342              		.loc 1 425 16 is_stmt 1 view .LVU455
 425:Src/main.c    ****                   j=5;
 2343              		.loc 1 425 18 is_stmt 0 view .LVU456
 2344 0012 032C     		cmp	r4, #3
 2345 0014 3AD0     		beq	.L91
 427:Src/main.c    ****                   i=4;
 2346              		.loc 1 427 21 is_stmt 1 view .LVU457
 427:Src/main.c    ****                   i=4;
 2347              		.loc 1 427 23 is_stmt 0 view .LVU458
 2348 0016 072C     		cmp	r4, #7
 2349 0018 29DD     		ble	.L75
 429:Src/main.c    ****                }
 2350              		.loc 1 429 20 view .LVU459
 2351 001a 0124     		movs	r4, #1
 428:Src/main.c    ****                   j=1;
 2352              		.loc 1 428 20 view .LVU460
 2353 001c 0425     		movs	r5, #4
 2354              	.L76:
 434:Src/main.c    ****                   j=5;
 2355              		.loc 1 434 16 is_stmt 1 view .LVU461
 434:Src/main.c    ****                   j=5;
 2356              		.loc 1 434 18 is_stmt 0 view .LVU462
 2357 001e 032C     		cmp	r4, #3
 2358 0020 36D0     		beq	.L93
 436:Src/main.c    ****                   i=5;
 2359              		.loc 1 436 21 is_stmt 1 view .LVU463
 436:Src/main.c    ****                   i=5;
 2360              		.loc 1 436 23 is_stmt 0 view .LVU464
 2361 0022 062C     		cmp	r4, #6
 2362 0024 25D1     		bne	.L77
 438:Src/main.c    ****                }
 2363              		.loc 1 438 20 view .LVU465
 2364 0026 0124     		movs	r4, #1
 437:Src/main.c    ****                   j=1;
 2365              		.loc 1 437 20 view .LVU466
 2366 0028 0525     		movs	r5, #5
 2367              	.L78:
 443:Src/main.c    ****                   j=5;
 2368              		.loc 1 443 16 is_stmt 1 view .LVU467
 443:Src/main.c    ****                   j=5;
 2369              		.loc 1 443 18 is_stmt 0 view .LVU468
 2370 002a 032C     		cmp	r4, #3
 2371 002c 32D0     		beq	.L95
 445:Src/main.c    ****                   i=6;
 2372              		.loc 1 445 21 is_stmt 1 view .LVU469
 445:Src/main.c    ****                   i=6;
 2373              		.loc 1 445 23 is_stmt 0 view .LVU470
 2374 002e 052C     		cmp	r4, #5
 2375 0030 21DD     		ble	.L79
 447:Src/main.c    ****                }
 2376              		.loc 1 447 20 view .LVU471
 2377 0032 0124     		movs	r4, #1
ARM GAS  /tmp/ccVirEur.s 			page 64


 446:Src/main.c    ****                   j=1;
 2378              		.loc 1 446 20 view .LVU472
 2379 0034 0625     		movs	r5, #6
 2380              	.L80:
 451:Src/main.c    ****                   i=7;
 2381              		.loc 1 451 21 discriminator 1 view .LVU473
 2382 0036 042C     		cmp	r4, #4
 2383 0038 1FDD     		ble	.L81
 453:Src/main.c    ****             }
 2384              		.loc 1 453 20 view .LVU474
 2385 003a 0124     		movs	r4, #1
 452:Src/main.c    ****                   j=1;
 2386              		.loc 1 452 20 view .LVU475
 2387 003c 0725     		movs	r5, #7
 2388              	.L82:
 456:Src/main.c    ****                   i=8;
 2389              		.loc 1 456 21 discriminator 1 view .LVU476
 2390 003e 032C     		cmp	r4, #3
 2391 0040 1DDD     		ble	.L83
 458:Src/main.c    ****             }
 2392              		.loc 1 458 20 view .LVU477
 2393 0042 0124     		movs	r4, #1
 457:Src/main.c    ****                   j=1;
 2394              		.loc 1 457 20 view .LVU478
 2395 0044 0825     		movs	r5, #8
 2396              	.L84:
 461:Src/main.c    ****                   i=9;
 2397              		.loc 1 461 21 discriminator 1 view .LVU479
 2398 0046 032C     		cmp	r4, #3
 2399 0048 1BDD     		ble	.L85
 463:Src/main.c    ****             }
 2400              		.loc 1 463 20 view .LVU480
 2401 004a 0124     		movs	r4, #1
 2402              	.L86:
 467:Src/main.c    ****                j++;
 2403              		.loc 1 467 16 is_stmt 1 view .LVU481
 2404              	.LVL248:
 468:Src/main.c    ****             }
 2405              		.loc 1 468 16 view .LVU482
 468:Src/main.c    ****             }
 2406              		.loc 1 468 17 is_stmt 0 view .LVU483
 2407 004c 0134     		adds	r4, r4, #1
 2408              	.LVL249:
 467:Src/main.c    ****                j++;
 2409              		.loc 1 467 18 view .LVU484
 2410 004e 0125     		movs	r5, #1
 2411              	.LVL250:
 2412              	.L87:
 471:Src/main.c    ****            //Add matrix void jump here 
 2413              		.loc 1 471 13 is_stmt 1 discriminator 2 view .LVU485
 2414 0050 2100     		movs	r1, r4
 2415 0052 2800     		movs	r0, r5
 2416 0054 FFF7FEFF 		bl	singleMatrix
 2417              	.LVL251:
 473:Src/main.c    ****          }
 2418              		.loc 1 473 12 discriminator 2 view .LVU486
 2419 0058 FA20     		movs	r0, #250
ARM GAS  /tmp/ccVirEur.s 			page 65


 2420 005a 4000     		lsls	r0, r0, #1
 2421 005c FFF7FEFF 		bl	HAL_Delay
 2422              	.LVL252:
 413:Src/main.c    ****             //Second Row Mods
 2423              		.loc 1 413 30 discriminator 2 view .LVU487
 2424 0060 0134     		adds	r4, r4, #1
 2425              	.LVL253:
 2426              	.L89:
 413:Src/main.c    ****             //Second Row Mods
 2427              		.loc 1 413 24 discriminator 1 view .LVU488
 2428 0062 092C     		cmp	r4, #9
 2429 0064 18DC     		bgt	.L102
 415:Src/main.c    ****                if(j==4)
 2430              		.loc 1 415 13 view .LVU489
 415:Src/main.c    ****                if(j==4)
 2431              		.loc 1 415 15 is_stmt 0 view .LVU490
 2432 0066 022D     		cmp	r5, #2
 2433 0068 CDD0     		beq	.L103
 2434              	.L72:
 424:Src/main.c    ****                if(j==3)
 2435              		.loc 1 424 13 is_stmt 1 view .LVU491
 424:Src/main.c    ****                if(j==3)
 2436              		.loc 1 424 15 is_stmt 0 view .LVU492
 2437 006a 032D     		cmp	r5, #3
 2438 006c D1D0     		beq	.L74
 2439              	.LVL254:
 2440              	.L75:
 433:Src/main.c    ****                if(j==3)
 2441              		.loc 1 433 13 is_stmt 1 view .LVU493
 433:Src/main.c    ****                if(j==3)
 2442              		.loc 1 433 15 is_stmt 0 view .LVU494
 2443 006e 042D     		cmp	r5, #4
 2444 0070 D5D0     		beq	.L76
 2445              	.LVL255:
 2446              	.L77:
 442:Src/main.c    ****                if(j==3)
 2447              		.loc 1 442 13 is_stmt 1 view .LVU495
 442:Src/main.c    ****                if(j==3)
 2448              		.loc 1 442 15 is_stmt 0 view .LVU496
 2449 0072 052D     		cmp	r5, #5
 2450 0074 D9D0     		beq	.L78
 2451              	.LVL256:
 2452              	.L79:
 451:Src/main.c    ****                   i=7;
 2453              		.loc 1 451 13 is_stmt 1 view .LVU497
 451:Src/main.c    ****                   i=7;
 2454              		.loc 1 451 15 is_stmt 0 view .LVU498
 2455 0076 062D     		cmp	r5, #6
 2456 0078 DDD0     		beq	.L80
 2457              	.LVL257:
 2458              	.L81:
 456:Src/main.c    ****                   i=8;
 2459              		.loc 1 456 13 is_stmt 1 view .LVU499
 456:Src/main.c    ****                   i=8;
 2460              		.loc 1 456 15 is_stmt 0 view .LVU500
 2461 007a 072D     		cmp	r5, #7
 2462 007c DFD0     		beq	.L82
ARM GAS  /tmp/ccVirEur.s 			page 66


 2463              	.LVL258:
 2464              	.L83:
 461:Src/main.c    ****                   i=9;
 2465              		.loc 1 461 13 is_stmt 1 view .LVU501
 461:Src/main.c    ****                   i=9;
 2466              		.loc 1 461 15 is_stmt 0 view .LVU502
 2467 007e 082D     		cmp	r5, #8
 2468 0080 E1D0     		beq	.L84
 2469              	.LVL259:
 2470              	.L85:
 466:Src/main.c    ****                i = 1;
 2471              		.loc 1 466 13 is_stmt 1 view .LVU503
 466:Src/main.c    ****                i = 1;
 2472              		.loc 1 466 15 is_stmt 0 view .LVU504
 2473 0082 092D     		cmp	r5, #9
 2474 0084 E4D1     		bne	.L87
 2475 0086 E1E7     		b	.L86
 2476              	.L101:
 417:Src/main.c    ****                else if(j==9){
 2477              		.loc 1 417 19 is_stmt 1 view .LVU505
 417:Src/main.c    ****                else if(j==9){
 2478              		.loc 1 417 20 is_stmt 0 view .LVU506
 2479 0088 0134     		adds	r4, r4, #1
 2480              	.LVL260:
 417:Src/main.c    ****                else if(j==9){
 2481              		.loc 1 417 20 view .LVU507
 2482 008a EEE7     		b	.L72
 2483              	.LVL261:
 2484              	.L91:
 426:Src/main.c    ****                else if(j>7){
 2485              		.loc 1 426 20 view .LVU508
 2486 008c 0524     		movs	r4, #5
 2487 008e EEE7     		b	.L75
 2488              	.L93:
 435:Src/main.c    ****                else if(j==6){
 2489              		.loc 1 435 20 view .LVU509
 2490 0090 0524     		movs	r4, #5
 2491 0092 EEE7     		b	.L77
 2492              	.L95:
 444:Src/main.c    ****                else if(j>5){
 2493              		.loc 1 444 20 view .LVU510
 2494 0094 0524     		movs	r4, #5
 2495 0096 EEE7     		b	.L79
 2496              	.LVL262:
 2497              	.L102:
 444:Src/main.c    ****                else if(j>5){
 2498              		.loc 1 444 20 view .LVU511
 2499              	.LBE9:
 412:Src/main.c    ****          for(int j=1; j<10; j++){
 2500              		.loc 1 412 27 is_stmt 1 discriminator 2 view .LVU512
 2501 0098 0135     		adds	r5, r5, #1
 2502              	.LVL263:
 2503              	.L71:
 412:Src/main.c    ****          for(int j=1; j<10; j++){
 2504              		.loc 1 412 21 discriminator 1 view .LVU513
 2505 009a 092D     		cmp	r5, #9
 2506 009c 01DC     		bgt	.L104
ARM GAS  /tmp/ccVirEur.s 			page 67


 2507              	.LBB10:
 413:Src/main.c    ****             //Second Row Mods
 2508              		.loc 1 413 18 is_stmt 0 view .LVU514
 2509 009e 0124     		movs	r4, #1
 2510 00a0 DFE7     		b	.L89
 2511              	.L104:
 2512              	.LBE10:
 2513              	.LBE8:
 476:Src/main.c    **** 
 2514              		.loc 1 476 1 view .LVU515
 2515              		@ sp needed
 2516              	.LVL264:
 476:Src/main.c    **** 
 2517              		.loc 1 476 1 view .LVU516
 2518 00a2 70BD     		pop	{r4, r5, r6, pc}
 2519              		.cfi_endproc
 2520              	.LFE52:
 2522              		.section	.text.Error_Handler,"ax",%progbits
 2523              		.align	1
 2524              		.global	Error_Handler
 2525              		.syntax unified
 2526              		.code	16
 2527              		.thumb_func
 2528              		.fpu softvfp
 2530              	Error_Handler:
 2531              	.LFB54:
 847:Src/main.c    **** 
 848:Src/main.c    **** 
 849:Src/main.c    **** /* USER CODE END 4 */
 850:Src/main.c    **** 
 851:Src/main.c    **** /**
 852:Src/main.c    ****   * @brief  This function is executed in case of error occurrence.
 853:Src/main.c    ****   * @retval None
 854:Src/main.c    ****   */
 855:Src/main.c    **** void Error_Handler(void)
 856:Src/main.c    **** {
 2532              		.loc 1 856 1 is_stmt 1 view -0
 2533              		.cfi_startproc
 2534              		@ args = 0, pretend = 0, frame = 0
 2535              		@ frame_needed = 0, uses_anonymous_args = 0
 2536              		@ link register save eliminated.
 857:Src/main.c    ****   /* USER CODE BEGIN Error_Handler_Debug */
 858:Src/main.c    ****   /* User can add his own implementation to report the HAL error return state */
 859:Src/main.c    **** 
 860:Src/main.c    ****   /* USER CODE END Error_Handler_Debug */
 861:Src/main.c    **** }
 2537              		.loc 1 861 1 view .LVU518
 2538              		@ sp needed
 2539 0000 7047     		bx	lr
 2540              		.cfi_endproc
 2541              	.LFE54:
 2543              		.global	hi2c1
 2544              		.section	.bss.acceleration_mg,"aw",%nobits
 2545              		.align	2
 2546              		.set	.LANCHOR3,. + 0
 2549              	acceleration_mg:
 2550 0000 00000000 		.space	12
ARM GAS  /tmp/ccVirEur.s 			page 68


 2550      00000000 
 2550      00000000 
 2551              		.section	.bss.data_raw_acceleration,"aw",%nobits
 2552              		.align	2
 2553              		.set	.LANCHOR2,. + 0
 2556              	data_raw_acceleration:
 2557 0000 00000000 		.space	6
 2557      0000
 2558              		.section	.bss.data_raw_temperature,"aw",%nobits
 2559              		.align	1
 2560              		.set	.LANCHOR4,. + 0
 2563              	data_raw_temperature:
 2564 0000 0000     		.space	2
 2565              		.section	.bss.hi2c1,"aw",%nobits
 2566              		.align	2
 2567              		.set	.LANCHOR0,. + 0
 2570              	hi2c1:
 2571 0000 00000000 		.space	76
 2571      00000000 
 2571      00000000 
 2571      00000000 
 2571      00000000 
 2572              		.section	.bss.temperature_degC,"aw",%nobits
 2573              		.align	2
 2574              		.set	.LANCHOR5,. + 0
 2577              	temperature_degC:
 2578 0000 00000000 		.space	4
 2579              		.section	.bss.tx_buffer,"aw",%nobits
 2580              		.align	2
 2583              	tx_buffer:
 2584 0000 00000000 		.space	1000
 2584      00000000 
 2584      00000000 
 2584      00000000 
 2584      00000000 
 2585              		.section	.bss.whoamI,"aw",%nobits
 2586              		.set	.LANCHOR1,. + 0
 2589              	whoamI:
 2590 0000 00       		.space	1
 2591              		.text
 2592              	.Letext0:
 2593              		.file 2 "/usr/arm-none-eabi/include/machine/_default_types.h"
 2594              		.file 3 "/usr/arm-none-eabi/include/sys/_stdint.h"
 2595              		.file 4 "Drivers/CMSIS/Device/ST/STM32F0xx/Include/stm32f072xb.h"
 2596              		.file 5 "/usr/lib/gcc/arm-none-eabi/11.1.0/include/stddef.h"
 2597              		.file 6 "Drivers/STM32F0xx_HAL_Driver/Inc/stm32f0xx_hal_def.h"
 2598              		.file 7 "Drivers/STM32F0xx_HAL_Driver/Inc/stm32f0xx_hal_rcc.h"
 2599              		.file 8 "Drivers/STM32F0xx_HAL_Driver/Inc/stm32f0xx_hal_rcc_ex.h"
 2600              		.file 9 "Drivers/STM32F0xx_HAL_Driver/Inc/stm32f0xx_hal_gpio.h"
 2601              		.file 10 "Drivers/STM32F0xx_HAL_Driver/Inc/stm32f0xx_hal_dma.h"
 2602              		.file 11 "Drivers/STM32F0xx_HAL_Driver/Inc/stm32f0xx_hal_i2c.h"
 2603              		.file 12 "/usr/arm-none-eabi/include/math.h"
 2604              		.file 13 "Inc/lis3dh_reg.h"
 2605              		.file 14 "/usr/arm-none-eabi/include/string.h"
 2606              		.file 15 "Drivers/STM32F0xx_HAL_Driver/Inc/stm32f0xx_hal_i2c_ex.h"
 2607              		.file 16 "Drivers/STM32F0xx_HAL_Driver/Inc/stm32f0xx_hal.h"
 2608              		.file 17 "/usr/arm-none-eabi/include/stdio.h"
ARM GAS  /tmp/ccVirEur.s 			page 69


 2609              		.file 18 "Inc/usb_device.h"
 2610              		.file 19 "<built-in>"
ARM GAS  /tmp/ccVirEur.s 			page 70


DEFINED SYMBOLS
                            *ABS*:0000000000000000 main.c
     /tmp/ccVirEur.s:16     .text.tx_com:0000000000000000 $t
     /tmp/ccVirEur.s:23     .text.tx_com:0000000000000000 tx_com
     /tmp/ccVirEur.s:47     .text.MX_GPIO_Init:0000000000000000 $t
     /tmp/ccVirEur.s:53     .text.MX_GPIO_Init:0000000000000000 MX_GPIO_Init
     /tmp/ccVirEur.s:244    .text.MX_GPIO_Init:00000000000000d0 $d
     /tmp/ccVirEur.s:252    .text.MX_I2C1_Init:0000000000000000 $t
     /tmp/ccVirEur.s:258    .text.MX_I2C1_Init:0000000000000000 MX_I2C1_Init
     /tmp/ccVirEur.s:324    .text.MX_I2C1_Init:0000000000000038 $d
     /tmp/ccVirEur.s:331    .rodata.lis3dh_read_data_polling.str1.4:0000000000000000 $d
     /tmp/ccVirEur.s:342    .text.lis3dh_read_data_polling:0000000000000000 $t
     /tmp/ccVirEur.s:348    .text.lis3dh_read_data_polling:0000000000000000 lis3dh_read_data_polling
     /tmp/ccVirEur.s:607    .text.lis3dh_read_data_polling:0000000000000148 $d
     /tmp/ccVirEur.s:687    .text.platform_write:0000000000000000 platform_write
     /tmp/ccVirEur.s:630    .text.platform_read:0000000000000000 platform_read
     /tmp/ccVirEur.s:2583   .bss.tx_buffer:0000000000000000 tx_buffer
     /tmp/ccVirEur.s:624    .text.platform_read:0000000000000000 $t
     /tmp/ccVirEur.s:681    .text.platform_write:0000000000000000 $t
     /tmp/ccVirEur.s:738    .text.SystemClock_Config:0000000000000000 $t
     /tmp/ccVirEur.s:745    .text.SystemClock_Config:0000000000000000 SystemClock_Config
     /tmp/ccVirEur.s:844    .text.SystemClock_Config:0000000000000060 $d
     /tmp/ccVirEur.s:849    .rodata.main.str1.4:0000000000000000 $d
     /tmp/ccVirEur.s:856    .text.main:0000000000000000 $t
     /tmp/ccVirEur.s:863    .text.main:0000000000000000 main
     /tmp/ccVirEur.s:948    .text.main:0000000000000064 $d
     /tmp/ccVirEur.s:956    .text.starsON:0000000000000000 $t
     /tmp/ccVirEur.s:963    .text.starsON:0000000000000000 starsON
     /tmp/ccVirEur.s:1008   .text.starsON:0000000000000034 $d
     /tmp/ccVirEur.s:1013   .text.singleMatrix:0000000000000000 $t
     /tmp/ccVirEur.s:1020   .text.singleMatrix:0000000000000000 singleMatrix
     /tmp/ccVirEur.s:1770   .text.singleMatrix:0000000000000450 $d
     /tmp/ccVirEur.s:1774   .text.singleMatrix:0000000000000458 $t
     /tmp/ccVirEur.s:2290   .text.singleMatrix:00000000000007b8 $d
     /tmp/ccVirEur.s:2296   .text.cycleMatrix:0000000000000000 $t
     /tmp/ccVirEur.s:2303   .text.cycleMatrix:0000000000000000 cycleMatrix
     /tmp/ccVirEur.s:2523   .text.Error_Handler:0000000000000000 $t
     /tmp/ccVirEur.s:2530   .text.Error_Handler:0000000000000000 Error_Handler
     /tmp/ccVirEur.s:2570   .bss.hi2c1:0000000000000000 hi2c1
     /tmp/ccVirEur.s:2545   .bss.acceleration_mg:0000000000000000 $d
     /tmp/ccVirEur.s:2549   .bss.acceleration_mg:0000000000000000 acceleration_mg
     /tmp/ccVirEur.s:2552   .bss.data_raw_acceleration:0000000000000000 $d
     /tmp/ccVirEur.s:2556   .bss.data_raw_acceleration:0000000000000000 data_raw_acceleration
     /tmp/ccVirEur.s:2559   .bss.data_raw_temperature:0000000000000000 $d
     /tmp/ccVirEur.s:2563   .bss.data_raw_temperature:0000000000000000 data_raw_temperature
     /tmp/ccVirEur.s:2566   .bss.hi2c1:0000000000000000 $d
     /tmp/ccVirEur.s:2573   .bss.temperature_degC:0000000000000000 $d
     /tmp/ccVirEur.s:2577   .bss.temperature_degC:0000000000000000 temperature_degC
     /tmp/ccVirEur.s:2580   .bss.tx_buffer:0000000000000000 $d
     /tmp/ccVirEur.s:2589   .bss.whoamI:0000000000000000 whoamI
     /tmp/ccVirEur.s:2590   .bss.whoamI:0000000000000000 $d

UNDEFINED SYMBOLS
CDC_Transmit_FS
memset
HAL_GPIO_WritePin
HAL_GPIO_Init
ARM GAS  /tmp/ccVirEur.s 			page 71


HAL_I2C_Init
HAL_I2CEx_ConfigAnalogFilter
HAL_I2CEx_ConfigDigitalFilter
__aeabi_f2d
HAL_Delay
lis3dh_device_id_get
lis3dh_block_data_update_set
lis3dh_data_rate_set
lis3dh_full_scale_set
lis3dh_aux_adc_set
lis3dh_operating_mode_set
lis3dh_xl_data_ready_get
lis3dh_temp_data_ready_get
lis3dh_temperature_raw_get
lis3dh_from_lsb_hr_to_celsius
sprintf
strlen
lis3dh_acceleration_raw_get
lis3dh_from_fs2_hr_to_mg
HAL_I2C_Mem_Read
HAL_I2C_Mem_Write
HAL_RCC_OscConfig
HAL_RCC_ClockConfig
HAL_RCCEx_PeriphCLKConfig
HAL_Init
MX_USB_DEVICE_Init
HAL_GPIO_ReadPin
