ARM GAS  /tmp/ccF3DfVq.s 			page 1


   1              		.cpu cortex-m0
   2              		.eabi_attribute 20, 1
   3              		.eabi_attribute 21, 1
   4              		.eabi_attribute 23, 3
   5              		.eabi_attribute 24, 1
   6              		.eabi_attribute 25, 1
   7              		.eabi_attribute 26, 1
   8              		.eabi_attribute 30, 1
   9              		.eabi_attribute 34, 0
  10              		.eabi_attribute 18, 4
  11              		.file	"stm32f0xx_ll_usb.c"
  12              		.text
  13              	.Ltext0:
  14              		.cfi_sections	.debug_frame
  15              		.section	.text.USB_CoreInit,"ax",%progbits
  16              		.align	1
  17              		.global	USB_CoreInit
  18              		.arch armv6s-m
  19              		.syntax unified
  20              		.code	16
  21              		.thumb_func
  22              		.fpu softvfp
  24              	USB_CoreInit:
  25              	.LVL0:
  26              	.LFB40:
  27              		.file 1 "Drivers/STM32F0xx_HAL_Driver/Src/stm32f0xx_ll_usb.c"
   1:Drivers/STM32F0xx_HAL_Driver/Src/stm32f0xx_ll_usb.c **** /**
   2:Drivers/STM32F0xx_HAL_Driver/Src/stm32f0xx_ll_usb.c ****   ******************************************************************************
   3:Drivers/STM32F0xx_HAL_Driver/Src/stm32f0xx_ll_usb.c ****   * @file    stm32f0xx_ll_usb.c
   4:Drivers/STM32F0xx_HAL_Driver/Src/stm32f0xx_ll_usb.c ****   * @author  MCD Application Team
   5:Drivers/STM32F0xx_HAL_Driver/Src/stm32f0xx_ll_usb.c ****   * @brief   USB Low Layer HAL module driver.
   6:Drivers/STM32F0xx_HAL_Driver/Src/stm32f0xx_ll_usb.c ****   *
   7:Drivers/STM32F0xx_HAL_Driver/Src/stm32f0xx_ll_usb.c ****   *          This file provides firmware functions to manage the following
   8:Drivers/STM32F0xx_HAL_Driver/Src/stm32f0xx_ll_usb.c ****   *          functionalities of the USB Peripheral Controller:
   9:Drivers/STM32F0xx_HAL_Driver/Src/stm32f0xx_ll_usb.c ****   *           + Initialization/de-initialization functions
  10:Drivers/STM32F0xx_HAL_Driver/Src/stm32f0xx_ll_usb.c ****   *           + I/O operation functions
  11:Drivers/STM32F0xx_HAL_Driver/Src/stm32f0xx_ll_usb.c ****   *           + Peripheral Control functions
  12:Drivers/STM32F0xx_HAL_Driver/Src/stm32f0xx_ll_usb.c ****   *           + Peripheral State functions
  13:Drivers/STM32F0xx_HAL_Driver/Src/stm32f0xx_ll_usb.c ****   *
  14:Drivers/STM32F0xx_HAL_Driver/Src/stm32f0xx_ll_usb.c ****   @verbatim
  15:Drivers/STM32F0xx_HAL_Driver/Src/stm32f0xx_ll_usb.c ****   ==============================================================================
  16:Drivers/STM32F0xx_HAL_Driver/Src/stm32f0xx_ll_usb.c ****                     ##### How to use this driver #####
  17:Drivers/STM32F0xx_HAL_Driver/Src/stm32f0xx_ll_usb.c ****   ==============================================================================
  18:Drivers/STM32F0xx_HAL_Driver/Src/stm32f0xx_ll_usb.c ****     [..]
  19:Drivers/STM32F0xx_HAL_Driver/Src/stm32f0xx_ll_usb.c ****       (#) Fill parameters of Init structure in USB_OTG_CfgTypeDef structure.
  20:Drivers/STM32F0xx_HAL_Driver/Src/stm32f0xx_ll_usb.c **** 
  21:Drivers/STM32F0xx_HAL_Driver/Src/stm32f0xx_ll_usb.c ****       (#) Call USB_CoreInit() API to initialize the USB Core peripheral.
  22:Drivers/STM32F0xx_HAL_Driver/Src/stm32f0xx_ll_usb.c **** 
  23:Drivers/STM32F0xx_HAL_Driver/Src/stm32f0xx_ll_usb.c ****       (#) The upper HAL HCD/PCD driver will call the right routines for its internal processes.
  24:Drivers/STM32F0xx_HAL_Driver/Src/stm32f0xx_ll_usb.c **** 
  25:Drivers/STM32F0xx_HAL_Driver/Src/stm32f0xx_ll_usb.c ****   @endverbatim
  26:Drivers/STM32F0xx_HAL_Driver/Src/stm32f0xx_ll_usb.c ****   ******************************************************************************
  27:Drivers/STM32F0xx_HAL_Driver/Src/stm32f0xx_ll_usb.c ****   * @attention
  28:Drivers/STM32F0xx_HAL_Driver/Src/stm32f0xx_ll_usb.c ****   *
  29:Drivers/STM32F0xx_HAL_Driver/Src/stm32f0xx_ll_usb.c ****   * <h2><center>&copy; Copyright (c) 2016 STMicroelectronics.
  30:Drivers/STM32F0xx_HAL_Driver/Src/stm32f0xx_ll_usb.c ****   * All rights reserved.</center></h2>
  31:Drivers/STM32F0xx_HAL_Driver/Src/stm32f0xx_ll_usb.c ****   *
ARM GAS  /tmp/ccF3DfVq.s 			page 2


  32:Drivers/STM32F0xx_HAL_Driver/Src/stm32f0xx_ll_usb.c ****   * This software component is licensed by ST under BSD 3-Clause license,
  33:Drivers/STM32F0xx_HAL_Driver/Src/stm32f0xx_ll_usb.c ****   * the "License"; You may not use this file except in compliance with the
  34:Drivers/STM32F0xx_HAL_Driver/Src/stm32f0xx_ll_usb.c ****   * License. You may obtain a copy of the License at:
  35:Drivers/STM32F0xx_HAL_Driver/Src/stm32f0xx_ll_usb.c ****   *                        opensource.org/licenses/BSD-3-Clause
  36:Drivers/STM32F0xx_HAL_Driver/Src/stm32f0xx_ll_usb.c ****   *
  37:Drivers/STM32F0xx_HAL_Driver/Src/stm32f0xx_ll_usb.c ****   ******************************************************************************
  38:Drivers/STM32F0xx_HAL_Driver/Src/stm32f0xx_ll_usb.c ****   */
  39:Drivers/STM32F0xx_HAL_Driver/Src/stm32f0xx_ll_usb.c **** 
  40:Drivers/STM32F0xx_HAL_Driver/Src/stm32f0xx_ll_usb.c **** /* Includes ------------------------------------------------------------------*/
  41:Drivers/STM32F0xx_HAL_Driver/Src/stm32f0xx_ll_usb.c **** #include "stm32f0xx_hal.h"
  42:Drivers/STM32F0xx_HAL_Driver/Src/stm32f0xx_ll_usb.c **** 
  43:Drivers/STM32F0xx_HAL_Driver/Src/stm32f0xx_ll_usb.c **** /** @addtogroup STM32F0xx_LL_USB_DRIVER
  44:Drivers/STM32F0xx_HAL_Driver/Src/stm32f0xx_ll_usb.c ****   * @{
  45:Drivers/STM32F0xx_HAL_Driver/Src/stm32f0xx_ll_usb.c ****   */
  46:Drivers/STM32F0xx_HAL_Driver/Src/stm32f0xx_ll_usb.c **** 
  47:Drivers/STM32F0xx_HAL_Driver/Src/stm32f0xx_ll_usb.c **** #if defined (HAL_PCD_MODULE_ENABLED) || defined (HAL_HCD_MODULE_ENABLED)
  48:Drivers/STM32F0xx_HAL_Driver/Src/stm32f0xx_ll_usb.c **** #if defined (USB)
  49:Drivers/STM32F0xx_HAL_Driver/Src/stm32f0xx_ll_usb.c **** /* Private typedef -----------------------------------------------------------*/
  50:Drivers/STM32F0xx_HAL_Driver/Src/stm32f0xx_ll_usb.c **** /* Private define ------------------------------------------------------------*/
  51:Drivers/STM32F0xx_HAL_Driver/Src/stm32f0xx_ll_usb.c **** /* Private macro -------------------------------------------------------------*/
  52:Drivers/STM32F0xx_HAL_Driver/Src/stm32f0xx_ll_usb.c **** /* Private variables ---------------------------------------------------------*/
  53:Drivers/STM32F0xx_HAL_Driver/Src/stm32f0xx_ll_usb.c **** /* Private function prototypes -----------------------------------------------*/
  54:Drivers/STM32F0xx_HAL_Driver/Src/stm32f0xx_ll_usb.c **** /* Private functions ---------------------------------------------------------*/
  55:Drivers/STM32F0xx_HAL_Driver/Src/stm32f0xx_ll_usb.c **** 
  56:Drivers/STM32F0xx_HAL_Driver/Src/stm32f0xx_ll_usb.c **** 
  57:Drivers/STM32F0xx_HAL_Driver/Src/stm32f0xx_ll_usb.c **** /**
  58:Drivers/STM32F0xx_HAL_Driver/Src/stm32f0xx_ll_usb.c ****   * @brief  Initializes the USB Core
  59:Drivers/STM32F0xx_HAL_Driver/Src/stm32f0xx_ll_usb.c ****   * @param  USBx: USB Instance
  60:Drivers/STM32F0xx_HAL_Driver/Src/stm32f0xx_ll_usb.c ****   * @param  cfg : pointer to a USB_CfgTypeDef structure that contains
  61:Drivers/STM32F0xx_HAL_Driver/Src/stm32f0xx_ll_usb.c ****   *         the configuration information for the specified USBx peripheral.
  62:Drivers/STM32F0xx_HAL_Driver/Src/stm32f0xx_ll_usb.c ****   * @retval HAL status
  63:Drivers/STM32F0xx_HAL_Driver/Src/stm32f0xx_ll_usb.c ****   */
  64:Drivers/STM32F0xx_HAL_Driver/Src/stm32f0xx_ll_usb.c **** HAL_StatusTypeDef USB_CoreInit(USB_TypeDef *USBx, USB_CfgTypeDef cfg)
  65:Drivers/STM32F0xx_HAL_Driver/Src/stm32f0xx_ll_usb.c **** {
  28              		.loc 1 65 1 view -0
  29              		.cfi_startproc
  30              		@ args = 36, pretend = 16, frame = 0
  31              		@ frame_needed = 0, uses_anonymous_args = 0
  32              		@ link register save eliminated.
  33              		.loc 1 65 1 is_stmt 0 view .LVU1
  34 0000 84B0     		sub	sp, sp, #16
  35              	.LCFI0:
  36              		.cfi_def_cfa_offset 16
  37 0002 0191     		str	r1, [sp, #4]
  38 0004 0292     		str	r2, [sp, #8]
  39 0006 0393     		str	r3, [sp, #12]
  66:Drivers/STM32F0xx_HAL_Driver/Src/stm32f0xx_ll_usb.c ****   /* Prevent unused argument(s) compilation warning */
  67:Drivers/STM32F0xx_HAL_Driver/Src/stm32f0xx_ll_usb.c ****   UNUSED(USBx);
  40              		.loc 1 67 3 is_stmt 1 view .LVU2
  68:Drivers/STM32F0xx_HAL_Driver/Src/stm32f0xx_ll_usb.c ****   UNUSED(cfg);
  41              		.loc 1 68 3 view .LVU3
  69:Drivers/STM32F0xx_HAL_Driver/Src/stm32f0xx_ll_usb.c **** 
  70:Drivers/STM32F0xx_HAL_Driver/Src/stm32f0xx_ll_usb.c ****   /* NOTE : - This function is not required by USB Device FS peripheral, it is used
  71:Drivers/STM32F0xx_HAL_Driver/Src/stm32f0xx_ll_usb.c ****               only by USB OTG FS peripheral.
  72:Drivers/STM32F0xx_HAL_Driver/Src/stm32f0xx_ll_usb.c ****             - This function is added to ensure compatibility across platforms.
  73:Drivers/STM32F0xx_HAL_Driver/Src/stm32f0xx_ll_usb.c ****    */
  74:Drivers/STM32F0xx_HAL_Driver/Src/stm32f0xx_ll_usb.c **** 
ARM GAS  /tmp/ccF3DfVq.s 			page 3


  75:Drivers/STM32F0xx_HAL_Driver/Src/stm32f0xx_ll_usb.c ****   return HAL_OK;
  42              		.loc 1 75 3 view .LVU4
  76:Drivers/STM32F0xx_HAL_Driver/Src/stm32f0xx_ll_usb.c **** }
  43              		.loc 1 76 1 is_stmt 0 view .LVU5
  44 0008 0020     		movs	r0, #0
  45              	.LVL1:
  46              		.loc 1 76 1 view .LVU6
  47              		@ sp needed
  48 000a 04B0     		add	sp, sp, #16
  49 000c 7047     		bx	lr
  50              		.cfi_endproc
  51              	.LFE40:
  53              		.section	.text.USB_EnableGlobalInt,"ax",%progbits
  54              		.align	1
  55              		.global	USB_EnableGlobalInt
  56              		.syntax unified
  57              		.code	16
  58              		.thumb_func
  59              		.fpu softvfp
  61              	USB_EnableGlobalInt:
  62              	.LVL2:
  63              	.LFB41:
  77:Drivers/STM32F0xx_HAL_Driver/Src/stm32f0xx_ll_usb.c **** 
  78:Drivers/STM32F0xx_HAL_Driver/Src/stm32f0xx_ll_usb.c **** /**
  79:Drivers/STM32F0xx_HAL_Driver/Src/stm32f0xx_ll_usb.c ****   * @brief  USB_EnableGlobalInt
  80:Drivers/STM32F0xx_HAL_Driver/Src/stm32f0xx_ll_usb.c ****   *         Enables the controller's Global Int in the AHB Config reg
  81:Drivers/STM32F0xx_HAL_Driver/Src/stm32f0xx_ll_usb.c ****   * @param  USBx : Selected device
  82:Drivers/STM32F0xx_HAL_Driver/Src/stm32f0xx_ll_usb.c ****   * @retval HAL status
  83:Drivers/STM32F0xx_HAL_Driver/Src/stm32f0xx_ll_usb.c ****   */
  84:Drivers/STM32F0xx_HAL_Driver/Src/stm32f0xx_ll_usb.c **** HAL_StatusTypeDef USB_EnableGlobalInt(USB_TypeDef *USBx)
  85:Drivers/STM32F0xx_HAL_Driver/Src/stm32f0xx_ll_usb.c **** {
  64              		.loc 1 85 1 is_stmt 1 view -0
  65              		.cfi_startproc
  66              		@ args = 0, pretend = 0, frame = 0
  67              		@ frame_needed = 0, uses_anonymous_args = 0
  68              		@ link register save eliminated.
  86:Drivers/STM32F0xx_HAL_Driver/Src/stm32f0xx_ll_usb.c ****   uint16_t winterruptmask;
  69              		.loc 1 86 3 view .LVU8
  87:Drivers/STM32F0xx_HAL_Driver/Src/stm32f0xx_ll_usb.c **** 
  88:Drivers/STM32F0xx_HAL_Driver/Src/stm32f0xx_ll_usb.c ****   /* Set winterruptmask variable */
  89:Drivers/STM32F0xx_HAL_Driver/Src/stm32f0xx_ll_usb.c ****   winterruptmask = USB_CNTR_CTRM  | USB_CNTR_WKUPM |
  70              		.loc 1 89 3 view .LVU9
  90:Drivers/STM32F0xx_HAL_Driver/Src/stm32f0xx_ll_usb.c ****                    USB_CNTR_SUSPM | USB_CNTR_ERRM |
  91:Drivers/STM32F0xx_HAL_Driver/Src/stm32f0xx_ll_usb.c ****                    USB_CNTR_SOFM | USB_CNTR_ESOFM |
  92:Drivers/STM32F0xx_HAL_Driver/Src/stm32f0xx_ll_usb.c ****                    USB_CNTR_RESETM | USB_CNTR_L1REQM;
  93:Drivers/STM32F0xx_HAL_Driver/Src/stm32f0xx_ll_usb.c **** 
  94:Drivers/STM32F0xx_HAL_Driver/Src/stm32f0xx_ll_usb.c ****   /* Set interrupt mask */
  95:Drivers/STM32F0xx_HAL_Driver/Src/stm32f0xx_ll_usb.c ****   USBx->CNTR |= winterruptmask;
  71              		.loc 1 95 3 view .LVU10
  72              		.loc 1 95 14 is_stmt 0 view .LVU11
  73 0000 4022     		movs	r2, #64
  74 0002 835A     		ldrh	r3, [r0, r2]
  75 0004 0249     		ldr	r1, .L3
  76 0006 0B43     		orrs	r3, r1
  77 0008 9BB2     		uxth	r3, r3
  78 000a 8352     		strh	r3, [r0, r2]
  96:Drivers/STM32F0xx_HAL_Driver/Src/stm32f0xx_ll_usb.c **** 
ARM GAS  /tmp/ccF3DfVq.s 			page 4


  97:Drivers/STM32F0xx_HAL_Driver/Src/stm32f0xx_ll_usb.c ****   return HAL_OK;
  79              		.loc 1 97 3 is_stmt 1 view .LVU12
  98:Drivers/STM32F0xx_HAL_Driver/Src/stm32f0xx_ll_usb.c **** }
  80              		.loc 1 98 1 is_stmt 0 view .LVU13
  81 000c 0020     		movs	r0, #0
  82              	.LVL3:
  83              		.loc 1 98 1 view .LVU14
  84              		@ sp needed
  85 000e 7047     		bx	lr
  86              	.L4:
  87              		.align	2
  88              	.L3:
  89 0010 80BFFFFF 		.word	-16512
  90              		.cfi_endproc
  91              	.LFE41:
  93              		.section	.text.USB_DisableGlobalInt,"ax",%progbits
  94              		.align	1
  95              		.global	USB_DisableGlobalInt
  96              		.syntax unified
  97              		.code	16
  98              		.thumb_func
  99              		.fpu softvfp
 101              	USB_DisableGlobalInt:
 102              	.LVL4:
 103              	.LFB42:
  99:Drivers/STM32F0xx_HAL_Driver/Src/stm32f0xx_ll_usb.c **** 
 100:Drivers/STM32F0xx_HAL_Driver/Src/stm32f0xx_ll_usb.c **** /**
 101:Drivers/STM32F0xx_HAL_Driver/Src/stm32f0xx_ll_usb.c ****   * @brief  USB_DisableGlobalInt
 102:Drivers/STM32F0xx_HAL_Driver/Src/stm32f0xx_ll_usb.c ****   *         Disable the controller's Global Int in the AHB Config reg
 103:Drivers/STM32F0xx_HAL_Driver/Src/stm32f0xx_ll_usb.c ****   * @param  USBx : Selected device
 104:Drivers/STM32F0xx_HAL_Driver/Src/stm32f0xx_ll_usb.c ****   * @retval HAL status
 105:Drivers/STM32F0xx_HAL_Driver/Src/stm32f0xx_ll_usb.c **** */
 106:Drivers/STM32F0xx_HAL_Driver/Src/stm32f0xx_ll_usb.c **** HAL_StatusTypeDef USB_DisableGlobalInt(USB_TypeDef *USBx)
 107:Drivers/STM32F0xx_HAL_Driver/Src/stm32f0xx_ll_usb.c **** {
 104              		.loc 1 107 1 is_stmt 1 view -0
 105              		.cfi_startproc
 106              		@ args = 0, pretend = 0, frame = 0
 107              		@ frame_needed = 0, uses_anonymous_args = 0
 108              		@ link register save eliminated.
 108:Drivers/STM32F0xx_HAL_Driver/Src/stm32f0xx_ll_usb.c ****   uint16_t winterruptmask;
 109              		.loc 1 108 3 view .LVU16
 109:Drivers/STM32F0xx_HAL_Driver/Src/stm32f0xx_ll_usb.c **** 
 110:Drivers/STM32F0xx_HAL_Driver/Src/stm32f0xx_ll_usb.c ****   /* Set winterruptmask variable */
 111:Drivers/STM32F0xx_HAL_Driver/Src/stm32f0xx_ll_usb.c ****   winterruptmask = USB_CNTR_CTRM  | USB_CNTR_WKUPM |
 110              		.loc 1 111 3 view .LVU17
 112:Drivers/STM32F0xx_HAL_Driver/Src/stm32f0xx_ll_usb.c ****                    USB_CNTR_SUSPM | USB_CNTR_ERRM |
 113:Drivers/STM32F0xx_HAL_Driver/Src/stm32f0xx_ll_usb.c ****                    USB_CNTR_SOFM | USB_CNTR_ESOFM |
 114:Drivers/STM32F0xx_HAL_Driver/Src/stm32f0xx_ll_usb.c ****                    USB_CNTR_RESETM | USB_CNTR_L1REQM;
 115:Drivers/STM32F0xx_HAL_Driver/Src/stm32f0xx_ll_usb.c **** 
 116:Drivers/STM32F0xx_HAL_Driver/Src/stm32f0xx_ll_usb.c ****   /* Clear interrupt mask */
 117:Drivers/STM32F0xx_HAL_Driver/Src/stm32f0xx_ll_usb.c ****   USBx->CNTR &= ~winterruptmask;
 111              		.loc 1 117 3 view .LVU18
 112              		.loc 1 117 14 is_stmt 0 view .LVU19
 113 0000 4022     		movs	r2, #64
 114 0002 835A     		ldrh	r3, [r0, r2]
 115 0004 0249     		ldr	r1, .L6
 116 0006 0B40     		ands	r3, r1
ARM GAS  /tmp/ccF3DfVq.s 			page 5


 117 0008 8352     		strh	r3, [r0, r2]
 118:Drivers/STM32F0xx_HAL_Driver/Src/stm32f0xx_ll_usb.c **** 
 119:Drivers/STM32F0xx_HAL_Driver/Src/stm32f0xx_ll_usb.c ****   return HAL_OK;
 118              		.loc 1 119 3 is_stmt 1 view .LVU20
 120:Drivers/STM32F0xx_HAL_Driver/Src/stm32f0xx_ll_usb.c **** }
 119              		.loc 1 120 1 is_stmt 0 view .LVU21
 120 000a 0020     		movs	r0, #0
 121              	.LVL5:
 122              		.loc 1 120 1 view .LVU22
 123              		@ sp needed
 124 000c 7047     		bx	lr
 125              	.L7:
 126 000e C046     		.align	2
 127              	.L6:
 128 0010 7F400000 		.word	16511
 129              		.cfi_endproc
 130              	.LFE42:
 132              		.section	.text.USB_SetCurrentMode,"ax",%progbits
 133              		.align	1
 134              		.global	USB_SetCurrentMode
 135              		.syntax unified
 136              		.code	16
 137              		.thumb_func
 138              		.fpu softvfp
 140              	USB_SetCurrentMode:
 141              	.LVL6:
 142              	.LFB43:
 121:Drivers/STM32F0xx_HAL_Driver/Src/stm32f0xx_ll_usb.c **** 
 122:Drivers/STM32F0xx_HAL_Driver/Src/stm32f0xx_ll_usb.c **** /**
 123:Drivers/STM32F0xx_HAL_Driver/Src/stm32f0xx_ll_usb.c ****   * @brief  USB_SetCurrentMode : Set functional mode
 124:Drivers/STM32F0xx_HAL_Driver/Src/stm32f0xx_ll_usb.c ****   * @param  USBx : Selected device
 125:Drivers/STM32F0xx_HAL_Driver/Src/stm32f0xx_ll_usb.c ****   * @param  mode :  current core mode
 126:Drivers/STM32F0xx_HAL_Driver/Src/stm32f0xx_ll_usb.c ****   *          This parameter can be one of the these values:
 127:Drivers/STM32F0xx_HAL_Driver/Src/stm32f0xx_ll_usb.c ****   *            @arg USB_DEVICE_MODE: Peripheral mode mode
 128:Drivers/STM32F0xx_HAL_Driver/Src/stm32f0xx_ll_usb.c ****   * @retval HAL status
 129:Drivers/STM32F0xx_HAL_Driver/Src/stm32f0xx_ll_usb.c ****   */
 130:Drivers/STM32F0xx_HAL_Driver/Src/stm32f0xx_ll_usb.c **** HAL_StatusTypeDef USB_SetCurrentMode(USB_TypeDef *USBx, USB_ModeTypeDef mode)
 131:Drivers/STM32F0xx_HAL_Driver/Src/stm32f0xx_ll_usb.c **** {
 143              		.loc 1 131 1 is_stmt 1 view -0
 144              		.cfi_startproc
 145              		@ args = 0, pretend = 0, frame = 0
 146              		@ frame_needed = 0, uses_anonymous_args = 0
 147              		@ link register save eliminated.
 132:Drivers/STM32F0xx_HAL_Driver/Src/stm32f0xx_ll_usb.c ****   /* Prevent unused argument(s) compilation warning */
 133:Drivers/STM32F0xx_HAL_Driver/Src/stm32f0xx_ll_usb.c ****   UNUSED(USBx);
 148              		.loc 1 133 3 view .LVU24
 134:Drivers/STM32F0xx_HAL_Driver/Src/stm32f0xx_ll_usb.c ****   UNUSED(mode);
 149              		.loc 1 134 3 view .LVU25
 135:Drivers/STM32F0xx_HAL_Driver/Src/stm32f0xx_ll_usb.c **** 
 136:Drivers/STM32F0xx_HAL_Driver/Src/stm32f0xx_ll_usb.c ****   /* NOTE : - This function is not required by USB Device FS peripheral, it is used
 137:Drivers/STM32F0xx_HAL_Driver/Src/stm32f0xx_ll_usb.c ****               only by USB OTG FS peripheral.
 138:Drivers/STM32F0xx_HAL_Driver/Src/stm32f0xx_ll_usb.c ****             - This function is added to ensure compatibility across platforms.
 139:Drivers/STM32F0xx_HAL_Driver/Src/stm32f0xx_ll_usb.c ****    */
 140:Drivers/STM32F0xx_HAL_Driver/Src/stm32f0xx_ll_usb.c ****   return HAL_OK;
 150              		.loc 1 140 3 view .LVU26
 141:Drivers/STM32F0xx_HAL_Driver/Src/stm32f0xx_ll_usb.c **** }
 151              		.loc 1 141 1 is_stmt 0 view .LVU27
ARM GAS  /tmp/ccF3DfVq.s 			page 6


 152 0000 0020     		movs	r0, #0
 153              	.LVL7:
 154              		.loc 1 141 1 view .LVU28
 155              		@ sp needed
 156 0002 7047     		bx	lr
 157              		.cfi_endproc
 158              	.LFE43:
 160              		.section	.text.USB_DevInit,"ax",%progbits
 161              		.align	1
 162              		.global	USB_DevInit
 163              		.syntax unified
 164              		.code	16
 165              		.thumb_func
 166              		.fpu softvfp
 168              	USB_DevInit:
 169              	.LVL8:
 170              	.LFB44:
 142:Drivers/STM32F0xx_HAL_Driver/Src/stm32f0xx_ll_usb.c **** 
 143:Drivers/STM32F0xx_HAL_Driver/Src/stm32f0xx_ll_usb.c **** /**
 144:Drivers/STM32F0xx_HAL_Driver/Src/stm32f0xx_ll_usb.c ****   * @brief  USB_DevInit : Initializes the USB controller registers
 145:Drivers/STM32F0xx_HAL_Driver/Src/stm32f0xx_ll_usb.c ****   *         for device mode
 146:Drivers/STM32F0xx_HAL_Driver/Src/stm32f0xx_ll_usb.c ****   * @param  USBx : Selected device
 147:Drivers/STM32F0xx_HAL_Driver/Src/stm32f0xx_ll_usb.c ****   * @param  cfg  : pointer to a USB_CfgTypeDef structure that contains
 148:Drivers/STM32F0xx_HAL_Driver/Src/stm32f0xx_ll_usb.c ****   *         the configuration information for the specified USBx peripheral.
 149:Drivers/STM32F0xx_HAL_Driver/Src/stm32f0xx_ll_usb.c ****   * @retval HAL status
 150:Drivers/STM32F0xx_HAL_Driver/Src/stm32f0xx_ll_usb.c ****   */
 151:Drivers/STM32F0xx_HAL_Driver/Src/stm32f0xx_ll_usb.c **** HAL_StatusTypeDef USB_DevInit(USB_TypeDef *USBx, USB_CfgTypeDef cfg)
 152:Drivers/STM32F0xx_HAL_Driver/Src/stm32f0xx_ll_usb.c **** {
 171              		.loc 1 152 1 is_stmt 1 view -0
 172              		.cfi_startproc
 173              		@ args = 36, pretend = 16, frame = 0
 174              		@ frame_needed = 0, uses_anonymous_args = 0
 175              		.loc 1 152 1 is_stmt 0 view .LVU30
 176 0000 84B0     		sub	sp, sp, #16
 177              	.LCFI1:
 178              		.cfi_def_cfa_offset 16
 179 0002 10B5     		push	{r4, lr}
 180              	.LCFI2:
 181              		.cfi_def_cfa_offset 24
 182              		.cfi_offset 4, -24
 183              		.cfi_offset 14, -20
 184 0004 0391     		str	r1, [sp, #12]
 185 0006 0492     		str	r2, [sp, #16]
 186 0008 0593     		str	r3, [sp, #20]
 153:Drivers/STM32F0xx_HAL_Driver/Src/stm32f0xx_ll_usb.c ****   /* Prevent unused argument(s) compilation warning */
 154:Drivers/STM32F0xx_HAL_Driver/Src/stm32f0xx_ll_usb.c ****   UNUSED(cfg);
 187              		.loc 1 154 3 is_stmt 1 view .LVU31
 155:Drivers/STM32F0xx_HAL_Driver/Src/stm32f0xx_ll_usb.c **** 
 156:Drivers/STM32F0xx_HAL_Driver/Src/stm32f0xx_ll_usb.c ****   /* Init Device */
 157:Drivers/STM32F0xx_HAL_Driver/Src/stm32f0xx_ll_usb.c ****   /*CNTR_FRES = 1*/
 158:Drivers/STM32F0xx_HAL_Driver/Src/stm32f0xx_ll_usb.c ****   USBx->CNTR = USB_CNTR_FRES;
 188              		.loc 1 158 3 view .LVU32
 189              		.loc 1 158 14 is_stmt 0 view .LVU33
 190 000a 4022     		movs	r2, #64
 191 000c 0123     		movs	r3, #1
 192 000e 8352     		strh	r3, [r0, r2]
 159:Drivers/STM32F0xx_HAL_Driver/Src/stm32f0xx_ll_usb.c **** 
ARM GAS  /tmp/ccF3DfVq.s 			page 7


 160:Drivers/STM32F0xx_HAL_Driver/Src/stm32f0xx_ll_usb.c ****   /*CNTR_FRES = 0*/
 161:Drivers/STM32F0xx_HAL_Driver/Src/stm32f0xx_ll_usb.c ****   USBx->CNTR = 0;
 193              		.loc 1 161 3 is_stmt 1 view .LVU34
 194              		.loc 1 161 14 is_stmt 0 view .LVU35
 195 0010 0023     		movs	r3, #0
 196 0012 8352     		strh	r3, [r0, r2]
 162:Drivers/STM32F0xx_HAL_Driver/Src/stm32f0xx_ll_usb.c **** 
 163:Drivers/STM32F0xx_HAL_Driver/Src/stm32f0xx_ll_usb.c ****   /*Clear pending interrupts*/
 164:Drivers/STM32F0xx_HAL_Driver/Src/stm32f0xx_ll_usb.c ****   USBx->ISTR = 0;
 197              		.loc 1 164 3 is_stmt 1 view .LVU36
 198              		.loc 1 164 14 is_stmt 0 view .LVU37
 199 0014 0432     		adds	r2, r2, #4
 200 0016 8352     		strh	r3, [r0, r2]
 165:Drivers/STM32F0xx_HAL_Driver/Src/stm32f0xx_ll_usb.c **** 
 166:Drivers/STM32F0xx_HAL_Driver/Src/stm32f0xx_ll_usb.c ****   /*Set Btable Address*/
 167:Drivers/STM32F0xx_HAL_Driver/Src/stm32f0xx_ll_usb.c ****   USBx->BTABLE = BTABLE_ADDRESS;
 201              		.loc 1 167 3 is_stmt 1 view .LVU38
 202              		.loc 1 167 16 is_stmt 0 view .LVU39
 203 0018 0C32     		adds	r2, r2, #12
 204 001a 8352     		strh	r3, [r0, r2]
 168:Drivers/STM32F0xx_HAL_Driver/Src/stm32f0xx_ll_usb.c **** 
 169:Drivers/STM32F0xx_HAL_Driver/Src/stm32f0xx_ll_usb.c ****   /* Enable USB Device Interrupt mask */
 170:Drivers/STM32F0xx_HAL_Driver/Src/stm32f0xx_ll_usb.c ****   (void)USB_EnableGlobalInt(USBx);
 205              		.loc 1 170 3 is_stmt 1 view .LVU40
 206              		.loc 1 170 9 is_stmt 0 view .LVU41
 207 001c FFF7FEFF 		bl	USB_EnableGlobalInt
 208              	.LVL9:
 171:Drivers/STM32F0xx_HAL_Driver/Src/stm32f0xx_ll_usb.c **** 
 172:Drivers/STM32F0xx_HAL_Driver/Src/stm32f0xx_ll_usb.c ****   return HAL_OK;
 209              		.loc 1 172 3 is_stmt 1 view .LVU42
 173:Drivers/STM32F0xx_HAL_Driver/Src/stm32f0xx_ll_usb.c **** }
 210              		.loc 1 173 1 is_stmt 0 view .LVU43
 211 0020 0020     		movs	r0, #0
 212              		@ sp needed
 213 0022 10BC     		pop	{r4}
 214 0024 08BC     		pop	{r3}
 215 0026 04B0     		add	sp, sp, #16
 216 0028 1847     		bx	r3
 217              		.cfi_endproc
 218              	.LFE44:
 220              		.section	.text.USB_SetDevSpeed,"ax",%progbits
 221              		.align	1
 222              		.global	USB_SetDevSpeed
 223              		.syntax unified
 224              		.code	16
 225              		.thumb_func
 226              		.fpu softvfp
 228              	USB_SetDevSpeed:
 229              	.LVL10:
 230              	.LFB45:
 174:Drivers/STM32F0xx_HAL_Driver/Src/stm32f0xx_ll_usb.c **** 
 175:Drivers/STM32F0xx_HAL_Driver/Src/stm32f0xx_ll_usb.c **** /**
 176:Drivers/STM32F0xx_HAL_Driver/Src/stm32f0xx_ll_usb.c ****   * @brief  USB_SetDevSpeed :Initializes the device speed
 177:Drivers/STM32F0xx_HAL_Driver/Src/stm32f0xx_ll_usb.c ****   *         depending on the PHY type and the enumeration speed of the device.
 178:Drivers/STM32F0xx_HAL_Driver/Src/stm32f0xx_ll_usb.c ****   * @param  USBx  Selected device
 179:Drivers/STM32F0xx_HAL_Driver/Src/stm32f0xx_ll_usb.c ****   * @param  speed  device speed
 180:Drivers/STM32F0xx_HAL_Driver/Src/stm32f0xx_ll_usb.c ****   * @retval  Hal status
ARM GAS  /tmp/ccF3DfVq.s 			page 8


 181:Drivers/STM32F0xx_HAL_Driver/Src/stm32f0xx_ll_usb.c ****   */
 182:Drivers/STM32F0xx_HAL_Driver/Src/stm32f0xx_ll_usb.c **** HAL_StatusTypeDef USB_SetDevSpeed(USB_TypeDef *USBx, uint8_t speed)
 183:Drivers/STM32F0xx_HAL_Driver/Src/stm32f0xx_ll_usb.c **** {
 231              		.loc 1 183 1 is_stmt 1 view -0
 232              		.cfi_startproc
 233              		@ args = 0, pretend = 0, frame = 0
 234              		@ frame_needed = 0, uses_anonymous_args = 0
 235              		@ link register save eliminated.
 184:Drivers/STM32F0xx_HAL_Driver/Src/stm32f0xx_ll_usb.c ****   /* Prevent unused argument(s) compilation warning */
 185:Drivers/STM32F0xx_HAL_Driver/Src/stm32f0xx_ll_usb.c ****   UNUSED(USBx);
 236              		.loc 1 185 3 view .LVU45
 186:Drivers/STM32F0xx_HAL_Driver/Src/stm32f0xx_ll_usb.c ****   UNUSED(speed);
 237              		.loc 1 186 3 view .LVU46
 187:Drivers/STM32F0xx_HAL_Driver/Src/stm32f0xx_ll_usb.c **** 
 188:Drivers/STM32F0xx_HAL_Driver/Src/stm32f0xx_ll_usb.c ****   /* NOTE : - This function is not required by USB Device FS peripheral, it is used
 189:Drivers/STM32F0xx_HAL_Driver/Src/stm32f0xx_ll_usb.c ****               only by USB OTG FS peripheral.
 190:Drivers/STM32F0xx_HAL_Driver/Src/stm32f0xx_ll_usb.c ****             - This function is added to ensure compatibility across platforms.
 191:Drivers/STM32F0xx_HAL_Driver/Src/stm32f0xx_ll_usb.c ****    */
 192:Drivers/STM32F0xx_HAL_Driver/Src/stm32f0xx_ll_usb.c **** 
 193:Drivers/STM32F0xx_HAL_Driver/Src/stm32f0xx_ll_usb.c ****   return HAL_OK;
 238              		.loc 1 193 3 view .LVU47
 194:Drivers/STM32F0xx_HAL_Driver/Src/stm32f0xx_ll_usb.c **** }
 239              		.loc 1 194 1 is_stmt 0 view .LVU48
 240 0000 0020     		movs	r0, #0
 241              	.LVL11:
 242              		.loc 1 194 1 view .LVU49
 243              		@ sp needed
 244 0002 7047     		bx	lr
 245              		.cfi_endproc
 246              	.LFE45:
 248              		.section	.text.USB_FlushTxFifo,"ax",%progbits
 249              		.align	1
 250              		.global	USB_FlushTxFifo
 251              		.syntax unified
 252              		.code	16
 253              		.thumb_func
 254              		.fpu softvfp
 256              	USB_FlushTxFifo:
 257              	.LVL12:
 258              	.LFB46:
 195:Drivers/STM32F0xx_HAL_Driver/Src/stm32f0xx_ll_usb.c **** 
 196:Drivers/STM32F0xx_HAL_Driver/Src/stm32f0xx_ll_usb.c **** /**
 197:Drivers/STM32F0xx_HAL_Driver/Src/stm32f0xx_ll_usb.c ****   * @brief  USB_FlushTxFifo : Flush a Tx FIFO
 198:Drivers/STM32F0xx_HAL_Driver/Src/stm32f0xx_ll_usb.c ****   * @param  USBx : Selected device
 199:Drivers/STM32F0xx_HAL_Driver/Src/stm32f0xx_ll_usb.c ****   * @param  num : FIFO number
 200:Drivers/STM32F0xx_HAL_Driver/Src/stm32f0xx_ll_usb.c ****   *         This parameter can be a value from 1 to 15
 201:Drivers/STM32F0xx_HAL_Driver/Src/stm32f0xx_ll_usb.c ****             15 means Flush all Tx FIFOs
 202:Drivers/STM32F0xx_HAL_Driver/Src/stm32f0xx_ll_usb.c ****   * @retval HAL status
 203:Drivers/STM32F0xx_HAL_Driver/Src/stm32f0xx_ll_usb.c ****   */
 204:Drivers/STM32F0xx_HAL_Driver/Src/stm32f0xx_ll_usb.c **** HAL_StatusTypeDef USB_FlushTxFifo(USB_TypeDef *USBx, uint32_t num)
 205:Drivers/STM32F0xx_HAL_Driver/Src/stm32f0xx_ll_usb.c **** {
 259              		.loc 1 205 1 is_stmt 1 view -0
 260              		.cfi_startproc
 261              		@ args = 0, pretend = 0, frame = 0
 262              		@ frame_needed = 0, uses_anonymous_args = 0
 263              		@ link register save eliminated.
 206:Drivers/STM32F0xx_HAL_Driver/Src/stm32f0xx_ll_usb.c ****   /* Prevent unused argument(s) compilation warning */
ARM GAS  /tmp/ccF3DfVq.s 			page 9


 207:Drivers/STM32F0xx_HAL_Driver/Src/stm32f0xx_ll_usb.c ****   UNUSED(USBx);
 264              		.loc 1 207 3 view .LVU51
 208:Drivers/STM32F0xx_HAL_Driver/Src/stm32f0xx_ll_usb.c ****   UNUSED(num);
 265              		.loc 1 208 3 view .LVU52
 209:Drivers/STM32F0xx_HAL_Driver/Src/stm32f0xx_ll_usb.c **** 
 210:Drivers/STM32F0xx_HAL_Driver/Src/stm32f0xx_ll_usb.c ****   /* NOTE : - This function is not required by USB Device FS peripheral, it is used
 211:Drivers/STM32F0xx_HAL_Driver/Src/stm32f0xx_ll_usb.c ****               only by USB OTG FS peripheral.
 212:Drivers/STM32F0xx_HAL_Driver/Src/stm32f0xx_ll_usb.c ****             - This function is added to ensure compatibility across platforms.
 213:Drivers/STM32F0xx_HAL_Driver/Src/stm32f0xx_ll_usb.c ****    */
 214:Drivers/STM32F0xx_HAL_Driver/Src/stm32f0xx_ll_usb.c **** 
 215:Drivers/STM32F0xx_HAL_Driver/Src/stm32f0xx_ll_usb.c ****   return HAL_OK;
 266              		.loc 1 215 3 view .LVU53
 216:Drivers/STM32F0xx_HAL_Driver/Src/stm32f0xx_ll_usb.c **** }
 267              		.loc 1 216 1 is_stmt 0 view .LVU54
 268 0000 0020     		movs	r0, #0
 269              	.LVL13:
 270              		.loc 1 216 1 view .LVU55
 271              		@ sp needed
 272 0002 7047     		bx	lr
 273              		.cfi_endproc
 274              	.LFE46:
 276              		.section	.text.USB_FlushRxFifo,"ax",%progbits
 277              		.align	1
 278              		.global	USB_FlushRxFifo
 279              		.syntax unified
 280              		.code	16
 281              		.thumb_func
 282              		.fpu softvfp
 284              	USB_FlushRxFifo:
 285              	.LVL14:
 286              	.LFB47:
 217:Drivers/STM32F0xx_HAL_Driver/Src/stm32f0xx_ll_usb.c **** 
 218:Drivers/STM32F0xx_HAL_Driver/Src/stm32f0xx_ll_usb.c **** /**
 219:Drivers/STM32F0xx_HAL_Driver/Src/stm32f0xx_ll_usb.c ****   * @brief  USB_FlushRxFifo : Flush Rx FIFO
 220:Drivers/STM32F0xx_HAL_Driver/Src/stm32f0xx_ll_usb.c ****   * @param  USBx : Selected device
 221:Drivers/STM32F0xx_HAL_Driver/Src/stm32f0xx_ll_usb.c ****   * @retval HAL status
 222:Drivers/STM32F0xx_HAL_Driver/Src/stm32f0xx_ll_usb.c ****   */
 223:Drivers/STM32F0xx_HAL_Driver/Src/stm32f0xx_ll_usb.c **** HAL_StatusTypeDef USB_FlushRxFifo(USB_TypeDef *USBx)
 224:Drivers/STM32F0xx_HAL_Driver/Src/stm32f0xx_ll_usb.c **** {
 287              		.loc 1 224 1 is_stmt 1 view -0
 288              		.cfi_startproc
 289              		@ args = 0, pretend = 0, frame = 0
 290              		@ frame_needed = 0, uses_anonymous_args = 0
 291              		@ link register save eliminated.
 225:Drivers/STM32F0xx_HAL_Driver/Src/stm32f0xx_ll_usb.c ****   /* Prevent unused argument(s) compilation warning */
 226:Drivers/STM32F0xx_HAL_Driver/Src/stm32f0xx_ll_usb.c ****   UNUSED(USBx);
 292              		.loc 1 226 3 view .LVU57
 227:Drivers/STM32F0xx_HAL_Driver/Src/stm32f0xx_ll_usb.c **** 
 228:Drivers/STM32F0xx_HAL_Driver/Src/stm32f0xx_ll_usb.c ****   /* NOTE : - This function is not required by USB Device FS peripheral, it is used
 229:Drivers/STM32F0xx_HAL_Driver/Src/stm32f0xx_ll_usb.c ****               only by USB OTG FS peripheral.
 230:Drivers/STM32F0xx_HAL_Driver/Src/stm32f0xx_ll_usb.c ****             - This function is added to ensure compatibility across platforms.
 231:Drivers/STM32F0xx_HAL_Driver/Src/stm32f0xx_ll_usb.c ****    */
 232:Drivers/STM32F0xx_HAL_Driver/Src/stm32f0xx_ll_usb.c **** 
 233:Drivers/STM32F0xx_HAL_Driver/Src/stm32f0xx_ll_usb.c ****   return HAL_OK;
 293              		.loc 1 233 3 view .LVU58
 234:Drivers/STM32F0xx_HAL_Driver/Src/stm32f0xx_ll_usb.c **** }
 294              		.loc 1 234 1 is_stmt 0 view .LVU59
ARM GAS  /tmp/ccF3DfVq.s 			page 10


 295 0000 0020     		movs	r0, #0
 296              	.LVL15:
 297              		.loc 1 234 1 view .LVU60
 298              		@ sp needed
 299 0002 7047     		bx	lr
 300              		.cfi_endproc
 301              	.LFE47:
 303              		.section	.text.USB_ActivateEndpoint,"ax",%progbits
 304              		.align	1
 305              		.global	USB_ActivateEndpoint
 306              		.syntax unified
 307              		.code	16
 308              		.thumb_func
 309              		.fpu softvfp
 311              	USB_ActivateEndpoint:
 312              	.LVL16:
 313              	.LFB48:
 235:Drivers/STM32F0xx_HAL_Driver/Src/stm32f0xx_ll_usb.c **** 
 236:Drivers/STM32F0xx_HAL_Driver/Src/stm32f0xx_ll_usb.c **** /**
 237:Drivers/STM32F0xx_HAL_Driver/Src/stm32f0xx_ll_usb.c ****   * @brief  Activate and configure an endpoint
 238:Drivers/STM32F0xx_HAL_Driver/Src/stm32f0xx_ll_usb.c ****   * @param  USBx : Selected device
 239:Drivers/STM32F0xx_HAL_Driver/Src/stm32f0xx_ll_usb.c ****   * @param  ep: pointer to endpoint structure
 240:Drivers/STM32F0xx_HAL_Driver/Src/stm32f0xx_ll_usb.c ****   * @retval HAL status
 241:Drivers/STM32F0xx_HAL_Driver/Src/stm32f0xx_ll_usb.c ****   */
 242:Drivers/STM32F0xx_HAL_Driver/Src/stm32f0xx_ll_usb.c **** HAL_StatusTypeDef USB_ActivateEndpoint(USB_TypeDef *USBx, USB_EPTypeDef *ep)
 243:Drivers/STM32F0xx_HAL_Driver/Src/stm32f0xx_ll_usb.c **** {
 314              		.loc 1 243 1 is_stmt 1 view -0
 315              		.cfi_startproc
 316              		@ args = 0, pretend = 0, frame = 0
 317              		@ frame_needed = 0, uses_anonymous_args = 0
 318              		.loc 1 243 1 is_stmt 0 view .LVU62
 319 0000 F0B5     		push	{r4, r5, r6, r7, lr}
 320              	.LCFI3:
 321              		.cfi_def_cfa_offset 20
 322              		.cfi_offset 4, -20
 323              		.cfi_offset 5, -16
 324              		.cfi_offset 6, -12
 325              		.cfi_offset 7, -8
 326              		.cfi_offset 14, -4
 327 0002 0300     		movs	r3, r0
 244:Drivers/STM32F0xx_HAL_Driver/Src/stm32f0xx_ll_usb.c ****   HAL_StatusTypeDef ret = HAL_OK;
 328              		.loc 1 244 3 is_stmt 1 view .LVU63
 329              	.LVL17:
 245:Drivers/STM32F0xx_HAL_Driver/Src/stm32f0xx_ll_usb.c ****   uint16_t wEpRegVal;
 330              		.loc 1 245 3 view .LVU64
 246:Drivers/STM32F0xx_HAL_Driver/Src/stm32f0xx_ll_usb.c **** 
 247:Drivers/STM32F0xx_HAL_Driver/Src/stm32f0xx_ll_usb.c ****   wEpRegVal = PCD_GET_ENDPOINT(USBx, ep->num) & USB_EP_T_MASK;
 331              		.loc 1 247 3 view .LVU65
 332              		.loc 1 247 15 is_stmt 0 view .LVU66
 333 0004 0D78     		ldrb	r5, [r1]
 334 0006 AD00     		lsls	r5, r5, #2
 335 0008 4519     		adds	r5, r0, r5
 336              		.loc 1 247 47 view .LVU67
 337 000a 2A88     		ldrh	r2, [r5]
 338              		.loc 1 247 13 view .LVU68
 339 000c B248     		ldr	r0, .L48
 340              	.LVL18:
ARM GAS  /tmp/ccF3DfVq.s 			page 11


 341              		.loc 1 247 13 view .LVU69
 342 000e 0240     		ands	r2, r0
 343              	.LVL19:
 248:Drivers/STM32F0xx_HAL_Driver/Src/stm32f0xx_ll_usb.c **** 
 249:Drivers/STM32F0xx_HAL_Driver/Src/stm32f0xx_ll_usb.c ****   /* initialize Endpoint */
 250:Drivers/STM32F0xx_HAL_Driver/Src/stm32f0xx_ll_usb.c ****   switch (ep->type)
 344              		.loc 1 250 3 is_stmt 1 view .LVU70
 345              		.loc 1 250 13 is_stmt 0 view .LVU71
 346 0010 C878     		ldrb	r0, [r1, #3]
 347              		.loc 1 250 3 view .LVU72
 348 0012 0228     		cmp	r0, #2
 349 0014 59D0     		beq	.L37
 350 0016 0AD8     		bhi	.L15
 351 0018 0028     		cmp	r0, #0
 352 001a 52D0     		beq	.L16
 353 001c 0128     		cmp	r0, #1
 354 001e 04D1     		bne	.L46
 251:Drivers/STM32F0xx_HAL_Driver/Src/stm32f0xx_ll_usb.c ****   {
 252:Drivers/STM32F0xx_HAL_Driver/Src/stm32f0xx_ll_usb.c ****     case EP_TYPE_CTRL:
 253:Drivers/STM32F0xx_HAL_Driver/Src/stm32f0xx_ll_usb.c ****       wEpRegVal |= USB_EP_CONTROL;
 254:Drivers/STM32F0xx_HAL_Driver/Src/stm32f0xx_ll_usb.c ****       break;
 255:Drivers/STM32F0xx_HAL_Driver/Src/stm32f0xx_ll_usb.c **** 
 256:Drivers/STM32F0xx_HAL_Driver/Src/stm32f0xx_ll_usb.c ****     case EP_TYPE_BULK:
 257:Drivers/STM32F0xx_HAL_Driver/Src/stm32f0xx_ll_usb.c ****       wEpRegVal |= USB_EP_BULK;
 258:Drivers/STM32F0xx_HAL_Driver/Src/stm32f0xx_ll_usb.c ****       break;
 259:Drivers/STM32F0xx_HAL_Driver/Src/stm32f0xx_ll_usb.c **** 
 260:Drivers/STM32F0xx_HAL_Driver/Src/stm32f0xx_ll_usb.c ****     case EP_TYPE_INTR:
 261:Drivers/STM32F0xx_HAL_Driver/Src/stm32f0xx_ll_usb.c ****       wEpRegVal |= USB_EP_INTERRUPT;
 262:Drivers/STM32F0xx_HAL_Driver/Src/stm32f0xx_ll_usb.c ****       break;
 263:Drivers/STM32F0xx_HAL_Driver/Src/stm32f0xx_ll_usb.c **** 
 264:Drivers/STM32F0xx_HAL_Driver/Src/stm32f0xx_ll_usb.c ****     case EP_TYPE_ISOC:
 265:Drivers/STM32F0xx_HAL_Driver/Src/stm32f0xx_ll_usb.c ****       wEpRegVal |= USB_EP_ISOCHRONOUS;
 355              		.loc 1 265 7 is_stmt 1 view .LVU73
 356              		.loc 1 265 17 is_stmt 0 view .LVU74
 357 0020 8020     		movs	r0, #128
 358 0022 C000     		lsls	r0, r0, #3
 359 0024 0243     		orrs	r2, r0
 360              	.LVL20:
 266:Drivers/STM32F0xx_HAL_Driver/Src/stm32f0xx_ll_usb.c ****       break;
 361              		.loc 1 266 7 is_stmt 1 view .LVU75
 244:Drivers/STM32F0xx_HAL_Driver/Src/stm32f0xx_ll_usb.c ****   uint16_t wEpRegVal;
 362              		.loc 1 244 21 is_stmt 0 view .LVU76
 363 0026 0020     		movs	r0, #0
 364              		.loc 1 266 7 view .LVU77
 365 0028 09E0     		b	.L14
 366              	.L46:
 267:Drivers/STM32F0xx_HAL_Driver/Src/stm32f0xx_ll_usb.c **** 
 268:Drivers/STM32F0xx_HAL_Driver/Src/stm32f0xx_ll_usb.c ****     default:
 269:Drivers/STM32F0xx_HAL_Driver/Src/stm32f0xx_ll_usb.c ****       ret = HAL_ERROR;
 367              		.loc 1 269 11 view .LVU78
 368 002a 0120     		movs	r0, #1
 369 002c 07E0     		b	.L14
 370              	.L15:
 250:Drivers/STM32F0xx_HAL_Driver/Src/stm32f0xx_ll_usb.c ****   {
 371              		.loc 1 250 3 view .LVU79
 372 002e 0328     		cmp	r0, #3
 373 0030 04D1     		bne	.L47
ARM GAS  /tmp/ccF3DfVq.s 			page 12


 261:Drivers/STM32F0xx_HAL_Driver/Src/stm32f0xx_ll_usb.c ****       break;
 374              		.loc 1 261 7 is_stmt 1 view .LVU80
 261:Drivers/STM32F0xx_HAL_Driver/Src/stm32f0xx_ll_usb.c ****       break;
 375              		.loc 1 261 17 is_stmt 0 view .LVU81
 376 0032 C020     		movs	r0, #192
 377 0034 C000     		lsls	r0, r0, #3
 378 0036 0243     		orrs	r2, r0
 379              	.LVL21:
 262:Drivers/STM32F0xx_HAL_Driver/Src/stm32f0xx_ll_usb.c **** 
 380              		.loc 1 262 7 is_stmt 1 view .LVU82
 244:Drivers/STM32F0xx_HAL_Driver/Src/stm32f0xx_ll_usb.c ****   uint16_t wEpRegVal;
 381              		.loc 1 244 21 is_stmt 0 view .LVU83
 382 0038 0020     		movs	r0, #0
 262:Drivers/STM32F0xx_HAL_Driver/Src/stm32f0xx_ll_usb.c **** 
 383              		.loc 1 262 7 view .LVU84
 384 003a 00E0     		b	.L14
 385              	.L47:
 386              		.loc 1 269 11 view .LVU85
 387 003c 0120     		movs	r0, #1
 388              	.L14:
 389              	.LVL22:
 270:Drivers/STM32F0xx_HAL_Driver/Src/stm32f0xx_ll_usb.c ****       break;
 271:Drivers/STM32F0xx_HAL_Driver/Src/stm32f0xx_ll_usb.c ****   }
 272:Drivers/STM32F0xx_HAL_Driver/Src/stm32f0xx_ll_usb.c **** 
 273:Drivers/STM32F0xx_HAL_Driver/Src/stm32f0xx_ll_usb.c ****   PCD_SET_ENDPOINT(USBx, ep->num, wEpRegVal | USB_EP_CTR_RX | USB_EP_CTR_TX);
 390              		.loc 1 273 3 is_stmt 1 view .LVU86
 391 003e A74C     		ldr	r4, .L48+4
 392 0040 2243     		orrs	r2, r4
 393              	.LVL23:
 394              		.loc 1 273 3 is_stmt 0 view .LVU87
 395 0042 92B2     		uxth	r2, r2
 396 0044 2A80     		strh	r2, [r5]
 274:Drivers/STM32F0xx_HAL_Driver/Src/stm32f0xx_ll_usb.c **** 
 275:Drivers/STM32F0xx_HAL_Driver/Src/stm32f0xx_ll_usb.c ****   PCD_SET_EP_ADDRESS(USBx, ep->num, ep->num);
 397              		.loc 1 275 3 is_stmt 1 view .LVU88
 398              	.LBB2:
 399              		.loc 1 275 3 view .LVU89
 400              		.loc 1 275 3 view .LVU90
 401 0046 0A78     		ldrb	r2, [r1]
 402 0048 9600     		lsls	r6, r2, #2
 403 004a 9E19     		adds	r6, r3, r6
 404 004c 3588     		ldrh	r5, [r6]
 405 004e 2DB2     		sxth	r5, r5
 406 0050 A34F     		ldr	r7, .L48+8
 407 0052 3D40     		ands	r5, r7
 408 0054 2A43     		orrs	r2, r5
 409 0056 92B2     		uxth	r2, r2
 410              	.LVL24:
 411              		.loc 1 275 3 view .LVU91
 412 0058 1443     		orrs	r4, r2
 413 005a A4B2     		uxth	r4, r4
 414 005c 3480     		strh	r4, [r6]
 415              	.LBE2:
 416              		.loc 1 275 3 view .LVU92
 276:Drivers/STM32F0xx_HAL_Driver/Src/stm32f0xx_ll_usb.c **** 
 277:Drivers/STM32F0xx_HAL_Driver/Src/stm32f0xx_ll_usb.c ****   if (ep->doublebuffer == 0U)
 417              		.loc 1 277 3 view .LVU93
ARM GAS  /tmp/ccF3DfVq.s 			page 13


 418              		.loc 1 277 9 is_stmt 0 view .LVU94
 419 005e 0A7B     		ldrb	r2, [r1, #12]
 420              	.LVL25:
 421              		.loc 1 277 6 view .LVU95
 422 0060 002A     		cmp	r2, #0
 423 0062 00D0     		beq	.LCB314
 424 0064 8BE0     		b	.L19	@long jump
 425              	.LCB314:
 278:Drivers/STM32F0xx_HAL_Driver/Src/stm32f0xx_ll_usb.c ****   {
 279:Drivers/STM32F0xx_HAL_Driver/Src/stm32f0xx_ll_usb.c ****     if (ep->is_in != 0U)
 426              		.loc 1 279 5 is_stmt 1 view .LVU96
 427              		.loc 1 279 11 is_stmt 0 view .LVU97
 428 0066 4A78     		ldrb	r2, [r1, #1]
 429              		.loc 1 279 8 view .LVU98
 430 0068 002A     		cmp	r2, #0
 431 006a 3BD0     		beq	.L20
 280:Drivers/STM32F0xx_HAL_Driver/Src/stm32f0xx_ll_usb.c ****     {
 281:Drivers/STM32F0xx_HAL_Driver/Src/stm32f0xx_ll_usb.c ****       /*Set the endpoint Transmit buffer address */
 282:Drivers/STM32F0xx_HAL_Driver/Src/stm32f0xx_ll_usb.c ****       PCD_SET_EP_TX_ADDRESS(USBx, ep->num, ep->pmaadress);
 432              		.loc 1 282 7 is_stmt 1 view .LVU99
 433              	.LBB3:
 434              		.loc 1 282 7 view .LVU100
 435              		.loc 1 282 7 view .LVU101
 436              	.LVL26:
 437              		.loc 1 282 7 view .LVU102
 438 006c 5022     		movs	r2, #80
 439 006e 9C5A     		ldrh	r4, [r3, r2]
 440 0070 1C19     		adds	r4, r3, r4
 441              	.LVL27:
 442              		.loc 1 282 7 view .LVU103
 443 0072 0A78     		ldrb	r2, [r1]
 444 0074 D200     		lsls	r2, r2, #3
 445 0076 1219     		adds	r2, r2, r4
 446 0078 8024     		movs	r4, #128
 447              	.LVL28:
 448              		.loc 1 282 7 is_stmt 0 view .LVU104
 449 007a E400     		lsls	r4, r4, #3
 450 007c A446     		mov	ip, r4
 451 007e 6244     		add	r2, r2, ip
 452              	.LVL29:
 453              		.loc 1 282 7 is_stmt 1 view .LVU105
 454 0080 CC88     		ldrh	r4, [r1, #6]
 455 0082 6408     		lsrs	r4, r4, #1
 456 0084 6400     		lsls	r4, r4, #1
 457 0086 1480     		strh	r4, [r2]
 458              	.LBE3:
 459              		.loc 1 282 7 view .LVU106
 283:Drivers/STM32F0xx_HAL_Driver/Src/stm32f0xx_ll_usb.c ****       PCD_CLEAR_TX_DTOG(USBx, ep->num);
 460              		.loc 1 283 7 view .LVU107
 461              	.LBB4:
 462              		.loc 1 283 7 view .LVU108
 463              		.loc 1 283 7 view .LVU109
 464 0088 0A78     		ldrb	r2, [r1]
 465              	.LVL30:
 466              		.loc 1 283 7 is_stmt 0 view .LVU110
 467 008a 9200     		lsls	r2, r2, #2
 468 008c 9A18     		adds	r2, r3, r2
ARM GAS  /tmp/ccF3DfVq.s 			page 14


 469 008e 1488     		ldrh	r4, [r2]
 470              	.LVL31:
 471              		.loc 1 283 7 is_stmt 1 view .LVU111
 472 0090 6406     		lsls	r4, r4, #25
 473 0092 05D5     		bpl	.L21
 474              	.LVL32:
 475              		.loc 1 283 7 discriminator 1 view .LVU112
 476              	.LBB5:
 477              		.loc 1 283 7 discriminator 1 view .LVU113
 478              		.loc 1 283 7 discriminator 1 view .LVU114
 479 0094 1588     		ldrh	r5, [r2]
 480 0096 3D40     		ands	r5, r7
 481              	.LVL33:
 482              		.loc 1 283 7 discriminator 1 view .LVU115
 483 0098 924C     		ldr	r4, .L48+12
 484 009a 2C43     		orrs	r4, r5
 485 009c A4B2     		uxth	r4, r4
 486 009e 1480     		strh	r4, [r2]
 487              	.LVL34:
 488              	.L21:
 489              		.loc 1 283 7 is_stmt 0 discriminator 1 view .LVU116
 490              	.LBE5:
 491              		.loc 1 283 7 is_stmt 1 discriminator 3 view .LVU117
 492              	.LBE4:
 493              		.loc 1 283 7 discriminator 3 view .LVU118
 284:Drivers/STM32F0xx_HAL_Driver/Src/stm32f0xx_ll_usb.c **** 
 285:Drivers/STM32F0xx_HAL_Driver/Src/stm32f0xx_ll_usb.c ****       if (ep->type != EP_TYPE_ISOC)
 494              		.loc 1 285 7 discriminator 3 view .LVU119
 495              		.loc 1 285 13 is_stmt 0 discriminator 3 view .LVU120
 496 00a0 CA78     		ldrb	r2, [r1, #3]
 497              		.loc 1 285 10 discriminator 3 view .LVU121
 498 00a2 012A     		cmp	r2, #1
 499 00a4 13D0     		beq	.L22
 286:Drivers/STM32F0xx_HAL_Driver/Src/stm32f0xx_ll_usb.c ****       {
 287:Drivers/STM32F0xx_HAL_Driver/Src/stm32f0xx_ll_usb.c ****         /* Configure NAK status for the Endpoint */
 288:Drivers/STM32F0xx_HAL_Driver/Src/stm32f0xx_ll_usb.c ****         PCD_SET_EP_TX_STATUS(USBx, ep->num, USB_EP_TX_NAK);
 500              		.loc 1 288 9 is_stmt 1 view .LVU122
 501              	.LBB6:
 502              		.loc 1 288 9 view .LVU123
 503              		.loc 1 288 9 view .LVU124
 504 00a6 0A78     		ldrb	r2, [r1]
 505 00a8 9200     		lsls	r2, r2, #2
 506 00aa 9A18     		adds	r2, r3, r2
 507 00ac 1388     		ldrh	r3, [r2]
 508              	.LVL35:
 509              		.loc 1 288 9 is_stmt 0 view .LVU125
 510 00ae 8E49     		ldr	r1, .L48+16
 511              	.LVL36:
 512              		.loc 1 288 9 view .LVU126
 513 00b0 0B40     		ands	r3, r1
 514              	.LVL37:
 515              		.loc 1 288 9 is_stmt 1 view .LVU127
 516              		.loc 1 288 9 view .LVU128
 517              		.loc 1 288 9 view .LVU129
 518 00b2 2021     		movs	r1, #32
 519 00b4 4B40     		eors	r3, r1
 520              	.LVL38:
ARM GAS  /tmp/ccF3DfVq.s 			page 15


 521              		.loc 1 288 9 is_stmt 0 view .LVU130
 522 00b6 9BB2     		uxth	r3, r3
 523              	.LVL39:
 524              		.loc 1 288 9 is_stmt 1 view .LVU131
 525 00b8 8849     		ldr	r1, .L48+4
 526 00ba 0B43     		orrs	r3, r1
 527              	.LVL40:
 528              		.loc 1 288 9 is_stmt 0 view .LVU132
 529 00bc 9BB2     		uxth	r3, r3
 530 00be 1380     		strh	r3, [r2]
 531              	.LBE6:
 532              		.loc 1 288 9 is_stmt 1 view .LVU133
 533 00c0 49E0     		b	.L23
 534              	.LVL41:
 535              	.L16:
 253:Drivers/STM32F0xx_HAL_Driver/Src/stm32f0xx_ll_usb.c ****       break;
 536              		.loc 1 253 7 view .LVU134
 253:Drivers/STM32F0xx_HAL_Driver/Src/stm32f0xx_ll_usb.c ****       break;
 537              		.loc 1 253 17 is_stmt 0 view .LVU135
 538 00c2 8024     		movs	r4, #128
 539 00c4 A400     		lsls	r4, r4, #2
 540 00c6 2243     		orrs	r2, r4
 541              	.LVL42:
 254:Drivers/STM32F0xx_HAL_Driver/Src/stm32f0xx_ll_usb.c **** 
 542              		.loc 1 254 7 is_stmt 1 view .LVU136
 543 00c8 B9E7     		b	.L14
 544              	.L37:
 250:Drivers/STM32F0xx_HAL_Driver/Src/stm32f0xx_ll_usb.c ****   {
 545              		.loc 1 250 3 is_stmt 0 view .LVU137
 546 00ca 0020     		movs	r0, #0
 547 00cc B7E7     		b	.L14
 548              	.LVL43:
 549              	.L22:
 289:Drivers/STM32F0xx_HAL_Driver/Src/stm32f0xx_ll_usb.c ****       }
 290:Drivers/STM32F0xx_HAL_Driver/Src/stm32f0xx_ll_usb.c ****       else
 291:Drivers/STM32F0xx_HAL_Driver/Src/stm32f0xx_ll_usb.c ****       {
 292:Drivers/STM32F0xx_HAL_Driver/Src/stm32f0xx_ll_usb.c ****         /* Configure TX Endpoint to disabled state */
 293:Drivers/STM32F0xx_HAL_Driver/Src/stm32f0xx_ll_usb.c ****         PCD_SET_EP_TX_STATUS(USBx, ep->num, USB_EP_TX_DIS);
 550              		.loc 1 293 9 is_stmt 1 view .LVU138
 551              	.LBB7:
 552              		.loc 1 293 9 view .LVU139
 553              		.loc 1 293 9 view .LVU140
 554 00ce 0A78     		ldrb	r2, [r1]
 555 00d0 9200     		lsls	r2, r2, #2
 556 00d2 9B18     		adds	r3, r3, r2
 557              	.LVL44:
 558              		.loc 1 293 9 is_stmt 0 view .LVU141
 559 00d4 1988     		ldrh	r1, [r3]
 560              	.LVL45:
 561              		.loc 1 293 9 view .LVU142
 562 00d6 844A     		ldr	r2, .L48+16
 563 00d8 1140     		ands	r1, r2
 564              	.LVL46:
 565              		.loc 1 293 9 is_stmt 1 view .LVU143
 566              		.loc 1 293 9 view .LVU144
 567              		.loc 1 293 9 view .LVU145
 568 00da 804A     		ldr	r2, .L48+4
ARM GAS  /tmp/ccF3DfVq.s 			page 16


 569 00dc 0A43     		orrs	r2, r1
 570 00de 92B2     		uxth	r2, r2
 571 00e0 1A80     		strh	r2, [r3]
 572 00e2 38E0     		b	.L23
 573              	.LVL47:
 574              	.L20:
 575              		.loc 1 293 9 is_stmt 0 view .LVU146
 576              	.LBE7:
 294:Drivers/STM32F0xx_HAL_Driver/Src/stm32f0xx_ll_usb.c ****       }
 295:Drivers/STM32F0xx_HAL_Driver/Src/stm32f0xx_ll_usb.c ****     }
 296:Drivers/STM32F0xx_HAL_Driver/Src/stm32f0xx_ll_usb.c ****     else
 297:Drivers/STM32F0xx_HAL_Driver/Src/stm32f0xx_ll_usb.c ****     {
 298:Drivers/STM32F0xx_HAL_Driver/Src/stm32f0xx_ll_usb.c ****       /*Set the endpoint Receive buffer address */
 299:Drivers/STM32F0xx_HAL_Driver/Src/stm32f0xx_ll_usb.c ****       PCD_SET_EP_RX_ADDRESS(USBx, ep->num, ep->pmaadress);
 577              		.loc 1 299 7 is_stmt 1 view .LVU147
 578              	.LBB8:
 579              		.loc 1 299 7 view .LVU148
 580              		.loc 1 299 7 view .LVU149
 581              		.loc 1 299 7 view .LVU150
 582 00e4 5025     		movs	r5, #80
 583 00e6 5C5B     		ldrh	r4, [r3, r5]
 584 00e8 1C19     		adds	r4, r3, r4
 585              	.LVL48:
 586              		.loc 1 299 7 view .LVU151
 587 00ea 0A78     		ldrb	r2, [r1]
 588 00ec D200     		lsls	r2, r2, #3
 589 00ee 1219     		adds	r2, r2, r4
 590 00f0 7E4C     		ldr	r4, .L48+20
 591              	.LVL49:
 592              		.loc 1 299 7 is_stmt 0 view .LVU152
 593 00f2 A446     		mov	ip, r4
 594 00f4 6244     		add	r2, r2, ip
 595              	.LVL50:
 596              		.loc 1 299 7 is_stmt 1 view .LVU153
 597 00f6 CC88     		ldrh	r4, [r1, #6]
 598 00f8 6408     		lsrs	r4, r4, #1
 599 00fa 6400     		lsls	r4, r4, #1
 600 00fc 1480     		strh	r4, [r2]
 601              	.LBE8:
 602              		.loc 1 299 7 view .LVU154
 300:Drivers/STM32F0xx_HAL_Driver/Src/stm32f0xx_ll_usb.c ****       /*Set the endpoint Receive buffer counter*/
 301:Drivers/STM32F0xx_HAL_Driver/Src/stm32f0xx_ll_usb.c ****       PCD_SET_EP_RX_CNT(USBx, ep->num, ep->maxpacket);
 603              		.loc 1 301 7 view .LVU155
 604              	.LBB9:
 605              		.loc 1 301 7 view .LVU156
 606              	.LVL51:
 607              		.loc 1 301 7 view .LVU157
 608              		.loc 1 301 7 view .LVU158
 609 00fe 5C5B     		ldrh	r4, [r3, r5]
 610 0100 1C19     		adds	r4, r3, r4
 611              	.LVL52:
 612              		.loc 1 301 7 view .LVU159
 613 0102 0A78     		ldrb	r2, [r1]
 614              	.LVL53:
 615              		.loc 1 301 7 is_stmt 0 view .LVU160
 616 0104 D200     		lsls	r2, r2, #3
 617 0106 1219     		adds	r2, r2, r4
ARM GAS  /tmp/ccF3DfVq.s 			page 17


 618 0108 794C     		ldr	r4, .L48+24
 619              	.LVL54:
 620              		.loc 1 301 7 view .LVU161
 621 010a A446     		mov	ip, r4
 622 010c 6244     		add	r2, r2, ip
 623              	.LVL55:
 624              		.loc 1 301 7 is_stmt 1 view .LVU162
 625              	.LBB10:
 626              		.loc 1 301 7 view .LVU163
 627              		.loc 1 301 7 view .LVU164
 628 010e 0C69     		ldr	r4, [r1, #16]
 629 0110 002C     		cmp	r4, #0
 630 0112 21D1     		bne	.L24
 631              		.loc 1 301 7 discriminator 1 view .LVU165
 632 0114 1488     		ldrh	r4, [r2]
 633 0116 774D     		ldr	r5, .L48+28
 634 0118 2C40     		ands	r4, r5
 635 011a 1480     		strh	r4, [r2]
 636              		.loc 1 301 7 discriminator 1 view .LVU166
 637 011c 764D     		ldr	r5, .L48+32
 638 011e 2C43     		orrs	r4, r5
 639 0120 1480     		strh	r4, [r2]
 640              	.L25:
 641              		.loc 1 301 7 discriminator 13 view .LVU167
 642              	.LBE10:
 643              		.loc 1 301 7 discriminator 13 view .LVU168
 644              	.LBE9:
 645              		.loc 1 301 7 discriminator 13 view .LVU169
 302:Drivers/STM32F0xx_HAL_Driver/Src/stm32f0xx_ll_usb.c ****       PCD_CLEAR_RX_DTOG(USBx, ep->num);
 646              		.loc 1 302 7 discriminator 13 view .LVU170
 647              	.LBB12:
 648              		.loc 1 302 7 discriminator 13 view .LVU171
 649              		.loc 1 302 7 discriminator 13 view .LVU172
 650 0122 0A78     		ldrb	r2, [r1]
 651              	.LVL56:
 652              		.loc 1 302 7 is_stmt 0 discriminator 13 view .LVU173
 653 0124 9200     		lsls	r2, r2, #2
 654 0126 9A18     		adds	r2, r3, r2
 655 0128 1488     		ldrh	r4, [r2]
 656              	.LVL57:
 657              		.loc 1 302 7 is_stmt 1 discriminator 13 view .LVU174
 658 012a 6404     		lsls	r4, r4, #17
 659 012c 06D5     		bpl	.L29
 660              	.LVL58:
 661              		.loc 1 302 7 discriminator 1 view .LVU175
 662              	.LBB13:
 663              		.loc 1 302 7 discriminator 1 view .LVU176
 664              		.loc 1 302 7 discriminator 1 view .LVU177
 665 012e 1588     		ldrh	r5, [r2]
 666 0130 6B4C     		ldr	r4, .L48+8
 667 0132 2540     		ands	r5, r4
 668              	.LVL59:
 669              		.loc 1 302 7 discriminator 1 view .LVU178
 670 0134 714C     		ldr	r4, .L48+36
 671 0136 2C43     		orrs	r4, r5
 672 0138 A4B2     		uxth	r4, r4
 673 013a 1480     		strh	r4, [r2]
ARM GAS  /tmp/ccF3DfVq.s 			page 18


 674              	.LVL60:
 675              	.L29:
 676              		.loc 1 302 7 is_stmt 0 discriminator 1 view .LVU179
 677              	.LBE13:
 678              		.loc 1 302 7 is_stmt 1 discriminator 3 view .LVU180
 679              	.LBE12:
 680              		.loc 1 302 7 discriminator 3 view .LVU181
 303:Drivers/STM32F0xx_HAL_Driver/Src/stm32f0xx_ll_usb.c ****       /* Configure VALID status for the Endpoint*/
 304:Drivers/STM32F0xx_HAL_Driver/Src/stm32f0xx_ll_usb.c ****       PCD_SET_EP_RX_STATUS(USBx, ep->num, USB_EP_RX_VALID);
 681              		.loc 1 304 7 discriminator 3 view .LVU182
 682              	.LBB14:
 683              		.loc 1 304 7 discriminator 3 view .LVU183
 684              		.loc 1 304 7 discriminator 3 view .LVU184
 685 013c 0A78     		ldrb	r2, [r1]
 686 013e 9200     		lsls	r2, r2, #2
 687 0140 9B18     		adds	r3, r3, r2
 688              	.LVL61:
 689              		.loc 1 304 7 is_stmt 0 discriminator 3 view .LVU185
 690 0142 1A88     		ldrh	r2, [r3]
 691 0144 6E49     		ldr	r1, .L48+40
 692              	.LVL62:
 693              		.loc 1 304 7 discriminator 3 view .LVU186
 694 0146 0A40     		ands	r2, r1
 695              	.LVL63:
 696              		.loc 1 304 7 is_stmt 1 discriminator 3 view .LVU187
 697              		.loc 1 304 7 discriminator 3 view .LVU188
 698              		.loc 1 304 7 discriminator 3 view .LVU189
 699              		.loc 1 304 7 discriminator 3 view .LVU190
 700 0148 C021     		movs	r1, #192
 701 014a 8901     		lsls	r1, r1, #6
 702 014c 5140     		eors	r1, r2
 703              	.LVL64:
 704              		.loc 1 304 7 discriminator 3 view .LVU191
 705 014e 634A     		ldr	r2, .L48+4
 706 0150 0A43     		orrs	r2, r1
 707 0152 92B2     		uxth	r2, r2
 708 0154 1A80     		strh	r2, [r3]
 709              	.LVL65:
 710              	.L23:
 711              		.loc 1 304 7 is_stmt 0 discriminator 3 view .LVU192
 712              	.LBE14:
 305:Drivers/STM32F0xx_HAL_Driver/Src/stm32f0xx_ll_usb.c ****     }
 306:Drivers/STM32F0xx_HAL_Driver/Src/stm32f0xx_ll_usb.c ****   }
 307:Drivers/STM32F0xx_HAL_Driver/Src/stm32f0xx_ll_usb.c ****   /*Double Buffer*/
 308:Drivers/STM32F0xx_HAL_Driver/Src/stm32f0xx_ll_usb.c ****   else
 309:Drivers/STM32F0xx_HAL_Driver/Src/stm32f0xx_ll_usb.c ****   {
 310:Drivers/STM32F0xx_HAL_Driver/Src/stm32f0xx_ll_usb.c ****     /* Set the endpoint as double buffered */
 311:Drivers/STM32F0xx_HAL_Driver/Src/stm32f0xx_ll_usb.c ****     PCD_SET_EP_DBUF(USBx, ep->num);
 312:Drivers/STM32F0xx_HAL_Driver/Src/stm32f0xx_ll_usb.c ****     /* Set buffer address for double buffered mode */
 313:Drivers/STM32F0xx_HAL_Driver/Src/stm32f0xx_ll_usb.c ****     PCD_SET_EP_DBUF_ADDR(USBx, ep->num, ep->pmaaddr0, ep->pmaaddr1);
 314:Drivers/STM32F0xx_HAL_Driver/Src/stm32f0xx_ll_usb.c **** 
 315:Drivers/STM32F0xx_HAL_Driver/Src/stm32f0xx_ll_usb.c ****     if (ep->is_in == 0U)
 316:Drivers/STM32F0xx_HAL_Driver/Src/stm32f0xx_ll_usb.c ****     {
 317:Drivers/STM32F0xx_HAL_Driver/Src/stm32f0xx_ll_usb.c ****       /* Clear the data toggle bits for the endpoint IN/OUT */
 318:Drivers/STM32F0xx_HAL_Driver/Src/stm32f0xx_ll_usb.c ****       PCD_CLEAR_RX_DTOG(USBx, ep->num);
 319:Drivers/STM32F0xx_HAL_Driver/Src/stm32f0xx_ll_usb.c ****       PCD_CLEAR_TX_DTOG(USBx, ep->num);
 320:Drivers/STM32F0xx_HAL_Driver/Src/stm32f0xx_ll_usb.c **** 
ARM GAS  /tmp/ccF3DfVq.s 			page 19


 321:Drivers/STM32F0xx_HAL_Driver/Src/stm32f0xx_ll_usb.c ****       /* Reset value of the data toggle bits for the endpoint out */
 322:Drivers/STM32F0xx_HAL_Driver/Src/stm32f0xx_ll_usb.c ****       PCD_TX_DTOG(USBx, ep->num);
 323:Drivers/STM32F0xx_HAL_Driver/Src/stm32f0xx_ll_usb.c **** 
 324:Drivers/STM32F0xx_HAL_Driver/Src/stm32f0xx_ll_usb.c ****       PCD_SET_EP_RX_STATUS(USBx, ep->num, USB_EP_RX_VALID);
 325:Drivers/STM32F0xx_HAL_Driver/Src/stm32f0xx_ll_usb.c ****       PCD_SET_EP_TX_STATUS(USBx, ep->num, USB_EP_TX_DIS);
 326:Drivers/STM32F0xx_HAL_Driver/Src/stm32f0xx_ll_usb.c ****     }
 327:Drivers/STM32F0xx_HAL_Driver/Src/stm32f0xx_ll_usb.c ****     else
 328:Drivers/STM32F0xx_HAL_Driver/Src/stm32f0xx_ll_usb.c ****     {
 329:Drivers/STM32F0xx_HAL_Driver/Src/stm32f0xx_ll_usb.c ****       /* Clear the data toggle bits for the endpoint IN/OUT */
 330:Drivers/STM32F0xx_HAL_Driver/Src/stm32f0xx_ll_usb.c ****       PCD_CLEAR_RX_DTOG(USBx, ep->num);
 331:Drivers/STM32F0xx_HAL_Driver/Src/stm32f0xx_ll_usb.c ****       PCD_CLEAR_TX_DTOG(USBx, ep->num);
 332:Drivers/STM32F0xx_HAL_Driver/Src/stm32f0xx_ll_usb.c ****       PCD_RX_DTOG(USBx, ep->num);
 333:Drivers/STM32F0xx_HAL_Driver/Src/stm32f0xx_ll_usb.c **** 
 334:Drivers/STM32F0xx_HAL_Driver/Src/stm32f0xx_ll_usb.c ****       if (ep->type != EP_TYPE_ISOC)
 335:Drivers/STM32F0xx_HAL_Driver/Src/stm32f0xx_ll_usb.c ****       {
 336:Drivers/STM32F0xx_HAL_Driver/Src/stm32f0xx_ll_usb.c ****         /* Configure NAK status for the Endpoint */
 337:Drivers/STM32F0xx_HAL_Driver/Src/stm32f0xx_ll_usb.c ****         PCD_SET_EP_TX_STATUS(USBx, ep->num, USB_EP_TX_NAK);
 338:Drivers/STM32F0xx_HAL_Driver/Src/stm32f0xx_ll_usb.c ****       }
 339:Drivers/STM32F0xx_HAL_Driver/Src/stm32f0xx_ll_usb.c ****       else
 340:Drivers/STM32F0xx_HAL_Driver/Src/stm32f0xx_ll_usb.c ****       {
 341:Drivers/STM32F0xx_HAL_Driver/Src/stm32f0xx_ll_usb.c ****         /* Configure TX Endpoint to disabled state */
 342:Drivers/STM32F0xx_HAL_Driver/Src/stm32f0xx_ll_usb.c ****         PCD_SET_EP_TX_STATUS(USBx, ep->num, USB_EP_TX_DIS);
 343:Drivers/STM32F0xx_HAL_Driver/Src/stm32f0xx_ll_usb.c ****       }
 344:Drivers/STM32F0xx_HAL_Driver/Src/stm32f0xx_ll_usb.c **** 
 345:Drivers/STM32F0xx_HAL_Driver/Src/stm32f0xx_ll_usb.c ****       PCD_SET_EP_RX_STATUS(USBx, ep->num, USB_EP_RX_DIS);
 713              		.loc 1 345 7 is_stmt 1 discriminator 7 view .LVU193
 346:Drivers/STM32F0xx_HAL_Driver/Src/stm32f0xx_ll_usb.c ****     }
 347:Drivers/STM32F0xx_HAL_Driver/Src/stm32f0xx_ll_usb.c ****   }
 348:Drivers/STM32F0xx_HAL_Driver/Src/stm32f0xx_ll_usb.c **** 
 349:Drivers/STM32F0xx_HAL_Driver/Src/stm32f0xx_ll_usb.c ****   return ret;
 714              		.loc 1 349 3 discriminator 7 view .LVU194
 350:Drivers/STM32F0xx_HAL_Driver/Src/stm32f0xx_ll_usb.c **** }
 715              		.loc 1 350 1 is_stmt 0 discriminator 7 view .LVU195
 716              		@ sp needed
 717 0156 F0BD     		pop	{r4, r5, r6, r7, pc}
 718              	.LVL66:
 719              	.L24:
 720              	.LBB15:
 721              	.LBB11:
 301:Drivers/STM32F0xx_HAL_Driver/Src/stm32f0xx_ll_usb.c ****       PCD_CLEAR_RX_DTOG(USBx, ep->num);
 722              		.loc 1 301 7 is_stmt 1 discriminator 2 view .LVU196
 723 0158 3E2C     		cmp	r4, #62
 724 015a 06D8     		bhi	.L26
 301:Drivers/STM32F0xx_HAL_Driver/Src/stm32f0xx_ll_usb.c ****       PCD_CLEAR_RX_DTOG(USBx, ep->num);
 725              		.loc 1 301 7 discriminator 4 view .LVU197
 301:Drivers/STM32F0xx_HAL_Driver/Src/stm32f0xx_ll_usb.c ****       PCD_CLEAR_RX_DTOG(USBx, ep->num);
 726              		.loc 1 301 7 discriminator 4 view .LVU198
 727 015c 6508     		lsrs	r5, r4, #1
 728              	.LVL67:
 301:Drivers/STM32F0xx_HAL_Driver/Src/stm32f0xx_ll_usb.c ****       PCD_CLEAR_RX_DTOG(USBx, ep->num);
 729              		.loc 1 301 7 discriminator 4 view .LVU199
 730 015e E407     		lsls	r4, r4, #31
 731 0160 00D5     		bpl	.L27
 301:Drivers/STM32F0xx_HAL_Driver/Src/stm32f0xx_ll_usb.c ****       PCD_CLEAR_RX_DTOG(USBx, ep->num);
 732              		.loc 1 301 7 discriminator 6 view .LVU200
 733 0162 0135     		adds	r5, r5, #1
 734              	.LVL68:
ARM GAS  /tmp/ccF3DfVq.s 			page 20


 735              	.L27:
 301:Drivers/STM32F0xx_HAL_Driver/Src/stm32f0xx_ll_usb.c ****       PCD_CLEAR_RX_DTOG(USBx, ep->num);
 736              		.loc 1 301 7 discriminator 8 view .LVU201
 737 0164 AD02     		lsls	r5, r5, #10
 738              	.LVL69:
 301:Drivers/STM32F0xx_HAL_Driver/Src/stm32f0xx_ll_usb.c ****       PCD_CLEAR_RX_DTOG(USBx, ep->num);
 739              		.loc 1 301 7 is_stmt 0 discriminator 8 view .LVU202
 740 0166 1580     		strh	r5, [r2]
 301:Drivers/STM32F0xx_HAL_Driver/Src/stm32f0xx_ll_usb.c ****       PCD_CLEAR_RX_DTOG(USBx, ep->num);
 741              		.loc 1 301 7 is_stmt 1 discriminator 8 view .LVU203
 742 0168 DBE7     		b	.L25
 743              	.L26:
 301:Drivers/STM32F0xx_HAL_Driver/Src/stm32f0xx_ll_usb.c ****       PCD_CLEAR_RX_DTOG(USBx, ep->num);
 744              		.loc 1 301 7 discriminator 5 view .LVU204
 301:Drivers/STM32F0xx_HAL_Driver/Src/stm32f0xx_ll_usb.c ****       PCD_CLEAR_RX_DTOG(USBx, ep->num);
 745              		.loc 1 301 7 discriminator 5 view .LVU205
 746 016a 6509     		lsrs	r5, r4, #5
 747              	.LVL70:
 301:Drivers/STM32F0xx_HAL_Driver/Src/stm32f0xx_ll_usb.c ****       PCD_CLEAR_RX_DTOG(USBx, ep->num);
 748              		.loc 1 301 7 discriminator 5 view .LVU206
 749 016c E406     		lsls	r4, r4, #27
 750 016e 00D1     		bne	.L28
 301:Drivers/STM32F0xx_HAL_Driver/Src/stm32f0xx_ll_usb.c ****       PCD_CLEAR_RX_DTOG(USBx, ep->num);
 751              		.loc 1 301 7 discriminator 10 view .LVU207
 752 0170 013D     		subs	r5, r5, #1
 753              	.LVL71:
 754              	.L28:
 301:Drivers/STM32F0xx_HAL_Driver/Src/stm32f0xx_ll_usb.c ****       PCD_CLEAR_RX_DTOG(USBx, ep->num);
 755              		.loc 1 301 7 discriminator 12 view .LVU208
 756 0172 AD02     		lsls	r5, r5, #10
 757              	.LVL72:
 301:Drivers/STM32F0xx_HAL_Driver/Src/stm32f0xx_ll_usb.c ****       PCD_CLEAR_RX_DTOG(USBx, ep->num);
 758              		.loc 1 301 7 is_stmt 0 discriminator 12 view .LVU209
 759 0174 ADB2     		uxth	r5, r5
 760 0176 604C     		ldr	r4, .L48+32
 761 0178 2C43     		orrs	r4, r5
 762 017a 1480     		strh	r4, [r2]
 763 017c D1E7     		b	.L25
 764              	.LVL73:
 765              	.L19:
 301:Drivers/STM32F0xx_HAL_Driver/Src/stm32f0xx_ll_usb.c ****       PCD_CLEAR_RX_DTOG(USBx, ep->num);
 766              		.loc 1 301 7 discriminator 12 view .LVU210
 767              	.LBE11:
 768              	.LBE15:
 311:Drivers/STM32F0xx_HAL_Driver/Src/stm32f0xx_ll_usb.c ****     /* Set buffer address for double buffered mode */
 769              		.loc 1 311 5 is_stmt 1 view .LVU211
 770              	.LBB16:
 311:Drivers/STM32F0xx_HAL_Driver/Src/stm32f0xx_ll_usb.c ****     /* Set buffer address for double buffered mode */
 771              		.loc 1 311 5 view .LVU212
 311:Drivers/STM32F0xx_HAL_Driver/Src/stm32f0xx_ll_usb.c ****     /* Set buffer address for double buffered mode */
 772              		.loc 1 311 5 view .LVU213
 773 017e 0A78     		ldrb	r2, [r1]
 774 0180 9200     		lsls	r2, r2, #2
 775 0182 9A18     		adds	r2, r3, r2
 776 0184 1588     		ldrh	r5, [r2]
 777 0186 564C     		ldr	r4, .L48+8
 778 0188 2540     		ands	r5, r4
ARM GAS  /tmp/ccF3DfVq.s 			page 21


 779              	.LVL74:
 311:Drivers/STM32F0xx_HAL_Driver/Src/stm32f0xx_ll_usb.c ****     /* Set buffer address for double buffered mode */
 780              		.loc 1 311 5 view .LVU214
 781 018a 5E4C     		ldr	r4, .L48+44
 782 018c 2C43     		orrs	r4, r5
 783 018e A4B2     		uxth	r4, r4
 784 0190 1480     		strh	r4, [r2]
 785              	.LBE16:
 311:Drivers/STM32F0xx_HAL_Driver/Src/stm32f0xx_ll_usb.c ****     /* Set buffer address for double buffered mode */
 786              		.loc 1 311 5 view .LVU215
 313:Drivers/STM32F0xx_HAL_Driver/Src/stm32f0xx_ll_usb.c **** 
 787              		.loc 1 313 5 view .LVU216
 313:Drivers/STM32F0xx_HAL_Driver/Src/stm32f0xx_ll_usb.c **** 
 788              		.loc 1 313 5 view .LVU217
 313:Drivers/STM32F0xx_HAL_Driver/Src/stm32f0xx_ll_usb.c **** 
 789              		.loc 1 313 5 view .LVU218
 790              	.LBB17:
 313:Drivers/STM32F0xx_HAL_Driver/Src/stm32f0xx_ll_usb.c **** 
 791              		.loc 1 313 5 view .LVU219
 313:Drivers/STM32F0xx_HAL_Driver/Src/stm32f0xx_ll_usb.c **** 
 792              		.loc 1 313 5 view .LVU220
 793              	.LVL75:
 313:Drivers/STM32F0xx_HAL_Driver/Src/stm32f0xx_ll_usb.c **** 
 794              		.loc 1 313 5 view .LVU221
 795 0192 5025     		movs	r5, #80
 796              	.LVL76:
 313:Drivers/STM32F0xx_HAL_Driver/Src/stm32f0xx_ll_usb.c **** 
 797              		.loc 1 313 5 is_stmt 0 view .LVU222
 798 0194 5C5B     		ldrh	r4, [r3, r5]
 799 0196 1C19     		adds	r4, r3, r4
 800              	.LVL77:
 313:Drivers/STM32F0xx_HAL_Driver/Src/stm32f0xx_ll_usb.c **** 
 801              		.loc 1 313 5 is_stmt 1 view .LVU223
 802 0198 0A78     		ldrb	r2, [r1]
 803 019a D200     		lsls	r2, r2, #3
 804 019c 1219     		adds	r2, r2, r4
 805 019e 8024     		movs	r4, #128
 806              	.LVL78:
 313:Drivers/STM32F0xx_HAL_Driver/Src/stm32f0xx_ll_usb.c **** 
 807              		.loc 1 313 5 is_stmt 0 view .LVU224
 808 01a0 E400     		lsls	r4, r4, #3
 809 01a2 A446     		mov	ip, r4
 810 01a4 6244     		add	r2, r2, ip
 811              	.LVL79:
 313:Drivers/STM32F0xx_HAL_Driver/Src/stm32f0xx_ll_usb.c **** 
 812              		.loc 1 313 5 is_stmt 1 view .LVU225
 813 01a6 0C89     		ldrh	r4, [r1, #8]
 814 01a8 6408     		lsrs	r4, r4, #1
 815 01aa 6400     		lsls	r4, r4, #1
 816 01ac 1480     		strh	r4, [r2]
 817              	.LBE17:
 313:Drivers/STM32F0xx_HAL_Driver/Src/stm32f0xx_ll_usb.c **** 
 818              		.loc 1 313 5 view .LVU226
 313:Drivers/STM32F0xx_HAL_Driver/Src/stm32f0xx_ll_usb.c **** 
 819              		.loc 1 313 5 view .LVU227
 313:Drivers/STM32F0xx_HAL_Driver/Src/stm32f0xx_ll_usb.c **** 
 820              		.loc 1 313 5 view .LVU228
ARM GAS  /tmp/ccF3DfVq.s 			page 22


 313:Drivers/STM32F0xx_HAL_Driver/Src/stm32f0xx_ll_usb.c **** 
 821              		.loc 1 313 5 view .LVU229
 822              	.LBB18:
 313:Drivers/STM32F0xx_HAL_Driver/Src/stm32f0xx_ll_usb.c **** 
 823              		.loc 1 313 5 view .LVU230
 313:Drivers/STM32F0xx_HAL_Driver/Src/stm32f0xx_ll_usb.c **** 
 824              		.loc 1 313 5 view .LVU231
 825              	.LVL80:
 313:Drivers/STM32F0xx_HAL_Driver/Src/stm32f0xx_ll_usb.c **** 
 826              		.loc 1 313 5 view .LVU232
 827 01ae 5C5B     		ldrh	r4, [r3, r5]
 828 01b0 1C19     		adds	r4, r3, r4
 829              	.LVL81:
 313:Drivers/STM32F0xx_HAL_Driver/Src/stm32f0xx_ll_usb.c **** 
 830              		.loc 1 313 5 view .LVU233
 831 01b2 0A78     		ldrb	r2, [r1]
 832              	.LVL82:
 313:Drivers/STM32F0xx_HAL_Driver/Src/stm32f0xx_ll_usb.c **** 
 833              		.loc 1 313 5 is_stmt 0 view .LVU234
 834 01b4 D200     		lsls	r2, r2, #3
 835 01b6 1219     		adds	r2, r2, r4
 836 01b8 4C4C     		ldr	r4, .L48+20
 837              	.LVL83:
 313:Drivers/STM32F0xx_HAL_Driver/Src/stm32f0xx_ll_usb.c **** 
 838              		.loc 1 313 5 view .LVU235
 839 01ba A446     		mov	ip, r4
 840 01bc 6244     		add	r2, r2, ip
 841              	.LVL84:
 313:Drivers/STM32F0xx_HAL_Driver/Src/stm32f0xx_ll_usb.c **** 
 842              		.loc 1 313 5 is_stmt 1 view .LVU236
 843 01be 4C89     		ldrh	r4, [r1, #10]
 844 01c0 6408     		lsrs	r4, r4, #1
 845 01c2 6400     		lsls	r4, r4, #1
 846 01c4 1480     		strh	r4, [r2]
 847              	.LBE18:
 313:Drivers/STM32F0xx_HAL_Driver/Src/stm32f0xx_ll_usb.c **** 
 848              		.loc 1 313 5 view .LVU237
 313:Drivers/STM32F0xx_HAL_Driver/Src/stm32f0xx_ll_usb.c **** 
 849              		.loc 1 313 5 view .LVU238
 313:Drivers/STM32F0xx_HAL_Driver/Src/stm32f0xx_ll_usb.c **** 
 850              		.loc 1 313 5 view .LVU239
 315:Drivers/STM32F0xx_HAL_Driver/Src/stm32f0xx_ll_usb.c ****     {
 851              		.loc 1 315 5 view .LVU240
 315:Drivers/STM32F0xx_HAL_Driver/Src/stm32f0xx_ll_usb.c ****     {
 852              		.loc 1 315 11 is_stmt 0 view .LVU241
 853 01c6 4A78     		ldrb	r2, [r1, #1]
 854              	.LVL85:
 315:Drivers/STM32F0xx_HAL_Driver/Src/stm32f0xx_ll_usb.c ****     {
 855              		.loc 1 315 8 view .LVU242
 856 01c8 002A     		cmp	r2, #0
 857 01ca 3AD1     		bne	.L30
 318:Drivers/STM32F0xx_HAL_Driver/Src/stm32f0xx_ll_usb.c ****       PCD_CLEAR_TX_DTOG(USBx, ep->num);
 858              		.loc 1 318 7 is_stmt 1 view .LVU243
 859              	.LBB19:
 318:Drivers/STM32F0xx_HAL_Driver/Src/stm32f0xx_ll_usb.c ****       PCD_CLEAR_TX_DTOG(USBx, ep->num);
 860              		.loc 1 318 7 view .LVU244
 318:Drivers/STM32F0xx_HAL_Driver/Src/stm32f0xx_ll_usb.c ****       PCD_CLEAR_TX_DTOG(USBx, ep->num);
ARM GAS  /tmp/ccF3DfVq.s 			page 23


 861              		.loc 1 318 7 view .LVU245
 862 01cc 0A78     		ldrb	r2, [r1]
 863 01ce 9200     		lsls	r2, r2, #2
 864 01d0 9A18     		adds	r2, r3, r2
 865 01d2 1488     		ldrh	r4, [r2]
 866              	.LVL86:
 318:Drivers/STM32F0xx_HAL_Driver/Src/stm32f0xx_ll_usb.c ****       PCD_CLEAR_TX_DTOG(USBx, ep->num);
 867              		.loc 1 318 7 view .LVU246
 868 01d4 6404     		lsls	r4, r4, #17
 869 01d6 06D5     		bpl	.L31
 870              	.LVL87:
 318:Drivers/STM32F0xx_HAL_Driver/Src/stm32f0xx_ll_usb.c ****       PCD_CLEAR_TX_DTOG(USBx, ep->num);
 871              		.loc 1 318 7 discriminator 1 view .LVU247
 872              	.LBB20:
 318:Drivers/STM32F0xx_HAL_Driver/Src/stm32f0xx_ll_usb.c ****       PCD_CLEAR_TX_DTOG(USBx, ep->num);
 873              		.loc 1 318 7 discriminator 1 view .LVU248
 318:Drivers/STM32F0xx_HAL_Driver/Src/stm32f0xx_ll_usb.c ****       PCD_CLEAR_TX_DTOG(USBx, ep->num);
 874              		.loc 1 318 7 discriminator 1 view .LVU249
 875 01d8 1588     		ldrh	r5, [r2]
 876 01da 414C     		ldr	r4, .L48+8
 877 01dc 2540     		ands	r5, r4
 878              	.LVL88:
 318:Drivers/STM32F0xx_HAL_Driver/Src/stm32f0xx_ll_usb.c ****       PCD_CLEAR_TX_DTOG(USBx, ep->num);
 879              		.loc 1 318 7 discriminator 1 view .LVU250
 880 01de 474C     		ldr	r4, .L48+36
 881 01e0 2C43     		orrs	r4, r5
 882 01e2 A4B2     		uxth	r4, r4
 883 01e4 1480     		strh	r4, [r2]
 884              	.LVL89:
 885              	.L31:
 318:Drivers/STM32F0xx_HAL_Driver/Src/stm32f0xx_ll_usb.c ****       PCD_CLEAR_TX_DTOG(USBx, ep->num);
 886              		.loc 1 318 7 is_stmt 0 discriminator 1 view .LVU251
 887              	.LBE20:
 318:Drivers/STM32F0xx_HAL_Driver/Src/stm32f0xx_ll_usb.c ****       PCD_CLEAR_TX_DTOG(USBx, ep->num);
 888              		.loc 1 318 7 is_stmt 1 discriminator 3 view .LVU252
 889              	.LBE19:
 318:Drivers/STM32F0xx_HAL_Driver/Src/stm32f0xx_ll_usb.c ****       PCD_CLEAR_TX_DTOG(USBx, ep->num);
 890              		.loc 1 318 7 discriminator 3 view .LVU253
 319:Drivers/STM32F0xx_HAL_Driver/Src/stm32f0xx_ll_usb.c **** 
 891              		.loc 1 319 7 discriminator 3 view .LVU254
 892              	.LBB21:
 319:Drivers/STM32F0xx_HAL_Driver/Src/stm32f0xx_ll_usb.c **** 
 893              		.loc 1 319 7 discriminator 3 view .LVU255
 319:Drivers/STM32F0xx_HAL_Driver/Src/stm32f0xx_ll_usb.c **** 
 894              		.loc 1 319 7 discriminator 3 view .LVU256
 895 01e6 0A78     		ldrb	r2, [r1]
 896 01e8 9200     		lsls	r2, r2, #2
 897 01ea 9A18     		adds	r2, r3, r2
 898 01ec 1488     		ldrh	r4, [r2]
 899              	.LVL90:
 319:Drivers/STM32F0xx_HAL_Driver/Src/stm32f0xx_ll_usb.c **** 
 900              		.loc 1 319 7 discriminator 3 view .LVU257
 901 01ee 6406     		lsls	r4, r4, #25
 902 01f0 06D5     		bpl	.L32
 903              	.LVL91:
 319:Drivers/STM32F0xx_HAL_Driver/Src/stm32f0xx_ll_usb.c **** 
 904              		.loc 1 319 7 discriminator 1 view .LVU258
ARM GAS  /tmp/ccF3DfVq.s 			page 24


 905              	.LBB22:
 319:Drivers/STM32F0xx_HAL_Driver/Src/stm32f0xx_ll_usb.c **** 
 906              		.loc 1 319 7 discriminator 1 view .LVU259
 319:Drivers/STM32F0xx_HAL_Driver/Src/stm32f0xx_ll_usb.c **** 
 907              		.loc 1 319 7 discriminator 1 view .LVU260
 908 01f2 1588     		ldrh	r5, [r2]
 909 01f4 3A4C     		ldr	r4, .L48+8
 910 01f6 2540     		ands	r5, r4
 911              	.LVL92:
 319:Drivers/STM32F0xx_HAL_Driver/Src/stm32f0xx_ll_usb.c **** 
 912              		.loc 1 319 7 discriminator 1 view .LVU261
 913 01f8 3A4C     		ldr	r4, .L48+12
 914 01fa 2C43     		orrs	r4, r5
 915 01fc A4B2     		uxth	r4, r4
 916 01fe 1480     		strh	r4, [r2]
 917              	.LVL93:
 918              	.L32:
 319:Drivers/STM32F0xx_HAL_Driver/Src/stm32f0xx_ll_usb.c **** 
 919              		.loc 1 319 7 is_stmt 0 discriminator 1 view .LVU262
 920              	.LBE22:
 319:Drivers/STM32F0xx_HAL_Driver/Src/stm32f0xx_ll_usb.c **** 
 921              		.loc 1 319 7 is_stmt 1 discriminator 3 view .LVU263
 922              	.LBE21:
 319:Drivers/STM32F0xx_HAL_Driver/Src/stm32f0xx_ll_usb.c **** 
 923              		.loc 1 319 7 discriminator 3 view .LVU264
 322:Drivers/STM32F0xx_HAL_Driver/Src/stm32f0xx_ll_usb.c **** 
 924              		.loc 1 322 7 discriminator 3 view .LVU265
 925              	.LBB23:
 322:Drivers/STM32F0xx_HAL_Driver/Src/stm32f0xx_ll_usb.c **** 
 926              		.loc 1 322 7 discriminator 3 view .LVU266
 322:Drivers/STM32F0xx_HAL_Driver/Src/stm32f0xx_ll_usb.c **** 
 927              		.loc 1 322 7 discriminator 3 view .LVU267
 928 0200 0A78     		ldrb	r2, [r1]
 929 0202 9200     		lsls	r2, r2, #2
 930 0204 9A18     		adds	r2, r3, r2
 931 0206 1588     		ldrh	r5, [r2]
 932 0208 354C     		ldr	r4, .L48+8
 933 020a 2540     		ands	r5, r4
 934              	.LVL94:
 322:Drivers/STM32F0xx_HAL_Driver/Src/stm32f0xx_ll_usb.c **** 
 935              		.loc 1 322 7 discriminator 3 view .LVU268
 936 020c 354C     		ldr	r4, .L48+12
 937 020e 2C43     		orrs	r4, r5
 938 0210 A4B2     		uxth	r4, r4
 939 0212 1480     		strh	r4, [r2]
 940              	.LBE23:
 322:Drivers/STM32F0xx_HAL_Driver/Src/stm32f0xx_ll_usb.c **** 
 941              		.loc 1 322 7 discriminator 3 view .LVU269
 324:Drivers/STM32F0xx_HAL_Driver/Src/stm32f0xx_ll_usb.c ****       PCD_SET_EP_TX_STATUS(USBx, ep->num, USB_EP_TX_DIS);
 942              		.loc 1 324 7 discriminator 3 view .LVU270
 943              	.LBB24:
 324:Drivers/STM32F0xx_HAL_Driver/Src/stm32f0xx_ll_usb.c ****       PCD_SET_EP_TX_STATUS(USBx, ep->num, USB_EP_TX_DIS);
 944              		.loc 1 324 7 discriminator 3 view .LVU271
 324:Drivers/STM32F0xx_HAL_Driver/Src/stm32f0xx_ll_usb.c ****       PCD_SET_EP_TX_STATUS(USBx, ep->num, USB_EP_TX_DIS);
 945              		.loc 1 324 7 discriminator 3 view .LVU272
 946 0214 0C78     		ldrb	r4, [r1]
 947 0216 A400     		lsls	r4, r4, #2
ARM GAS  /tmp/ccF3DfVq.s 			page 25


 948 0218 1C19     		adds	r4, r3, r4
 949 021a 2588     		ldrh	r5, [r4]
 950              	.LVL95:
 324:Drivers/STM32F0xx_HAL_Driver/Src/stm32f0xx_ll_usb.c ****       PCD_SET_EP_TX_STATUS(USBx, ep->num, USB_EP_TX_DIS);
 951              		.loc 1 324 7 is_stmt 0 discriminator 3 view .LVU273
 952 021c 384A     		ldr	r2, .L48+40
 953 021e 1540     		ands	r5, r2
 954              	.LVL96:
 324:Drivers/STM32F0xx_HAL_Driver/Src/stm32f0xx_ll_usb.c ****       PCD_SET_EP_TX_STATUS(USBx, ep->num, USB_EP_TX_DIS);
 955              		.loc 1 324 7 is_stmt 1 discriminator 3 view .LVU274
 324:Drivers/STM32F0xx_HAL_Driver/Src/stm32f0xx_ll_usb.c ****       PCD_SET_EP_TX_STATUS(USBx, ep->num, USB_EP_TX_DIS);
 956              		.loc 1 324 7 discriminator 3 view .LVU275
 324:Drivers/STM32F0xx_HAL_Driver/Src/stm32f0xx_ll_usb.c ****       PCD_SET_EP_TX_STATUS(USBx, ep->num, USB_EP_TX_DIS);
 957              		.loc 1 324 7 discriminator 3 view .LVU276
 324:Drivers/STM32F0xx_HAL_Driver/Src/stm32f0xx_ll_usb.c ****       PCD_SET_EP_TX_STATUS(USBx, ep->num, USB_EP_TX_DIS);
 958              		.loc 1 324 7 discriminator 3 view .LVU277
 959 0220 C022     		movs	r2, #192
 960 0222 9201     		lsls	r2, r2, #6
 961 0224 6A40     		eors	r2, r5
 962              	.LVL97:
 324:Drivers/STM32F0xx_HAL_Driver/Src/stm32f0xx_ll_usb.c ****       PCD_SET_EP_TX_STATUS(USBx, ep->num, USB_EP_TX_DIS);
 963              		.loc 1 324 7 discriminator 3 view .LVU278
 964 0226 2D4D     		ldr	r5, .L48+4
 965 0228 2A43     		orrs	r2, r5
 966              	.LVL98:
 324:Drivers/STM32F0xx_HAL_Driver/Src/stm32f0xx_ll_usb.c ****       PCD_SET_EP_TX_STATUS(USBx, ep->num, USB_EP_TX_DIS);
 967              		.loc 1 324 7 is_stmt 0 discriminator 3 view .LVU279
 968 022a 92B2     		uxth	r2, r2
 969 022c 2280     		strh	r2, [r4]
 970              	.LBE24:
 324:Drivers/STM32F0xx_HAL_Driver/Src/stm32f0xx_ll_usb.c ****       PCD_SET_EP_TX_STATUS(USBx, ep->num, USB_EP_TX_DIS);
 971              		.loc 1 324 7 is_stmt 1 discriminator 3 view .LVU280
 325:Drivers/STM32F0xx_HAL_Driver/Src/stm32f0xx_ll_usb.c ****     }
 972              		.loc 1 325 7 discriminator 3 view .LVU281
 973              	.LBB25:
 325:Drivers/STM32F0xx_HAL_Driver/Src/stm32f0xx_ll_usb.c ****     }
 974              		.loc 1 325 7 discriminator 3 view .LVU282
 325:Drivers/STM32F0xx_HAL_Driver/Src/stm32f0xx_ll_usb.c ****     }
 975              		.loc 1 325 7 discriminator 3 view .LVU283
 976 022e 0A78     		ldrb	r2, [r1]
 977 0230 9200     		lsls	r2, r2, #2
 978 0232 9B18     		adds	r3, r3, r2
 979              	.LVL99:
 325:Drivers/STM32F0xx_HAL_Driver/Src/stm32f0xx_ll_usb.c ****     }
 980              		.loc 1 325 7 is_stmt 0 discriminator 3 view .LVU284
 981 0234 1A88     		ldrh	r2, [r3]
 982 0236 2C49     		ldr	r1, .L48+16
 983              	.LVL100:
 325:Drivers/STM32F0xx_HAL_Driver/Src/stm32f0xx_ll_usb.c ****     }
 984              		.loc 1 325 7 discriminator 3 view .LVU285
 985 0238 0A40     		ands	r2, r1
 986              	.LVL101:
 325:Drivers/STM32F0xx_HAL_Driver/Src/stm32f0xx_ll_usb.c ****     }
 987              		.loc 1 325 7 is_stmt 1 discriminator 3 view .LVU286
 325:Drivers/STM32F0xx_HAL_Driver/Src/stm32f0xx_ll_usb.c ****     }
 988              		.loc 1 325 7 discriminator 3 view .LVU287
 325:Drivers/STM32F0xx_HAL_Driver/Src/stm32f0xx_ll_usb.c ****     }
ARM GAS  /tmp/ccF3DfVq.s 			page 26


 989              		.loc 1 325 7 discriminator 3 view .LVU288
 990 023a 2A43     		orrs	r2, r5
 991              	.LVL102:
 325:Drivers/STM32F0xx_HAL_Driver/Src/stm32f0xx_ll_usb.c ****     }
 992              		.loc 1 325 7 is_stmt 0 discriminator 3 view .LVU289
 993 023c 92B2     		uxth	r2, r2
 994 023e 1A80     		strh	r2, [r3]
 995              	.LBE25:
 325:Drivers/STM32F0xx_HAL_Driver/Src/stm32f0xx_ll_usb.c ****     }
 996              		.loc 1 325 7 is_stmt 1 discriminator 3 view .LVU290
 997 0240 89E7     		b	.L23
 998              	.LVL103:
 999              	.L30:
 330:Drivers/STM32F0xx_HAL_Driver/Src/stm32f0xx_ll_usb.c ****       PCD_CLEAR_TX_DTOG(USBx, ep->num);
 1000              		.loc 1 330 7 view .LVU291
 1001              	.LBB26:
 330:Drivers/STM32F0xx_HAL_Driver/Src/stm32f0xx_ll_usb.c ****       PCD_CLEAR_TX_DTOG(USBx, ep->num);
 1002              		.loc 1 330 7 view .LVU292
 330:Drivers/STM32F0xx_HAL_Driver/Src/stm32f0xx_ll_usb.c ****       PCD_CLEAR_TX_DTOG(USBx, ep->num);
 1003              		.loc 1 330 7 view .LVU293
 1004 0242 0A78     		ldrb	r2, [r1]
 1005 0244 9200     		lsls	r2, r2, #2
 1006 0246 9A18     		adds	r2, r3, r2
 1007 0248 1488     		ldrh	r4, [r2]
 1008              	.LVL104:
 330:Drivers/STM32F0xx_HAL_Driver/Src/stm32f0xx_ll_usb.c ****       PCD_CLEAR_TX_DTOG(USBx, ep->num);
 1009              		.loc 1 330 7 view .LVU294
 1010 024a 6404     		lsls	r4, r4, #17
 1011 024c 06D5     		bpl	.L33
 1012              	.LVL105:
 330:Drivers/STM32F0xx_HAL_Driver/Src/stm32f0xx_ll_usb.c ****       PCD_CLEAR_TX_DTOG(USBx, ep->num);
 1013              		.loc 1 330 7 discriminator 1 view .LVU295
 1014              	.LBB27:
 330:Drivers/STM32F0xx_HAL_Driver/Src/stm32f0xx_ll_usb.c ****       PCD_CLEAR_TX_DTOG(USBx, ep->num);
 1015              		.loc 1 330 7 discriminator 1 view .LVU296
 330:Drivers/STM32F0xx_HAL_Driver/Src/stm32f0xx_ll_usb.c ****       PCD_CLEAR_TX_DTOG(USBx, ep->num);
 1016              		.loc 1 330 7 discriminator 1 view .LVU297
 1017 024e 1588     		ldrh	r5, [r2]
 1018 0250 234C     		ldr	r4, .L48+8
 1019 0252 2540     		ands	r5, r4
 1020              	.LVL106:
 330:Drivers/STM32F0xx_HAL_Driver/Src/stm32f0xx_ll_usb.c ****       PCD_CLEAR_TX_DTOG(USBx, ep->num);
 1021              		.loc 1 330 7 discriminator 1 view .LVU298
 1022 0254 294C     		ldr	r4, .L48+36
 1023 0256 2C43     		orrs	r4, r5
 1024 0258 A4B2     		uxth	r4, r4
 1025 025a 1480     		strh	r4, [r2]
 1026              	.LVL107:
 1027              	.L33:
 330:Drivers/STM32F0xx_HAL_Driver/Src/stm32f0xx_ll_usb.c ****       PCD_CLEAR_TX_DTOG(USBx, ep->num);
 1028              		.loc 1 330 7 is_stmt 0 discriminator 1 view .LVU299
 1029              	.LBE27:
 330:Drivers/STM32F0xx_HAL_Driver/Src/stm32f0xx_ll_usb.c ****       PCD_CLEAR_TX_DTOG(USBx, ep->num);
 1030              		.loc 1 330 7 is_stmt 1 discriminator 3 view .LVU300
 1031              	.LBE26:
 330:Drivers/STM32F0xx_HAL_Driver/Src/stm32f0xx_ll_usb.c ****       PCD_CLEAR_TX_DTOG(USBx, ep->num);
 1032              		.loc 1 330 7 discriminator 3 view .LVU301
ARM GAS  /tmp/ccF3DfVq.s 			page 27


 331:Drivers/STM32F0xx_HAL_Driver/Src/stm32f0xx_ll_usb.c ****       PCD_RX_DTOG(USBx, ep->num);
 1033              		.loc 1 331 7 discriminator 3 view .LVU302
 1034              	.LBB28:
 331:Drivers/STM32F0xx_HAL_Driver/Src/stm32f0xx_ll_usb.c ****       PCD_RX_DTOG(USBx, ep->num);
 1035              		.loc 1 331 7 discriminator 3 view .LVU303
 331:Drivers/STM32F0xx_HAL_Driver/Src/stm32f0xx_ll_usb.c ****       PCD_RX_DTOG(USBx, ep->num);
 1036              		.loc 1 331 7 discriminator 3 view .LVU304
 1037 025c 0A78     		ldrb	r2, [r1]
 1038 025e 9200     		lsls	r2, r2, #2
 1039 0260 9A18     		adds	r2, r3, r2
 1040 0262 1488     		ldrh	r4, [r2]
 1041              	.LVL108:
 331:Drivers/STM32F0xx_HAL_Driver/Src/stm32f0xx_ll_usb.c ****       PCD_RX_DTOG(USBx, ep->num);
 1042              		.loc 1 331 7 discriminator 3 view .LVU305
 1043 0264 6406     		lsls	r4, r4, #25
 1044 0266 06D5     		bpl	.L34
 1045              	.LVL109:
 331:Drivers/STM32F0xx_HAL_Driver/Src/stm32f0xx_ll_usb.c ****       PCD_RX_DTOG(USBx, ep->num);
 1046              		.loc 1 331 7 discriminator 1 view .LVU306
 1047              	.LBB29:
 331:Drivers/STM32F0xx_HAL_Driver/Src/stm32f0xx_ll_usb.c ****       PCD_RX_DTOG(USBx, ep->num);
 1048              		.loc 1 331 7 discriminator 1 view .LVU307
 331:Drivers/STM32F0xx_HAL_Driver/Src/stm32f0xx_ll_usb.c ****       PCD_RX_DTOG(USBx, ep->num);
 1049              		.loc 1 331 7 discriminator 1 view .LVU308
 1050 0268 1588     		ldrh	r5, [r2]
 1051 026a 1D4C     		ldr	r4, .L48+8
 1052 026c 2540     		ands	r5, r4
 1053              	.LVL110:
 331:Drivers/STM32F0xx_HAL_Driver/Src/stm32f0xx_ll_usb.c ****       PCD_RX_DTOG(USBx, ep->num);
 1054              		.loc 1 331 7 discriminator 1 view .LVU309
 1055 026e 1D4C     		ldr	r4, .L48+12
 1056 0270 2C43     		orrs	r4, r5
 1057 0272 A4B2     		uxth	r4, r4
 1058 0274 1480     		strh	r4, [r2]
 1059              	.LVL111:
 1060              	.L34:
 331:Drivers/STM32F0xx_HAL_Driver/Src/stm32f0xx_ll_usb.c ****       PCD_RX_DTOG(USBx, ep->num);
 1061              		.loc 1 331 7 is_stmt 0 discriminator 1 view .LVU310
 1062              	.LBE29:
 331:Drivers/STM32F0xx_HAL_Driver/Src/stm32f0xx_ll_usb.c ****       PCD_RX_DTOG(USBx, ep->num);
 1063              		.loc 1 331 7 is_stmt 1 discriminator 3 view .LVU311
 1064              	.LBE28:
 331:Drivers/STM32F0xx_HAL_Driver/Src/stm32f0xx_ll_usb.c ****       PCD_RX_DTOG(USBx, ep->num);
 1065              		.loc 1 331 7 discriminator 3 view .LVU312
 332:Drivers/STM32F0xx_HAL_Driver/Src/stm32f0xx_ll_usb.c **** 
 1066              		.loc 1 332 7 discriminator 3 view .LVU313
 1067              	.LBB30:
 332:Drivers/STM32F0xx_HAL_Driver/Src/stm32f0xx_ll_usb.c **** 
 1068              		.loc 1 332 7 discriminator 3 view .LVU314
 332:Drivers/STM32F0xx_HAL_Driver/Src/stm32f0xx_ll_usb.c **** 
 1069              		.loc 1 332 7 discriminator 3 view .LVU315
 1070 0276 0A78     		ldrb	r2, [r1]
 1071 0278 9200     		lsls	r2, r2, #2
 1072 027a 9A18     		adds	r2, r3, r2
 1073 027c 1588     		ldrh	r5, [r2]
 1074 027e 184C     		ldr	r4, .L48+8
 1075 0280 2540     		ands	r5, r4
ARM GAS  /tmp/ccF3DfVq.s 			page 28


 1076              	.LVL112:
 332:Drivers/STM32F0xx_HAL_Driver/Src/stm32f0xx_ll_usb.c **** 
 1077              		.loc 1 332 7 discriminator 3 view .LVU316
 1078 0282 1E4C     		ldr	r4, .L48+36
 1079 0284 2C43     		orrs	r4, r5
 1080 0286 A4B2     		uxth	r4, r4
 1081 0288 1480     		strh	r4, [r2]
 1082              	.LBE30:
 332:Drivers/STM32F0xx_HAL_Driver/Src/stm32f0xx_ll_usb.c **** 
 1083              		.loc 1 332 7 discriminator 3 view .LVU317
 334:Drivers/STM32F0xx_HAL_Driver/Src/stm32f0xx_ll_usb.c ****       {
 1084              		.loc 1 334 7 discriminator 3 view .LVU318
 334:Drivers/STM32F0xx_HAL_Driver/Src/stm32f0xx_ll_usb.c ****       {
 1085              		.loc 1 334 13 is_stmt 0 discriminator 3 view .LVU319
 1086 028a CA78     		ldrb	r2, [r1, #3]
 334:Drivers/STM32F0xx_HAL_Driver/Src/stm32f0xx_ll_usb.c ****       {
 1087              		.loc 1 334 10 discriminator 3 view .LVU320
 1088 028c 012A     		cmp	r2, #1
 1089 028e 17D0     		beq	.L35
 337:Drivers/STM32F0xx_HAL_Driver/Src/stm32f0xx_ll_usb.c ****       }
 1090              		.loc 1 337 9 is_stmt 1 view .LVU321
 1091              	.LBB31:
 337:Drivers/STM32F0xx_HAL_Driver/Src/stm32f0xx_ll_usb.c ****       }
 1092              		.loc 1 337 9 view .LVU322
 337:Drivers/STM32F0xx_HAL_Driver/Src/stm32f0xx_ll_usb.c ****       }
 1093              		.loc 1 337 9 view .LVU323
 1094 0290 0C78     		ldrb	r4, [r1]
 1095 0292 A400     		lsls	r4, r4, #2
 1096 0294 1C19     		adds	r4, r3, r4
 1097 0296 2288     		ldrh	r2, [r4]
 1098 0298 134D     		ldr	r5, .L48+16
 1099              	.LVL113:
 337:Drivers/STM32F0xx_HAL_Driver/Src/stm32f0xx_ll_usb.c ****       }
 1100              		.loc 1 337 9 is_stmt 0 view .LVU324
 1101 029a 2A40     		ands	r2, r5
 1102              	.LVL114:
 337:Drivers/STM32F0xx_HAL_Driver/Src/stm32f0xx_ll_usb.c ****       }
 1103              		.loc 1 337 9 is_stmt 1 view .LVU325
 337:Drivers/STM32F0xx_HAL_Driver/Src/stm32f0xx_ll_usb.c ****       }
 1104              		.loc 1 337 9 view .LVU326
 337:Drivers/STM32F0xx_HAL_Driver/Src/stm32f0xx_ll_usb.c ****       }
 1105              		.loc 1 337 9 view .LVU327
 1106 029c 2025     		movs	r5, #32
 1107 029e 6A40     		eors	r2, r5
 1108              	.LVL115:
 337:Drivers/STM32F0xx_HAL_Driver/Src/stm32f0xx_ll_usb.c ****       }
 1109              		.loc 1 337 9 is_stmt 0 view .LVU328
 1110 02a0 92B2     		uxth	r2, r2
 1111              	.LVL116:
 337:Drivers/STM32F0xx_HAL_Driver/Src/stm32f0xx_ll_usb.c ****       }
 1112              		.loc 1 337 9 is_stmt 1 view .LVU329
 1113 02a2 0E4D     		ldr	r5, .L48+4
 1114 02a4 2A43     		orrs	r2, r5
 1115              	.LVL117:
 337:Drivers/STM32F0xx_HAL_Driver/Src/stm32f0xx_ll_usb.c ****       }
 1116              		.loc 1 337 9 is_stmt 0 view .LVU330
 1117 02a6 92B2     		uxth	r2, r2
ARM GAS  /tmp/ccF3DfVq.s 			page 29


 1118 02a8 2280     		strh	r2, [r4]
 1119              	.LBE31:
 337:Drivers/STM32F0xx_HAL_Driver/Src/stm32f0xx_ll_usb.c ****       }
 1120              		.loc 1 337 9 is_stmt 1 view .LVU331
 1121              	.L36:
 342:Drivers/STM32F0xx_HAL_Driver/Src/stm32f0xx_ll_usb.c ****       }
 1122              		.loc 1 342 9 discriminator 7 view .LVU332
 345:Drivers/STM32F0xx_HAL_Driver/Src/stm32f0xx_ll_usb.c ****     }
 1123              		.loc 1 345 7 discriminator 7 view .LVU333
 1124              	.LBB32:
 345:Drivers/STM32F0xx_HAL_Driver/Src/stm32f0xx_ll_usb.c ****     }
 1125              		.loc 1 345 7 discriminator 7 view .LVU334
 345:Drivers/STM32F0xx_HAL_Driver/Src/stm32f0xx_ll_usb.c ****     }
 1126              		.loc 1 345 7 discriminator 7 view .LVU335
 1127 02aa 0A78     		ldrb	r2, [r1]
 1128 02ac 9200     		lsls	r2, r2, #2
 1129 02ae 9B18     		adds	r3, r3, r2
 1130              	.LVL118:
 345:Drivers/STM32F0xx_HAL_Driver/Src/stm32f0xx_ll_usb.c ****     }
 1131              		.loc 1 345 7 is_stmt 0 discriminator 7 view .LVU336
 1132 02b0 1988     		ldrh	r1, [r3]
 1133              	.LVL119:
 345:Drivers/STM32F0xx_HAL_Driver/Src/stm32f0xx_ll_usb.c ****     }
 1134              		.loc 1 345 7 discriminator 7 view .LVU337
 1135 02b2 134A     		ldr	r2, .L48+40
 1136 02b4 1140     		ands	r1, r2
 1137              	.LVL120:
 345:Drivers/STM32F0xx_HAL_Driver/Src/stm32f0xx_ll_usb.c ****     }
 1138              		.loc 1 345 7 is_stmt 1 discriminator 7 view .LVU338
 345:Drivers/STM32F0xx_HAL_Driver/Src/stm32f0xx_ll_usb.c ****     }
 1139              		.loc 1 345 7 discriminator 7 view .LVU339
 345:Drivers/STM32F0xx_HAL_Driver/Src/stm32f0xx_ll_usb.c ****     }
 1140              		.loc 1 345 7 discriminator 7 view .LVU340
 1141 02b6 094A     		ldr	r2, .L48+4
 1142 02b8 0A43     		orrs	r2, r1
 1143 02ba 92B2     		uxth	r2, r2
 1144 02bc 1A80     		strh	r2, [r3]
 1145 02be 4AE7     		b	.L23
 1146              	.LVL121:
 1147              	.L35:
 345:Drivers/STM32F0xx_HAL_Driver/Src/stm32f0xx_ll_usb.c ****     }
 1148              		.loc 1 345 7 is_stmt 0 discriminator 7 view .LVU341
 1149              	.LBE32:
 342:Drivers/STM32F0xx_HAL_Driver/Src/stm32f0xx_ll_usb.c ****       }
 1150              		.loc 1 342 9 is_stmt 1 view .LVU342
 1151              	.LBB33:
 342:Drivers/STM32F0xx_HAL_Driver/Src/stm32f0xx_ll_usb.c ****       }
 1152              		.loc 1 342 9 view .LVU343
 342:Drivers/STM32F0xx_HAL_Driver/Src/stm32f0xx_ll_usb.c ****       }
 1153              		.loc 1 342 9 view .LVU344
 1154 02c0 0A78     		ldrb	r2, [r1]
 1155 02c2 9200     		lsls	r2, r2, #2
 1156 02c4 9A18     		adds	r2, r3, r2
 1157 02c6 1588     		ldrh	r5, [r2]
 1158              	.LVL122:
 342:Drivers/STM32F0xx_HAL_Driver/Src/stm32f0xx_ll_usb.c ****       }
 1159              		.loc 1 342 9 is_stmt 0 view .LVU345
ARM GAS  /tmp/ccF3DfVq.s 			page 30


 1160 02c8 074C     		ldr	r4, .L48+16
 1161 02ca 2540     		ands	r5, r4
 1162              	.LVL123:
 342:Drivers/STM32F0xx_HAL_Driver/Src/stm32f0xx_ll_usb.c ****       }
 1163              		.loc 1 342 9 is_stmt 1 view .LVU346
 342:Drivers/STM32F0xx_HAL_Driver/Src/stm32f0xx_ll_usb.c ****       }
 1164              		.loc 1 342 9 view .LVU347
 342:Drivers/STM32F0xx_HAL_Driver/Src/stm32f0xx_ll_usb.c ****       }
 1165              		.loc 1 342 9 view .LVU348
 1166 02cc 034C     		ldr	r4, .L48+4
 1167 02ce 2C43     		orrs	r4, r5
 1168 02d0 A4B2     		uxth	r4, r4
 1169 02d2 1480     		strh	r4, [r2]
 1170 02d4 E9E7     		b	.L36
 1171              	.L49:
 1172 02d6 C046     		.align	2
 1173              	.L48:
 1174 02d8 8F89FFFF 		.word	-30321
 1175 02dc 8080FFFF 		.word	-32640
 1176 02e0 8F8FFFFF 		.word	-28785
 1177 02e4 C080FFFF 		.word	-32576
 1178 02e8 BF8FFFFF 		.word	-28737
 1179 02ec 04040000 		.word	1028
 1180 02f0 06040000 		.word	1030
 1181 02f4 FF83FFFF 		.word	-31745
 1182 02f8 0080FFFF 		.word	-32768
 1183 02fc 80C0FFFF 		.word	-16256
 1184 0300 8FBFFFFF 		.word	-16497
 1185 0304 8081FFFF 		.word	-32384
 1186              	.LBE33:
 1187              		.cfi_endproc
 1188              	.LFE48:
 1190              		.section	.text.USB_DeactivateEndpoint,"ax",%progbits
 1191              		.align	1
 1192              		.global	USB_DeactivateEndpoint
 1193              		.syntax unified
 1194              		.code	16
 1195              		.thumb_func
 1196              		.fpu softvfp
 1198              	USB_DeactivateEndpoint:
 1199              	.LVL124:
 1200              	.LFB49:
 351:Drivers/STM32F0xx_HAL_Driver/Src/stm32f0xx_ll_usb.c **** 
 352:Drivers/STM32F0xx_HAL_Driver/Src/stm32f0xx_ll_usb.c **** /**
 353:Drivers/STM32F0xx_HAL_Driver/Src/stm32f0xx_ll_usb.c ****   * @brief  De-activate and de-initialize an endpoint
 354:Drivers/STM32F0xx_HAL_Driver/Src/stm32f0xx_ll_usb.c ****   * @param  USBx : Selected device
 355:Drivers/STM32F0xx_HAL_Driver/Src/stm32f0xx_ll_usb.c ****   * @param  ep: pointer to endpoint structure
 356:Drivers/STM32F0xx_HAL_Driver/Src/stm32f0xx_ll_usb.c ****   * @retval HAL status
 357:Drivers/STM32F0xx_HAL_Driver/Src/stm32f0xx_ll_usb.c ****   */
 358:Drivers/STM32F0xx_HAL_Driver/Src/stm32f0xx_ll_usb.c **** HAL_StatusTypeDef USB_DeactivateEndpoint(USB_TypeDef *USBx, USB_EPTypeDef *ep)
 359:Drivers/STM32F0xx_HAL_Driver/Src/stm32f0xx_ll_usb.c **** {
 1201              		.loc 1 359 1 view -0
 1202              		.cfi_startproc
 1203              		@ args = 0, pretend = 0, frame = 0
 1204              		@ frame_needed = 0, uses_anonymous_args = 0
 1205              		.loc 1 359 1 is_stmt 0 view .LVU350
 1206 0000 10B5     		push	{r4, lr}
ARM GAS  /tmp/ccF3DfVq.s 			page 31


 1207              	.LCFI4:
 1208              		.cfi_def_cfa_offset 8
 1209              		.cfi_offset 4, -8
 1210              		.cfi_offset 14, -4
 360:Drivers/STM32F0xx_HAL_Driver/Src/stm32f0xx_ll_usb.c ****   if (ep->doublebuffer == 0U)
 1211              		.loc 1 360 3 is_stmt 1 view .LVU351
 1212              		.loc 1 360 9 is_stmt 0 view .LVU352
 1213 0002 0B7B     		ldrb	r3, [r1, #12]
 1214              		.loc 1 360 6 view .LVU353
 1215 0004 002B     		cmp	r3, #0
 1216 0006 33D1     		bne	.L51
 361:Drivers/STM32F0xx_HAL_Driver/Src/stm32f0xx_ll_usb.c ****   {
 362:Drivers/STM32F0xx_HAL_Driver/Src/stm32f0xx_ll_usb.c ****     if (ep->is_in != 0U)
 1217              		.loc 1 362 5 is_stmt 1 view .LVU354
 1218              		.loc 1 362 11 is_stmt 0 view .LVU355
 1219 0008 4B78     		ldrb	r3, [r1, #1]
 1220              		.loc 1 362 8 view .LVU356
 1221 000a 002B     		cmp	r3, #0
 1222 000c 18D0     		beq	.L52
 363:Drivers/STM32F0xx_HAL_Driver/Src/stm32f0xx_ll_usb.c ****     {
 364:Drivers/STM32F0xx_HAL_Driver/Src/stm32f0xx_ll_usb.c ****       PCD_CLEAR_TX_DTOG(USBx, ep->num);
 1223              		.loc 1 364 7 is_stmt 1 view .LVU357
 1224              	.LBB34:
 1225              		.loc 1 364 7 view .LVU358
 1226              		.loc 1 364 7 view .LVU359
 1227 000e 0B78     		ldrb	r3, [r1]
 1228 0010 9B00     		lsls	r3, r3, #2
 1229 0012 C318     		adds	r3, r0, r3
 1230 0014 1A88     		ldrh	r2, [r3]
 1231              	.LVL125:
 1232              		.loc 1 364 7 view .LVU360
 1233 0016 5206     		lsls	r2, r2, #25
 1234 0018 06D5     		bpl	.L53
 1235              	.LVL126:
 1236              		.loc 1 364 7 discriminator 1 view .LVU361
 1237              	.LBB35:
 1238              		.loc 1 364 7 discriminator 1 view .LVU362
 1239              		.loc 1 364 7 discriminator 1 view .LVU363
 1240 001a 1C88     		ldrh	r4, [r3]
 1241 001c 4E4A     		ldr	r2, .L67
 1242 001e 1440     		ands	r4, r2
 1243              	.LVL127:
 1244              		.loc 1 364 7 discriminator 1 view .LVU364
 1245 0020 4E4A     		ldr	r2, .L67+4
 1246 0022 2243     		orrs	r2, r4
 1247 0024 92B2     		uxth	r2, r2
 1248 0026 1A80     		strh	r2, [r3]
 1249              	.LVL128:
 1250              	.L53:
 1251              		.loc 1 364 7 is_stmt 0 discriminator 1 view .LVU365
 1252              	.LBE35:
 1253              		.loc 1 364 7 is_stmt 1 discriminator 3 view .LVU366
 1254              	.LBE34:
 1255              		.loc 1 364 7 discriminator 3 view .LVU367
 365:Drivers/STM32F0xx_HAL_Driver/Src/stm32f0xx_ll_usb.c ****       /* Configure DISABLE status for the Endpoint*/
 366:Drivers/STM32F0xx_HAL_Driver/Src/stm32f0xx_ll_usb.c ****       PCD_SET_EP_TX_STATUS(USBx, ep->num, USB_EP_TX_DIS);
 1256              		.loc 1 366 7 discriminator 3 view .LVU368
ARM GAS  /tmp/ccF3DfVq.s 			page 32


 1257              	.LBB36:
 1258              		.loc 1 366 7 discriminator 3 view .LVU369
 1259              		.loc 1 366 7 discriminator 3 view .LVU370
 1260 0028 0B78     		ldrb	r3, [r1]
 1261 002a 9B00     		lsls	r3, r3, #2
 1262 002c C318     		adds	r3, r0, r3
 1263 002e 1988     		ldrh	r1, [r3]
 1264              	.LVL129:
 1265              		.loc 1 366 7 is_stmt 0 discriminator 3 view .LVU371
 1266 0030 4B4A     		ldr	r2, .L67+8
 1267 0032 1140     		ands	r1, r2
 1268              	.LVL130:
 1269              		.loc 1 366 7 is_stmt 1 discriminator 3 view .LVU372
 1270              		.loc 1 366 7 discriminator 3 view .LVU373
 1271              		.loc 1 366 7 discriminator 3 view .LVU374
 1272 0034 4B4A     		ldr	r2, .L67+12
 1273 0036 0A43     		orrs	r2, r1
 1274 0038 92B2     		uxth	r2, r2
 1275 003a 1A80     		strh	r2, [r3]
 1276              	.LBE36:
 1277              		.loc 1 366 7 discriminator 3 view .LVU375
 1278              	.LVL131:
 1279              	.L54:
 367:Drivers/STM32F0xx_HAL_Driver/Src/stm32f0xx_ll_usb.c ****     }
 368:Drivers/STM32F0xx_HAL_Driver/Src/stm32f0xx_ll_usb.c ****     else
 369:Drivers/STM32F0xx_HAL_Driver/Src/stm32f0xx_ll_usb.c ****     {
 370:Drivers/STM32F0xx_HAL_Driver/Src/stm32f0xx_ll_usb.c ****       PCD_CLEAR_RX_DTOG(USBx, ep->num);
 371:Drivers/STM32F0xx_HAL_Driver/Src/stm32f0xx_ll_usb.c ****       /* Configure DISABLE status for the Endpoint*/
 372:Drivers/STM32F0xx_HAL_Driver/Src/stm32f0xx_ll_usb.c ****       PCD_SET_EP_RX_STATUS(USBx, ep->num, USB_EP_RX_DIS);
 373:Drivers/STM32F0xx_HAL_Driver/Src/stm32f0xx_ll_usb.c ****     }
 374:Drivers/STM32F0xx_HAL_Driver/Src/stm32f0xx_ll_usb.c ****   }
 375:Drivers/STM32F0xx_HAL_Driver/Src/stm32f0xx_ll_usb.c ****   /*Double Buffer*/
 376:Drivers/STM32F0xx_HAL_Driver/Src/stm32f0xx_ll_usb.c ****   else
 377:Drivers/STM32F0xx_HAL_Driver/Src/stm32f0xx_ll_usb.c ****   {
 378:Drivers/STM32F0xx_HAL_Driver/Src/stm32f0xx_ll_usb.c ****     if (ep->is_in == 0U)
 379:Drivers/STM32F0xx_HAL_Driver/Src/stm32f0xx_ll_usb.c ****     {
 380:Drivers/STM32F0xx_HAL_Driver/Src/stm32f0xx_ll_usb.c ****       /* Clear the data toggle bits for the endpoint IN/OUT*/
 381:Drivers/STM32F0xx_HAL_Driver/Src/stm32f0xx_ll_usb.c ****       PCD_CLEAR_RX_DTOG(USBx, ep->num);
 382:Drivers/STM32F0xx_HAL_Driver/Src/stm32f0xx_ll_usb.c ****       PCD_CLEAR_TX_DTOG(USBx, ep->num);
 383:Drivers/STM32F0xx_HAL_Driver/Src/stm32f0xx_ll_usb.c **** 
 384:Drivers/STM32F0xx_HAL_Driver/Src/stm32f0xx_ll_usb.c ****       /* Reset value of the data toggle bits for the endpoint out*/
 385:Drivers/STM32F0xx_HAL_Driver/Src/stm32f0xx_ll_usb.c ****       PCD_TX_DTOG(USBx, ep->num);
 386:Drivers/STM32F0xx_HAL_Driver/Src/stm32f0xx_ll_usb.c **** 
 387:Drivers/STM32F0xx_HAL_Driver/Src/stm32f0xx_ll_usb.c ****       PCD_SET_EP_RX_STATUS(USBx, ep->num, USB_EP_RX_DIS);
 388:Drivers/STM32F0xx_HAL_Driver/Src/stm32f0xx_ll_usb.c ****       PCD_SET_EP_TX_STATUS(USBx, ep->num, USB_EP_TX_DIS);
 389:Drivers/STM32F0xx_HAL_Driver/Src/stm32f0xx_ll_usb.c ****     }
 390:Drivers/STM32F0xx_HAL_Driver/Src/stm32f0xx_ll_usb.c ****     else
 391:Drivers/STM32F0xx_HAL_Driver/Src/stm32f0xx_ll_usb.c ****     {
 392:Drivers/STM32F0xx_HAL_Driver/Src/stm32f0xx_ll_usb.c ****       /* Clear the data toggle bits for the endpoint IN/OUT*/
 393:Drivers/STM32F0xx_HAL_Driver/Src/stm32f0xx_ll_usb.c ****       PCD_CLEAR_RX_DTOG(USBx, ep->num);
 394:Drivers/STM32F0xx_HAL_Driver/Src/stm32f0xx_ll_usb.c ****       PCD_CLEAR_TX_DTOG(USBx, ep->num);
 395:Drivers/STM32F0xx_HAL_Driver/Src/stm32f0xx_ll_usb.c ****       PCD_RX_DTOG(USBx, ep->num);
 396:Drivers/STM32F0xx_HAL_Driver/Src/stm32f0xx_ll_usb.c ****       /* Configure DISABLE status for the Endpoint*/
 397:Drivers/STM32F0xx_HAL_Driver/Src/stm32f0xx_ll_usb.c ****       PCD_SET_EP_TX_STATUS(USBx, ep->num, USB_EP_TX_DIS);
 398:Drivers/STM32F0xx_HAL_Driver/Src/stm32f0xx_ll_usb.c ****       PCD_SET_EP_RX_STATUS(USBx, ep->num, USB_EP_RX_DIS);
 1280              		.loc 1 398 7 discriminator 7 view .LVU376
 399:Drivers/STM32F0xx_HAL_Driver/Src/stm32f0xx_ll_usb.c ****     }
ARM GAS  /tmp/ccF3DfVq.s 			page 33


 400:Drivers/STM32F0xx_HAL_Driver/Src/stm32f0xx_ll_usb.c ****   }
 401:Drivers/STM32F0xx_HAL_Driver/Src/stm32f0xx_ll_usb.c **** 
 402:Drivers/STM32F0xx_HAL_Driver/Src/stm32f0xx_ll_usb.c ****   return HAL_OK;
 1281              		.loc 1 402 3 discriminator 7 view .LVU377
 403:Drivers/STM32F0xx_HAL_Driver/Src/stm32f0xx_ll_usb.c **** }
 1282              		.loc 1 403 1 is_stmt 0 discriminator 7 view .LVU378
 1283 003c 0020     		movs	r0, #0
 1284              		@ sp needed
 1285 003e 10BD     		pop	{r4, pc}
 1286              	.LVL132:
 1287              	.L52:
 370:Drivers/STM32F0xx_HAL_Driver/Src/stm32f0xx_ll_usb.c ****       /* Configure DISABLE status for the Endpoint*/
 1288              		.loc 1 370 7 is_stmt 1 view .LVU379
 1289              	.LBB37:
 370:Drivers/STM32F0xx_HAL_Driver/Src/stm32f0xx_ll_usb.c ****       /* Configure DISABLE status for the Endpoint*/
 1290              		.loc 1 370 7 view .LVU380
 370:Drivers/STM32F0xx_HAL_Driver/Src/stm32f0xx_ll_usb.c ****       /* Configure DISABLE status for the Endpoint*/
 1291              		.loc 1 370 7 view .LVU381
 1292 0040 0B78     		ldrb	r3, [r1]
 1293 0042 9B00     		lsls	r3, r3, #2
 1294 0044 C318     		adds	r3, r0, r3
 1295 0046 1A88     		ldrh	r2, [r3]
 1296              	.LVL133:
 370:Drivers/STM32F0xx_HAL_Driver/Src/stm32f0xx_ll_usb.c ****       /* Configure DISABLE status for the Endpoint*/
 1297              		.loc 1 370 7 view .LVU382
 1298 0048 5204     		lsls	r2, r2, #17
 1299 004a 06D5     		bpl	.L55
 1300              	.LVL134:
 370:Drivers/STM32F0xx_HAL_Driver/Src/stm32f0xx_ll_usb.c ****       /* Configure DISABLE status for the Endpoint*/
 1301              		.loc 1 370 7 discriminator 1 view .LVU383
 1302              	.LBB38:
 370:Drivers/STM32F0xx_HAL_Driver/Src/stm32f0xx_ll_usb.c ****       /* Configure DISABLE status for the Endpoint*/
 1303              		.loc 1 370 7 discriminator 1 view .LVU384
 370:Drivers/STM32F0xx_HAL_Driver/Src/stm32f0xx_ll_usb.c ****       /* Configure DISABLE status for the Endpoint*/
 1304              		.loc 1 370 7 discriminator 1 view .LVU385
 1305 004c 1C88     		ldrh	r4, [r3]
 1306 004e 424A     		ldr	r2, .L67
 1307 0050 1440     		ands	r4, r2
 1308              	.LVL135:
 370:Drivers/STM32F0xx_HAL_Driver/Src/stm32f0xx_ll_usb.c ****       /* Configure DISABLE status for the Endpoint*/
 1309              		.loc 1 370 7 discriminator 1 view .LVU386
 1310 0052 454A     		ldr	r2, .L67+16
 1311 0054 2243     		orrs	r2, r4
 1312 0056 92B2     		uxth	r2, r2
 1313 0058 1A80     		strh	r2, [r3]
 1314              	.LVL136:
 1315              	.L55:
 370:Drivers/STM32F0xx_HAL_Driver/Src/stm32f0xx_ll_usb.c ****       /* Configure DISABLE status for the Endpoint*/
 1316              		.loc 1 370 7 is_stmt 0 discriminator 1 view .LVU387
 1317              	.LBE38:
 370:Drivers/STM32F0xx_HAL_Driver/Src/stm32f0xx_ll_usb.c ****       /* Configure DISABLE status for the Endpoint*/
 1318              		.loc 1 370 7 is_stmt 1 discriminator 3 view .LVU388
 1319              	.LBE37:
 370:Drivers/STM32F0xx_HAL_Driver/Src/stm32f0xx_ll_usb.c ****       /* Configure DISABLE status for the Endpoint*/
 1320              		.loc 1 370 7 discriminator 3 view .LVU389
 372:Drivers/STM32F0xx_HAL_Driver/Src/stm32f0xx_ll_usb.c ****     }
 1321              		.loc 1 372 7 discriminator 3 view .LVU390
ARM GAS  /tmp/ccF3DfVq.s 			page 34


 1322              	.LBB39:
 372:Drivers/STM32F0xx_HAL_Driver/Src/stm32f0xx_ll_usb.c ****     }
 1323              		.loc 1 372 7 discriminator 3 view .LVU391
 372:Drivers/STM32F0xx_HAL_Driver/Src/stm32f0xx_ll_usb.c ****     }
 1324              		.loc 1 372 7 discriminator 3 view .LVU392
 1325 005a 0B78     		ldrb	r3, [r1]
 1326 005c 9B00     		lsls	r3, r3, #2
 1327 005e C318     		adds	r3, r0, r3
 1328 0060 1988     		ldrh	r1, [r3]
 1329              	.LVL137:
 372:Drivers/STM32F0xx_HAL_Driver/Src/stm32f0xx_ll_usb.c ****     }
 1330              		.loc 1 372 7 is_stmt 0 discriminator 3 view .LVU393
 1331 0062 424A     		ldr	r2, .L67+20
 1332 0064 1140     		ands	r1, r2
 1333              	.LVL138:
 372:Drivers/STM32F0xx_HAL_Driver/Src/stm32f0xx_ll_usb.c ****     }
 1334              		.loc 1 372 7 is_stmt 1 discriminator 3 view .LVU394
 372:Drivers/STM32F0xx_HAL_Driver/Src/stm32f0xx_ll_usb.c ****     }
 1335              		.loc 1 372 7 discriminator 3 view .LVU395
 372:Drivers/STM32F0xx_HAL_Driver/Src/stm32f0xx_ll_usb.c ****     }
 1336              		.loc 1 372 7 discriminator 3 view .LVU396
 1337 0066 3F4A     		ldr	r2, .L67+12
 1338 0068 0A43     		orrs	r2, r1
 1339 006a 92B2     		uxth	r2, r2
 1340 006c 1A80     		strh	r2, [r3]
 1341 006e E5E7     		b	.L54
 1342              	.LVL139:
 1343              	.L51:
 372:Drivers/STM32F0xx_HAL_Driver/Src/stm32f0xx_ll_usb.c ****     }
 1344              		.loc 1 372 7 is_stmt 0 discriminator 3 view .LVU397
 1345              	.LBE39:
 378:Drivers/STM32F0xx_HAL_Driver/Src/stm32f0xx_ll_usb.c ****     {
 1346              		.loc 1 378 5 is_stmt 1 view .LVU398
 378:Drivers/STM32F0xx_HAL_Driver/Src/stm32f0xx_ll_usb.c ****     {
 1347              		.loc 1 378 11 is_stmt 0 view .LVU399
 1348 0070 4B78     		ldrb	r3, [r1, #1]
 378:Drivers/STM32F0xx_HAL_Driver/Src/stm32f0xx_ll_usb.c ****     {
 1349              		.loc 1 378 8 view .LVU400
 1350 0072 002B     		cmp	r3, #0
 1351 0074 37D1     		bne	.L56
 381:Drivers/STM32F0xx_HAL_Driver/Src/stm32f0xx_ll_usb.c ****       PCD_CLEAR_TX_DTOG(USBx, ep->num);
 1352              		.loc 1 381 7 is_stmt 1 view .LVU401
 1353              	.LBB40:
 381:Drivers/STM32F0xx_HAL_Driver/Src/stm32f0xx_ll_usb.c ****       PCD_CLEAR_TX_DTOG(USBx, ep->num);
 1354              		.loc 1 381 7 view .LVU402
 381:Drivers/STM32F0xx_HAL_Driver/Src/stm32f0xx_ll_usb.c ****       PCD_CLEAR_TX_DTOG(USBx, ep->num);
 1355              		.loc 1 381 7 view .LVU403
 1356 0076 0B78     		ldrb	r3, [r1]
 1357 0078 9B00     		lsls	r3, r3, #2
 1358 007a C318     		adds	r3, r0, r3
 1359 007c 1A88     		ldrh	r2, [r3]
 1360              	.LVL140:
 381:Drivers/STM32F0xx_HAL_Driver/Src/stm32f0xx_ll_usb.c ****       PCD_CLEAR_TX_DTOG(USBx, ep->num);
 1361              		.loc 1 381 7 view .LVU404
 1362 007e 5204     		lsls	r2, r2, #17
 1363 0080 06D5     		bpl	.L57
 1364              	.LVL141:
ARM GAS  /tmp/ccF3DfVq.s 			page 35


 381:Drivers/STM32F0xx_HAL_Driver/Src/stm32f0xx_ll_usb.c ****       PCD_CLEAR_TX_DTOG(USBx, ep->num);
 1365              		.loc 1 381 7 discriminator 1 view .LVU405
 1366              	.LBB41:
 381:Drivers/STM32F0xx_HAL_Driver/Src/stm32f0xx_ll_usb.c ****       PCD_CLEAR_TX_DTOG(USBx, ep->num);
 1367              		.loc 1 381 7 discriminator 1 view .LVU406
 381:Drivers/STM32F0xx_HAL_Driver/Src/stm32f0xx_ll_usb.c ****       PCD_CLEAR_TX_DTOG(USBx, ep->num);
 1368              		.loc 1 381 7 discriminator 1 view .LVU407
 1369 0082 1C88     		ldrh	r4, [r3]
 1370 0084 344A     		ldr	r2, .L67
 1371 0086 1440     		ands	r4, r2
 1372              	.LVL142:
 381:Drivers/STM32F0xx_HAL_Driver/Src/stm32f0xx_ll_usb.c ****       PCD_CLEAR_TX_DTOG(USBx, ep->num);
 1373              		.loc 1 381 7 discriminator 1 view .LVU408
 1374 0088 374A     		ldr	r2, .L67+16
 1375 008a 2243     		orrs	r2, r4
 1376 008c 92B2     		uxth	r2, r2
 1377 008e 1A80     		strh	r2, [r3]
 1378              	.LVL143:
 1379              	.L57:
 381:Drivers/STM32F0xx_HAL_Driver/Src/stm32f0xx_ll_usb.c ****       PCD_CLEAR_TX_DTOG(USBx, ep->num);
 1380              		.loc 1 381 7 is_stmt 0 discriminator 1 view .LVU409
 1381              	.LBE41:
 381:Drivers/STM32F0xx_HAL_Driver/Src/stm32f0xx_ll_usb.c ****       PCD_CLEAR_TX_DTOG(USBx, ep->num);
 1382              		.loc 1 381 7 is_stmt 1 discriminator 3 view .LVU410
 1383              	.LBE40:
 381:Drivers/STM32F0xx_HAL_Driver/Src/stm32f0xx_ll_usb.c ****       PCD_CLEAR_TX_DTOG(USBx, ep->num);
 1384              		.loc 1 381 7 discriminator 3 view .LVU411
 382:Drivers/STM32F0xx_HAL_Driver/Src/stm32f0xx_ll_usb.c **** 
 1385              		.loc 1 382 7 discriminator 3 view .LVU412
 1386              	.LBB42:
 382:Drivers/STM32F0xx_HAL_Driver/Src/stm32f0xx_ll_usb.c **** 
 1387              		.loc 1 382 7 discriminator 3 view .LVU413
 382:Drivers/STM32F0xx_HAL_Driver/Src/stm32f0xx_ll_usb.c **** 
 1388              		.loc 1 382 7 discriminator 3 view .LVU414
 1389 0090 0B78     		ldrb	r3, [r1]
 1390 0092 9B00     		lsls	r3, r3, #2
 1391 0094 C318     		adds	r3, r0, r3
 1392 0096 1A88     		ldrh	r2, [r3]
 1393              	.LVL144:
 382:Drivers/STM32F0xx_HAL_Driver/Src/stm32f0xx_ll_usb.c **** 
 1394              		.loc 1 382 7 discriminator 3 view .LVU415
 1395 0098 5206     		lsls	r2, r2, #25
 1396 009a 06D5     		bpl	.L58
 1397              	.LVL145:
 382:Drivers/STM32F0xx_HAL_Driver/Src/stm32f0xx_ll_usb.c **** 
 1398              		.loc 1 382 7 discriminator 1 view .LVU416
 1399              	.LBB43:
 382:Drivers/STM32F0xx_HAL_Driver/Src/stm32f0xx_ll_usb.c **** 
 1400              		.loc 1 382 7 discriminator 1 view .LVU417
 382:Drivers/STM32F0xx_HAL_Driver/Src/stm32f0xx_ll_usb.c **** 
 1401              		.loc 1 382 7 discriminator 1 view .LVU418
 1402 009c 1C88     		ldrh	r4, [r3]
 1403 009e 2E4A     		ldr	r2, .L67
 1404 00a0 1440     		ands	r4, r2
 1405              	.LVL146:
 382:Drivers/STM32F0xx_HAL_Driver/Src/stm32f0xx_ll_usb.c **** 
 1406              		.loc 1 382 7 discriminator 1 view .LVU419
ARM GAS  /tmp/ccF3DfVq.s 			page 36


 1407 00a2 2E4A     		ldr	r2, .L67+4
 1408 00a4 2243     		orrs	r2, r4
 1409 00a6 92B2     		uxth	r2, r2
 1410 00a8 1A80     		strh	r2, [r3]
 1411              	.LVL147:
 1412              	.L58:
 382:Drivers/STM32F0xx_HAL_Driver/Src/stm32f0xx_ll_usb.c **** 
 1413              		.loc 1 382 7 is_stmt 0 discriminator 1 view .LVU420
 1414              	.LBE43:
 382:Drivers/STM32F0xx_HAL_Driver/Src/stm32f0xx_ll_usb.c **** 
 1415              		.loc 1 382 7 is_stmt 1 discriminator 3 view .LVU421
 1416              	.LBE42:
 382:Drivers/STM32F0xx_HAL_Driver/Src/stm32f0xx_ll_usb.c **** 
 1417              		.loc 1 382 7 discriminator 3 view .LVU422
 385:Drivers/STM32F0xx_HAL_Driver/Src/stm32f0xx_ll_usb.c **** 
 1418              		.loc 1 385 7 discriminator 3 view .LVU423
 1419              	.LBB44:
 385:Drivers/STM32F0xx_HAL_Driver/Src/stm32f0xx_ll_usb.c **** 
 1420              		.loc 1 385 7 discriminator 3 view .LVU424
 385:Drivers/STM32F0xx_HAL_Driver/Src/stm32f0xx_ll_usb.c **** 
 1421              		.loc 1 385 7 discriminator 3 view .LVU425
 1422 00aa 0B78     		ldrb	r3, [r1]
 1423 00ac 9B00     		lsls	r3, r3, #2
 1424 00ae C318     		adds	r3, r0, r3
 1425 00b0 1C88     		ldrh	r4, [r3]
 1426 00b2 294A     		ldr	r2, .L67
 1427 00b4 1440     		ands	r4, r2
 1428              	.LVL148:
 385:Drivers/STM32F0xx_HAL_Driver/Src/stm32f0xx_ll_usb.c **** 
 1429              		.loc 1 385 7 discriminator 3 view .LVU426
 1430 00b6 294A     		ldr	r2, .L67+4
 1431 00b8 2243     		orrs	r2, r4
 1432 00ba 92B2     		uxth	r2, r2
 1433 00bc 1A80     		strh	r2, [r3]
 1434              	.LBE44:
 385:Drivers/STM32F0xx_HAL_Driver/Src/stm32f0xx_ll_usb.c **** 
 1435              		.loc 1 385 7 discriminator 3 view .LVU427
 387:Drivers/STM32F0xx_HAL_Driver/Src/stm32f0xx_ll_usb.c ****       PCD_SET_EP_TX_STATUS(USBx, ep->num, USB_EP_TX_DIS);
 1436              		.loc 1 387 7 discriminator 3 view .LVU428
 1437              	.LBB45:
 387:Drivers/STM32F0xx_HAL_Driver/Src/stm32f0xx_ll_usb.c ****       PCD_SET_EP_TX_STATUS(USBx, ep->num, USB_EP_TX_DIS);
 1438              		.loc 1 387 7 discriminator 3 view .LVU429
 387:Drivers/STM32F0xx_HAL_Driver/Src/stm32f0xx_ll_usb.c ****       PCD_SET_EP_TX_STATUS(USBx, ep->num, USB_EP_TX_DIS);
 1439              		.loc 1 387 7 discriminator 3 view .LVU430
 1440 00be 0C78     		ldrb	r4, [r1]
 1441              	.LVL149:
 387:Drivers/STM32F0xx_HAL_Driver/Src/stm32f0xx_ll_usb.c ****       PCD_SET_EP_TX_STATUS(USBx, ep->num, USB_EP_TX_DIS);
 1442              		.loc 1 387 7 is_stmt 0 discriminator 3 view .LVU431
 1443 00c0 A400     		lsls	r4, r4, #2
 1444 00c2 0419     		adds	r4, r0, r4
 1445 00c4 2388     		ldrh	r3, [r4]
 1446 00c6 294A     		ldr	r2, .L67+20
 1447 00c8 1340     		ands	r3, r2
 1448              	.LVL150:
 387:Drivers/STM32F0xx_HAL_Driver/Src/stm32f0xx_ll_usb.c ****       PCD_SET_EP_TX_STATUS(USBx, ep->num, USB_EP_TX_DIS);
 1449              		.loc 1 387 7 is_stmt 1 discriminator 3 view .LVU432
 387:Drivers/STM32F0xx_HAL_Driver/Src/stm32f0xx_ll_usb.c ****       PCD_SET_EP_TX_STATUS(USBx, ep->num, USB_EP_TX_DIS);
ARM GAS  /tmp/ccF3DfVq.s 			page 37


 1450              		.loc 1 387 7 discriminator 3 view .LVU433
 387:Drivers/STM32F0xx_HAL_Driver/Src/stm32f0xx_ll_usb.c ****       PCD_SET_EP_TX_STATUS(USBx, ep->num, USB_EP_TX_DIS);
 1451              		.loc 1 387 7 discriminator 3 view .LVU434
 1452 00ca 264A     		ldr	r2, .L67+12
 1453 00cc 1343     		orrs	r3, r2
 1454              	.LVL151:
 387:Drivers/STM32F0xx_HAL_Driver/Src/stm32f0xx_ll_usb.c ****       PCD_SET_EP_TX_STATUS(USBx, ep->num, USB_EP_TX_DIS);
 1455              		.loc 1 387 7 is_stmt 0 discriminator 3 view .LVU435
 1456 00ce 9BB2     		uxth	r3, r3
 1457 00d0 2380     		strh	r3, [r4]
 1458              	.LBE45:
 387:Drivers/STM32F0xx_HAL_Driver/Src/stm32f0xx_ll_usb.c ****       PCD_SET_EP_TX_STATUS(USBx, ep->num, USB_EP_TX_DIS);
 1459              		.loc 1 387 7 is_stmt 1 discriminator 3 view .LVU436
 388:Drivers/STM32F0xx_HAL_Driver/Src/stm32f0xx_ll_usb.c ****     }
 1460              		.loc 1 388 7 discriminator 3 view .LVU437
 1461              	.LBB46:
 388:Drivers/STM32F0xx_HAL_Driver/Src/stm32f0xx_ll_usb.c ****     }
 1462              		.loc 1 388 7 discriminator 3 view .LVU438
 388:Drivers/STM32F0xx_HAL_Driver/Src/stm32f0xx_ll_usb.c ****     }
 1463              		.loc 1 388 7 discriminator 3 view .LVU439
 1464 00d2 0B78     		ldrb	r3, [r1]
 1465 00d4 9B00     		lsls	r3, r3, #2
 1466 00d6 C318     		adds	r3, r0, r3
 1467 00d8 1988     		ldrh	r1, [r3]
 1468              	.LVL152:
 388:Drivers/STM32F0xx_HAL_Driver/Src/stm32f0xx_ll_usb.c ****     }
 1469              		.loc 1 388 7 is_stmt 0 discriminator 3 view .LVU440
 1470 00da 2148     		ldr	r0, .L67+8
 1471              	.LVL153:
 388:Drivers/STM32F0xx_HAL_Driver/Src/stm32f0xx_ll_usb.c ****     }
 1472              		.loc 1 388 7 discriminator 3 view .LVU441
 1473 00dc 0140     		ands	r1, r0
 1474              	.LVL154:
 388:Drivers/STM32F0xx_HAL_Driver/Src/stm32f0xx_ll_usb.c ****     }
 1475              		.loc 1 388 7 is_stmt 1 discriminator 3 view .LVU442
 388:Drivers/STM32F0xx_HAL_Driver/Src/stm32f0xx_ll_usb.c ****     }
 1476              		.loc 1 388 7 discriminator 3 view .LVU443
 388:Drivers/STM32F0xx_HAL_Driver/Src/stm32f0xx_ll_usb.c ****     }
 1477              		.loc 1 388 7 discriminator 3 view .LVU444
 1478 00de 0A43     		orrs	r2, r1
 1479 00e0 92B2     		uxth	r2, r2
 1480 00e2 1A80     		strh	r2, [r3]
 1481              	.LBE46:
 388:Drivers/STM32F0xx_HAL_Driver/Src/stm32f0xx_ll_usb.c ****     }
 1482              		.loc 1 388 7 discriminator 3 view .LVU445
 1483 00e4 AAE7     		b	.L54
 1484              	.LVL155:
 1485              	.L56:
 393:Drivers/STM32F0xx_HAL_Driver/Src/stm32f0xx_ll_usb.c ****       PCD_CLEAR_TX_DTOG(USBx, ep->num);
 1486              		.loc 1 393 7 view .LVU446
 1487              	.LBB47:
 393:Drivers/STM32F0xx_HAL_Driver/Src/stm32f0xx_ll_usb.c ****       PCD_CLEAR_TX_DTOG(USBx, ep->num);
 1488              		.loc 1 393 7 view .LVU447
 393:Drivers/STM32F0xx_HAL_Driver/Src/stm32f0xx_ll_usb.c ****       PCD_CLEAR_TX_DTOG(USBx, ep->num);
 1489              		.loc 1 393 7 view .LVU448
 1490 00e6 0B78     		ldrb	r3, [r1]
 1491 00e8 9B00     		lsls	r3, r3, #2
ARM GAS  /tmp/ccF3DfVq.s 			page 38


 1492 00ea C318     		adds	r3, r0, r3
 1493 00ec 1A88     		ldrh	r2, [r3]
 1494              	.LVL156:
 393:Drivers/STM32F0xx_HAL_Driver/Src/stm32f0xx_ll_usb.c ****       PCD_CLEAR_TX_DTOG(USBx, ep->num);
 1495              		.loc 1 393 7 view .LVU449
 1496 00ee 5204     		lsls	r2, r2, #17
 1497 00f0 06D5     		bpl	.L59
 1498              	.LVL157:
 393:Drivers/STM32F0xx_HAL_Driver/Src/stm32f0xx_ll_usb.c ****       PCD_CLEAR_TX_DTOG(USBx, ep->num);
 1499              		.loc 1 393 7 discriminator 1 view .LVU450
 1500              	.LBB48:
 393:Drivers/STM32F0xx_HAL_Driver/Src/stm32f0xx_ll_usb.c ****       PCD_CLEAR_TX_DTOG(USBx, ep->num);
 1501              		.loc 1 393 7 discriminator 1 view .LVU451
 393:Drivers/STM32F0xx_HAL_Driver/Src/stm32f0xx_ll_usb.c ****       PCD_CLEAR_TX_DTOG(USBx, ep->num);
 1502              		.loc 1 393 7 discriminator 1 view .LVU452
 1503 00f2 1C88     		ldrh	r4, [r3]
 1504 00f4 184A     		ldr	r2, .L67
 1505 00f6 1440     		ands	r4, r2
 1506              	.LVL158:
 393:Drivers/STM32F0xx_HAL_Driver/Src/stm32f0xx_ll_usb.c ****       PCD_CLEAR_TX_DTOG(USBx, ep->num);
 1507              		.loc 1 393 7 discriminator 1 view .LVU453
 1508 00f8 1B4A     		ldr	r2, .L67+16
 1509 00fa 2243     		orrs	r2, r4
 1510 00fc 92B2     		uxth	r2, r2
 1511 00fe 1A80     		strh	r2, [r3]
 1512              	.LVL159:
 1513              	.L59:
 393:Drivers/STM32F0xx_HAL_Driver/Src/stm32f0xx_ll_usb.c ****       PCD_CLEAR_TX_DTOG(USBx, ep->num);
 1514              		.loc 1 393 7 is_stmt 0 discriminator 1 view .LVU454
 1515              	.LBE48:
 393:Drivers/STM32F0xx_HAL_Driver/Src/stm32f0xx_ll_usb.c ****       PCD_CLEAR_TX_DTOG(USBx, ep->num);
 1516              		.loc 1 393 7 is_stmt 1 discriminator 3 view .LVU455
 1517              	.LBE47:
 393:Drivers/STM32F0xx_HAL_Driver/Src/stm32f0xx_ll_usb.c ****       PCD_CLEAR_TX_DTOG(USBx, ep->num);
 1518              		.loc 1 393 7 discriminator 3 view .LVU456
 394:Drivers/STM32F0xx_HAL_Driver/Src/stm32f0xx_ll_usb.c ****       PCD_RX_DTOG(USBx, ep->num);
 1519              		.loc 1 394 7 discriminator 3 view .LVU457
 1520              	.LBB49:
 394:Drivers/STM32F0xx_HAL_Driver/Src/stm32f0xx_ll_usb.c ****       PCD_RX_DTOG(USBx, ep->num);
 1521              		.loc 1 394 7 discriminator 3 view .LVU458
 394:Drivers/STM32F0xx_HAL_Driver/Src/stm32f0xx_ll_usb.c ****       PCD_RX_DTOG(USBx, ep->num);
 1522              		.loc 1 394 7 discriminator 3 view .LVU459
 1523 0100 0B78     		ldrb	r3, [r1]
 1524 0102 9B00     		lsls	r3, r3, #2
 1525 0104 C318     		adds	r3, r0, r3
 1526 0106 1A88     		ldrh	r2, [r3]
 1527              	.LVL160:
 394:Drivers/STM32F0xx_HAL_Driver/Src/stm32f0xx_ll_usb.c ****       PCD_RX_DTOG(USBx, ep->num);
 1528              		.loc 1 394 7 discriminator 3 view .LVU460
 1529 0108 5206     		lsls	r2, r2, #25
 1530 010a 06D5     		bpl	.L60
 1531              	.LVL161:
 394:Drivers/STM32F0xx_HAL_Driver/Src/stm32f0xx_ll_usb.c ****       PCD_RX_DTOG(USBx, ep->num);
 1532              		.loc 1 394 7 discriminator 1 view .LVU461
 1533              	.LBB50:
 394:Drivers/STM32F0xx_HAL_Driver/Src/stm32f0xx_ll_usb.c ****       PCD_RX_DTOG(USBx, ep->num);
 1534              		.loc 1 394 7 discriminator 1 view .LVU462
ARM GAS  /tmp/ccF3DfVq.s 			page 39


 394:Drivers/STM32F0xx_HAL_Driver/Src/stm32f0xx_ll_usb.c ****       PCD_RX_DTOG(USBx, ep->num);
 1535              		.loc 1 394 7 discriminator 1 view .LVU463
 1536 010c 1C88     		ldrh	r4, [r3]
 1537 010e 124A     		ldr	r2, .L67
 1538 0110 1440     		ands	r4, r2
 1539              	.LVL162:
 394:Drivers/STM32F0xx_HAL_Driver/Src/stm32f0xx_ll_usb.c ****       PCD_RX_DTOG(USBx, ep->num);
 1540              		.loc 1 394 7 discriminator 1 view .LVU464
 1541 0112 124A     		ldr	r2, .L67+4
 1542 0114 2243     		orrs	r2, r4
 1543 0116 92B2     		uxth	r2, r2
 1544 0118 1A80     		strh	r2, [r3]
 1545              	.LVL163:
 1546              	.L60:
 394:Drivers/STM32F0xx_HAL_Driver/Src/stm32f0xx_ll_usb.c ****       PCD_RX_DTOG(USBx, ep->num);
 1547              		.loc 1 394 7 is_stmt 0 discriminator 1 view .LVU465
 1548              	.LBE50:
 394:Drivers/STM32F0xx_HAL_Driver/Src/stm32f0xx_ll_usb.c ****       PCD_RX_DTOG(USBx, ep->num);
 1549              		.loc 1 394 7 is_stmt 1 discriminator 3 view .LVU466
 1550              	.LBE49:
 394:Drivers/STM32F0xx_HAL_Driver/Src/stm32f0xx_ll_usb.c ****       PCD_RX_DTOG(USBx, ep->num);
 1551              		.loc 1 394 7 discriminator 3 view .LVU467
 395:Drivers/STM32F0xx_HAL_Driver/Src/stm32f0xx_ll_usb.c ****       /* Configure DISABLE status for the Endpoint*/
 1552              		.loc 1 395 7 discriminator 3 view .LVU468
 1553              	.LBB51:
 395:Drivers/STM32F0xx_HAL_Driver/Src/stm32f0xx_ll_usb.c ****       /* Configure DISABLE status for the Endpoint*/
 1554              		.loc 1 395 7 discriminator 3 view .LVU469
 395:Drivers/STM32F0xx_HAL_Driver/Src/stm32f0xx_ll_usb.c ****       /* Configure DISABLE status for the Endpoint*/
 1555              		.loc 1 395 7 discriminator 3 view .LVU470
 1556 011a 0B78     		ldrb	r3, [r1]
 1557 011c 9B00     		lsls	r3, r3, #2
 1558 011e C318     		adds	r3, r0, r3
 1559 0120 1C88     		ldrh	r4, [r3]
 1560 0122 0D4A     		ldr	r2, .L67
 1561 0124 1440     		ands	r4, r2
 1562              	.LVL164:
 395:Drivers/STM32F0xx_HAL_Driver/Src/stm32f0xx_ll_usb.c ****       /* Configure DISABLE status for the Endpoint*/
 1563              		.loc 1 395 7 discriminator 3 view .LVU471
 1564 0126 104A     		ldr	r2, .L67+16
 1565 0128 2243     		orrs	r2, r4
 1566 012a 92B2     		uxth	r2, r2
 1567 012c 1A80     		strh	r2, [r3]
 1568              	.LBE51:
 395:Drivers/STM32F0xx_HAL_Driver/Src/stm32f0xx_ll_usb.c ****       /* Configure DISABLE status for the Endpoint*/
 1569              		.loc 1 395 7 discriminator 3 view .LVU472
 397:Drivers/STM32F0xx_HAL_Driver/Src/stm32f0xx_ll_usb.c ****       PCD_SET_EP_RX_STATUS(USBx, ep->num, USB_EP_RX_DIS);
 1570              		.loc 1 397 7 discriminator 3 view .LVU473
 1571              	.LBB52:
 397:Drivers/STM32F0xx_HAL_Driver/Src/stm32f0xx_ll_usb.c ****       PCD_SET_EP_RX_STATUS(USBx, ep->num, USB_EP_RX_DIS);
 1572              		.loc 1 397 7 discriminator 3 view .LVU474
 397:Drivers/STM32F0xx_HAL_Driver/Src/stm32f0xx_ll_usb.c ****       PCD_SET_EP_RX_STATUS(USBx, ep->num, USB_EP_RX_DIS);
 1573              		.loc 1 397 7 discriminator 3 view .LVU475
 1574 012e 0C78     		ldrb	r4, [r1]
 1575              	.LVL165:
 397:Drivers/STM32F0xx_HAL_Driver/Src/stm32f0xx_ll_usb.c ****       PCD_SET_EP_RX_STATUS(USBx, ep->num, USB_EP_RX_DIS);
 1576              		.loc 1 397 7 is_stmt 0 discriminator 3 view .LVU476
 1577 0130 A400     		lsls	r4, r4, #2
ARM GAS  /tmp/ccF3DfVq.s 			page 40


 1578 0132 0419     		adds	r4, r0, r4
 1579 0134 2388     		ldrh	r3, [r4]
 1580 0136 0A4A     		ldr	r2, .L67+8
 1581 0138 1340     		ands	r3, r2
 1582              	.LVL166:
 397:Drivers/STM32F0xx_HAL_Driver/Src/stm32f0xx_ll_usb.c ****       PCD_SET_EP_RX_STATUS(USBx, ep->num, USB_EP_RX_DIS);
 1583              		.loc 1 397 7 is_stmt 1 discriminator 3 view .LVU477
 397:Drivers/STM32F0xx_HAL_Driver/Src/stm32f0xx_ll_usb.c ****       PCD_SET_EP_RX_STATUS(USBx, ep->num, USB_EP_RX_DIS);
 1584              		.loc 1 397 7 discriminator 3 view .LVU478
 397:Drivers/STM32F0xx_HAL_Driver/Src/stm32f0xx_ll_usb.c ****       PCD_SET_EP_RX_STATUS(USBx, ep->num, USB_EP_RX_DIS);
 1585              		.loc 1 397 7 discriminator 3 view .LVU479
 1586 013a 0A4A     		ldr	r2, .L67+12
 1587 013c 1343     		orrs	r3, r2
 1588              	.LVL167:
 397:Drivers/STM32F0xx_HAL_Driver/Src/stm32f0xx_ll_usb.c ****       PCD_SET_EP_RX_STATUS(USBx, ep->num, USB_EP_RX_DIS);
 1589              		.loc 1 397 7 is_stmt 0 discriminator 3 view .LVU480
 1590 013e 9BB2     		uxth	r3, r3
 1591 0140 2380     		strh	r3, [r4]
 1592              	.LBE52:
 397:Drivers/STM32F0xx_HAL_Driver/Src/stm32f0xx_ll_usb.c ****       PCD_SET_EP_RX_STATUS(USBx, ep->num, USB_EP_RX_DIS);
 1593              		.loc 1 397 7 is_stmt 1 discriminator 3 view .LVU481
 398:Drivers/STM32F0xx_HAL_Driver/Src/stm32f0xx_ll_usb.c ****     }
 1594              		.loc 1 398 7 discriminator 3 view .LVU482
 1595              	.LBB53:
 398:Drivers/STM32F0xx_HAL_Driver/Src/stm32f0xx_ll_usb.c ****     }
 1596              		.loc 1 398 7 discriminator 3 view .LVU483
 398:Drivers/STM32F0xx_HAL_Driver/Src/stm32f0xx_ll_usb.c ****     }
 1597              		.loc 1 398 7 discriminator 3 view .LVU484
 1598 0142 0B78     		ldrb	r3, [r1]
 1599 0144 9B00     		lsls	r3, r3, #2
 1600 0146 C018     		adds	r0, r0, r3
 1601              	.LVL168:
 398:Drivers/STM32F0xx_HAL_Driver/Src/stm32f0xx_ll_usb.c ****     }
 1602              		.loc 1 398 7 is_stmt 0 discriminator 3 view .LVU485
 1603 0148 0388     		ldrh	r3, [r0]
 1604 014a 0849     		ldr	r1, .L67+20
 1605              	.LVL169:
 398:Drivers/STM32F0xx_HAL_Driver/Src/stm32f0xx_ll_usb.c ****     }
 1606              		.loc 1 398 7 discriminator 3 view .LVU486
 1607 014c 0B40     		ands	r3, r1
 1608              	.LVL170:
 398:Drivers/STM32F0xx_HAL_Driver/Src/stm32f0xx_ll_usb.c ****     }
 1609              		.loc 1 398 7 is_stmt 1 discriminator 3 view .LVU487
 398:Drivers/STM32F0xx_HAL_Driver/Src/stm32f0xx_ll_usb.c ****     }
 1610              		.loc 1 398 7 discriminator 3 view .LVU488
 398:Drivers/STM32F0xx_HAL_Driver/Src/stm32f0xx_ll_usb.c ****     }
 1611              		.loc 1 398 7 discriminator 3 view .LVU489
 1612 014e 1A43     		orrs	r2, r3
 1613 0150 92B2     		uxth	r2, r2
 1614 0152 0280     		strh	r2, [r0]
 1615 0154 72E7     		b	.L54
 1616              	.L68:
 1617 0156 C046     		.align	2
 1618              	.L67:
 1619 0158 8F8FFFFF 		.word	-28785
 1620 015c C080FFFF 		.word	-32576
 1621 0160 BF8FFFFF 		.word	-28737
ARM GAS  /tmp/ccF3DfVq.s 			page 41


 1622 0164 8080FFFF 		.word	-32640
 1623 0168 80C0FFFF 		.word	-16256
 1624 016c 8FBFFFFF 		.word	-16497
 1625              	.LBE53:
 1626              		.cfi_endproc
 1627              	.LFE49:
 1629              		.section	.text.USB_WritePacket,"ax",%progbits
 1630              		.align	1
 1631              		.global	USB_WritePacket
 1632              		.syntax unified
 1633              		.code	16
 1634              		.thumb_func
 1635              		.fpu softvfp
 1637              	USB_WritePacket:
 1638              	.LVL171:
 1639              	.LFB51:
 404:Drivers/STM32F0xx_HAL_Driver/Src/stm32f0xx_ll_usb.c **** 
 405:Drivers/STM32F0xx_HAL_Driver/Src/stm32f0xx_ll_usb.c **** /**
 406:Drivers/STM32F0xx_HAL_Driver/Src/stm32f0xx_ll_usb.c ****   * @brief  USB_EPStartXfer : setup and starts a transfer over an EP
 407:Drivers/STM32F0xx_HAL_Driver/Src/stm32f0xx_ll_usb.c ****   * @param  USBx : Selected device
 408:Drivers/STM32F0xx_HAL_Driver/Src/stm32f0xx_ll_usb.c ****   * @param  ep: pointer to endpoint structure
 409:Drivers/STM32F0xx_HAL_Driver/Src/stm32f0xx_ll_usb.c ****   * @retval HAL status
 410:Drivers/STM32F0xx_HAL_Driver/Src/stm32f0xx_ll_usb.c ****   */
 411:Drivers/STM32F0xx_HAL_Driver/Src/stm32f0xx_ll_usb.c **** HAL_StatusTypeDef USB_EPStartXfer(USB_TypeDef *USBx, USB_EPTypeDef *ep)
 412:Drivers/STM32F0xx_HAL_Driver/Src/stm32f0xx_ll_usb.c **** {
 413:Drivers/STM32F0xx_HAL_Driver/Src/stm32f0xx_ll_usb.c ****   uint16_t pmabuffer;
 414:Drivers/STM32F0xx_HAL_Driver/Src/stm32f0xx_ll_usb.c ****   uint32_t len;
 415:Drivers/STM32F0xx_HAL_Driver/Src/stm32f0xx_ll_usb.c **** 
 416:Drivers/STM32F0xx_HAL_Driver/Src/stm32f0xx_ll_usb.c ****   /* IN endpoint */
 417:Drivers/STM32F0xx_HAL_Driver/Src/stm32f0xx_ll_usb.c ****   if (ep->is_in == 1U)
 418:Drivers/STM32F0xx_HAL_Driver/Src/stm32f0xx_ll_usb.c ****   {
 419:Drivers/STM32F0xx_HAL_Driver/Src/stm32f0xx_ll_usb.c ****     /*Multi packet transfer*/
 420:Drivers/STM32F0xx_HAL_Driver/Src/stm32f0xx_ll_usb.c ****     if (ep->xfer_len > ep->maxpacket)
 421:Drivers/STM32F0xx_HAL_Driver/Src/stm32f0xx_ll_usb.c ****     {
 422:Drivers/STM32F0xx_HAL_Driver/Src/stm32f0xx_ll_usb.c ****       len = ep->maxpacket;
 423:Drivers/STM32F0xx_HAL_Driver/Src/stm32f0xx_ll_usb.c ****       ep->xfer_len -= len;
 424:Drivers/STM32F0xx_HAL_Driver/Src/stm32f0xx_ll_usb.c ****     }
 425:Drivers/STM32F0xx_HAL_Driver/Src/stm32f0xx_ll_usb.c ****     else
 426:Drivers/STM32F0xx_HAL_Driver/Src/stm32f0xx_ll_usb.c ****     {
 427:Drivers/STM32F0xx_HAL_Driver/Src/stm32f0xx_ll_usb.c ****       len = ep->xfer_len;
 428:Drivers/STM32F0xx_HAL_Driver/Src/stm32f0xx_ll_usb.c ****       ep->xfer_len = 0U;
 429:Drivers/STM32F0xx_HAL_Driver/Src/stm32f0xx_ll_usb.c ****     }
 430:Drivers/STM32F0xx_HAL_Driver/Src/stm32f0xx_ll_usb.c **** 
 431:Drivers/STM32F0xx_HAL_Driver/Src/stm32f0xx_ll_usb.c ****     /* configure and validate Tx endpoint */
 432:Drivers/STM32F0xx_HAL_Driver/Src/stm32f0xx_ll_usb.c ****     if (ep->doublebuffer == 0U)
 433:Drivers/STM32F0xx_HAL_Driver/Src/stm32f0xx_ll_usb.c ****     {
 434:Drivers/STM32F0xx_HAL_Driver/Src/stm32f0xx_ll_usb.c ****       USB_WritePMA(USBx, ep->xfer_buff, ep->pmaadress, (uint16_t)len);
 435:Drivers/STM32F0xx_HAL_Driver/Src/stm32f0xx_ll_usb.c ****       PCD_SET_EP_TX_CNT(USBx, ep->num, len);
 436:Drivers/STM32F0xx_HAL_Driver/Src/stm32f0xx_ll_usb.c ****     }
 437:Drivers/STM32F0xx_HAL_Driver/Src/stm32f0xx_ll_usb.c ****     else
 438:Drivers/STM32F0xx_HAL_Driver/Src/stm32f0xx_ll_usb.c ****     {
 439:Drivers/STM32F0xx_HAL_Driver/Src/stm32f0xx_ll_usb.c ****       /* Write the data to the USB endpoint */
 440:Drivers/STM32F0xx_HAL_Driver/Src/stm32f0xx_ll_usb.c ****       if ((PCD_GET_ENDPOINT(USBx, ep->num) & USB_EP_DTOG_TX) != 0U)
 441:Drivers/STM32F0xx_HAL_Driver/Src/stm32f0xx_ll_usb.c ****       {
 442:Drivers/STM32F0xx_HAL_Driver/Src/stm32f0xx_ll_usb.c ****         /* Set the Double buffer counter for pmabuffer1 */
 443:Drivers/STM32F0xx_HAL_Driver/Src/stm32f0xx_ll_usb.c ****         PCD_SET_EP_DBUF1_CNT(USBx, ep->num, ep->is_in, len);
 444:Drivers/STM32F0xx_HAL_Driver/Src/stm32f0xx_ll_usb.c ****         pmabuffer = ep->pmaaddr1;
ARM GAS  /tmp/ccF3DfVq.s 			page 42


 445:Drivers/STM32F0xx_HAL_Driver/Src/stm32f0xx_ll_usb.c ****       }
 446:Drivers/STM32F0xx_HAL_Driver/Src/stm32f0xx_ll_usb.c ****       else
 447:Drivers/STM32F0xx_HAL_Driver/Src/stm32f0xx_ll_usb.c ****       {
 448:Drivers/STM32F0xx_HAL_Driver/Src/stm32f0xx_ll_usb.c ****         /* Set the Double buffer counter for pmabuffer0 */
 449:Drivers/STM32F0xx_HAL_Driver/Src/stm32f0xx_ll_usb.c ****         PCD_SET_EP_DBUF0_CNT(USBx, ep->num, ep->is_in, len);
 450:Drivers/STM32F0xx_HAL_Driver/Src/stm32f0xx_ll_usb.c ****         pmabuffer = ep->pmaaddr0;
 451:Drivers/STM32F0xx_HAL_Driver/Src/stm32f0xx_ll_usb.c ****       }
 452:Drivers/STM32F0xx_HAL_Driver/Src/stm32f0xx_ll_usb.c ****       USB_WritePMA(USBx, ep->xfer_buff, pmabuffer, (uint16_t)len);
 453:Drivers/STM32F0xx_HAL_Driver/Src/stm32f0xx_ll_usb.c ****       PCD_FreeUserBuffer(USBx, ep->num, ep->is_in);
 454:Drivers/STM32F0xx_HAL_Driver/Src/stm32f0xx_ll_usb.c ****     }
 455:Drivers/STM32F0xx_HAL_Driver/Src/stm32f0xx_ll_usb.c **** 
 456:Drivers/STM32F0xx_HAL_Driver/Src/stm32f0xx_ll_usb.c ****     PCD_SET_EP_TX_STATUS(USBx, ep->num, USB_EP_TX_VALID);
 457:Drivers/STM32F0xx_HAL_Driver/Src/stm32f0xx_ll_usb.c ****   }
 458:Drivers/STM32F0xx_HAL_Driver/Src/stm32f0xx_ll_usb.c ****   else /* OUT endpoint */
 459:Drivers/STM32F0xx_HAL_Driver/Src/stm32f0xx_ll_usb.c ****   {
 460:Drivers/STM32F0xx_HAL_Driver/Src/stm32f0xx_ll_usb.c ****     /* Multi packet transfer*/
 461:Drivers/STM32F0xx_HAL_Driver/Src/stm32f0xx_ll_usb.c ****     if (ep->xfer_len > ep->maxpacket)
 462:Drivers/STM32F0xx_HAL_Driver/Src/stm32f0xx_ll_usb.c ****     {
 463:Drivers/STM32F0xx_HAL_Driver/Src/stm32f0xx_ll_usb.c ****       len = ep->maxpacket;
 464:Drivers/STM32F0xx_HAL_Driver/Src/stm32f0xx_ll_usb.c ****       ep->xfer_len -= len;
 465:Drivers/STM32F0xx_HAL_Driver/Src/stm32f0xx_ll_usb.c ****     }
 466:Drivers/STM32F0xx_HAL_Driver/Src/stm32f0xx_ll_usb.c ****     else
 467:Drivers/STM32F0xx_HAL_Driver/Src/stm32f0xx_ll_usb.c ****     {
 468:Drivers/STM32F0xx_HAL_Driver/Src/stm32f0xx_ll_usb.c ****       len = ep->xfer_len;
 469:Drivers/STM32F0xx_HAL_Driver/Src/stm32f0xx_ll_usb.c ****       ep->xfer_len = 0U;
 470:Drivers/STM32F0xx_HAL_Driver/Src/stm32f0xx_ll_usb.c ****     }
 471:Drivers/STM32F0xx_HAL_Driver/Src/stm32f0xx_ll_usb.c **** 
 472:Drivers/STM32F0xx_HAL_Driver/Src/stm32f0xx_ll_usb.c ****     /* configure and validate Rx endpoint */
 473:Drivers/STM32F0xx_HAL_Driver/Src/stm32f0xx_ll_usb.c ****     if (ep->doublebuffer == 0U)
 474:Drivers/STM32F0xx_HAL_Driver/Src/stm32f0xx_ll_usb.c ****     {
 475:Drivers/STM32F0xx_HAL_Driver/Src/stm32f0xx_ll_usb.c ****       /*Set RX buffer count*/
 476:Drivers/STM32F0xx_HAL_Driver/Src/stm32f0xx_ll_usb.c ****       PCD_SET_EP_RX_CNT(USBx, ep->num, len);
 477:Drivers/STM32F0xx_HAL_Driver/Src/stm32f0xx_ll_usb.c ****     }
 478:Drivers/STM32F0xx_HAL_Driver/Src/stm32f0xx_ll_usb.c ****     else
 479:Drivers/STM32F0xx_HAL_Driver/Src/stm32f0xx_ll_usb.c ****     {
 480:Drivers/STM32F0xx_HAL_Driver/Src/stm32f0xx_ll_usb.c ****       /*Set the Double buffer counter*/
 481:Drivers/STM32F0xx_HAL_Driver/Src/stm32f0xx_ll_usb.c ****       PCD_SET_EP_DBUF_CNT(USBx, ep->num, ep->is_in, len);
 482:Drivers/STM32F0xx_HAL_Driver/Src/stm32f0xx_ll_usb.c ****     }
 483:Drivers/STM32F0xx_HAL_Driver/Src/stm32f0xx_ll_usb.c **** 
 484:Drivers/STM32F0xx_HAL_Driver/Src/stm32f0xx_ll_usb.c ****     PCD_SET_EP_RX_STATUS(USBx, ep->num, USB_EP_RX_VALID);
 485:Drivers/STM32F0xx_HAL_Driver/Src/stm32f0xx_ll_usb.c ****   }
 486:Drivers/STM32F0xx_HAL_Driver/Src/stm32f0xx_ll_usb.c **** 
 487:Drivers/STM32F0xx_HAL_Driver/Src/stm32f0xx_ll_usb.c ****   return HAL_OK;
 488:Drivers/STM32F0xx_HAL_Driver/Src/stm32f0xx_ll_usb.c **** }
 489:Drivers/STM32F0xx_HAL_Driver/Src/stm32f0xx_ll_usb.c **** 
 490:Drivers/STM32F0xx_HAL_Driver/Src/stm32f0xx_ll_usb.c **** /**
 491:Drivers/STM32F0xx_HAL_Driver/Src/stm32f0xx_ll_usb.c ****   * @brief  USB_WritePacket : Writes a packet into the Tx FIFO associated
 492:Drivers/STM32F0xx_HAL_Driver/Src/stm32f0xx_ll_usb.c ****   *         with the EP/channel
 493:Drivers/STM32F0xx_HAL_Driver/Src/stm32f0xx_ll_usb.c ****   * @param  USBx : Selected device
 494:Drivers/STM32F0xx_HAL_Driver/Src/stm32f0xx_ll_usb.c ****   * @param  src :  pointer to source buffer
 495:Drivers/STM32F0xx_HAL_Driver/Src/stm32f0xx_ll_usb.c ****   * @param  ch_ep_num : endpoint or host channel number
 496:Drivers/STM32F0xx_HAL_Driver/Src/stm32f0xx_ll_usb.c ****   * @param  len : Number of bytes to write
 497:Drivers/STM32F0xx_HAL_Driver/Src/stm32f0xx_ll_usb.c ****   * @retval HAL status
 498:Drivers/STM32F0xx_HAL_Driver/Src/stm32f0xx_ll_usb.c ****   */
 499:Drivers/STM32F0xx_HAL_Driver/Src/stm32f0xx_ll_usb.c **** HAL_StatusTypeDef USB_WritePacket(USB_TypeDef *USBx, uint8_t *src, uint8_t ch_ep_num, uint16_t len)
 500:Drivers/STM32F0xx_HAL_Driver/Src/stm32f0xx_ll_usb.c **** {
 1640              		.loc 1 500 1 view -0
ARM GAS  /tmp/ccF3DfVq.s 			page 43


 1641              		.cfi_startproc
 1642              		@ args = 0, pretend = 0, frame = 0
 1643              		@ frame_needed = 0, uses_anonymous_args = 0
 1644              		@ link register save eliminated.
 501:Drivers/STM32F0xx_HAL_Driver/Src/stm32f0xx_ll_usb.c ****   /* Prevent unused argument(s) compilation warning */
 502:Drivers/STM32F0xx_HAL_Driver/Src/stm32f0xx_ll_usb.c ****   UNUSED(USBx);
 1645              		.loc 1 502 3 view .LVU491
 503:Drivers/STM32F0xx_HAL_Driver/Src/stm32f0xx_ll_usb.c ****   UNUSED(src);
 1646              		.loc 1 503 3 view .LVU492
 504:Drivers/STM32F0xx_HAL_Driver/Src/stm32f0xx_ll_usb.c ****   UNUSED(ch_ep_num);
 1647              		.loc 1 504 3 view .LVU493
 505:Drivers/STM32F0xx_HAL_Driver/Src/stm32f0xx_ll_usb.c ****   UNUSED(len);
 1648              		.loc 1 505 3 view .LVU494
 506:Drivers/STM32F0xx_HAL_Driver/Src/stm32f0xx_ll_usb.c ****   /* NOTE : - This function is not required by USB Device FS peripheral, it is used
 507:Drivers/STM32F0xx_HAL_Driver/Src/stm32f0xx_ll_usb.c ****               only by USB OTG FS peripheral.
 508:Drivers/STM32F0xx_HAL_Driver/Src/stm32f0xx_ll_usb.c ****             - This function is added to ensure compatibility across platforms.
 509:Drivers/STM32F0xx_HAL_Driver/Src/stm32f0xx_ll_usb.c ****    */
 510:Drivers/STM32F0xx_HAL_Driver/Src/stm32f0xx_ll_usb.c ****   return HAL_OK;
 1649              		.loc 1 510 3 view .LVU495
 511:Drivers/STM32F0xx_HAL_Driver/Src/stm32f0xx_ll_usb.c **** }
 1650              		.loc 1 511 1 is_stmt 0 view .LVU496
 1651 0000 0020     		movs	r0, #0
 1652              	.LVL172:
 1653              		.loc 1 511 1 view .LVU497
 1654              		@ sp needed
 1655 0002 7047     		bx	lr
 1656              		.cfi_endproc
 1657              	.LFE51:
 1659              		.section	.text.USB_ReadPacket,"ax",%progbits
 1660              		.align	1
 1661              		.global	USB_ReadPacket
 1662              		.syntax unified
 1663              		.code	16
 1664              		.thumb_func
 1665              		.fpu softvfp
 1667              	USB_ReadPacket:
 1668              	.LVL173:
 1669              	.LFB52:
 512:Drivers/STM32F0xx_HAL_Driver/Src/stm32f0xx_ll_usb.c **** 
 513:Drivers/STM32F0xx_HAL_Driver/Src/stm32f0xx_ll_usb.c **** /**
 514:Drivers/STM32F0xx_HAL_Driver/Src/stm32f0xx_ll_usb.c ****   * @brief  USB_ReadPacket : read a packet from the Tx FIFO associated
 515:Drivers/STM32F0xx_HAL_Driver/Src/stm32f0xx_ll_usb.c ****   *         with the EP/channel
 516:Drivers/STM32F0xx_HAL_Driver/Src/stm32f0xx_ll_usb.c ****   * @param  USBx : Selected device
 517:Drivers/STM32F0xx_HAL_Driver/Src/stm32f0xx_ll_usb.c ****   * @param  dest : destination pointer
 518:Drivers/STM32F0xx_HAL_Driver/Src/stm32f0xx_ll_usb.c ****   * @param  len : Number of bytes to read
 519:Drivers/STM32F0xx_HAL_Driver/Src/stm32f0xx_ll_usb.c ****   * @retval pointer to destination buffer
 520:Drivers/STM32F0xx_HAL_Driver/Src/stm32f0xx_ll_usb.c ****   */
 521:Drivers/STM32F0xx_HAL_Driver/Src/stm32f0xx_ll_usb.c **** void *USB_ReadPacket(USB_TypeDef *USBx, uint8_t *dest, uint16_t len)
 522:Drivers/STM32F0xx_HAL_Driver/Src/stm32f0xx_ll_usb.c **** {
 1670              		.loc 1 522 1 is_stmt 1 view -0
 1671              		.cfi_startproc
 1672              		@ args = 0, pretend = 0, frame = 0
 1673              		@ frame_needed = 0, uses_anonymous_args = 0
 1674              		@ link register save eliminated.
 523:Drivers/STM32F0xx_HAL_Driver/Src/stm32f0xx_ll_usb.c ****   /* Prevent unused argument(s) compilation warning */
 524:Drivers/STM32F0xx_HAL_Driver/Src/stm32f0xx_ll_usb.c ****   UNUSED(USBx);
 1675              		.loc 1 524 3 view .LVU499
ARM GAS  /tmp/ccF3DfVq.s 			page 44


 525:Drivers/STM32F0xx_HAL_Driver/Src/stm32f0xx_ll_usb.c ****   UNUSED(dest);
 1676              		.loc 1 525 3 view .LVU500
 526:Drivers/STM32F0xx_HAL_Driver/Src/stm32f0xx_ll_usb.c ****   UNUSED(len);
 1677              		.loc 1 526 3 view .LVU501
 527:Drivers/STM32F0xx_HAL_Driver/Src/stm32f0xx_ll_usb.c ****   /* NOTE : - This function is not required by USB Device FS peripheral, it is used
 528:Drivers/STM32F0xx_HAL_Driver/Src/stm32f0xx_ll_usb.c ****               only by USB OTG FS peripheral.
 529:Drivers/STM32F0xx_HAL_Driver/Src/stm32f0xx_ll_usb.c ****             - This function is added to ensure compatibility across platforms.
 530:Drivers/STM32F0xx_HAL_Driver/Src/stm32f0xx_ll_usb.c ****    */
 531:Drivers/STM32F0xx_HAL_Driver/Src/stm32f0xx_ll_usb.c ****   return ((void *)NULL);
 1678              		.loc 1 531 3 view .LVU502
 532:Drivers/STM32F0xx_HAL_Driver/Src/stm32f0xx_ll_usb.c **** }
 1679              		.loc 1 532 1 is_stmt 0 view .LVU503
 1680 0000 0020     		movs	r0, #0
 1681              	.LVL174:
 1682              		.loc 1 532 1 view .LVU504
 1683              		@ sp needed
 1684 0002 7047     		bx	lr
 1685              		.cfi_endproc
 1686              	.LFE52:
 1688              		.section	.text.USB_EPSetStall,"ax",%progbits
 1689              		.align	1
 1690              		.global	USB_EPSetStall
 1691              		.syntax unified
 1692              		.code	16
 1693              		.thumb_func
 1694              		.fpu softvfp
 1696              	USB_EPSetStall:
 1697              	.LVL175:
 1698              	.LFB53:
 533:Drivers/STM32F0xx_HAL_Driver/Src/stm32f0xx_ll_usb.c **** 
 534:Drivers/STM32F0xx_HAL_Driver/Src/stm32f0xx_ll_usb.c **** /**
 535:Drivers/STM32F0xx_HAL_Driver/Src/stm32f0xx_ll_usb.c ****   * @brief  USB_EPSetStall : set a stall condition over an EP
 536:Drivers/STM32F0xx_HAL_Driver/Src/stm32f0xx_ll_usb.c ****   * @param  USBx : Selected device
 537:Drivers/STM32F0xx_HAL_Driver/Src/stm32f0xx_ll_usb.c ****   * @param  ep: pointer to endpoint structure
 538:Drivers/STM32F0xx_HAL_Driver/Src/stm32f0xx_ll_usb.c ****   * @retval HAL status
 539:Drivers/STM32F0xx_HAL_Driver/Src/stm32f0xx_ll_usb.c ****   */
 540:Drivers/STM32F0xx_HAL_Driver/Src/stm32f0xx_ll_usb.c **** HAL_StatusTypeDef USB_EPSetStall(USB_TypeDef *USBx, USB_EPTypeDef *ep)
 541:Drivers/STM32F0xx_HAL_Driver/Src/stm32f0xx_ll_usb.c **** {
 1699              		.loc 1 541 1 is_stmt 1 view -0
 1700              		.cfi_startproc
 1701              		@ args = 0, pretend = 0, frame = 0
 1702              		@ frame_needed = 0, uses_anonymous_args = 0
 1703              		@ link register save eliminated.
 542:Drivers/STM32F0xx_HAL_Driver/Src/stm32f0xx_ll_usb.c ****   if (ep->is_in != 0U)
 1704              		.loc 1 542 3 view .LVU506
 1705              		.loc 1 542 9 is_stmt 0 view .LVU507
 1706 0000 4B78     		ldrb	r3, [r1, #1]
 1707              		.loc 1 542 6 view .LVU508
 1708 0002 002B     		cmp	r3, #0
 1709 0004 0ED0     		beq	.L72
 543:Drivers/STM32F0xx_HAL_Driver/Src/stm32f0xx_ll_usb.c ****   {
 544:Drivers/STM32F0xx_HAL_Driver/Src/stm32f0xx_ll_usb.c ****     PCD_SET_EP_TX_STATUS(USBx, ep->num, USB_EP_TX_STALL);
 1710              		.loc 1 544 5 is_stmt 1 view .LVU509
 1711              	.LBB54:
 1712              		.loc 1 544 5 view .LVU510
 1713              		.loc 1 544 5 view .LVU511
 1714 0006 0B78     		ldrb	r3, [r1]
ARM GAS  /tmp/ccF3DfVq.s 			page 45


 1715 0008 9B00     		lsls	r3, r3, #2
 1716 000a C018     		adds	r0, r0, r3
 1717              	.LVL176:
 1718              		.loc 1 544 5 is_stmt 0 view .LVU512
 1719 000c 0388     		ldrh	r3, [r0]
 1720 000e 0C4A     		ldr	r2, .L74
 1721 0010 1340     		ands	r3, r2
 1722              	.LVL177:
 1723              		.loc 1 544 5 is_stmt 1 view .LVU513
 1724              		.loc 1 544 5 view .LVU514
 1725 0012 1022     		movs	r2, #16
 1726 0014 5340     		eors	r3, r2
 1727              	.LVL178:
 1728              		.loc 1 544 5 is_stmt 0 view .LVU515
 1729 0016 9BB2     		uxth	r3, r3
 1730              	.LVL179:
 1731              		.loc 1 544 5 is_stmt 1 view .LVU516
 1732              		.loc 1 544 5 view .LVU517
 1733 0018 0A4A     		ldr	r2, .L74+4
 1734 001a 1343     		orrs	r3, r2
 1735              	.LVL180:
 1736              		.loc 1 544 5 is_stmt 0 view .LVU518
 1737 001c 9BB2     		uxth	r3, r3
 1738 001e 0380     		strh	r3, [r0]
 1739              	.LBE54:
 1740              		.loc 1 544 5 is_stmt 1 view .LVU519
 1741              	.L73:
 545:Drivers/STM32F0xx_HAL_Driver/Src/stm32f0xx_ll_usb.c ****   }
 546:Drivers/STM32F0xx_HAL_Driver/Src/stm32f0xx_ll_usb.c ****   else
 547:Drivers/STM32F0xx_HAL_Driver/Src/stm32f0xx_ll_usb.c ****   {
 548:Drivers/STM32F0xx_HAL_Driver/Src/stm32f0xx_ll_usb.c ****     PCD_SET_EP_RX_STATUS(USBx, ep->num, USB_EP_RX_STALL);
 1742              		.loc 1 548 5 discriminator 7 view .LVU520
 549:Drivers/STM32F0xx_HAL_Driver/Src/stm32f0xx_ll_usb.c ****   }
 550:Drivers/STM32F0xx_HAL_Driver/Src/stm32f0xx_ll_usb.c **** 
 551:Drivers/STM32F0xx_HAL_Driver/Src/stm32f0xx_ll_usb.c ****   return HAL_OK;
 1743              		.loc 1 551 3 discriminator 7 view .LVU521
 552:Drivers/STM32F0xx_HAL_Driver/Src/stm32f0xx_ll_usb.c **** }
 1744              		.loc 1 552 1 is_stmt 0 discriminator 7 view .LVU522
 1745 0020 0020     		movs	r0, #0
 1746              		@ sp needed
 1747 0022 7047     		bx	lr
 1748              	.LVL181:
 1749              	.L72:
 548:Drivers/STM32F0xx_HAL_Driver/Src/stm32f0xx_ll_usb.c ****   }
 1750              		.loc 1 548 5 is_stmt 1 view .LVU523
 1751              	.LBB55:
 548:Drivers/STM32F0xx_HAL_Driver/Src/stm32f0xx_ll_usb.c ****   }
 1752              		.loc 1 548 5 view .LVU524
 548:Drivers/STM32F0xx_HAL_Driver/Src/stm32f0xx_ll_usb.c ****   }
 1753              		.loc 1 548 5 view .LVU525
 1754 0024 0B78     		ldrb	r3, [r1]
 1755 0026 9B00     		lsls	r3, r3, #2
 1756 0028 C018     		adds	r0, r0, r3
 1757              	.LVL182:
 548:Drivers/STM32F0xx_HAL_Driver/Src/stm32f0xx_ll_usb.c ****   }
 1758              		.loc 1 548 5 is_stmt 0 view .LVU526
 1759 002a 0388     		ldrh	r3, [r0]
ARM GAS  /tmp/ccF3DfVq.s 			page 46


 1760 002c 064A     		ldr	r2, .L74+8
 1761 002e 1340     		ands	r3, r2
 1762              	.LVL183:
 548:Drivers/STM32F0xx_HAL_Driver/Src/stm32f0xx_ll_usb.c ****   }
 1763              		.loc 1 548 5 is_stmt 1 view .LVU527
 548:Drivers/STM32F0xx_HAL_Driver/Src/stm32f0xx_ll_usb.c ****   }
 1764              		.loc 1 548 5 view .LVU528
 1765 0030 8022     		movs	r2, #128
 1766 0032 5201     		lsls	r2, r2, #5
 1767 0034 5A40     		eors	r2, r3
 1768              	.LVL184:
 548:Drivers/STM32F0xx_HAL_Driver/Src/stm32f0xx_ll_usb.c ****   }
 1769              		.loc 1 548 5 view .LVU529
 548:Drivers/STM32F0xx_HAL_Driver/Src/stm32f0xx_ll_usb.c ****   }
 1770              		.loc 1 548 5 view .LVU530
 1771 0036 034B     		ldr	r3, .L74+4
 1772 0038 1343     		orrs	r3, r2
 1773 003a 9BB2     		uxth	r3, r3
 1774 003c 0380     		strh	r3, [r0]
 1775 003e EFE7     		b	.L73
 1776              	.L75:
 1777              		.align	2
 1778              	.L74:
 1779 0040 BF8FFFFF 		.word	-28737
 1780 0044 8080FFFF 		.word	-32640
 1781 0048 8FBFFFFF 		.word	-16497
 1782              	.LBE55:
 1783              		.cfi_endproc
 1784              	.LFE53:
 1786              		.section	.text.USB_EPClearStall,"ax",%progbits
 1787              		.align	1
 1788              		.global	USB_EPClearStall
 1789              		.syntax unified
 1790              		.code	16
 1791              		.thumb_func
 1792              		.fpu softvfp
 1794              	USB_EPClearStall:
 1795              	.LVL185:
 1796              	.LFB54:
 553:Drivers/STM32F0xx_HAL_Driver/Src/stm32f0xx_ll_usb.c **** 
 554:Drivers/STM32F0xx_HAL_Driver/Src/stm32f0xx_ll_usb.c **** /**
 555:Drivers/STM32F0xx_HAL_Driver/Src/stm32f0xx_ll_usb.c ****   * @brief  USB_EPClearStall : Clear a stall condition over an EP
 556:Drivers/STM32F0xx_HAL_Driver/Src/stm32f0xx_ll_usb.c ****   * @param  USBx : Selected device
 557:Drivers/STM32F0xx_HAL_Driver/Src/stm32f0xx_ll_usb.c ****   * @param  ep: pointer to endpoint structure
 558:Drivers/STM32F0xx_HAL_Driver/Src/stm32f0xx_ll_usb.c ****   * @retval HAL status
 559:Drivers/STM32F0xx_HAL_Driver/Src/stm32f0xx_ll_usb.c ****   */
 560:Drivers/STM32F0xx_HAL_Driver/Src/stm32f0xx_ll_usb.c **** HAL_StatusTypeDef USB_EPClearStall(USB_TypeDef *USBx, USB_EPTypeDef *ep)
 561:Drivers/STM32F0xx_HAL_Driver/Src/stm32f0xx_ll_usb.c **** {
 1797              		.loc 1 561 1 view -0
 1798              		.cfi_startproc
 1799              		@ args = 0, pretend = 0, frame = 0
 1800              		@ frame_needed = 0, uses_anonymous_args = 0
 1801              		.loc 1 561 1 is_stmt 0 view .LVU532
 1802 0000 10B5     		push	{r4, lr}
 1803              	.LCFI5:
 1804              		.cfi_def_cfa_offset 8
 1805              		.cfi_offset 4, -8
ARM GAS  /tmp/ccF3DfVq.s 			page 47


 1806              		.cfi_offset 14, -4
 562:Drivers/STM32F0xx_HAL_Driver/Src/stm32f0xx_ll_usb.c ****   if (ep->doublebuffer == 0U)
 1807              		.loc 1 562 3 is_stmt 1 view .LVU533
 1808              		.loc 1 562 9 is_stmt 0 view .LVU534
 1809 0002 0B7B     		ldrb	r3, [r1, #12]
 1810              		.loc 1 562 6 view .LVU535
 1811 0004 002B     		cmp	r3, #0
 1812 0006 3AD1     		bne	.L77
 563:Drivers/STM32F0xx_HAL_Driver/Src/stm32f0xx_ll_usb.c ****   {
 564:Drivers/STM32F0xx_HAL_Driver/Src/stm32f0xx_ll_usb.c ****     if (ep->is_in != 0U)
 1813              		.loc 1 564 5 is_stmt 1 view .LVU536
 1814              		.loc 1 564 11 is_stmt 0 view .LVU537
 1815 0008 4B78     		ldrb	r3, [r1, #1]
 1816              		.loc 1 564 8 view .LVU538
 1817 000a 002B     		cmp	r3, #0
 1818 000c 1DD0     		beq	.L78
 565:Drivers/STM32F0xx_HAL_Driver/Src/stm32f0xx_ll_usb.c ****     {
 566:Drivers/STM32F0xx_HAL_Driver/Src/stm32f0xx_ll_usb.c ****       PCD_CLEAR_TX_DTOG(USBx, ep->num);
 1819              		.loc 1 566 7 is_stmt 1 view .LVU539
 1820              	.LBB56:
 1821              		.loc 1 566 7 view .LVU540
 1822              		.loc 1 566 7 view .LVU541
 1823 000e 0B78     		ldrb	r3, [r1]
 1824 0010 9B00     		lsls	r3, r3, #2
 1825 0012 C318     		adds	r3, r0, r3
 1826 0014 1A88     		ldrh	r2, [r3]
 1827              	.LVL186:
 1828              		.loc 1 566 7 view .LVU542
 1829 0016 5206     		lsls	r2, r2, #25
 1830 0018 06D5     		bpl	.L79
 1831              	.LVL187:
 1832              		.loc 1 566 7 discriminator 1 view .LVU543
 1833              	.LBB57:
 1834              		.loc 1 566 7 discriminator 1 view .LVU544
 1835              		.loc 1 566 7 discriminator 1 view .LVU545
 1836 001a 1C88     		ldrh	r4, [r3]
 1837 001c 194A     		ldr	r2, .L83
 1838 001e 1440     		ands	r4, r2
 1839              	.LVL188:
 1840              		.loc 1 566 7 discriminator 1 view .LVU546
 1841 0020 194A     		ldr	r2, .L83+4
 1842 0022 2243     		orrs	r2, r4
 1843 0024 92B2     		uxth	r2, r2
 1844 0026 1A80     		strh	r2, [r3]
 1845              	.LVL189:
 1846              	.L79:
 1847              		.loc 1 566 7 is_stmt 0 discriminator 1 view .LVU547
 1848              	.LBE57:
 1849              		.loc 1 566 7 is_stmt 1 discriminator 3 view .LVU548
 1850              	.LBE56:
 1851              		.loc 1 566 7 discriminator 3 view .LVU549
 567:Drivers/STM32F0xx_HAL_Driver/Src/stm32f0xx_ll_usb.c **** 
 568:Drivers/STM32F0xx_HAL_Driver/Src/stm32f0xx_ll_usb.c ****       if (ep->type != EP_TYPE_ISOC)
 1852              		.loc 1 568 7 discriminator 3 view .LVU550
 1853              		.loc 1 568 13 is_stmt 0 discriminator 3 view .LVU551
 1854 0028 CB78     		ldrb	r3, [r1, #3]
 1855              		.loc 1 568 10 discriminator 3 view .LVU552
ARM GAS  /tmp/ccF3DfVq.s 			page 48


 1856 002a 012B     		cmp	r3, #1
 1857 002c 27D0     		beq	.L77
 569:Drivers/STM32F0xx_HAL_Driver/Src/stm32f0xx_ll_usb.c ****       {
 570:Drivers/STM32F0xx_HAL_Driver/Src/stm32f0xx_ll_usb.c ****         /* Configure NAK status for the Endpoint */
 571:Drivers/STM32F0xx_HAL_Driver/Src/stm32f0xx_ll_usb.c ****         PCD_SET_EP_TX_STATUS(USBx, ep->num, USB_EP_TX_NAK);
 1858              		.loc 1 571 9 is_stmt 1 view .LVU553
 1859              	.LBB58:
 1860              		.loc 1 571 9 view .LVU554
 1861              		.loc 1 571 9 view .LVU555
 1862 002e 0A78     		ldrb	r2, [r1]
 1863 0030 9200     		lsls	r2, r2, #2
 1864 0032 8218     		adds	r2, r0, r2
 1865 0034 1388     		ldrh	r3, [r2]
 1866 0036 1549     		ldr	r1, .L83+8
 1867              	.LVL190:
 1868              		.loc 1 571 9 is_stmt 0 view .LVU556
 1869 0038 0B40     		ands	r3, r1
 1870              	.LVL191:
 1871              		.loc 1 571 9 is_stmt 1 view .LVU557
 1872              		.loc 1 571 9 view .LVU558
 1873              		.loc 1 571 9 view .LVU559
 1874 003a 2021     		movs	r1, #32
 1875 003c 4B40     		eors	r3, r1
 1876              	.LVL192:
 1877              		.loc 1 571 9 is_stmt 0 view .LVU560
 1878 003e 9BB2     		uxth	r3, r3
 1879              	.LVL193:
 1880              		.loc 1 571 9 is_stmt 1 view .LVU561
 1881 0040 1349     		ldr	r1, .L83+12
 1882 0042 0B43     		orrs	r3, r1
 1883              	.LVL194:
 1884              		.loc 1 571 9 is_stmt 0 view .LVU562
 1885 0044 9BB2     		uxth	r3, r3
 1886 0046 1380     		strh	r3, [r2]
 1887 0048 19E0     		b	.L77
 1888              	.LVL195:
 1889              	.L78:
 1890              		.loc 1 571 9 view .LVU563
 1891              	.LBE58:
 572:Drivers/STM32F0xx_HAL_Driver/Src/stm32f0xx_ll_usb.c ****       }
 573:Drivers/STM32F0xx_HAL_Driver/Src/stm32f0xx_ll_usb.c ****     }
 574:Drivers/STM32F0xx_HAL_Driver/Src/stm32f0xx_ll_usb.c ****     else
 575:Drivers/STM32F0xx_HAL_Driver/Src/stm32f0xx_ll_usb.c ****     {
 576:Drivers/STM32F0xx_HAL_Driver/Src/stm32f0xx_ll_usb.c ****       PCD_CLEAR_RX_DTOG(USBx, ep->num);
 1892              		.loc 1 576 7 is_stmt 1 view .LVU564
 1893              	.LBB59:
 1894              		.loc 1 576 7 view .LVU565
 1895              		.loc 1 576 7 view .LVU566
 1896 004a 0B78     		ldrb	r3, [r1]
 1897 004c 9B00     		lsls	r3, r3, #2
 1898 004e C318     		adds	r3, r0, r3
 1899 0050 1A88     		ldrh	r2, [r3]
 1900              	.LVL196:
 1901              		.loc 1 576 7 view .LVU567
 1902 0052 5204     		lsls	r2, r2, #17
 1903 0054 06D5     		bpl	.L80
 1904              	.LVL197:
ARM GAS  /tmp/ccF3DfVq.s 			page 49


 1905              		.loc 1 576 7 discriminator 1 view .LVU568
 1906              	.LBB60:
 1907              		.loc 1 576 7 discriminator 1 view .LVU569
 1908              		.loc 1 576 7 discriminator 1 view .LVU570
 1909 0056 1C88     		ldrh	r4, [r3]
 1910 0058 0A4A     		ldr	r2, .L83
 1911 005a 1440     		ands	r4, r2
 1912              	.LVL198:
 1913              		.loc 1 576 7 discriminator 1 view .LVU571
 1914 005c 0D4A     		ldr	r2, .L83+16
 1915 005e 2243     		orrs	r2, r4
 1916 0060 92B2     		uxth	r2, r2
 1917 0062 1A80     		strh	r2, [r3]
 1918              	.LVL199:
 1919              	.L80:
 1920              		.loc 1 576 7 is_stmt 0 discriminator 1 view .LVU572
 1921              	.LBE60:
 1922              		.loc 1 576 7 is_stmt 1 discriminator 3 view .LVU573
 1923              	.LBE59:
 1924              		.loc 1 576 7 discriminator 3 view .LVU574
 577:Drivers/STM32F0xx_HAL_Driver/Src/stm32f0xx_ll_usb.c **** 
 578:Drivers/STM32F0xx_HAL_Driver/Src/stm32f0xx_ll_usb.c ****       /* Configure VALID status for the Endpoint*/
 579:Drivers/STM32F0xx_HAL_Driver/Src/stm32f0xx_ll_usb.c ****       PCD_SET_EP_RX_STATUS(USBx, ep->num, USB_EP_RX_VALID);
 1925              		.loc 1 579 7 discriminator 3 view .LVU575
 1926              	.LBB61:
 1927              		.loc 1 579 7 discriminator 3 view .LVU576
 1928              		.loc 1 579 7 discriminator 3 view .LVU577
 1929 0064 0B78     		ldrb	r3, [r1]
 1930 0066 9B00     		lsls	r3, r3, #2
 1931 0068 C018     		adds	r0, r0, r3
 1932              	.LVL200:
 1933              		.loc 1 579 7 is_stmt 0 discriminator 3 view .LVU578
 1934 006a 0388     		ldrh	r3, [r0]
 1935 006c 0A4A     		ldr	r2, .L83+20
 1936 006e 1340     		ands	r3, r2
 1937              	.LVL201:
 1938              		.loc 1 579 7 is_stmt 1 discriminator 3 view .LVU579
 1939              		.loc 1 579 7 discriminator 3 view .LVU580
 1940              		.loc 1 579 7 discriminator 3 view .LVU581
 1941              		.loc 1 579 7 discriminator 3 view .LVU582
 1942 0070 C022     		movs	r2, #192
 1943 0072 9201     		lsls	r2, r2, #6
 1944 0074 5A40     		eors	r2, r3
 1945              	.LVL202:
 1946              		.loc 1 579 7 discriminator 3 view .LVU583
 1947 0076 064B     		ldr	r3, .L83+12
 1948 0078 1343     		orrs	r3, r2
 1949 007a 9BB2     		uxth	r3, r3
 1950 007c 0380     		strh	r3, [r0]
 1951              	.LVL203:
 1952              	.L77:
 1953              		.loc 1 579 7 is_stmt 0 discriminator 3 view .LVU584
 1954              	.LBE61:
 1955              		.loc 1 579 7 is_stmt 1 discriminator 7 view .LVU585
 580:Drivers/STM32F0xx_HAL_Driver/Src/stm32f0xx_ll_usb.c ****     }
 581:Drivers/STM32F0xx_HAL_Driver/Src/stm32f0xx_ll_usb.c ****   }
 582:Drivers/STM32F0xx_HAL_Driver/Src/stm32f0xx_ll_usb.c **** 
ARM GAS  /tmp/ccF3DfVq.s 			page 50


 583:Drivers/STM32F0xx_HAL_Driver/Src/stm32f0xx_ll_usb.c ****   return HAL_OK;
 1956              		.loc 1 583 3 discriminator 7 view .LVU586
 584:Drivers/STM32F0xx_HAL_Driver/Src/stm32f0xx_ll_usb.c **** }
 1957              		.loc 1 584 1 is_stmt 0 discriminator 7 view .LVU587
 1958 007e 0020     		movs	r0, #0
 1959              		@ sp needed
 1960 0080 10BD     		pop	{r4, pc}
 1961              	.L84:
 1962 0082 C046     		.align	2
 1963              	.L83:
 1964 0084 8F8FFFFF 		.word	-28785
 1965 0088 C080FFFF 		.word	-32576
 1966 008c BF8FFFFF 		.word	-28737
 1967 0090 8080FFFF 		.word	-32640
 1968 0094 80C0FFFF 		.word	-16256
 1969 0098 8FBFFFFF 		.word	-16497
 1970              		.cfi_endproc
 1971              	.LFE54:
 1973              		.section	.text.USB_StopDevice,"ax",%progbits
 1974              		.align	1
 1975              		.global	USB_StopDevice
 1976              		.syntax unified
 1977              		.code	16
 1978              		.thumb_func
 1979              		.fpu softvfp
 1981              	USB_StopDevice:
 1982              	.LVL204:
 1983              	.LFB55:
 585:Drivers/STM32F0xx_HAL_Driver/Src/stm32f0xx_ll_usb.c **** 
 586:Drivers/STM32F0xx_HAL_Driver/Src/stm32f0xx_ll_usb.c **** /**
 587:Drivers/STM32F0xx_HAL_Driver/Src/stm32f0xx_ll_usb.c ****   * @brief  USB_StopDevice : Stop the usb device mode
 588:Drivers/STM32F0xx_HAL_Driver/Src/stm32f0xx_ll_usb.c ****   * @param  USBx : Selected device
 589:Drivers/STM32F0xx_HAL_Driver/Src/stm32f0xx_ll_usb.c ****   * @retval HAL status
 590:Drivers/STM32F0xx_HAL_Driver/Src/stm32f0xx_ll_usb.c ****   */
 591:Drivers/STM32F0xx_HAL_Driver/Src/stm32f0xx_ll_usb.c **** HAL_StatusTypeDef USB_StopDevice(USB_TypeDef *USBx)
 592:Drivers/STM32F0xx_HAL_Driver/Src/stm32f0xx_ll_usb.c **** {
 1984              		.loc 1 592 1 is_stmt 1 view -0
 1985              		.cfi_startproc
 1986              		@ args = 0, pretend = 0, frame = 0
 1987              		@ frame_needed = 0, uses_anonymous_args = 0
 1988              		@ link register save eliminated.
 593:Drivers/STM32F0xx_HAL_Driver/Src/stm32f0xx_ll_usb.c ****   /* disable all interrupts and force USB reset */
 594:Drivers/STM32F0xx_HAL_Driver/Src/stm32f0xx_ll_usb.c ****   USBx->CNTR = USB_CNTR_FRES;
 1989              		.loc 1 594 3 view .LVU589
 1990              		.loc 1 594 14 is_stmt 0 view .LVU590
 1991 0000 4023     		movs	r3, #64
 1992 0002 0122     		movs	r2, #1
 1993 0004 C252     		strh	r2, [r0, r3]
 595:Drivers/STM32F0xx_HAL_Driver/Src/stm32f0xx_ll_usb.c **** 
 596:Drivers/STM32F0xx_HAL_Driver/Src/stm32f0xx_ll_usb.c ****   /* clear interrupt status register */
 597:Drivers/STM32F0xx_HAL_Driver/Src/stm32f0xx_ll_usb.c ****   USBx->ISTR = 0;
 1994              		.loc 1 597 3 is_stmt 1 view .LVU591
 1995              		.loc 1 597 14 is_stmt 0 view .LVU592
 1996 0006 4332     		adds	r2, r2, #67
 1997 0008 0021     		movs	r1, #0
 1998 000a 8152     		strh	r1, [r0, r2]
 598:Drivers/STM32F0xx_HAL_Driver/Src/stm32f0xx_ll_usb.c **** 
ARM GAS  /tmp/ccF3DfVq.s 			page 51


 599:Drivers/STM32F0xx_HAL_Driver/Src/stm32f0xx_ll_usb.c ****   /* switch-off device */
 600:Drivers/STM32F0xx_HAL_Driver/Src/stm32f0xx_ll_usb.c ****   USBx->CNTR = (USB_CNTR_FRES | USB_CNTR_PDWN);
 1999              		.loc 1 600 3 is_stmt 1 view .LVU593
 2000              		.loc 1 600 14 is_stmt 0 view .LVU594
 2001 000c 413A     		subs	r2, r2, #65
 2002 000e C252     		strh	r2, [r0, r3]
 601:Drivers/STM32F0xx_HAL_Driver/Src/stm32f0xx_ll_usb.c **** 
 602:Drivers/STM32F0xx_HAL_Driver/Src/stm32f0xx_ll_usb.c ****   return HAL_OK;
 2003              		.loc 1 602 3 is_stmt 1 view .LVU595
 603:Drivers/STM32F0xx_HAL_Driver/Src/stm32f0xx_ll_usb.c **** }
 2004              		.loc 1 603 1 is_stmt 0 view .LVU596
 2005 0010 0020     		movs	r0, #0
 2006              	.LVL205:
 2007              		.loc 1 603 1 view .LVU597
 2008              		@ sp needed
 2009 0012 7047     		bx	lr
 2010              		.cfi_endproc
 2011              	.LFE55:
 2013              		.section	.text.USB_SetDevAddress,"ax",%progbits
 2014              		.align	1
 2015              		.global	USB_SetDevAddress
 2016              		.syntax unified
 2017              		.code	16
 2018              		.thumb_func
 2019              		.fpu softvfp
 2021              	USB_SetDevAddress:
 2022              	.LVL206:
 2023              	.LFB56:
 604:Drivers/STM32F0xx_HAL_Driver/Src/stm32f0xx_ll_usb.c **** 
 605:Drivers/STM32F0xx_HAL_Driver/Src/stm32f0xx_ll_usb.c **** /**
 606:Drivers/STM32F0xx_HAL_Driver/Src/stm32f0xx_ll_usb.c ****   * @brief  USB_SetDevAddress : Stop the usb device mode
 607:Drivers/STM32F0xx_HAL_Driver/Src/stm32f0xx_ll_usb.c ****   * @param  USBx : Selected device
 608:Drivers/STM32F0xx_HAL_Driver/Src/stm32f0xx_ll_usb.c ****   * @param  address : new device address to be assigned
 609:Drivers/STM32F0xx_HAL_Driver/Src/stm32f0xx_ll_usb.c ****   *          This parameter can be a value from 0 to 255
 610:Drivers/STM32F0xx_HAL_Driver/Src/stm32f0xx_ll_usb.c ****   * @retval HAL status
 611:Drivers/STM32F0xx_HAL_Driver/Src/stm32f0xx_ll_usb.c ****   */
 612:Drivers/STM32F0xx_HAL_Driver/Src/stm32f0xx_ll_usb.c **** HAL_StatusTypeDef  USB_SetDevAddress(USB_TypeDef *USBx, uint8_t address)
 613:Drivers/STM32F0xx_HAL_Driver/Src/stm32f0xx_ll_usb.c **** {
 2024              		.loc 1 613 1 is_stmt 1 view -0
 2025              		.cfi_startproc
 2026              		@ args = 0, pretend = 0, frame = 0
 2027              		@ frame_needed = 0, uses_anonymous_args = 0
 2028              		@ link register save eliminated.
 614:Drivers/STM32F0xx_HAL_Driver/Src/stm32f0xx_ll_usb.c ****   if (address == 0U)
 2029              		.loc 1 614 3 view .LVU599
 2030              		.loc 1 614 6 is_stmt 0 view .LVU600
 2031 0000 0029     		cmp	r1, #0
 2032 0002 02D1     		bne	.L87
 615:Drivers/STM32F0xx_HAL_Driver/Src/stm32f0xx_ll_usb.c ****   {
 616:Drivers/STM32F0xx_HAL_Driver/Src/stm32f0xx_ll_usb.c ****     /* set device address and enable function */
 617:Drivers/STM32F0xx_HAL_Driver/Src/stm32f0xx_ll_usb.c ****     USBx->DADDR = USB_DADDR_EF;
 2033              		.loc 1 617 5 is_stmt 1 view .LVU601
 2034              		.loc 1 617 17 is_stmt 0 view .LVU602
 2035 0004 4C23     		movs	r3, #76
 2036 0006 8022     		movs	r2, #128
 2037 0008 C252     		strh	r2, [r0, r3]
 2038              	.L87:
ARM GAS  /tmp/ccF3DfVq.s 			page 52


 618:Drivers/STM32F0xx_HAL_Driver/Src/stm32f0xx_ll_usb.c ****   }
 619:Drivers/STM32F0xx_HAL_Driver/Src/stm32f0xx_ll_usb.c **** 
 620:Drivers/STM32F0xx_HAL_Driver/Src/stm32f0xx_ll_usb.c ****   return HAL_OK;
 2039              		.loc 1 620 3 is_stmt 1 view .LVU603
 621:Drivers/STM32F0xx_HAL_Driver/Src/stm32f0xx_ll_usb.c **** }
 2040              		.loc 1 621 1 is_stmt 0 view .LVU604
 2041 000a 0020     		movs	r0, #0
 2042              	.LVL207:
 2043              		.loc 1 621 1 view .LVU605
 2044              		@ sp needed
 2045 000c 7047     		bx	lr
 2046              		.cfi_endproc
 2047              	.LFE56:
 2049              		.section	.text.USB_DevConnect,"ax",%progbits
 2050              		.align	1
 2051              		.global	USB_DevConnect
 2052              		.syntax unified
 2053              		.code	16
 2054              		.thumb_func
 2055              		.fpu softvfp
 2057              	USB_DevConnect:
 2058              	.LVL208:
 2059              	.LFB57:
 622:Drivers/STM32F0xx_HAL_Driver/Src/stm32f0xx_ll_usb.c **** 
 623:Drivers/STM32F0xx_HAL_Driver/Src/stm32f0xx_ll_usb.c **** /**
 624:Drivers/STM32F0xx_HAL_Driver/Src/stm32f0xx_ll_usb.c ****   * @brief  USB_DevConnect : Connect the USB device by enabling the pull-up/pull-down
 625:Drivers/STM32F0xx_HAL_Driver/Src/stm32f0xx_ll_usb.c ****   * @param  USBx : Selected device
 626:Drivers/STM32F0xx_HAL_Driver/Src/stm32f0xx_ll_usb.c ****   * @retval HAL status
 627:Drivers/STM32F0xx_HAL_Driver/Src/stm32f0xx_ll_usb.c ****   */
 628:Drivers/STM32F0xx_HAL_Driver/Src/stm32f0xx_ll_usb.c **** HAL_StatusTypeDef  USB_DevConnect(USB_TypeDef *USBx)
 629:Drivers/STM32F0xx_HAL_Driver/Src/stm32f0xx_ll_usb.c **** {
 2060              		.loc 1 629 1 is_stmt 1 view -0
 2061              		.cfi_startproc
 2062              		@ args = 0, pretend = 0, frame = 0
 2063              		@ frame_needed = 0, uses_anonymous_args = 0
 2064              		@ link register save eliminated.
 630:Drivers/STM32F0xx_HAL_Driver/Src/stm32f0xx_ll_usb.c ****   /* Enabling DP Pull-UP bit to Connect internal PU resistor on USB DP line */
 631:Drivers/STM32F0xx_HAL_Driver/Src/stm32f0xx_ll_usb.c ****   USBx->BCDR |= USB_BCDR_DPPU;
 2065              		.loc 1 631 3 view .LVU607
 2066              		.loc 1 631 14 is_stmt 0 view .LVU608
 2067 0000 5822     		movs	r2, #88
 2068 0002 835A     		ldrh	r3, [r0, r2]
 2069 0004 0249     		ldr	r1, .L89
 2070 0006 0B43     		orrs	r3, r1
 2071 0008 9BB2     		uxth	r3, r3
 2072 000a 8352     		strh	r3, [r0, r2]
 632:Drivers/STM32F0xx_HAL_Driver/Src/stm32f0xx_ll_usb.c **** 
 633:Drivers/STM32F0xx_HAL_Driver/Src/stm32f0xx_ll_usb.c ****   return HAL_OK;
 2073              		.loc 1 633 3 is_stmt 1 view .LVU609
 634:Drivers/STM32F0xx_HAL_Driver/Src/stm32f0xx_ll_usb.c **** }
 2074              		.loc 1 634 1 is_stmt 0 view .LVU610
 2075 000c 0020     		movs	r0, #0
 2076              	.LVL209:
 2077              		.loc 1 634 1 view .LVU611
 2078              		@ sp needed
 2079 000e 7047     		bx	lr
 2080              	.L90:
ARM GAS  /tmp/ccF3DfVq.s 			page 53


 2081              		.align	2
 2082              	.L89:
 2083 0010 0080FFFF 		.word	-32768
 2084              		.cfi_endproc
 2085              	.LFE57:
 2087              		.section	.text.USB_DevDisconnect,"ax",%progbits
 2088              		.align	1
 2089              		.global	USB_DevDisconnect
 2090              		.syntax unified
 2091              		.code	16
 2092              		.thumb_func
 2093              		.fpu softvfp
 2095              	USB_DevDisconnect:
 2096              	.LVL210:
 2097              	.LFB58:
 635:Drivers/STM32F0xx_HAL_Driver/Src/stm32f0xx_ll_usb.c **** 
 636:Drivers/STM32F0xx_HAL_Driver/Src/stm32f0xx_ll_usb.c **** /**
 637:Drivers/STM32F0xx_HAL_Driver/Src/stm32f0xx_ll_usb.c ****   * @brief  USB_DevDisconnect : Disconnect the USB device by disabling the pull-up/pull-down
 638:Drivers/STM32F0xx_HAL_Driver/Src/stm32f0xx_ll_usb.c ****   * @param  USBx : Selected device
 639:Drivers/STM32F0xx_HAL_Driver/Src/stm32f0xx_ll_usb.c ****   * @retval HAL status
 640:Drivers/STM32F0xx_HAL_Driver/Src/stm32f0xx_ll_usb.c ****   */
 641:Drivers/STM32F0xx_HAL_Driver/Src/stm32f0xx_ll_usb.c **** HAL_StatusTypeDef  USB_DevDisconnect(USB_TypeDef *USBx)
 642:Drivers/STM32F0xx_HAL_Driver/Src/stm32f0xx_ll_usb.c **** {
 2098              		.loc 1 642 1 is_stmt 1 view -0
 2099              		.cfi_startproc
 2100              		@ args = 0, pretend = 0, frame = 0
 2101              		@ frame_needed = 0, uses_anonymous_args = 0
 2102              		@ link register save eliminated.
 643:Drivers/STM32F0xx_HAL_Driver/Src/stm32f0xx_ll_usb.c ****   /* Disable DP Pull-Up bit to disconnect the Internal PU resistor on USB DP line */
 644:Drivers/STM32F0xx_HAL_Driver/Src/stm32f0xx_ll_usb.c ****   USBx->BCDR &= (uint16_t)(~(USB_BCDR_DPPU));
 2103              		.loc 1 644 3 view .LVU613
 2104              		.loc 1 644 14 is_stmt 0 view .LVU614
 2105 0000 5822     		movs	r2, #88
 2106 0002 835A     		ldrh	r3, [r0, r2]
 2107 0004 5B04     		lsls	r3, r3, #17
 2108 0006 5B0C     		lsrs	r3, r3, #17
 2109 0008 8352     		strh	r3, [r0, r2]
 645:Drivers/STM32F0xx_HAL_Driver/Src/stm32f0xx_ll_usb.c **** 
 646:Drivers/STM32F0xx_HAL_Driver/Src/stm32f0xx_ll_usb.c ****   return HAL_OK;
 2110              		.loc 1 646 3 is_stmt 1 view .LVU615
 647:Drivers/STM32F0xx_HAL_Driver/Src/stm32f0xx_ll_usb.c **** }
 2111              		.loc 1 647 1 is_stmt 0 view .LVU616
 2112 000a 0020     		movs	r0, #0
 2113              	.LVL211:
 2114              		.loc 1 647 1 view .LVU617
 2115              		@ sp needed
 2116 000c 7047     		bx	lr
 2117              		.cfi_endproc
 2118              	.LFE58:
 2120              		.section	.text.USB_ReadInterrupts,"ax",%progbits
 2121              		.align	1
 2122              		.global	USB_ReadInterrupts
 2123              		.syntax unified
 2124              		.code	16
 2125              		.thumb_func
 2126              		.fpu softvfp
 2128              	USB_ReadInterrupts:
ARM GAS  /tmp/ccF3DfVq.s 			page 54


 2129              	.LVL212:
 2130              	.LFB59:
 648:Drivers/STM32F0xx_HAL_Driver/Src/stm32f0xx_ll_usb.c **** 
 649:Drivers/STM32F0xx_HAL_Driver/Src/stm32f0xx_ll_usb.c **** /**
 650:Drivers/STM32F0xx_HAL_Driver/Src/stm32f0xx_ll_usb.c ****   * @brief  USB_ReadInterrupts: return the global USB interrupt status
 651:Drivers/STM32F0xx_HAL_Driver/Src/stm32f0xx_ll_usb.c ****   * @param  USBx : Selected device
 652:Drivers/STM32F0xx_HAL_Driver/Src/stm32f0xx_ll_usb.c ****   * @retval HAL status
 653:Drivers/STM32F0xx_HAL_Driver/Src/stm32f0xx_ll_usb.c ****   */
 654:Drivers/STM32F0xx_HAL_Driver/Src/stm32f0xx_ll_usb.c **** uint32_t  USB_ReadInterrupts(USB_TypeDef *USBx)
 655:Drivers/STM32F0xx_HAL_Driver/Src/stm32f0xx_ll_usb.c **** {
 2131              		.loc 1 655 1 is_stmt 1 view -0
 2132              		.cfi_startproc
 2133              		@ args = 0, pretend = 0, frame = 0
 2134              		@ frame_needed = 0, uses_anonymous_args = 0
 2135              		@ link register save eliminated.
 656:Drivers/STM32F0xx_HAL_Driver/Src/stm32f0xx_ll_usb.c ****   uint32_t tmpreg;
 2136              		.loc 1 656 3 view .LVU619
 657:Drivers/STM32F0xx_HAL_Driver/Src/stm32f0xx_ll_usb.c **** 
 658:Drivers/STM32F0xx_HAL_Driver/Src/stm32f0xx_ll_usb.c ****   tmpreg = USBx->ISTR;
 2137              		.loc 1 658 3 view .LVU620
 2138              		.loc 1 658 16 is_stmt 0 view .LVU621
 2139 0000 4423     		movs	r3, #68
 2140 0002 C05A     		ldrh	r0, [r0, r3]
 2141              	.LVL213:
 2142              		.loc 1 658 16 view .LVU622
 2143 0004 80B2     		uxth	r0, r0
 2144              	.LVL214:
 659:Drivers/STM32F0xx_HAL_Driver/Src/stm32f0xx_ll_usb.c ****   return tmpreg;
 2145              		.loc 1 659 3 is_stmt 1 view .LVU623
 660:Drivers/STM32F0xx_HAL_Driver/Src/stm32f0xx_ll_usb.c **** }
 2146              		.loc 1 660 1 is_stmt 0 view .LVU624
 2147              		@ sp needed
 2148 0006 7047     		bx	lr
 2149              		.cfi_endproc
 2150              	.LFE59:
 2152              		.section	.text.USB_ReadDevAllOutEpInterrupt,"ax",%progbits
 2153              		.align	1
 2154              		.global	USB_ReadDevAllOutEpInterrupt
 2155              		.syntax unified
 2156              		.code	16
 2157              		.thumb_func
 2158              		.fpu softvfp
 2160              	USB_ReadDevAllOutEpInterrupt:
 2161              	.LVL215:
 2162              	.LFB60:
 661:Drivers/STM32F0xx_HAL_Driver/Src/stm32f0xx_ll_usb.c **** 
 662:Drivers/STM32F0xx_HAL_Driver/Src/stm32f0xx_ll_usb.c **** /**
 663:Drivers/STM32F0xx_HAL_Driver/Src/stm32f0xx_ll_usb.c ****   * @brief  USB_ReadDevAllOutEpInterrupt: return the USB device OUT endpoints interrupt status
 664:Drivers/STM32F0xx_HAL_Driver/Src/stm32f0xx_ll_usb.c ****   * @param  USBx : Selected device
 665:Drivers/STM32F0xx_HAL_Driver/Src/stm32f0xx_ll_usb.c ****   * @retval HAL status
 666:Drivers/STM32F0xx_HAL_Driver/Src/stm32f0xx_ll_usb.c ****   */
 667:Drivers/STM32F0xx_HAL_Driver/Src/stm32f0xx_ll_usb.c **** uint32_t USB_ReadDevAllOutEpInterrupt(USB_TypeDef *USBx)
 668:Drivers/STM32F0xx_HAL_Driver/Src/stm32f0xx_ll_usb.c **** {
 2163              		.loc 1 668 1 is_stmt 1 view -0
 2164              		.cfi_startproc
 2165              		@ args = 0, pretend = 0, frame = 0
 2166              		@ frame_needed = 0, uses_anonymous_args = 0
ARM GAS  /tmp/ccF3DfVq.s 			page 55


 2167              		@ link register save eliminated.
 669:Drivers/STM32F0xx_HAL_Driver/Src/stm32f0xx_ll_usb.c ****   /* Prevent unused argument(s) compilation warning */
 670:Drivers/STM32F0xx_HAL_Driver/Src/stm32f0xx_ll_usb.c ****   UNUSED(USBx);
 2168              		.loc 1 670 3 view .LVU626
 671:Drivers/STM32F0xx_HAL_Driver/Src/stm32f0xx_ll_usb.c ****   /* NOTE : - This function is not required by USB Device FS peripheral, it is used
 672:Drivers/STM32F0xx_HAL_Driver/Src/stm32f0xx_ll_usb.c ****               only by USB OTG FS peripheral.
 673:Drivers/STM32F0xx_HAL_Driver/Src/stm32f0xx_ll_usb.c ****             - This function is added to ensure compatibility across platforms.
 674:Drivers/STM32F0xx_HAL_Driver/Src/stm32f0xx_ll_usb.c ****    */
 675:Drivers/STM32F0xx_HAL_Driver/Src/stm32f0xx_ll_usb.c ****   return (0);
 2169              		.loc 1 675 3 view .LVU627
 676:Drivers/STM32F0xx_HAL_Driver/Src/stm32f0xx_ll_usb.c **** }
 2170              		.loc 1 676 1 is_stmt 0 view .LVU628
 2171 0000 0020     		movs	r0, #0
 2172              	.LVL216:
 2173              		.loc 1 676 1 view .LVU629
 2174              		@ sp needed
 2175 0002 7047     		bx	lr
 2176              		.cfi_endproc
 2177              	.LFE60:
 2179              		.section	.text.USB_ReadDevAllInEpInterrupt,"ax",%progbits
 2180              		.align	1
 2181              		.global	USB_ReadDevAllInEpInterrupt
 2182              		.syntax unified
 2183              		.code	16
 2184              		.thumb_func
 2185              		.fpu softvfp
 2187              	USB_ReadDevAllInEpInterrupt:
 2188              	.LVL217:
 2189              	.LFB61:
 677:Drivers/STM32F0xx_HAL_Driver/Src/stm32f0xx_ll_usb.c **** 
 678:Drivers/STM32F0xx_HAL_Driver/Src/stm32f0xx_ll_usb.c **** /**
 679:Drivers/STM32F0xx_HAL_Driver/Src/stm32f0xx_ll_usb.c ****   * @brief  USB_ReadDevAllInEpInterrupt: return the USB device IN endpoints interrupt status
 680:Drivers/STM32F0xx_HAL_Driver/Src/stm32f0xx_ll_usb.c ****   * @param  USBx : Selected device
 681:Drivers/STM32F0xx_HAL_Driver/Src/stm32f0xx_ll_usb.c ****   * @retval HAL status
 682:Drivers/STM32F0xx_HAL_Driver/Src/stm32f0xx_ll_usb.c ****   */
 683:Drivers/STM32F0xx_HAL_Driver/Src/stm32f0xx_ll_usb.c **** uint32_t USB_ReadDevAllInEpInterrupt(USB_TypeDef *USBx)
 684:Drivers/STM32F0xx_HAL_Driver/Src/stm32f0xx_ll_usb.c **** {
 2190              		.loc 1 684 1 is_stmt 1 view -0
 2191              		.cfi_startproc
 2192              		@ args = 0, pretend = 0, frame = 0
 2193              		@ frame_needed = 0, uses_anonymous_args = 0
 2194              		@ link register save eliminated.
 685:Drivers/STM32F0xx_HAL_Driver/Src/stm32f0xx_ll_usb.c ****   /* Prevent unused argument(s) compilation warning */
 686:Drivers/STM32F0xx_HAL_Driver/Src/stm32f0xx_ll_usb.c ****   UNUSED(USBx);
 2195              		.loc 1 686 3 view .LVU631
 687:Drivers/STM32F0xx_HAL_Driver/Src/stm32f0xx_ll_usb.c ****   /* NOTE : - This function is not required by USB Device FS peripheral, it is used
 688:Drivers/STM32F0xx_HAL_Driver/Src/stm32f0xx_ll_usb.c ****               only by USB OTG FS peripheral.
 689:Drivers/STM32F0xx_HAL_Driver/Src/stm32f0xx_ll_usb.c ****             - This function is added to ensure compatibility across platforms.
 690:Drivers/STM32F0xx_HAL_Driver/Src/stm32f0xx_ll_usb.c ****    */
 691:Drivers/STM32F0xx_HAL_Driver/Src/stm32f0xx_ll_usb.c ****   return (0);
 2196              		.loc 1 691 3 view .LVU632
 692:Drivers/STM32F0xx_HAL_Driver/Src/stm32f0xx_ll_usb.c **** }
 2197              		.loc 1 692 1 is_stmt 0 view .LVU633
 2198 0000 0020     		movs	r0, #0
 2199              	.LVL218:
 2200              		.loc 1 692 1 view .LVU634
 2201              		@ sp needed
ARM GAS  /tmp/ccF3DfVq.s 			page 56


 2202 0002 7047     		bx	lr
 2203              		.cfi_endproc
 2204              	.LFE61:
 2206              		.section	.text.USB_ReadDevOutEPInterrupt,"ax",%progbits
 2207              		.align	1
 2208              		.global	USB_ReadDevOutEPInterrupt
 2209              		.syntax unified
 2210              		.code	16
 2211              		.thumb_func
 2212              		.fpu softvfp
 2214              	USB_ReadDevOutEPInterrupt:
 2215              	.LVL219:
 2216              	.LFB62:
 693:Drivers/STM32F0xx_HAL_Driver/Src/stm32f0xx_ll_usb.c **** 
 694:Drivers/STM32F0xx_HAL_Driver/Src/stm32f0xx_ll_usb.c **** /**
 695:Drivers/STM32F0xx_HAL_Driver/Src/stm32f0xx_ll_usb.c ****   * @brief  Returns Device OUT EP Interrupt register
 696:Drivers/STM32F0xx_HAL_Driver/Src/stm32f0xx_ll_usb.c ****   * @param  USBx : Selected device
 697:Drivers/STM32F0xx_HAL_Driver/Src/stm32f0xx_ll_usb.c ****   * @param  epnum : endpoint number
 698:Drivers/STM32F0xx_HAL_Driver/Src/stm32f0xx_ll_usb.c ****   *          This parameter can be a value from 0 to 15
 699:Drivers/STM32F0xx_HAL_Driver/Src/stm32f0xx_ll_usb.c ****   * @retval Device OUT EP Interrupt register
 700:Drivers/STM32F0xx_HAL_Driver/Src/stm32f0xx_ll_usb.c ****   */
 701:Drivers/STM32F0xx_HAL_Driver/Src/stm32f0xx_ll_usb.c **** uint32_t USB_ReadDevOutEPInterrupt(USB_TypeDef *USBx, uint8_t epnum)
 702:Drivers/STM32F0xx_HAL_Driver/Src/stm32f0xx_ll_usb.c **** {
 2217              		.loc 1 702 1 is_stmt 1 view -0
 2218              		.cfi_startproc
 2219              		@ args = 0, pretend = 0, frame = 0
 2220              		@ frame_needed = 0, uses_anonymous_args = 0
 2221              		@ link register save eliminated.
 703:Drivers/STM32F0xx_HAL_Driver/Src/stm32f0xx_ll_usb.c ****   /* Prevent unused argument(s) compilation warning */
 704:Drivers/STM32F0xx_HAL_Driver/Src/stm32f0xx_ll_usb.c ****   UNUSED(USBx);
 2222              		.loc 1 704 3 view .LVU636
 705:Drivers/STM32F0xx_HAL_Driver/Src/stm32f0xx_ll_usb.c ****   UNUSED(epnum);
 2223              		.loc 1 705 3 view .LVU637
 706:Drivers/STM32F0xx_HAL_Driver/Src/stm32f0xx_ll_usb.c ****   /* NOTE : - This function is not required by USB Device FS peripheral, it is used
 707:Drivers/STM32F0xx_HAL_Driver/Src/stm32f0xx_ll_usb.c ****               only by USB OTG FS peripheral.
 708:Drivers/STM32F0xx_HAL_Driver/Src/stm32f0xx_ll_usb.c ****             - This function is added to ensure compatibility across platforms.
 709:Drivers/STM32F0xx_HAL_Driver/Src/stm32f0xx_ll_usb.c ****    */
 710:Drivers/STM32F0xx_HAL_Driver/Src/stm32f0xx_ll_usb.c ****   return (0);
 2224              		.loc 1 710 3 view .LVU638
 711:Drivers/STM32F0xx_HAL_Driver/Src/stm32f0xx_ll_usb.c **** }
 2225              		.loc 1 711 1 is_stmt 0 view .LVU639
 2226 0000 0020     		movs	r0, #0
 2227              	.LVL220:
 2228              		.loc 1 711 1 view .LVU640
 2229              		@ sp needed
 2230 0002 7047     		bx	lr
 2231              		.cfi_endproc
 2232              	.LFE62:
 2234              		.section	.text.USB_ReadDevInEPInterrupt,"ax",%progbits
 2235              		.align	1
 2236              		.global	USB_ReadDevInEPInterrupt
 2237              		.syntax unified
 2238              		.code	16
 2239              		.thumb_func
 2240              		.fpu softvfp
 2242              	USB_ReadDevInEPInterrupt:
 2243              	.LVL221:
ARM GAS  /tmp/ccF3DfVq.s 			page 57


 2244              	.LFB63:
 712:Drivers/STM32F0xx_HAL_Driver/Src/stm32f0xx_ll_usb.c **** 
 713:Drivers/STM32F0xx_HAL_Driver/Src/stm32f0xx_ll_usb.c **** /**
 714:Drivers/STM32F0xx_HAL_Driver/Src/stm32f0xx_ll_usb.c ****   * @brief  Returns Device IN EP Interrupt register
 715:Drivers/STM32F0xx_HAL_Driver/Src/stm32f0xx_ll_usb.c ****   * @param  USBx : Selected device
 716:Drivers/STM32F0xx_HAL_Driver/Src/stm32f0xx_ll_usb.c ****   * @param  epnum : endpoint number
 717:Drivers/STM32F0xx_HAL_Driver/Src/stm32f0xx_ll_usb.c ****   *          This parameter can be a value from 0 to 15
 718:Drivers/STM32F0xx_HAL_Driver/Src/stm32f0xx_ll_usb.c ****   * @retval Device IN EP Interrupt register
 719:Drivers/STM32F0xx_HAL_Driver/Src/stm32f0xx_ll_usb.c ****   */
 720:Drivers/STM32F0xx_HAL_Driver/Src/stm32f0xx_ll_usb.c **** uint32_t USB_ReadDevInEPInterrupt(USB_TypeDef *USBx, uint8_t epnum)
 721:Drivers/STM32F0xx_HAL_Driver/Src/stm32f0xx_ll_usb.c **** {
 2245              		.loc 1 721 1 is_stmt 1 view -0
 2246              		.cfi_startproc
 2247              		@ args = 0, pretend = 0, frame = 0
 2248              		@ frame_needed = 0, uses_anonymous_args = 0
 2249              		@ link register save eliminated.
 722:Drivers/STM32F0xx_HAL_Driver/Src/stm32f0xx_ll_usb.c ****   /* Prevent unused argument(s) compilation warning */
 723:Drivers/STM32F0xx_HAL_Driver/Src/stm32f0xx_ll_usb.c ****   UNUSED(USBx);
 2250              		.loc 1 723 3 view .LVU642
 724:Drivers/STM32F0xx_HAL_Driver/Src/stm32f0xx_ll_usb.c ****   UNUSED(epnum);
 2251              		.loc 1 724 3 view .LVU643
 725:Drivers/STM32F0xx_HAL_Driver/Src/stm32f0xx_ll_usb.c ****   /* NOTE : - This function is not required by USB Device FS peripheral, it is used
 726:Drivers/STM32F0xx_HAL_Driver/Src/stm32f0xx_ll_usb.c ****               only by USB OTG FS peripheral.
 727:Drivers/STM32F0xx_HAL_Driver/Src/stm32f0xx_ll_usb.c ****             - This function is added to ensure compatibility across platforms.
 728:Drivers/STM32F0xx_HAL_Driver/Src/stm32f0xx_ll_usb.c ****    */
 729:Drivers/STM32F0xx_HAL_Driver/Src/stm32f0xx_ll_usb.c ****   return (0);
 2252              		.loc 1 729 3 view .LVU644
 730:Drivers/STM32F0xx_HAL_Driver/Src/stm32f0xx_ll_usb.c **** }
 2253              		.loc 1 730 1 is_stmt 0 view .LVU645
 2254 0000 0020     		movs	r0, #0
 2255              	.LVL222:
 2256              		.loc 1 730 1 view .LVU646
 2257              		@ sp needed
 2258 0002 7047     		bx	lr
 2259              		.cfi_endproc
 2260              	.LFE63:
 2262              		.section	.text.USB_ClearInterrupts,"ax",%progbits
 2263              		.align	1
 2264              		.global	USB_ClearInterrupts
 2265              		.syntax unified
 2266              		.code	16
 2267              		.thumb_func
 2268              		.fpu softvfp
 2270              	USB_ClearInterrupts:
 2271              	.LVL223:
 2272              	.LFB64:
 731:Drivers/STM32F0xx_HAL_Driver/Src/stm32f0xx_ll_usb.c **** 
 732:Drivers/STM32F0xx_HAL_Driver/Src/stm32f0xx_ll_usb.c **** /**
 733:Drivers/STM32F0xx_HAL_Driver/Src/stm32f0xx_ll_usb.c ****   * @brief  USB_ClearInterrupts: clear a USB interrupt
 734:Drivers/STM32F0xx_HAL_Driver/Src/stm32f0xx_ll_usb.c ****   * @param  USBx  Selected device
 735:Drivers/STM32F0xx_HAL_Driver/Src/stm32f0xx_ll_usb.c ****   * @param  interrupt  interrupt flag
 736:Drivers/STM32F0xx_HAL_Driver/Src/stm32f0xx_ll_usb.c ****   * @retval None
 737:Drivers/STM32F0xx_HAL_Driver/Src/stm32f0xx_ll_usb.c ****   */
 738:Drivers/STM32F0xx_HAL_Driver/Src/stm32f0xx_ll_usb.c **** void  USB_ClearInterrupts(USB_TypeDef *USBx, uint32_t interrupt)
 739:Drivers/STM32F0xx_HAL_Driver/Src/stm32f0xx_ll_usb.c **** {
 2273              		.loc 1 739 1 is_stmt 1 view -0
 2274              		.cfi_startproc
ARM GAS  /tmp/ccF3DfVq.s 			page 58


 2275              		@ args = 0, pretend = 0, frame = 0
 2276              		@ frame_needed = 0, uses_anonymous_args = 0
 2277              		@ link register save eliminated.
 740:Drivers/STM32F0xx_HAL_Driver/Src/stm32f0xx_ll_usb.c ****   /* Prevent unused argument(s) compilation warning */
 741:Drivers/STM32F0xx_HAL_Driver/Src/stm32f0xx_ll_usb.c ****   UNUSED(USBx);
 2278              		.loc 1 741 3 view .LVU648
 742:Drivers/STM32F0xx_HAL_Driver/Src/stm32f0xx_ll_usb.c ****   UNUSED(interrupt);
 2279              		.loc 1 742 3 view .LVU649
 743:Drivers/STM32F0xx_HAL_Driver/Src/stm32f0xx_ll_usb.c ****   /* NOTE : - This function is not required by USB Device FS peripheral, it is used
 744:Drivers/STM32F0xx_HAL_Driver/Src/stm32f0xx_ll_usb.c ****               only by USB OTG FS peripheral.
 745:Drivers/STM32F0xx_HAL_Driver/Src/stm32f0xx_ll_usb.c ****             - This function is added to ensure compatibility across platforms.
 746:Drivers/STM32F0xx_HAL_Driver/Src/stm32f0xx_ll_usb.c ****    */
 747:Drivers/STM32F0xx_HAL_Driver/Src/stm32f0xx_ll_usb.c **** }
 2280              		.loc 1 747 1 is_stmt 0 view .LVU650
 2281              		@ sp needed
 2282 0000 7047     		bx	lr
 2283              		.cfi_endproc
 2284              	.LFE64:
 2286              		.section	.text.USB_EP0_OutStart,"ax",%progbits
 2287              		.align	1
 2288              		.global	USB_EP0_OutStart
 2289              		.syntax unified
 2290              		.code	16
 2291              		.thumb_func
 2292              		.fpu softvfp
 2294              	USB_EP0_OutStart:
 2295              	.LVL224:
 2296              	.LFB65:
 748:Drivers/STM32F0xx_HAL_Driver/Src/stm32f0xx_ll_usb.c **** 
 749:Drivers/STM32F0xx_HAL_Driver/Src/stm32f0xx_ll_usb.c **** /**
 750:Drivers/STM32F0xx_HAL_Driver/Src/stm32f0xx_ll_usb.c ****   * @brief  Prepare the EP0 to start the first control setup
 751:Drivers/STM32F0xx_HAL_Driver/Src/stm32f0xx_ll_usb.c ****   * @param  USBx  Selected device
 752:Drivers/STM32F0xx_HAL_Driver/Src/stm32f0xx_ll_usb.c ****   * @param  psetup  pointer to setup packet
 753:Drivers/STM32F0xx_HAL_Driver/Src/stm32f0xx_ll_usb.c ****   * @retval HAL status
 754:Drivers/STM32F0xx_HAL_Driver/Src/stm32f0xx_ll_usb.c ****   */
 755:Drivers/STM32F0xx_HAL_Driver/Src/stm32f0xx_ll_usb.c **** HAL_StatusTypeDef USB_EP0_OutStart(USB_TypeDef *USBx, uint8_t *psetup)
 756:Drivers/STM32F0xx_HAL_Driver/Src/stm32f0xx_ll_usb.c **** {
 2297              		.loc 1 756 1 is_stmt 1 view -0
 2298              		.cfi_startproc
 2299              		@ args = 0, pretend = 0, frame = 0
 2300              		@ frame_needed = 0, uses_anonymous_args = 0
 2301              		@ link register save eliminated.
 757:Drivers/STM32F0xx_HAL_Driver/Src/stm32f0xx_ll_usb.c ****   /* Prevent unused argument(s) compilation warning */
 758:Drivers/STM32F0xx_HAL_Driver/Src/stm32f0xx_ll_usb.c ****   UNUSED(USBx);
 2302              		.loc 1 758 3 view .LVU652
 759:Drivers/STM32F0xx_HAL_Driver/Src/stm32f0xx_ll_usb.c ****   UNUSED(psetup);
 2303              		.loc 1 759 3 view .LVU653
 760:Drivers/STM32F0xx_HAL_Driver/Src/stm32f0xx_ll_usb.c ****   /* NOTE : - This function is not required by USB Device FS peripheral, it is used
 761:Drivers/STM32F0xx_HAL_Driver/Src/stm32f0xx_ll_usb.c ****               only by USB OTG FS peripheral.
 762:Drivers/STM32F0xx_HAL_Driver/Src/stm32f0xx_ll_usb.c ****             - This function is added to ensure compatibility across platforms.
 763:Drivers/STM32F0xx_HAL_Driver/Src/stm32f0xx_ll_usb.c ****    */
 764:Drivers/STM32F0xx_HAL_Driver/Src/stm32f0xx_ll_usb.c ****   return HAL_OK;
 2304              		.loc 1 764 3 view .LVU654
 765:Drivers/STM32F0xx_HAL_Driver/Src/stm32f0xx_ll_usb.c **** }
 2305              		.loc 1 765 1 is_stmt 0 view .LVU655
 2306 0000 0020     		movs	r0, #0
 2307              	.LVL225:
ARM GAS  /tmp/ccF3DfVq.s 			page 59


 2308              		.loc 1 765 1 view .LVU656
 2309              		@ sp needed
 2310 0002 7047     		bx	lr
 2311              		.cfi_endproc
 2312              	.LFE65:
 2314              		.section	.text.USB_ActivateRemoteWakeup,"ax",%progbits
 2315              		.align	1
 2316              		.global	USB_ActivateRemoteWakeup
 2317              		.syntax unified
 2318              		.code	16
 2319              		.thumb_func
 2320              		.fpu softvfp
 2322              	USB_ActivateRemoteWakeup:
 2323              	.LVL226:
 2324              	.LFB66:
 766:Drivers/STM32F0xx_HAL_Driver/Src/stm32f0xx_ll_usb.c **** 
 767:Drivers/STM32F0xx_HAL_Driver/Src/stm32f0xx_ll_usb.c **** /**
 768:Drivers/STM32F0xx_HAL_Driver/Src/stm32f0xx_ll_usb.c ****   * @brief  USB_ActivateRemoteWakeup : active remote wakeup signalling
 769:Drivers/STM32F0xx_HAL_Driver/Src/stm32f0xx_ll_usb.c ****   * @param  USBx  Selected device
 770:Drivers/STM32F0xx_HAL_Driver/Src/stm32f0xx_ll_usb.c ****   * @retval HAL status
 771:Drivers/STM32F0xx_HAL_Driver/Src/stm32f0xx_ll_usb.c ****   */
 772:Drivers/STM32F0xx_HAL_Driver/Src/stm32f0xx_ll_usb.c **** HAL_StatusTypeDef USB_ActivateRemoteWakeup(USB_TypeDef *USBx)
 773:Drivers/STM32F0xx_HAL_Driver/Src/stm32f0xx_ll_usb.c **** {
 2325              		.loc 1 773 1 is_stmt 1 view -0
 2326              		.cfi_startproc
 2327              		@ args = 0, pretend = 0, frame = 0
 2328              		@ frame_needed = 0, uses_anonymous_args = 0
 2329              		@ link register save eliminated.
 774:Drivers/STM32F0xx_HAL_Driver/Src/stm32f0xx_ll_usb.c ****   USBx->CNTR |= USB_CNTR_RESUME;
 2330              		.loc 1 774 3 view .LVU658
 2331              		.loc 1 774 14 is_stmt 0 view .LVU659
 2332 0000 4022     		movs	r2, #64
 2333 0002 835A     		ldrh	r3, [r0, r2]
 2334 0004 1021     		movs	r1, #16
 2335 0006 0B43     		orrs	r3, r1
 2336 0008 9BB2     		uxth	r3, r3
 2337 000a 8352     		strh	r3, [r0, r2]
 775:Drivers/STM32F0xx_HAL_Driver/Src/stm32f0xx_ll_usb.c **** 
 776:Drivers/STM32F0xx_HAL_Driver/Src/stm32f0xx_ll_usb.c ****   return HAL_OK;
 2338              		.loc 1 776 3 is_stmt 1 view .LVU660
 777:Drivers/STM32F0xx_HAL_Driver/Src/stm32f0xx_ll_usb.c **** }
 2339              		.loc 1 777 1 is_stmt 0 view .LVU661
 2340 000c 0020     		movs	r0, #0
 2341              	.LVL227:
 2342              		.loc 1 777 1 view .LVU662
 2343              		@ sp needed
 2344 000e 7047     		bx	lr
 2345              		.cfi_endproc
 2346              	.LFE66:
 2348              		.section	.text.USB_DeActivateRemoteWakeup,"ax",%progbits
 2349              		.align	1
 2350              		.global	USB_DeActivateRemoteWakeup
 2351              		.syntax unified
 2352              		.code	16
 2353              		.thumb_func
 2354              		.fpu softvfp
 2356              	USB_DeActivateRemoteWakeup:
ARM GAS  /tmp/ccF3DfVq.s 			page 60


 2357              	.LVL228:
 2358              	.LFB67:
 778:Drivers/STM32F0xx_HAL_Driver/Src/stm32f0xx_ll_usb.c **** 
 779:Drivers/STM32F0xx_HAL_Driver/Src/stm32f0xx_ll_usb.c **** /**
 780:Drivers/STM32F0xx_HAL_Driver/Src/stm32f0xx_ll_usb.c ****   * @brief  USB_DeActivateRemoteWakeup : de-active remote wakeup signalling
 781:Drivers/STM32F0xx_HAL_Driver/Src/stm32f0xx_ll_usb.c ****   * @param  USBx  Selected device
 782:Drivers/STM32F0xx_HAL_Driver/Src/stm32f0xx_ll_usb.c ****   * @retval HAL status
 783:Drivers/STM32F0xx_HAL_Driver/Src/stm32f0xx_ll_usb.c ****   */
 784:Drivers/STM32F0xx_HAL_Driver/Src/stm32f0xx_ll_usb.c **** HAL_StatusTypeDef USB_DeActivateRemoteWakeup(USB_TypeDef *USBx)
 785:Drivers/STM32F0xx_HAL_Driver/Src/stm32f0xx_ll_usb.c **** {
 2359              		.loc 1 785 1 is_stmt 1 view -0
 2360              		.cfi_startproc
 2361              		@ args = 0, pretend = 0, frame = 0
 2362              		@ frame_needed = 0, uses_anonymous_args = 0
 2363              		@ link register save eliminated.
 786:Drivers/STM32F0xx_HAL_Driver/Src/stm32f0xx_ll_usb.c ****   USBx->CNTR &= ~(USB_CNTR_RESUME);
 2364              		.loc 1 786 3 view .LVU664
 2365              		.loc 1 786 14 is_stmt 0 view .LVU665
 2366 0000 4022     		movs	r2, #64
 2367 0002 835A     		ldrh	r3, [r0, r2]
 2368 0004 1021     		movs	r1, #16
 2369 0006 8B43     		bics	r3, r1
 2370 0008 8352     		strh	r3, [r0, r2]
 787:Drivers/STM32F0xx_HAL_Driver/Src/stm32f0xx_ll_usb.c ****   return HAL_OK;
 2371              		.loc 1 787 3 is_stmt 1 view .LVU666
 788:Drivers/STM32F0xx_HAL_Driver/Src/stm32f0xx_ll_usb.c **** }
 2372              		.loc 1 788 1 is_stmt 0 view .LVU667
 2373 000a 0020     		movs	r0, #0
 2374              	.LVL229:
 2375              		.loc 1 788 1 view .LVU668
 2376              		@ sp needed
 2377 000c 7047     		bx	lr
 2378              		.cfi_endproc
 2379              	.LFE67:
 2381              		.section	.text.USB_WritePMA,"ax",%progbits
 2382              		.align	1
 2383              		.global	USB_WritePMA
 2384              		.syntax unified
 2385              		.code	16
 2386              		.thumb_func
 2387              		.fpu softvfp
 2389              	USB_WritePMA:
 2390              	.LVL230:
 2391              	.LFB68:
 789:Drivers/STM32F0xx_HAL_Driver/Src/stm32f0xx_ll_usb.c **** 
 790:Drivers/STM32F0xx_HAL_Driver/Src/stm32f0xx_ll_usb.c **** /**
 791:Drivers/STM32F0xx_HAL_Driver/Src/stm32f0xx_ll_usb.c ****   * @brief Copy a buffer from user memory area to packet memory area (PMA)
 792:Drivers/STM32F0xx_HAL_Driver/Src/stm32f0xx_ll_usb.c ****   * @param   USBx USB peripheral instance register address.
 793:Drivers/STM32F0xx_HAL_Driver/Src/stm32f0xx_ll_usb.c ****   * @param   pbUsrBuf pointer to user memory area.
 794:Drivers/STM32F0xx_HAL_Driver/Src/stm32f0xx_ll_usb.c ****   * @param   wPMABufAddr address into PMA.
 795:Drivers/STM32F0xx_HAL_Driver/Src/stm32f0xx_ll_usb.c ****   * @param   wNBytes: no. of bytes to be copied.
 796:Drivers/STM32F0xx_HAL_Driver/Src/stm32f0xx_ll_usb.c ****   * @retval None
 797:Drivers/STM32F0xx_HAL_Driver/Src/stm32f0xx_ll_usb.c ****   */
 798:Drivers/STM32F0xx_HAL_Driver/Src/stm32f0xx_ll_usb.c **** void USB_WritePMA(USB_TypeDef *USBx, uint8_t *pbUsrBuf, uint16_t wPMABufAddr, uint16_t wNBytes)
 799:Drivers/STM32F0xx_HAL_Driver/Src/stm32f0xx_ll_usb.c **** {
 2392              		.loc 1 799 1 is_stmt 1 view -0
 2393              		.cfi_startproc
ARM GAS  /tmp/ccF3DfVq.s 			page 61


 2394              		@ args = 0, pretend = 0, frame = 0
 2395              		@ frame_needed = 0, uses_anonymous_args = 0
 2396              		.loc 1 799 1 is_stmt 0 view .LVU670
 2397 0000 10B5     		push	{r4, lr}
 2398              	.LCFI6:
 2399              		.cfi_def_cfa_offset 8
 2400              		.cfi_offset 4, -8
 2401              		.cfi_offset 14, -4
 800:Drivers/STM32F0xx_HAL_Driver/Src/stm32f0xx_ll_usb.c ****   uint32_t n = ((uint32_t)wNBytes + 1U) >> 1;
 2402              		.loc 1 800 3 is_stmt 1 view .LVU671
 2403              		.loc 1 800 35 is_stmt 0 view .LVU672
 2404 0002 0133     		adds	r3, r3, #1
 2405              	.LVL231:
 2406              		.loc 1 800 12 view .LVU673
 2407 0004 5B08     		lsrs	r3, r3, #1
 2408              	.LVL232:
 801:Drivers/STM32F0xx_HAL_Driver/Src/stm32f0xx_ll_usb.c ****   uint32_t BaseAddr = (uint32_t)USBx;
 2409              		.loc 1 801 3 is_stmt 1 view .LVU674
 802:Drivers/STM32F0xx_HAL_Driver/Src/stm32f0xx_ll_usb.c ****   uint32_t i, temp1, temp2;
 2410              		.loc 1 802 3 view .LVU675
 803:Drivers/STM32F0xx_HAL_Driver/Src/stm32f0xx_ll_usb.c ****   __IO uint16_t *pdwVal;
 2411              		.loc 1 803 3 view .LVU676
 804:Drivers/STM32F0xx_HAL_Driver/Src/stm32f0xx_ll_usb.c ****   uint8_t *pBuf = pbUsrBuf;
 2412              		.loc 1 804 3 view .LVU677
 805:Drivers/STM32F0xx_HAL_Driver/Src/stm32f0xx_ll_usb.c **** 
 806:Drivers/STM32F0xx_HAL_Driver/Src/stm32f0xx_ll_usb.c ****   pdwVal = (__IO uint16_t *)(BaseAddr + 0x400U + ((uint32_t)wPMABufAddr * PMA_ACCESS));
 2413              		.loc 1 806 3 view .LVU678
 2414              		.loc 1 806 48 is_stmt 0 view .LVU679
 2415 0006 1218     		adds	r2, r2, r0
 2416              	.LVL233:
 2417              		.loc 1 806 48 view .LVU680
 2418 0008 8020     		movs	r0, #128
 2419              	.LVL234:
 2420              		.loc 1 806 48 view .LVU681
 2421 000a C000     		lsls	r0, r0, #3
 2422 000c 8446     		mov	ip, r0
 2423 000e 6244     		add	r2, r2, ip
 2424              	.LVL235:
 807:Drivers/STM32F0xx_HAL_Driver/Src/stm32f0xx_ll_usb.c **** 
 808:Drivers/STM32F0xx_HAL_Driver/Src/stm32f0xx_ll_usb.c ****   for (i = n; i != 0U; i--)
 2425              		.loc 1 808 3 is_stmt 1 view .LVU682
 2426              		.loc 1 808 3 is_stmt 0 view .LVU683
 2427 0010 07E0     		b	.L102
 2428              	.LVL236:
 2429              	.L103:
 809:Drivers/STM32F0xx_HAL_Driver/Src/stm32f0xx_ll_usb.c ****   {
 810:Drivers/STM32F0xx_HAL_Driver/Src/stm32f0xx_ll_usb.c ****     temp1 = *pBuf;
 2430              		.loc 1 810 5 is_stmt 1 discriminator 3 view .LVU684
 2431              		.loc 1 810 13 is_stmt 0 discriminator 3 view .LVU685
 2432 0012 0878     		ldrb	r0, [r1]
 2433              	.LVL237:
 811:Drivers/STM32F0xx_HAL_Driver/Src/stm32f0xx_ll_usb.c ****     pBuf++;
 2434              		.loc 1 811 5 is_stmt 1 discriminator 3 view .LVU686
 812:Drivers/STM32F0xx_HAL_Driver/Src/stm32f0xx_ll_usb.c ****     temp2 = temp1 | ((uint16_t)((uint16_t) *pBuf << 8));
 2435              		.loc 1 812 5 discriminator 3 view .LVU687
 2436              		.loc 1 812 44 is_stmt 0 discriminator 3 view .LVU688
 2437 0014 4C78     		ldrb	r4, [r1, #1]
ARM GAS  /tmp/ccF3DfVq.s 			page 62


 2438              		.loc 1 812 22 discriminator 3 view .LVU689
 2439 0016 2402     		lsls	r4, r4, #8
 2440              	.LVL238:
 813:Drivers/STM32F0xx_HAL_Driver/Src/stm32f0xx_ll_usb.c ****     *pdwVal = (uint16_t)temp2;
 2441              		.loc 1 813 5 is_stmt 1 discriminator 3 view .LVU690
 2442              		.loc 1 813 15 is_stmt 0 discriminator 3 view .LVU691
 2443 0018 0443     		orrs	r4, r0
 2444              	.LVL239:
 2445              		.loc 1 813 13 discriminator 3 view .LVU692
 2446 001a 1480     		strh	r4, [r2]
 814:Drivers/STM32F0xx_HAL_Driver/Src/stm32f0xx_ll_usb.c ****     pdwVal++;
 2447              		.loc 1 814 5 is_stmt 1 discriminator 3 view .LVU693
 2448              		.loc 1 814 11 is_stmt 0 discriminator 3 view .LVU694
 2449 001c 0232     		adds	r2, r2, #2
 2450              	.LVL240:
 815:Drivers/STM32F0xx_HAL_Driver/Src/stm32f0xx_ll_usb.c **** 
 816:Drivers/STM32F0xx_HAL_Driver/Src/stm32f0xx_ll_usb.c **** #if PMA_ACCESS > 1U
 817:Drivers/STM32F0xx_HAL_Driver/Src/stm32f0xx_ll_usb.c ****     pdwVal++;
 818:Drivers/STM32F0xx_HAL_Driver/Src/stm32f0xx_ll_usb.c **** #endif
 819:Drivers/STM32F0xx_HAL_Driver/Src/stm32f0xx_ll_usb.c **** 
 820:Drivers/STM32F0xx_HAL_Driver/Src/stm32f0xx_ll_usb.c ****     pBuf++;
 2451              		.loc 1 820 5 is_stmt 1 discriminator 3 view .LVU695
 2452              		.loc 1 820 9 is_stmt 0 discriminator 3 view .LVU696
 2453 001e 0231     		adds	r1, r1, #2
 2454              	.LVL241:
 808:Drivers/STM32F0xx_HAL_Driver/Src/stm32f0xx_ll_usb.c ****   {
 2455              		.loc 1 808 25 is_stmt 1 discriminator 3 view .LVU697
 2456 0020 013B     		subs	r3, r3, #1
 2457              	.LVL242:
 2458              	.L102:
 808:Drivers/STM32F0xx_HAL_Driver/Src/stm32f0xx_ll_usb.c ****   {
 2459              		.loc 1 808 17 discriminator 1 view .LVU698
 2460 0022 002B     		cmp	r3, #0
 2461 0024 F5D1     		bne	.L103
 821:Drivers/STM32F0xx_HAL_Driver/Src/stm32f0xx_ll_usb.c ****   }
 822:Drivers/STM32F0xx_HAL_Driver/Src/stm32f0xx_ll_usb.c **** }
 2462              		.loc 1 822 1 is_stmt 0 view .LVU699
 2463              		@ sp needed
 2464 0026 10BD     		pop	{r4, pc}
 2465              		.cfi_endproc
 2466              	.LFE68:
 2468              		.section	.text.USB_EPStartXfer,"ax",%progbits
 2469              		.align	1
 2470              		.global	USB_EPStartXfer
 2471              		.syntax unified
 2472              		.code	16
 2473              		.thumb_func
 2474              		.fpu softvfp
 2476              	USB_EPStartXfer:
 2477              	.LVL243:
 2478              	.LFB50:
 412:Drivers/STM32F0xx_HAL_Driver/Src/stm32f0xx_ll_usb.c ****   uint16_t pmabuffer;
 2479              		.loc 1 412 1 is_stmt 1 view -0
 2480              		.cfi_startproc
 2481              		@ args = 0, pretend = 0, frame = 0
 2482              		@ frame_needed = 0, uses_anonymous_args = 0
 412:Drivers/STM32F0xx_HAL_Driver/Src/stm32f0xx_ll_usb.c ****   uint16_t pmabuffer;
ARM GAS  /tmp/ccF3DfVq.s 			page 63


 2483              		.loc 1 412 1 is_stmt 0 view .LVU701
 2484 0000 70B5     		push	{r4, r5, r6, lr}
 2485              	.LCFI7:
 2486              		.cfi_def_cfa_offset 16
 2487              		.cfi_offset 4, -16
 2488              		.cfi_offset 5, -12
 2489              		.cfi_offset 6, -8
 2490              		.cfi_offset 14, -4
 2491 0002 0500     		movs	r5, r0
 2492 0004 0C00     		movs	r4, r1
 413:Drivers/STM32F0xx_HAL_Driver/Src/stm32f0xx_ll_usb.c ****   uint32_t len;
 2493              		.loc 1 413 3 is_stmt 1 view .LVU702
 414:Drivers/STM32F0xx_HAL_Driver/Src/stm32f0xx_ll_usb.c **** 
 2494              		.loc 1 414 3 view .LVU703
 417:Drivers/STM32F0xx_HAL_Driver/Src/stm32f0xx_ll_usb.c ****   {
 2495              		.loc 1 417 3 view .LVU704
 417:Drivers/STM32F0xx_HAL_Driver/Src/stm32f0xx_ll_usb.c ****   {
 2496              		.loc 1 417 9 is_stmt 0 view .LVU705
 2497 0006 4978     		ldrb	r1, [r1, #1]
 2498              	.LVL244:
 417:Drivers/STM32F0xx_HAL_Driver/Src/stm32f0xx_ll_usb.c ****   {
 2499              		.loc 1 417 6 view .LVU706
 2500 0008 0129     		cmp	r1, #1
 2501 000a 2CD0     		beq	.L154
 461:Drivers/STM32F0xx_HAL_Driver/Src/stm32f0xx_ll_usb.c ****     {
 2502              		.loc 1 461 5 is_stmt 1 view .LVU707
 461:Drivers/STM32F0xx_HAL_Driver/Src/stm32f0xx_ll_usb.c ****     {
 2503              		.loc 1 461 11 is_stmt 0 view .LVU708
 2504 000c A269     		ldr	r2, [r4, #24]
 461:Drivers/STM32F0xx_HAL_Driver/Src/stm32f0xx_ll_usb.c ****     {
 2505              		.loc 1 461 26 view .LVU709
 2506 000e 2369     		ldr	r3, [r4, #16]
 461:Drivers/STM32F0xx_HAL_Driver/Src/stm32f0xx_ll_usb.c ****     {
 2507              		.loc 1 461 8 view .LVU710
 2508 0010 9A42     		cmp	r2, r3
 2509 0012 00D8     		bhi	.LCB2429
 2510 0014 DCE0     		b	.L126	@long jump
 2511              	.LCB2429:
 463:Drivers/STM32F0xx_HAL_Driver/Src/stm32f0xx_ll_usb.c ****       ep->xfer_len -= len;
 2512              		.loc 1 463 7 is_stmt 1 view .LVU711
 2513              	.LVL245:
 464:Drivers/STM32F0xx_HAL_Driver/Src/stm32f0xx_ll_usb.c ****     }
 2514              		.loc 1 464 7 view .LVU712
 464:Drivers/STM32F0xx_HAL_Driver/Src/stm32f0xx_ll_usb.c ****     }
 2515              		.loc 1 464 20 is_stmt 0 view .LVU713
 2516 0016 D21A     		subs	r2, r2, r3
 2517 0018 A261     		str	r2, [r4, #24]
 2518              	.L127:
 473:Drivers/STM32F0xx_HAL_Driver/Src/stm32f0xx_ll_usb.c ****     {
 2519              		.loc 1 473 5 is_stmt 1 view .LVU714
 473:Drivers/STM32F0xx_HAL_Driver/Src/stm32f0xx_ll_usb.c ****     {
 2520              		.loc 1 473 11 is_stmt 0 view .LVU715
 2521 001a 227B     		ldrb	r2, [r4, #12]
 473:Drivers/STM32F0xx_HAL_Driver/Src/stm32f0xx_ll_usb.c ****     {
 2522              		.loc 1 473 8 view .LVU716
 2523 001c 002A     		cmp	r2, #0
 2524 001e 00D0     		beq	.LCB2442
ARM GAS  /tmp/ccF3DfVq.s 			page 64


 2525 0020 EDE0     		b	.L128	@long jump
 2526              	.LCB2442:
 476:Drivers/STM32F0xx_HAL_Driver/Src/stm32f0xx_ll_usb.c ****     }
 2527              		.loc 1 476 7 is_stmt 1 view .LVU717
 2528              	.LBB62:
 476:Drivers/STM32F0xx_HAL_Driver/Src/stm32f0xx_ll_usb.c ****     }
 2529              		.loc 1 476 7 view .LVU718
 2530              	.LVL246:
 476:Drivers/STM32F0xx_HAL_Driver/Src/stm32f0xx_ll_usb.c ****     }
 2531              		.loc 1 476 7 view .LVU719
 476:Drivers/STM32F0xx_HAL_Driver/Src/stm32f0xx_ll_usb.c ****     }
 2532              		.loc 1 476 7 view .LVU720
 2533 0022 5032     		adds	r2, r2, #80
 2534 0024 A95A     		ldrh	r1, [r5, r2]
 2535 0026 6918     		adds	r1, r5, r1
 2536              	.LVL247:
 476:Drivers/STM32F0xx_HAL_Driver/Src/stm32f0xx_ll_usb.c ****     }
 2537              		.loc 1 476 7 view .LVU721
 2538 0028 2278     		ldrb	r2, [r4]
 2539 002a D200     		lsls	r2, r2, #3
 2540 002c 5218     		adds	r2, r2, r1
 2541 002e A349     		ldr	r1, .L156
 2542              	.LVL248:
 476:Drivers/STM32F0xx_HAL_Driver/Src/stm32f0xx_ll_usb.c ****     }
 2543              		.loc 1 476 7 is_stmt 0 view .LVU722
 2544 0030 8C46     		mov	ip, r1
 2545 0032 6244     		add	r2, r2, ip
 2546              	.LVL249:
 476:Drivers/STM32F0xx_HAL_Driver/Src/stm32f0xx_ll_usb.c ****     }
 2547              		.loc 1 476 7 is_stmt 1 view .LVU723
 2548              	.LBB63:
 476:Drivers/STM32F0xx_HAL_Driver/Src/stm32f0xx_ll_usb.c ****     }
 2549              		.loc 1 476 7 view .LVU724
 476:Drivers/STM32F0xx_HAL_Driver/Src/stm32f0xx_ll_usb.c ****     }
 2550              		.loc 1 476 7 view .LVU725
 2551 0034 002B     		cmp	r3, #0
 2552 0036 00D0     		beq	.LCB2469
 2553 0038 CEE0     		b	.L129	@long jump
 2554              	.LCB2469:
 476:Drivers/STM32F0xx_HAL_Driver/Src/stm32f0xx_ll_usb.c ****     }
 2555              		.loc 1 476 7 discriminator 1 view .LVU726
 2556 003a 1388     		ldrh	r3, [r2]
 2557              	.LVL250:
 476:Drivers/STM32F0xx_HAL_Driver/Src/stm32f0xx_ll_usb.c ****     }
 2558              		.loc 1 476 7 is_stmt 0 discriminator 1 view .LVU727
 2559 003c A049     		ldr	r1, .L156+4
 2560 003e 0B40     		ands	r3, r1
 2561 0040 1380     		strh	r3, [r2]
 476:Drivers/STM32F0xx_HAL_Driver/Src/stm32f0xx_ll_usb.c ****     }
 2562              		.loc 1 476 7 is_stmt 1 discriminator 1 view .LVU728
 2563 0042 A049     		ldr	r1, .L156+8
 2564 0044 0B43     		orrs	r3, r1
 2565 0046 1380     		strh	r3, [r2]
 2566              	.LVL251:
 2567              	.L130:
 476:Drivers/STM32F0xx_HAL_Driver/Src/stm32f0xx_ll_usb.c ****     }
 2568              		.loc 1 476 7 is_stmt 0 discriminator 1 view .LVU729
ARM GAS  /tmp/ccF3DfVq.s 			page 65


 2569              	.LBE63:
 2570              	.LBE62:
 481:Drivers/STM32F0xx_HAL_Driver/Src/stm32f0xx_ll_usb.c ****     }
 2571              		.loc 1 481 7 is_stmt 1 discriminator 36 view .LVU730
 481:Drivers/STM32F0xx_HAL_Driver/Src/stm32f0xx_ll_usb.c ****     }
 2572              		.loc 1 481 7 discriminator 36 view .LVU731
 484:Drivers/STM32F0xx_HAL_Driver/Src/stm32f0xx_ll_usb.c ****   }
 2573              		.loc 1 484 5 discriminator 36 view .LVU732
 2574              	.LBB65:
 484:Drivers/STM32F0xx_HAL_Driver/Src/stm32f0xx_ll_usb.c ****   }
 2575              		.loc 1 484 5 discriminator 36 view .LVU733
 484:Drivers/STM32F0xx_HAL_Driver/Src/stm32f0xx_ll_usb.c ****   }
 2576              		.loc 1 484 5 discriminator 36 view .LVU734
 2577 0048 2378     		ldrb	r3, [r4]
 2578 004a 9B00     		lsls	r3, r3, #2
 2579 004c ED18     		adds	r5, r5, r3
 2580              	.LVL252:
 484:Drivers/STM32F0xx_HAL_Driver/Src/stm32f0xx_ll_usb.c ****   }
 2581              		.loc 1 484 5 is_stmt 0 discriminator 36 view .LVU735
 2582 004e 2B88     		ldrh	r3, [r5]
 2583 0050 9D4A     		ldr	r2, .L156+12
 2584 0052 1340     		ands	r3, r2
 2585              	.LVL253:
 484:Drivers/STM32F0xx_HAL_Driver/Src/stm32f0xx_ll_usb.c ****   }
 2586              		.loc 1 484 5 is_stmt 1 discriminator 36 view .LVU736
 484:Drivers/STM32F0xx_HAL_Driver/Src/stm32f0xx_ll_usb.c ****   }
 2587              		.loc 1 484 5 discriminator 36 view .LVU737
 484:Drivers/STM32F0xx_HAL_Driver/Src/stm32f0xx_ll_usb.c ****   }
 2588              		.loc 1 484 5 discriminator 36 view .LVU738
 484:Drivers/STM32F0xx_HAL_Driver/Src/stm32f0xx_ll_usb.c ****   }
 2589              		.loc 1 484 5 discriminator 36 view .LVU739
 2590 0054 C022     		movs	r2, #192
 2591 0056 9201     		lsls	r2, r2, #6
 2592 0058 5A40     		eors	r2, r3
 2593              	.LVL254:
 484:Drivers/STM32F0xx_HAL_Driver/Src/stm32f0xx_ll_usb.c ****   }
 2594              		.loc 1 484 5 discriminator 36 view .LVU740
 2595 005a 9C4B     		ldr	r3, .L156+16
 2596 005c 1343     		orrs	r3, r2
 2597 005e 9BB2     		uxth	r3, r3
 2598 0060 2B80     		strh	r3, [r5]
 2599              	.LVL255:
 2600              	.L125:
 484:Drivers/STM32F0xx_HAL_Driver/Src/stm32f0xx_ll_usb.c ****   }
 2601              		.loc 1 484 5 is_stmt 0 discriminator 36 view .LVU741
 2602              	.LBE65:
 484:Drivers/STM32F0xx_HAL_Driver/Src/stm32f0xx_ll_usb.c ****   }
 2603              		.loc 1 484 5 is_stmt 1 discriminator 7 view .LVU742
 487:Drivers/STM32F0xx_HAL_Driver/Src/stm32f0xx_ll_usb.c **** }
 2604              		.loc 1 487 3 discriminator 7 view .LVU743
 488:Drivers/STM32F0xx_HAL_Driver/Src/stm32f0xx_ll_usb.c **** 
 2605              		.loc 1 488 1 is_stmt 0 discriminator 7 view .LVU744
 2606 0062 0020     		movs	r0, #0
 2607              		@ sp needed
 2608              	.LVL256:
 488:Drivers/STM32F0xx_HAL_Driver/Src/stm32f0xx_ll_usb.c **** 
 2609              		.loc 1 488 1 discriminator 7 view .LVU745
ARM GAS  /tmp/ccF3DfVq.s 			page 66


 2610 0064 70BD     		pop	{r4, r5, r6, pc}
 2611              	.LVL257:
 2612              	.L154:
 420:Drivers/STM32F0xx_HAL_Driver/Src/stm32f0xx_ll_usb.c ****     {
 2613              		.loc 1 420 5 is_stmt 1 view .LVU746
 420:Drivers/STM32F0xx_HAL_Driver/Src/stm32f0xx_ll_usb.c ****     {
 2614              		.loc 1 420 11 is_stmt 0 view .LVU747
 2615 0066 A269     		ldr	r2, [r4, #24]
 420:Drivers/STM32F0xx_HAL_Driver/Src/stm32f0xx_ll_usb.c ****     {
 2616              		.loc 1 420 26 view .LVU748
 2617 0068 2369     		ldr	r3, [r4, #16]
 420:Drivers/STM32F0xx_HAL_Driver/Src/stm32f0xx_ll_usb.c ****     {
 2618              		.loc 1 420 8 view .LVU749
 2619 006a 9A42     		cmp	r2, r3
 2620 006c 1ED9     		bls	.L106
 422:Drivers/STM32F0xx_HAL_Driver/Src/stm32f0xx_ll_usb.c ****       ep->xfer_len -= len;
 2621              		.loc 1 422 7 is_stmt 1 view .LVU750
 2622              	.LVL258:
 423:Drivers/STM32F0xx_HAL_Driver/Src/stm32f0xx_ll_usb.c ****     }
 2623              		.loc 1 423 7 view .LVU751
 423:Drivers/STM32F0xx_HAL_Driver/Src/stm32f0xx_ll_usb.c ****     }
 2624              		.loc 1 423 20 is_stmt 0 view .LVU752
 2625 006e D21A     		subs	r2, r2, r3
 2626 0070 A261     		str	r2, [r4, #24]
 2627              	.L107:
 432:Drivers/STM32F0xx_HAL_Driver/Src/stm32f0xx_ll_usb.c ****     {
 2628              		.loc 1 432 5 is_stmt 1 view .LVU753
 432:Drivers/STM32F0xx_HAL_Driver/Src/stm32f0xx_ll_usb.c ****     {
 2629              		.loc 1 432 11 is_stmt 0 view .LVU754
 2630 0072 227B     		ldrb	r2, [r4, #12]
 432:Drivers/STM32F0xx_HAL_Driver/Src/stm32f0xx_ll_usb.c ****     {
 2631              		.loc 1 432 8 view .LVU755
 2632 0074 002A     		cmp	r2, #0
 2633 0076 1DD0     		beq	.L155
 440:Drivers/STM32F0xx_HAL_Driver/Src/stm32f0xx_ll_usb.c ****       {
 2634              		.loc 1 440 7 is_stmt 1 view .LVU756
 440:Drivers/STM32F0xx_HAL_Driver/Src/stm32f0xx_ll_usb.c ****       {
 2635              		.loc 1 440 12 is_stmt 0 view .LVU757
 2636 0078 2278     		ldrb	r2, [r4]
 2637 007a 9000     		lsls	r0, r2, #2
 2638              	.LVL259:
 440:Drivers/STM32F0xx_HAL_Driver/Src/stm32f0xx_ll_usb.c ****       {
 2639              		.loc 1 440 12 view .LVU758
 2640 007c 2818     		adds	r0, r5, r0
 2641 007e 0088     		ldrh	r0, [r0]
 440:Drivers/STM32F0xx_HAL_Driver/Src/stm32f0xx_ll_usb.c ****       {
 2642              		.loc 1 440 10 view .LVU759
 2643 0080 4006     		lsls	r0, r0, #25
 2644 0082 66D5     		bpl	.L110
 443:Drivers/STM32F0xx_HAL_Driver/Src/stm32f0xx_ll_usb.c ****         pmabuffer = ep->pmaaddr1;
 2645              		.loc 1 443 9 is_stmt 1 view .LVU760
 2646              	.LBB66:
 443:Drivers/STM32F0xx_HAL_Driver/Src/stm32f0xx_ll_usb.c ****         pmabuffer = ep->pmaaddr1;
 2647              		.loc 1 443 9 view .LVU761
 2648              	.LVL260:
 443:Drivers/STM32F0xx_HAL_Driver/Src/stm32f0xx_ll_usb.c ****         pmabuffer = ep->pmaaddr1;
 2649              		.loc 1 443 9 view .LVU762
ARM GAS  /tmp/ccF3DfVq.s 			page 67


 443:Drivers/STM32F0xx_HAL_Driver/Src/stm32f0xx_ll_usb.c ****         pmabuffer = ep->pmaaddr1;
 2650              		.loc 1 443 9 view .LVU763
 2651 0084 0029     		cmp	r1, #0
 2652 0086 3AD1     		bne	.L111
 443:Drivers/STM32F0xx_HAL_Driver/Src/stm32f0xx_ll_usb.c ****         pmabuffer = ep->pmaaddr1;
 2653              		.loc 1 443 9 discriminator 1 view .LVU764
 2654              	.LBB67:
 443:Drivers/STM32F0xx_HAL_Driver/Src/stm32f0xx_ll_usb.c ****         pmabuffer = ep->pmaaddr1;
 2655              		.loc 1 443 9 discriminator 1 view .LVU765
 2656              	.LVL261:
 443:Drivers/STM32F0xx_HAL_Driver/Src/stm32f0xx_ll_usb.c ****         pmabuffer = ep->pmaaddr1;
 2657              		.loc 1 443 9 discriminator 1 view .LVU766
 443:Drivers/STM32F0xx_HAL_Driver/Src/stm32f0xx_ll_usb.c ****         pmabuffer = ep->pmaaddr1;
 2658              		.loc 1 443 9 discriminator 1 view .LVU767
 2659 0088 5031     		adds	r1, r1, #80
 2660 008a 695A     		ldrh	r1, [r5, r1]
 2661 008c 6918     		adds	r1, r5, r1
 2662              	.LVL262:
 443:Drivers/STM32F0xx_HAL_Driver/Src/stm32f0xx_ll_usb.c ****         pmabuffer = ep->pmaaddr1;
 2663              		.loc 1 443 9 discriminator 1 view .LVU768
 2664 008e D200     		lsls	r2, r2, #3
 2665 0090 5218     		adds	r2, r2, r1
 2666 0092 8A49     		ldr	r1, .L156
 2667              	.LVL263:
 443:Drivers/STM32F0xx_HAL_Driver/Src/stm32f0xx_ll_usb.c ****         pmabuffer = ep->pmaaddr1;
 2668              		.loc 1 443 9 is_stmt 0 discriminator 1 view .LVU769
 2669 0094 8C46     		mov	ip, r1
 2670 0096 6244     		add	r2, r2, ip
 2671              	.LVL264:
 443:Drivers/STM32F0xx_HAL_Driver/Src/stm32f0xx_ll_usb.c ****         pmabuffer = ep->pmaaddr1;
 2672              		.loc 1 443 9 is_stmt 1 discriminator 1 view .LVU770
 2673              	.LBB68:
 443:Drivers/STM32F0xx_HAL_Driver/Src/stm32f0xx_ll_usb.c ****         pmabuffer = ep->pmaaddr1;
 2674              		.loc 1 443 9 discriminator 1 view .LVU771
 443:Drivers/STM32F0xx_HAL_Driver/Src/stm32f0xx_ll_usb.c ****         pmabuffer = ep->pmaaddr1;
 2675              		.loc 1 443 9 discriminator 1 view .LVU772
 2676 0098 002B     		cmp	r3, #0
 2677 009a 1DD1     		bne	.L112
 443:Drivers/STM32F0xx_HAL_Driver/Src/stm32f0xx_ll_usb.c ****         pmabuffer = ep->pmaaddr1;
 2678              		.loc 1 443 9 discriminator 3 view .LVU773
 2679 009c 1188     		ldrh	r1, [r2]
 2680 009e 8848     		ldr	r0, .L156+4
 2681 00a0 0140     		ands	r1, r0
 2682 00a2 1180     		strh	r1, [r2]
 443:Drivers/STM32F0xx_HAL_Driver/Src/stm32f0xx_ll_usb.c ****         pmabuffer = ep->pmaaddr1;
 2683              		.loc 1 443 9 discriminator 3 view .LVU774
 2684 00a4 8748     		ldr	r0, .L156+8
 2685 00a6 0143     		orrs	r1, r0
 2686 00a8 1180     		strh	r1, [r2]
 2687 00aa 31E0     		b	.L113
 2688              	.LVL265:
 2689              	.L106:
 443:Drivers/STM32F0xx_HAL_Driver/Src/stm32f0xx_ll_usb.c ****         pmabuffer = ep->pmaaddr1;
 2690              		.loc 1 443 9 is_stmt 0 discriminator 3 view .LVU775
 2691              	.LBE68:
 2692              	.LBE67:
 2693              	.LBE66:
ARM GAS  /tmp/ccF3DfVq.s 			page 68


 427:Drivers/STM32F0xx_HAL_Driver/Src/stm32f0xx_ll_usb.c ****       ep->xfer_len = 0U;
 2694              		.loc 1 427 7 is_stmt 1 view .LVU776
 428:Drivers/STM32F0xx_HAL_Driver/Src/stm32f0xx_ll_usb.c ****     }
 2695              		.loc 1 428 7 view .LVU777
 428:Drivers/STM32F0xx_HAL_Driver/Src/stm32f0xx_ll_usb.c ****     }
 2696              		.loc 1 428 20 is_stmt 0 view .LVU778
 2697 00ac 0023     		movs	r3, #0
 2698 00ae A361     		str	r3, [r4, #24]
 427:Drivers/STM32F0xx_HAL_Driver/Src/stm32f0xx_ll_usb.c ****       ep->xfer_len = 0U;
 2699              		.loc 1 427 11 view .LVU779
 2700 00b0 1300     		movs	r3, r2
 2701 00b2 DEE7     		b	.L107
 2702              	.LVL266:
 2703              	.L155:
 434:Drivers/STM32F0xx_HAL_Driver/Src/stm32f0xx_ll_usb.c ****       PCD_SET_EP_TX_CNT(USBx, ep->num, len);
 2704              		.loc 1 434 7 is_stmt 1 view .LVU780
 2705 00b4 9EB2     		uxth	r6, r3
 2706 00b6 E288     		ldrh	r2, [r4, #6]
 2707 00b8 6169     		ldr	r1, [r4, #20]
 2708 00ba 3300     		movs	r3, r6
 2709              	.LVL267:
 434:Drivers/STM32F0xx_HAL_Driver/Src/stm32f0xx_ll_usb.c ****       PCD_SET_EP_TX_CNT(USBx, ep->num, len);
 2710              		.loc 1 434 7 is_stmt 0 view .LVU781
 2711 00bc 2800     		movs	r0, r5
 2712              	.LVL268:
 434:Drivers/STM32F0xx_HAL_Driver/Src/stm32f0xx_ll_usb.c ****       PCD_SET_EP_TX_CNT(USBx, ep->num, len);
 2713              		.loc 1 434 7 view .LVU782
 2714 00be FFF7FEFF 		bl	USB_WritePMA
 2715              	.LVL269:
 435:Drivers/STM32F0xx_HAL_Driver/Src/stm32f0xx_ll_usb.c ****     }
 2716              		.loc 1 435 7 is_stmt 1 view .LVU783
 2717              	.LBB71:
 435:Drivers/STM32F0xx_HAL_Driver/Src/stm32f0xx_ll_usb.c ****     }
 2718              		.loc 1 435 7 view .LVU784
 435:Drivers/STM32F0xx_HAL_Driver/Src/stm32f0xx_ll_usb.c ****     }
 2719              		.loc 1 435 7 view .LVU785
 435:Drivers/STM32F0xx_HAL_Driver/Src/stm32f0xx_ll_usb.c ****     }
 2720              		.loc 1 435 7 view .LVU786
 2721 00c2 5023     		movs	r3, #80
 2722 00c4 EA5A     		ldrh	r2, [r5, r3]
 2723 00c6 AA18     		adds	r2, r5, r2
 2724              	.LVL270:
 435:Drivers/STM32F0xx_HAL_Driver/Src/stm32f0xx_ll_usb.c ****     }
 2725              		.loc 1 435 7 view .LVU787
 2726 00c8 2378     		ldrb	r3, [r4]
 2727 00ca DB00     		lsls	r3, r3, #3
 2728 00cc 9B18     		adds	r3, r3, r2
 2729 00ce 804A     		ldr	r2, .L156+20
 2730              	.LVL271:
 435:Drivers/STM32F0xx_HAL_Driver/Src/stm32f0xx_ll_usb.c ****     }
 2731              		.loc 1 435 7 is_stmt 0 view .LVU788
 2732 00d0 9446     		mov	ip, r2
 2733 00d2 6344     		add	r3, r3, ip
 2734              	.LVL272:
 435:Drivers/STM32F0xx_HAL_Driver/Src/stm32f0xx_ll_usb.c ****     }
 2735              		.loc 1 435 7 is_stmt 1 view .LVU789
 2736 00d4 1E80     		strh	r6, [r3]
ARM GAS  /tmp/ccF3DfVq.s 			page 69


 2737              	.LBE71:
 435:Drivers/STM32F0xx_HAL_Driver/Src/stm32f0xx_ll_usb.c ****     }
 2738              		.loc 1 435 7 view .LVU790
 2739 00d6 2EE0     		b	.L109
 2740              	.LVL273:
 2741              	.L112:
 2742              	.LBB72:
 2743              	.LBB70:
 2744              	.LBB69:
 443:Drivers/STM32F0xx_HAL_Driver/Src/stm32f0xx_ll_usb.c ****         pmabuffer = ep->pmaaddr1;
 2745              		.loc 1 443 9 discriminator 4 view .LVU791
 2746 00d8 3E2B     		cmp	r3, #62
 2747 00da 06D8     		bhi	.L114
 443:Drivers/STM32F0xx_HAL_Driver/Src/stm32f0xx_ll_usb.c ****         pmabuffer = ep->pmaaddr1;
 2748              		.loc 1 443 9 discriminator 6 view .LVU792
 443:Drivers/STM32F0xx_HAL_Driver/Src/stm32f0xx_ll_usb.c ****         pmabuffer = ep->pmaaddr1;
 2749              		.loc 1 443 9 discriminator 6 view .LVU793
 2750 00dc 5908     		lsrs	r1, r3, #1
 2751              	.LVL274:
 443:Drivers/STM32F0xx_HAL_Driver/Src/stm32f0xx_ll_usb.c ****         pmabuffer = ep->pmaaddr1;
 2752              		.loc 1 443 9 discriminator 6 view .LVU794
 2753 00de D807     		lsls	r0, r3, #31
 2754 00e0 00D5     		bpl	.L115
 443:Drivers/STM32F0xx_HAL_Driver/Src/stm32f0xx_ll_usb.c ****         pmabuffer = ep->pmaaddr1;
 2755              		.loc 1 443 9 discriminator 8 view .LVU795
 2756 00e2 0131     		adds	r1, r1, #1
 2757              	.LVL275:
 2758              	.L115:
 443:Drivers/STM32F0xx_HAL_Driver/Src/stm32f0xx_ll_usb.c ****         pmabuffer = ep->pmaaddr1;
 2759              		.loc 1 443 9 discriminator 10 view .LVU796
 2760 00e4 8902     		lsls	r1, r1, #10
 2761              	.LVL276:
 443:Drivers/STM32F0xx_HAL_Driver/Src/stm32f0xx_ll_usb.c ****         pmabuffer = ep->pmaaddr1;
 2762              		.loc 1 443 9 is_stmt 0 discriminator 10 view .LVU797
 2763 00e6 1180     		strh	r1, [r2]
 443:Drivers/STM32F0xx_HAL_Driver/Src/stm32f0xx_ll_usb.c ****         pmabuffer = ep->pmaaddr1;
 2764              		.loc 1 443 9 is_stmt 1 discriminator 10 view .LVU798
 2765 00e8 12E0     		b	.L113
 2766              	.L114:
 443:Drivers/STM32F0xx_HAL_Driver/Src/stm32f0xx_ll_usb.c ****         pmabuffer = ep->pmaaddr1;
 2767              		.loc 1 443 9 discriminator 7 view .LVU799
 443:Drivers/STM32F0xx_HAL_Driver/Src/stm32f0xx_ll_usb.c ****         pmabuffer = ep->pmaaddr1;
 2768              		.loc 1 443 9 discriminator 7 view .LVU800
 2769 00ea 5909     		lsrs	r1, r3, #5
 2770              	.LVL277:
 443:Drivers/STM32F0xx_HAL_Driver/Src/stm32f0xx_ll_usb.c ****         pmabuffer = ep->pmaaddr1;
 2771              		.loc 1 443 9 discriminator 7 view .LVU801
 2772 00ec D806     		lsls	r0, r3, #27
 2773 00ee 00D1     		bne	.L116
 443:Drivers/STM32F0xx_HAL_Driver/Src/stm32f0xx_ll_usb.c ****         pmabuffer = ep->pmaaddr1;
 2774              		.loc 1 443 9 discriminator 12 view .LVU802
 2775 00f0 0139     		subs	r1, r1, #1
 2776              	.LVL278:
 2777              	.L116:
 443:Drivers/STM32F0xx_HAL_Driver/Src/stm32f0xx_ll_usb.c ****         pmabuffer = ep->pmaaddr1;
 2778              		.loc 1 443 9 discriminator 14 view .LVU803
 2779 00f2 8902     		lsls	r1, r1, #10
ARM GAS  /tmp/ccF3DfVq.s 			page 70


 2780              	.LVL279:
 443:Drivers/STM32F0xx_HAL_Driver/Src/stm32f0xx_ll_usb.c ****         pmabuffer = ep->pmaaddr1;
 2781              		.loc 1 443 9 is_stmt 0 discriminator 14 view .LVU804
 2782 00f4 89B2     		uxth	r1, r1
 2783 00f6 7348     		ldr	r0, .L156+8
 2784 00f8 0143     		orrs	r1, r0
 2785 00fa 1180     		strh	r1, [r2]
 2786 00fc 08E0     		b	.L113
 2787              	.LVL280:
 2788              	.L111:
 443:Drivers/STM32F0xx_HAL_Driver/Src/stm32f0xx_ll_usb.c ****         pmabuffer = ep->pmaaddr1;
 2789              		.loc 1 443 9 discriminator 14 view .LVU805
 2790              	.LBE69:
 2791              	.LBE70:
 443:Drivers/STM32F0xx_HAL_Driver/Src/stm32f0xx_ll_usb.c ****         pmabuffer = ep->pmaaddr1;
 2792              		.loc 1 443 9 is_stmt 1 discriminator 16 view .LVU806
 443:Drivers/STM32F0xx_HAL_Driver/Src/stm32f0xx_ll_usb.c ****         pmabuffer = ep->pmaaddr1;
 2793              		.loc 1 443 9 discriminator 16 view .LVU807
 2794 00fe 5021     		movs	r1, #80
 2795 0100 695A     		ldrh	r1, [r5, r1]
 2796 0102 6918     		adds	r1, r5, r1
 2797              	.LVL281:
 443:Drivers/STM32F0xx_HAL_Driver/Src/stm32f0xx_ll_usb.c ****         pmabuffer = ep->pmaaddr1;
 2798              		.loc 1 443 9 discriminator 16 view .LVU808
 2799 0104 D200     		lsls	r2, r2, #3
 2800 0106 5218     		adds	r2, r2, r1
 2801 0108 6C49     		ldr	r1, .L156
 2802              	.LVL282:
 443:Drivers/STM32F0xx_HAL_Driver/Src/stm32f0xx_ll_usb.c ****         pmabuffer = ep->pmaaddr1;
 2803              		.loc 1 443 9 is_stmt 0 discriminator 16 view .LVU809
 2804 010a 8C46     		mov	ip, r1
 2805 010c 6244     		add	r2, r2, ip
 2806              	.LVL283:
 443:Drivers/STM32F0xx_HAL_Driver/Src/stm32f0xx_ll_usb.c ****         pmabuffer = ep->pmaaddr1;
 2807              		.loc 1 443 9 is_stmt 1 discriminator 16 view .LVU810
 2808 010e 1380     		strh	r3, [r2]
 2809              	.LVL284:
 2810              	.L113:
 443:Drivers/STM32F0xx_HAL_Driver/Src/stm32f0xx_ll_usb.c ****         pmabuffer = ep->pmaaddr1;
 2811              		.loc 1 443 9 is_stmt 0 discriminator 16 view .LVU811
 2812              	.LBE72:
 443:Drivers/STM32F0xx_HAL_Driver/Src/stm32f0xx_ll_usb.c ****         pmabuffer = ep->pmaaddr1;
 2813              		.loc 1 443 9 is_stmt 1 discriminator 18 view .LVU812
 444:Drivers/STM32F0xx_HAL_Driver/Src/stm32f0xx_ll_usb.c ****       }
 2814              		.loc 1 444 9 discriminator 18 view .LVU813
 444:Drivers/STM32F0xx_HAL_Driver/Src/stm32f0xx_ll_usb.c ****       }
 2815              		.loc 1 444 19 is_stmt 0 discriminator 18 view .LVU814
 2816 0110 6289     		ldrh	r2, [r4, #10]
 2817              	.LVL285:
 2818              	.L117:
 452:Drivers/STM32F0xx_HAL_Driver/Src/stm32f0xx_ll_usb.c ****       PCD_FreeUserBuffer(USBx, ep->num, ep->is_in);
 2819              		.loc 1 452 7 is_stmt 1 view .LVU815
 2820 0112 9BB2     		uxth	r3, r3
 2821              	.LVL286:
 452:Drivers/STM32F0xx_HAL_Driver/Src/stm32f0xx_ll_usb.c ****       PCD_FreeUserBuffer(USBx, ep->num, ep->is_in);
 2822              		.loc 1 452 7 is_stmt 0 view .LVU816
 2823 0114 6169     		ldr	r1, [r4, #20]
ARM GAS  /tmp/ccF3DfVq.s 			page 71


 2824 0116 2800     		movs	r0, r5
 2825 0118 FFF7FEFF 		bl	USB_WritePMA
 2826              	.LVL287:
 453:Drivers/STM32F0xx_HAL_Driver/Src/stm32f0xx_ll_usb.c ****     }
 2827              		.loc 1 453 7 is_stmt 1 view .LVU817
 453:Drivers/STM32F0xx_HAL_Driver/Src/stm32f0xx_ll_usb.c ****     }
 2828              		.loc 1 453 7 view .LVU818
 2829 011c 6378     		ldrb	r3, [r4, #1]
 2830 011e 002B     		cmp	r3, #0
 2831 0120 49D1     		bne	.L124
 453:Drivers/STM32F0xx_HAL_Driver/Src/stm32f0xx_ll_usb.c ****     }
 2832              		.loc 1 453 7 discriminator 1 view .LVU819
 2833              	.LBB73:
 453:Drivers/STM32F0xx_HAL_Driver/Src/stm32f0xx_ll_usb.c ****     }
 2834              		.loc 1 453 7 discriminator 1 view .LVU820
 453:Drivers/STM32F0xx_HAL_Driver/Src/stm32f0xx_ll_usb.c ****     }
 2835              		.loc 1 453 7 discriminator 1 view .LVU821
 2836 0122 2378     		ldrb	r3, [r4]
 2837 0124 9B00     		lsls	r3, r3, #2
 2838 0126 EB18     		adds	r3, r5, r3
 2839 0128 1988     		ldrh	r1, [r3]
 2840 012a 6A4A     		ldr	r2, .L156+24
 2841 012c 1140     		ands	r1, r2
 2842              	.LVL288:
 453:Drivers/STM32F0xx_HAL_Driver/Src/stm32f0xx_ll_usb.c ****     }
 2843              		.loc 1 453 7 discriminator 1 view .LVU822
 2844 012e 6A4A     		ldr	r2, .L156+28
 2845 0130 0A43     		orrs	r2, r1
 2846 0132 92B2     		uxth	r2, r2
 2847 0134 1A80     		strh	r2, [r3]
 2848              	.LBE73:
 453:Drivers/STM32F0xx_HAL_Driver/Src/stm32f0xx_ll_usb.c ****     }
 2849              		.loc 1 453 7 discriminator 1 view .LVU823
 2850              	.LVL289:
 2851              	.L109:
 453:Drivers/STM32F0xx_HAL_Driver/Src/stm32f0xx_ll_usb.c ****     }
 2852              		.loc 1 453 7 discriminator 6 view .LVU824
 453:Drivers/STM32F0xx_HAL_Driver/Src/stm32f0xx_ll_usb.c ****     }
 2853              		.loc 1 453 7 discriminator 6 view .LVU825
 456:Drivers/STM32F0xx_HAL_Driver/Src/stm32f0xx_ll_usb.c ****   }
 2854              		.loc 1 456 5 discriminator 6 view .LVU826
 2855              	.LBB74:
 456:Drivers/STM32F0xx_HAL_Driver/Src/stm32f0xx_ll_usb.c ****   }
 2856              		.loc 1 456 5 discriminator 6 view .LVU827
 456:Drivers/STM32F0xx_HAL_Driver/Src/stm32f0xx_ll_usb.c ****   }
 2857              		.loc 1 456 5 discriminator 6 view .LVU828
 2858 0136 2278     		ldrb	r2, [r4]
 2859 0138 9200     		lsls	r2, r2, #2
 2860 013a AA18     		adds	r2, r5, r2
 2861 013c 1388     		ldrh	r3, [r2]
 2862 013e 6749     		ldr	r1, .L156+32
 2863 0140 0B40     		ands	r3, r1
 2864              	.LVL290:
 456:Drivers/STM32F0xx_HAL_Driver/Src/stm32f0xx_ll_usb.c ****   }
 2865              		.loc 1 456 5 discriminator 6 view .LVU829
 456:Drivers/STM32F0xx_HAL_Driver/Src/stm32f0xx_ll_usb.c ****   }
 2866              		.loc 1 456 5 discriminator 6 view .LVU830
ARM GAS  /tmp/ccF3DfVq.s 			page 72


 456:Drivers/STM32F0xx_HAL_Driver/Src/stm32f0xx_ll_usb.c ****   }
 2867              		.loc 1 456 5 discriminator 6 view .LVU831
 456:Drivers/STM32F0xx_HAL_Driver/Src/stm32f0xx_ll_usb.c ****   }
 2868              		.loc 1 456 5 discriminator 6 view .LVU832
 2869 0142 3021     		movs	r1, #48
 2870 0144 4B40     		eors	r3, r1
 2871              	.LVL291:
 456:Drivers/STM32F0xx_HAL_Driver/Src/stm32f0xx_ll_usb.c ****   }
 2872              		.loc 1 456 5 is_stmt 0 discriminator 6 view .LVU833
 2873 0146 9BB2     		uxth	r3, r3
 2874              	.LVL292:
 456:Drivers/STM32F0xx_HAL_Driver/Src/stm32f0xx_ll_usb.c ****   }
 2875              		.loc 1 456 5 is_stmt 1 discriminator 6 view .LVU834
 2876 0148 6049     		ldr	r1, .L156+16
 2877 014a 0B43     		orrs	r3, r1
 2878              	.LVL293:
 456:Drivers/STM32F0xx_HAL_Driver/Src/stm32f0xx_ll_usb.c ****   }
 2879              		.loc 1 456 5 is_stmt 0 discriminator 6 view .LVU835
 2880 014c 9BB2     		uxth	r3, r3
 2881 014e 1380     		strh	r3, [r2]
 2882              	.LBE74:
 456:Drivers/STM32F0xx_HAL_Driver/Src/stm32f0xx_ll_usb.c ****   }
 2883              		.loc 1 456 5 is_stmt 1 discriminator 6 view .LVU836
 2884 0150 87E7     		b	.L125
 2885              	.LVL294:
 2886              	.L110:
 449:Drivers/STM32F0xx_HAL_Driver/Src/stm32f0xx_ll_usb.c ****         pmabuffer = ep->pmaaddr0;
 2887              		.loc 1 449 9 view .LVU837
 449:Drivers/STM32F0xx_HAL_Driver/Src/stm32f0xx_ll_usb.c ****         pmabuffer = ep->pmaaddr0;
 2888              		.loc 1 449 9 view .LVU838
 2889 0152 0029     		cmp	r1, #0
 2890 0154 24D1     		bne	.L118
 449:Drivers/STM32F0xx_HAL_Driver/Src/stm32f0xx_ll_usb.c ****         pmabuffer = ep->pmaaddr0;
 2891              		.loc 1 449 9 discriminator 1 view .LVU839
 2892              	.LBB75:
 449:Drivers/STM32F0xx_HAL_Driver/Src/stm32f0xx_ll_usb.c ****         pmabuffer = ep->pmaaddr0;
 2893              		.loc 1 449 9 discriminator 1 view .LVU840
 2894              	.LVL295:
 449:Drivers/STM32F0xx_HAL_Driver/Src/stm32f0xx_ll_usb.c ****         pmabuffer = ep->pmaaddr0;
 2895              		.loc 1 449 9 discriminator 1 view .LVU841
 449:Drivers/STM32F0xx_HAL_Driver/Src/stm32f0xx_ll_usb.c ****         pmabuffer = ep->pmaaddr0;
 2896              		.loc 1 449 9 discriminator 1 view .LVU842
 2897 0156 5031     		adds	r1, r1, #80
 2898 0158 695A     		ldrh	r1, [r5, r1]
 2899 015a 6918     		adds	r1, r5, r1
 2900              	.LVL296:
 449:Drivers/STM32F0xx_HAL_Driver/Src/stm32f0xx_ll_usb.c ****         pmabuffer = ep->pmaaddr0;
 2901              		.loc 1 449 9 discriminator 1 view .LVU843
 2902 015c D200     		lsls	r2, r2, #3
 2903 015e 5218     		adds	r2, r2, r1
 2904 0160 5B49     		ldr	r1, .L156+20
 2905              	.LVL297:
 449:Drivers/STM32F0xx_HAL_Driver/Src/stm32f0xx_ll_usb.c ****         pmabuffer = ep->pmaaddr0;
 2906              		.loc 1 449 9 is_stmt 0 discriminator 1 view .LVU844
 2907 0162 8C46     		mov	ip, r1
 2908 0164 6244     		add	r2, r2, ip
 2909              	.LVL298:
ARM GAS  /tmp/ccF3DfVq.s 			page 73


 449:Drivers/STM32F0xx_HAL_Driver/Src/stm32f0xx_ll_usb.c ****         pmabuffer = ep->pmaaddr0;
 2910              		.loc 1 449 9 is_stmt 1 discriminator 1 view .LVU845
 2911              	.LBB76:
 449:Drivers/STM32F0xx_HAL_Driver/Src/stm32f0xx_ll_usb.c ****         pmabuffer = ep->pmaaddr0;
 2912              		.loc 1 449 9 discriminator 1 view .LVU846
 449:Drivers/STM32F0xx_HAL_Driver/Src/stm32f0xx_ll_usb.c ****         pmabuffer = ep->pmaaddr0;
 2913              		.loc 1 449 9 discriminator 1 view .LVU847
 2914 0166 002B     		cmp	r3, #0
 2915 0168 07D1     		bne	.L119
 449:Drivers/STM32F0xx_HAL_Driver/Src/stm32f0xx_ll_usb.c ****         pmabuffer = ep->pmaaddr0;
 2916              		.loc 1 449 9 discriminator 3 view .LVU848
 2917 016a 1188     		ldrh	r1, [r2]
 2918 016c 5448     		ldr	r0, .L156+4
 2919 016e 0140     		ands	r1, r0
 2920 0170 1180     		strh	r1, [r2]
 449:Drivers/STM32F0xx_HAL_Driver/Src/stm32f0xx_ll_usb.c ****         pmabuffer = ep->pmaaddr0;
 2921              		.loc 1 449 9 discriminator 3 view .LVU849
 2922 0172 5448     		ldr	r0, .L156+8
 2923 0174 0143     		orrs	r1, r0
 2924 0176 1180     		strh	r1, [r2]
 2925 0178 1BE0     		b	.L120
 2926              	.L119:
 449:Drivers/STM32F0xx_HAL_Driver/Src/stm32f0xx_ll_usb.c ****         pmabuffer = ep->pmaaddr0;
 2927              		.loc 1 449 9 discriminator 4 view .LVU850
 2928 017a 3E2B     		cmp	r3, #62
 2929 017c 06D8     		bhi	.L121
 449:Drivers/STM32F0xx_HAL_Driver/Src/stm32f0xx_ll_usb.c ****         pmabuffer = ep->pmaaddr0;
 2930              		.loc 1 449 9 discriminator 6 view .LVU851
 449:Drivers/STM32F0xx_HAL_Driver/Src/stm32f0xx_ll_usb.c ****         pmabuffer = ep->pmaaddr0;
 2931              		.loc 1 449 9 discriminator 6 view .LVU852
 2932 017e 5908     		lsrs	r1, r3, #1
 2933              	.LVL299:
 449:Drivers/STM32F0xx_HAL_Driver/Src/stm32f0xx_ll_usb.c ****         pmabuffer = ep->pmaaddr0;
 2934              		.loc 1 449 9 discriminator 6 view .LVU853
 2935 0180 D807     		lsls	r0, r3, #31
 2936 0182 00D5     		bpl	.L122
 449:Drivers/STM32F0xx_HAL_Driver/Src/stm32f0xx_ll_usb.c ****         pmabuffer = ep->pmaaddr0;
 2937              		.loc 1 449 9 discriminator 8 view .LVU854
 2938 0184 0131     		adds	r1, r1, #1
 2939              	.LVL300:
 2940              	.L122:
 449:Drivers/STM32F0xx_HAL_Driver/Src/stm32f0xx_ll_usb.c ****         pmabuffer = ep->pmaaddr0;
 2941              		.loc 1 449 9 discriminator 10 view .LVU855
 2942 0186 8902     		lsls	r1, r1, #10
 2943              	.LVL301:
 449:Drivers/STM32F0xx_HAL_Driver/Src/stm32f0xx_ll_usb.c ****         pmabuffer = ep->pmaaddr0;
 2944              		.loc 1 449 9 is_stmt 0 discriminator 10 view .LVU856
 2945 0188 1180     		strh	r1, [r2]
 449:Drivers/STM32F0xx_HAL_Driver/Src/stm32f0xx_ll_usb.c ****         pmabuffer = ep->pmaaddr0;
 2946              		.loc 1 449 9 is_stmt 1 discriminator 10 view .LVU857
 2947 018a 12E0     		b	.L120
 2948              	.L121:
 449:Drivers/STM32F0xx_HAL_Driver/Src/stm32f0xx_ll_usb.c ****         pmabuffer = ep->pmaaddr0;
 2949              		.loc 1 449 9 discriminator 7 view .LVU858
 449:Drivers/STM32F0xx_HAL_Driver/Src/stm32f0xx_ll_usb.c ****         pmabuffer = ep->pmaaddr0;
 2950              		.loc 1 449 9 discriminator 7 view .LVU859
 2951 018c 5909     		lsrs	r1, r3, #5
ARM GAS  /tmp/ccF3DfVq.s 			page 74


 2952              	.LVL302:
 449:Drivers/STM32F0xx_HAL_Driver/Src/stm32f0xx_ll_usb.c ****         pmabuffer = ep->pmaaddr0;
 2953              		.loc 1 449 9 discriminator 7 view .LVU860
 2954 018e D806     		lsls	r0, r3, #27
 2955 0190 00D1     		bne	.L123
 449:Drivers/STM32F0xx_HAL_Driver/Src/stm32f0xx_ll_usb.c ****         pmabuffer = ep->pmaaddr0;
 2956              		.loc 1 449 9 discriminator 12 view .LVU861
 2957 0192 0139     		subs	r1, r1, #1
 2958              	.LVL303:
 2959              	.L123:
 449:Drivers/STM32F0xx_HAL_Driver/Src/stm32f0xx_ll_usb.c ****         pmabuffer = ep->pmaaddr0;
 2960              		.loc 1 449 9 discriminator 14 view .LVU862
 2961 0194 8902     		lsls	r1, r1, #10
 2962              	.LVL304:
 449:Drivers/STM32F0xx_HAL_Driver/Src/stm32f0xx_ll_usb.c ****         pmabuffer = ep->pmaaddr0;
 2963              		.loc 1 449 9 is_stmt 0 discriminator 14 view .LVU863
 2964 0196 89B2     		uxth	r1, r1
 2965 0198 4A48     		ldr	r0, .L156+8
 2966 019a 0143     		orrs	r1, r0
 2967 019c 1180     		strh	r1, [r2]
 2968 019e 08E0     		b	.L120
 2969              	.LVL305:
 2970              	.L118:
 449:Drivers/STM32F0xx_HAL_Driver/Src/stm32f0xx_ll_usb.c ****         pmabuffer = ep->pmaaddr0;
 2971              		.loc 1 449 9 discriminator 14 view .LVU864
 2972              	.LBE76:
 2973              	.LBE75:
 449:Drivers/STM32F0xx_HAL_Driver/Src/stm32f0xx_ll_usb.c ****         pmabuffer = ep->pmaaddr0;
 2974              		.loc 1 449 9 is_stmt 1 discriminator 16 view .LVU865
 449:Drivers/STM32F0xx_HAL_Driver/Src/stm32f0xx_ll_usb.c ****         pmabuffer = ep->pmaaddr0;
 2975              		.loc 1 449 9 discriminator 16 view .LVU866
 2976              	.LBB77:
 449:Drivers/STM32F0xx_HAL_Driver/Src/stm32f0xx_ll_usb.c ****         pmabuffer = ep->pmaaddr0;
 2977              		.loc 1 449 9 discriminator 16 view .LVU867
 449:Drivers/STM32F0xx_HAL_Driver/Src/stm32f0xx_ll_usb.c ****         pmabuffer = ep->pmaaddr0;
 2978              		.loc 1 449 9 discriminator 16 view .LVU868
 449:Drivers/STM32F0xx_HAL_Driver/Src/stm32f0xx_ll_usb.c ****         pmabuffer = ep->pmaaddr0;
 2979              		.loc 1 449 9 discriminator 16 view .LVU869
 2980 01a0 5021     		movs	r1, #80
 2981 01a2 695A     		ldrh	r1, [r5, r1]
 2982 01a4 6918     		adds	r1, r5, r1
 2983              	.LVL306:
 449:Drivers/STM32F0xx_HAL_Driver/Src/stm32f0xx_ll_usb.c ****         pmabuffer = ep->pmaaddr0;
 2984              		.loc 1 449 9 discriminator 16 view .LVU870
 2985 01a6 D200     		lsls	r2, r2, #3
 2986 01a8 5218     		adds	r2, r2, r1
 2987 01aa 4949     		ldr	r1, .L156+20
 2988              	.LVL307:
 449:Drivers/STM32F0xx_HAL_Driver/Src/stm32f0xx_ll_usb.c ****         pmabuffer = ep->pmaaddr0;
 2989              		.loc 1 449 9 is_stmt 0 discriminator 16 view .LVU871
 2990 01ac 8C46     		mov	ip, r1
 2991 01ae 6244     		add	r2, r2, ip
 2992              	.LVL308:
 449:Drivers/STM32F0xx_HAL_Driver/Src/stm32f0xx_ll_usb.c ****         pmabuffer = ep->pmaaddr0;
 2993              		.loc 1 449 9 is_stmt 1 discriminator 16 view .LVU872
 2994 01b0 1380     		strh	r3, [r2]
 2995              	.LVL309:
ARM GAS  /tmp/ccF3DfVq.s 			page 75


 2996              	.L120:
 449:Drivers/STM32F0xx_HAL_Driver/Src/stm32f0xx_ll_usb.c ****         pmabuffer = ep->pmaaddr0;
 2997              		.loc 1 449 9 is_stmt 0 discriminator 16 view .LVU873
 2998              	.LBE77:
 449:Drivers/STM32F0xx_HAL_Driver/Src/stm32f0xx_ll_usb.c ****         pmabuffer = ep->pmaaddr0;
 2999              		.loc 1 449 9 is_stmt 1 discriminator 18 view .LVU874
 449:Drivers/STM32F0xx_HAL_Driver/Src/stm32f0xx_ll_usb.c ****         pmabuffer = ep->pmaaddr0;
 3000              		.loc 1 449 9 discriminator 18 view .LVU875
 450:Drivers/STM32F0xx_HAL_Driver/Src/stm32f0xx_ll_usb.c ****       }
 3001              		.loc 1 450 9 discriminator 18 view .LVU876
 450:Drivers/STM32F0xx_HAL_Driver/Src/stm32f0xx_ll_usb.c ****       }
 3002              		.loc 1 450 19 is_stmt 0 discriminator 18 view .LVU877
 3003 01b2 2289     		ldrh	r2, [r4, #8]
 3004              	.LVL310:
 450:Drivers/STM32F0xx_HAL_Driver/Src/stm32f0xx_ll_usb.c ****       }
 3005              		.loc 1 450 19 discriminator 18 view .LVU878
 3006 01b4 ADE7     		b	.L117
 3007              	.LVL311:
 3008              	.L124:
 453:Drivers/STM32F0xx_HAL_Driver/Src/stm32f0xx_ll_usb.c ****     }
 3009              		.loc 1 453 7 is_stmt 1 discriminator 2 view .LVU879
 3010 01b6 012B     		cmp	r3, #1
 3011 01b8 BDD1     		bne	.L109
 453:Drivers/STM32F0xx_HAL_Driver/Src/stm32f0xx_ll_usb.c ****     }
 3012              		.loc 1 453 7 discriminator 4 view .LVU880
 3013              	.LBB78:
 453:Drivers/STM32F0xx_HAL_Driver/Src/stm32f0xx_ll_usb.c ****     }
 3014              		.loc 1 453 7 discriminator 4 view .LVU881
 453:Drivers/STM32F0xx_HAL_Driver/Src/stm32f0xx_ll_usb.c ****     }
 3015              		.loc 1 453 7 discriminator 4 view .LVU882
 3016 01ba 2378     		ldrb	r3, [r4]
 3017 01bc 9B00     		lsls	r3, r3, #2
 3018 01be EB18     		adds	r3, r5, r3
 3019 01c0 1988     		ldrh	r1, [r3]
 3020 01c2 444A     		ldr	r2, .L156+24
 3021 01c4 1140     		ands	r1, r2
 3022              	.LVL312:
 453:Drivers/STM32F0xx_HAL_Driver/Src/stm32f0xx_ll_usb.c ****     }
 3023              		.loc 1 453 7 discriminator 4 view .LVU883
 3024 01c6 464A     		ldr	r2, .L156+36
 3025 01c8 0A43     		orrs	r2, r1
 3026 01ca 92B2     		uxth	r2, r2
 3027 01cc 1A80     		strh	r2, [r3]
 3028 01ce B2E7     		b	.L109
 3029              	.LVL313:
 3030              	.L126:
 453:Drivers/STM32F0xx_HAL_Driver/Src/stm32f0xx_ll_usb.c ****     }
 3031              		.loc 1 453 7 is_stmt 0 discriminator 4 view .LVU884
 3032              	.LBE78:
 468:Drivers/STM32F0xx_HAL_Driver/Src/stm32f0xx_ll_usb.c ****       ep->xfer_len = 0U;
 3033              		.loc 1 468 7 is_stmt 1 view .LVU885
 469:Drivers/STM32F0xx_HAL_Driver/Src/stm32f0xx_ll_usb.c ****     }
 3034              		.loc 1 469 7 view .LVU886
 469:Drivers/STM32F0xx_HAL_Driver/Src/stm32f0xx_ll_usb.c ****     }
 3035              		.loc 1 469 20 is_stmt 0 view .LVU887
 3036 01d0 0023     		movs	r3, #0
 3037 01d2 A361     		str	r3, [r4, #24]
ARM GAS  /tmp/ccF3DfVq.s 			page 76


 468:Drivers/STM32F0xx_HAL_Driver/Src/stm32f0xx_ll_usb.c ****       ep->xfer_len = 0U;
 3038              		.loc 1 468 11 view .LVU888
 3039 01d4 1300     		movs	r3, r2
 3040 01d6 20E7     		b	.L127
 3041              	.LVL314:
 3042              	.L129:
 3043              	.LBB79:
 3044              	.LBB64:
 476:Drivers/STM32F0xx_HAL_Driver/Src/stm32f0xx_ll_usb.c ****     }
 3045              		.loc 1 476 7 is_stmt 1 discriminator 2 view .LVU889
 3046 01d8 3E2B     		cmp	r3, #62
 3047 01da 06D8     		bhi	.L131
 476:Drivers/STM32F0xx_HAL_Driver/Src/stm32f0xx_ll_usb.c ****     }
 3048              		.loc 1 476 7 discriminator 4 view .LVU890
 476:Drivers/STM32F0xx_HAL_Driver/Src/stm32f0xx_ll_usb.c ****     }
 3049              		.loc 1 476 7 discriminator 4 view .LVU891
 3050 01dc 5908     		lsrs	r1, r3, #1
 3051              	.LVL315:
 476:Drivers/STM32F0xx_HAL_Driver/Src/stm32f0xx_ll_usb.c ****     }
 3052              		.loc 1 476 7 discriminator 4 view .LVU892
 3053 01de DB07     		lsls	r3, r3, #31
 3054 01e0 00D5     		bpl	.L132
 3055              	.LVL316:
 476:Drivers/STM32F0xx_HAL_Driver/Src/stm32f0xx_ll_usb.c ****     }
 3056              		.loc 1 476 7 discriminator 6 view .LVU893
 3057 01e2 0131     		adds	r1, r1, #1
 3058              	.LVL317:
 3059              	.L132:
 476:Drivers/STM32F0xx_HAL_Driver/Src/stm32f0xx_ll_usb.c ****     }
 3060              		.loc 1 476 7 discriminator 8 view .LVU894
 3061 01e4 8902     		lsls	r1, r1, #10
 3062              	.LVL318:
 476:Drivers/STM32F0xx_HAL_Driver/Src/stm32f0xx_ll_usb.c ****     }
 3063              		.loc 1 476 7 is_stmt 0 discriminator 8 view .LVU895
 3064 01e6 1180     		strh	r1, [r2]
 476:Drivers/STM32F0xx_HAL_Driver/Src/stm32f0xx_ll_usb.c ****     }
 3065              		.loc 1 476 7 is_stmt 1 discriminator 8 view .LVU896
 3066 01e8 2EE7     		b	.L130
 3067              	.LVL319:
 3068              	.L131:
 476:Drivers/STM32F0xx_HAL_Driver/Src/stm32f0xx_ll_usb.c ****     }
 3069              		.loc 1 476 7 discriminator 5 view .LVU897
 476:Drivers/STM32F0xx_HAL_Driver/Src/stm32f0xx_ll_usb.c ****     }
 3070              		.loc 1 476 7 discriminator 5 view .LVU898
 3071 01ea 5909     		lsrs	r1, r3, #5
 3072              	.LVL320:
 476:Drivers/STM32F0xx_HAL_Driver/Src/stm32f0xx_ll_usb.c ****     }
 3073              		.loc 1 476 7 discriminator 5 view .LVU899
 3074 01ec DB06     		lsls	r3, r3, #27
 3075 01ee 00D1     		bne	.L133
 3076              	.LVL321:
 476:Drivers/STM32F0xx_HAL_Driver/Src/stm32f0xx_ll_usb.c ****     }
 3077              		.loc 1 476 7 discriminator 10 view .LVU900
 3078 01f0 0139     		subs	r1, r1, #1
 3079              	.LVL322:
 3080              	.L133:
 476:Drivers/STM32F0xx_HAL_Driver/Src/stm32f0xx_ll_usb.c ****     }
ARM GAS  /tmp/ccF3DfVq.s 			page 77


 3081              		.loc 1 476 7 discriminator 12 view .LVU901
 3082 01f2 8902     		lsls	r1, r1, #10
 3083              	.LVL323:
 476:Drivers/STM32F0xx_HAL_Driver/Src/stm32f0xx_ll_usb.c ****     }
 3084              		.loc 1 476 7 is_stmt 0 discriminator 12 view .LVU902
 3085 01f4 89B2     		uxth	r1, r1
 3086 01f6 334B     		ldr	r3, .L156+8
 3087 01f8 0B43     		orrs	r3, r1
 3088 01fa 1380     		strh	r3, [r2]
 3089 01fc 24E7     		b	.L130
 3090              	.LVL324:
 3091              	.L128:
 476:Drivers/STM32F0xx_HAL_Driver/Src/stm32f0xx_ll_usb.c ****     }
 3092              		.loc 1 476 7 discriminator 12 view .LVU903
 3093              	.LBE64:
 3094              	.LBE79:
 481:Drivers/STM32F0xx_HAL_Driver/Src/stm32f0xx_ll_usb.c ****     }
 3095              		.loc 1 481 7 is_stmt 1 view .LVU904
 481:Drivers/STM32F0xx_HAL_Driver/Src/stm32f0xx_ll_usb.c ****     }
 3096              		.loc 1 481 7 view .LVU905
 481:Drivers/STM32F0xx_HAL_Driver/Src/stm32f0xx_ll_usb.c ****     }
 3097              		.loc 1 481 7 view .LVU906
 3098 01fe 0029     		cmp	r1, #0
 3099 0200 11D1     		bne	.L134
 481:Drivers/STM32F0xx_HAL_Driver/Src/stm32f0xx_ll_usb.c ****     }
 3100              		.loc 1 481 7 discriminator 1 view .LVU907
 3101              	.LBB80:
 481:Drivers/STM32F0xx_HAL_Driver/Src/stm32f0xx_ll_usb.c ****     }
 3102              		.loc 1 481 7 discriminator 1 view .LVU908
 3103              	.LVL325:
 481:Drivers/STM32F0xx_HAL_Driver/Src/stm32f0xx_ll_usb.c ****     }
 3104              		.loc 1 481 7 discriminator 1 view .LVU909
 481:Drivers/STM32F0xx_HAL_Driver/Src/stm32f0xx_ll_usb.c ****     }
 3105              		.loc 1 481 7 discriminator 1 view .LVU910
 3106 0202 5022     		movs	r2, #80
 3107 0204 A95A     		ldrh	r1, [r5, r2]
 3108 0206 6918     		adds	r1, r5, r1
 3109              	.LVL326:
 481:Drivers/STM32F0xx_HAL_Driver/Src/stm32f0xx_ll_usb.c ****     }
 3110              		.loc 1 481 7 discriminator 1 view .LVU911
 3111 0208 2278     		ldrb	r2, [r4]
 3112 020a D200     		lsls	r2, r2, #3
 3113 020c 5218     		adds	r2, r2, r1
 3114 020e 3049     		ldr	r1, .L156+20
 3115              	.LVL327:
 481:Drivers/STM32F0xx_HAL_Driver/Src/stm32f0xx_ll_usb.c ****     }
 3116              		.loc 1 481 7 is_stmt 0 discriminator 1 view .LVU912
 3117 0210 8C46     		mov	ip, r1
 3118 0212 6244     		add	r2, r2, ip
 3119              	.LVL328:
 481:Drivers/STM32F0xx_HAL_Driver/Src/stm32f0xx_ll_usb.c ****     }
 3120              		.loc 1 481 7 is_stmt 1 discriminator 1 view .LVU913
 3121              	.LBB81:
 481:Drivers/STM32F0xx_HAL_Driver/Src/stm32f0xx_ll_usb.c ****     }
 3122              		.loc 1 481 7 discriminator 1 view .LVU914
 481:Drivers/STM32F0xx_HAL_Driver/Src/stm32f0xx_ll_usb.c ****     }
 3123              		.loc 1 481 7 discriminator 1 view .LVU915
ARM GAS  /tmp/ccF3DfVq.s 			page 78


 3124 0214 002B     		cmp	r3, #0
 3125 0216 1CD1     		bne	.L135
 481:Drivers/STM32F0xx_HAL_Driver/Src/stm32f0xx_ll_usb.c ****     }
 3126              		.loc 1 481 7 discriminator 3 view .LVU916
 3127 0218 1188     		ldrh	r1, [r2]
 3128 021a 2948     		ldr	r0, .L156+4
 3129              	.LVL329:
 481:Drivers/STM32F0xx_HAL_Driver/Src/stm32f0xx_ll_usb.c ****     }
 3130              		.loc 1 481 7 is_stmt 0 discriminator 3 view .LVU917
 3131 021c 0140     		ands	r1, r0
 3132 021e 1180     		strh	r1, [r2]
 481:Drivers/STM32F0xx_HAL_Driver/Src/stm32f0xx_ll_usb.c ****     }
 3133              		.loc 1 481 7 is_stmt 1 discriminator 3 view .LVU918
 3134 0220 2848     		ldr	r0, .L156+8
 3135 0222 0143     		orrs	r1, r0
 3136 0224 1180     		strh	r1, [r2]
 3137              	.LVL330:
 3138              	.L134:
 481:Drivers/STM32F0xx_HAL_Driver/Src/stm32f0xx_ll_usb.c ****     }
 3139              		.loc 1 481 7 is_stmt 0 discriminator 3 view .LVU919
 3140              	.LBE81:
 3141              	.LBE80:
 481:Drivers/STM32F0xx_HAL_Driver/Src/stm32f0xx_ll_usb.c ****     }
 3142              		.loc 1 481 7 is_stmt 1 discriminator 18 view .LVU920
 481:Drivers/STM32F0xx_HAL_Driver/Src/stm32f0xx_ll_usb.c ****     }
 3143              		.loc 1 481 7 discriminator 18 view .LVU921
 481:Drivers/STM32F0xx_HAL_Driver/Src/stm32f0xx_ll_usb.c ****     }
 3144              		.loc 1 481 7 discriminator 18 view .LVU922
 3145              	.LBB83:
 481:Drivers/STM32F0xx_HAL_Driver/Src/stm32f0xx_ll_usb.c ****     }
 3146              		.loc 1 481 7 discriminator 18 view .LVU923
 481:Drivers/STM32F0xx_HAL_Driver/Src/stm32f0xx_ll_usb.c ****     }
 3147              		.loc 1 481 7 discriminator 18 view .LVU924
 481:Drivers/STM32F0xx_HAL_Driver/Src/stm32f0xx_ll_usb.c ****     }
 3148              		.loc 1 481 7 discriminator 18 view .LVU925
 3149 0226 6278     		ldrb	r2, [r4, #1]
 3150 0228 002A     		cmp	r2, #0
 3151 022a 38D1     		bne	.L139
 481:Drivers/STM32F0xx_HAL_Driver/Src/stm32f0xx_ll_usb.c ****     }
 3152              		.loc 1 481 7 discriminator 19 view .LVU926
 3153              	.LBB84:
 481:Drivers/STM32F0xx_HAL_Driver/Src/stm32f0xx_ll_usb.c ****     }
 3154              		.loc 1 481 7 discriminator 19 view .LVU927
 3155              	.LVL331:
 481:Drivers/STM32F0xx_HAL_Driver/Src/stm32f0xx_ll_usb.c ****     }
 3156              		.loc 1 481 7 discriminator 19 view .LVU928
 481:Drivers/STM32F0xx_HAL_Driver/Src/stm32f0xx_ll_usb.c ****     }
 3157              		.loc 1 481 7 discriminator 19 view .LVU929
 3158 022c 5032     		adds	r2, r2, #80
 3159 022e A95A     		ldrh	r1, [r5, r2]
 3160 0230 6918     		adds	r1, r5, r1
 3161              	.LVL332:
 481:Drivers/STM32F0xx_HAL_Driver/Src/stm32f0xx_ll_usb.c ****     }
 3162              		.loc 1 481 7 discriminator 19 view .LVU930
 3163 0232 2278     		ldrb	r2, [r4]
 3164 0234 D200     		lsls	r2, r2, #3
 3165 0236 5218     		adds	r2, r2, r1
ARM GAS  /tmp/ccF3DfVq.s 			page 79


 3166 0238 2049     		ldr	r1, .L156
 3167              	.LVL333:
 481:Drivers/STM32F0xx_HAL_Driver/Src/stm32f0xx_ll_usb.c ****     }
 3168              		.loc 1 481 7 is_stmt 0 discriminator 19 view .LVU931
 3169 023a 8C46     		mov	ip, r1
 3170 023c 6244     		add	r2, r2, ip
 3171              	.LVL334:
 481:Drivers/STM32F0xx_HAL_Driver/Src/stm32f0xx_ll_usb.c ****     }
 3172              		.loc 1 481 7 is_stmt 1 discriminator 19 view .LVU932
 3173              	.LBB85:
 481:Drivers/STM32F0xx_HAL_Driver/Src/stm32f0xx_ll_usb.c ****     }
 3174              		.loc 1 481 7 discriminator 19 view .LVU933
 481:Drivers/STM32F0xx_HAL_Driver/Src/stm32f0xx_ll_usb.c ****     }
 3175              		.loc 1 481 7 discriminator 19 view .LVU934
 3176 023e 002B     		cmp	r3, #0
 3177 0240 1AD1     		bne	.L140
 481:Drivers/STM32F0xx_HAL_Driver/Src/stm32f0xx_ll_usb.c ****     }
 3178              		.loc 1 481 7 discriminator 21 view .LVU935
 3179 0242 1388     		ldrh	r3, [r2]
 3180              	.LVL335:
 481:Drivers/STM32F0xx_HAL_Driver/Src/stm32f0xx_ll_usb.c ****     }
