ARM GAS  /tmp/ccd7InD5.s 			page 1


   1              		.cpu cortex-m0
   2              		.eabi_attribute 20, 1
   3              		.eabi_attribute 21, 1
   4              		.eabi_attribute 23, 3
   5              		.eabi_attribute 24, 1
   6              		.eabi_attribute 25, 1
   7              		.eabi_attribute 26, 1
   8              		.eabi_attribute 30, 1
   9              		.eabi_attribute 34, 0
  10              		.eabi_attribute 18, 4
  11              		.file	"stm32f0xx_hal_pcd.c"
  12              		.text
  13              	.Ltext0:
  14              		.cfi_sections	.debug_frame
  15              		.section	.text.HAL_PCD_MspInit,"ax",%progbits
  16              		.align	1
  17              		.weak	HAL_PCD_MspInit
  18              		.arch armv6s-m
  19              		.syntax unified
  20              		.code	16
  21              		.thumb_func
  22              		.fpu softvfp
  24              	HAL_PCD_MspInit:
  25              	.LVL0:
  26              	.LFB42:
  27              		.file 1 "Drivers/STM32F0xx_HAL_Driver/Src/stm32f0xx_hal_pcd.c"
   1:Drivers/STM32F0xx_HAL_Driver/Src/stm32f0xx_hal_pcd.c **** /**
   2:Drivers/STM32F0xx_HAL_Driver/Src/stm32f0xx_hal_pcd.c ****   ******************************************************************************
   3:Drivers/STM32F0xx_HAL_Driver/Src/stm32f0xx_hal_pcd.c ****   * @file    stm32f0xx_hal_pcd.c
   4:Drivers/STM32F0xx_HAL_Driver/Src/stm32f0xx_hal_pcd.c ****   * @author  MCD Application Team
   5:Drivers/STM32F0xx_HAL_Driver/Src/stm32f0xx_hal_pcd.c ****   * @brief   PCD HAL module driver.
   6:Drivers/STM32F0xx_HAL_Driver/Src/stm32f0xx_hal_pcd.c ****   *          This file provides firmware functions to manage the following
   7:Drivers/STM32F0xx_HAL_Driver/Src/stm32f0xx_hal_pcd.c ****   *          functionalities of the USB Peripheral Controller:
   8:Drivers/STM32F0xx_HAL_Driver/Src/stm32f0xx_hal_pcd.c ****   *           + Initialization and de-initialization functions
   9:Drivers/STM32F0xx_HAL_Driver/Src/stm32f0xx_hal_pcd.c ****   *           + IO operation functions
  10:Drivers/STM32F0xx_HAL_Driver/Src/stm32f0xx_hal_pcd.c ****   *           + Peripheral Control functions
  11:Drivers/STM32F0xx_HAL_Driver/Src/stm32f0xx_hal_pcd.c ****   *           + Peripheral State functions
  12:Drivers/STM32F0xx_HAL_Driver/Src/stm32f0xx_hal_pcd.c ****   *
  13:Drivers/STM32F0xx_HAL_Driver/Src/stm32f0xx_hal_pcd.c ****   @verbatim
  14:Drivers/STM32F0xx_HAL_Driver/Src/stm32f0xx_hal_pcd.c ****   ==============================================================================
  15:Drivers/STM32F0xx_HAL_Driver/Src/stm32f0xx_hal_pcd.c ****                     ##### How to use this driver #####
  16:Drivers/STM32F0xx_HAL_Driver/Src/stm32f0xx_hal_pcd.c ****   ==============================================================================
  17:Drivers/STM32F0xx_HAL_Driver/Src/stm32f0xx_hal_pcd.c ****     [..]
  18:Drivers/STM32F0xx_HAL_Driver/Src/stm32f0xx_hal_pcd.c ****       The PCD HAL driver can be used as follows:
  19:Drivers/STM32F0xx_HAL_Driver/Src/stm32f0xx_hal_pcd.c **** 
  20:Drivers/STM32F0xx_HAL_Driver/Src/stm32f0xx_hal_pcd.c ****      (#) Declare a PCD_HandleTypeDef handle structure, for example:
  21:Drivers/STM32F0xx_HAL_Driver/Src/stm32f0xx_hal_pcd.c ****          PCD_HandleTypeDef  hpcd;
  22:Drivers/STM32F0xx_HAL_Driver/Src/stm32f0xx_hal_pcd.c **** 
  23:Drivers/STM32F0xx_HAL_Driver/Src/stm32f0xx_hal_pcd.c ****      (#) Fill parameters of Init structure in HCD handle
  24:Drivers/STM32F0xx_HAL_Driver/Src/stm32f0xx_hal_pcd.c **** 
  25:Drivers/STM32F0xx_HAL_Driver/Src/stm32f0xx_hal_pcd.c ****      (#) Call HAL_PCD_Init() API to initialize the PCD peripheral (Core, Device core, ...)
  26:Drivers/STM32F0xx_HAL_Driver/Src/stm32f0xx_hal_pcd.c **** 
  27:Drivers/STM32F0xx_HAL_Driver/Src/stm32f0xx_hal_pcd.c ****      (#) Initialize the PCD low level resources through the HAL_PCD_MspInit() API:
  28:Drivers/STM32F0xx_HAL_Driver/Src/stm32f0xx_hal_pcd.c ****          (##) Enable the PCD/USB Low Level interface clock using
  29:Drivers/STM32F0xx_HAL_Driver/Src/stm32f0xx_hal_pcd.c ****               (+++) __HAL_RCC_USB_CLK_ENABLE(); For USB Device only FS peripheral
  30:Drivers/STM32F0xx_HAL_Driver/Src/stm32f0xx_hal_pcd.c **** 
  31:Drivers/STM32F0xx_HAL_Driver/Src/stm32f0xx_hal_pcd.c ****          (##) Initialize the related GPIO clocks
ARM GAS  /tmp/ccd7InD5.s 			page 2


  32:Drivers/STM32F0xx_HAL_Driver/Src/stm32f0xx_hal_pcd.c ****          (##) Configure PCD pin-out
  33:Drivers/STM32F0xx_HAL_Driver/Src/stm32f0xx_hal_pcd.c ****          (##) Configure PCD NVIC interrupt
  34:Drivers/STM32F0xx_HAL_Driver/Src/stm32f0xx_hal_pcd.c **** 
  35:Drivers/STM32F0xx_HAL_Driver/Src/stm32f0xx_hal_pcd.c ****      (#)Associate the Upper USB device stack to the HAL PCD Driver:
  36:Drivers/STM32F0xx_HAL_Driver/Src/stm32f0xx_hal_pcd.c ****          (##) hpcd.pData = pdev;
  37:Drivers/STM32F0xx_HAL_Driver/Src/stm32f0xx_hal_pcd.c **** 
  38:Drivers/STM32F0xx_HAL_Driver/Src/stm32f0xx_hal_pcd.c ****      (#)Enable PCD transmission and reception:
  39:Drivers/STM32F0xx_HAL_Driver/Src/stm32f0xx_hal_pcd.c ****          (##) HAL_PCD_Start();
  40:Drivers/STM32F0xx_HAL_Driver/Src/stm32f0xx_hal_pcd.c **** 
  41:Drivers/STM32F0xx_HAL_Driver/Src/stm32f0xx_hal_pcd.c ****   @endverbatim
  42:Drivers/STM32F0xx_HAL_Driver/Src/stm32f0xx_hal_pcd.c ****   ******************************************************************************
  43:Drivers/STM32F0xx_HAL_Driver/Src/stm32f0xx_hal_pcd.c ****   * @attention
  44:Drivers/STM32F0xx_HAL_Driver/Src/stm32f0xx_hal_pcd.c ****   *
  45:Drivers/STM32F0xx_HAL_Driver/Src/stm32f0xx_hal_pcd.c ****   * <h2><center>&copy; Copyright (c) 2016 STMicroelectronics.
  46:Drivers/STM32F0xx_HAL_Driver/Src/stm32f0xx_hal_pcd.c ****   * All rights reserved.</center></h2>
  47:Drivers/STM32F0xx_HAL_Driver/Src/stm32f0xx_hal_pcd.c ****   *
  48:Drivers/STM32F0xx_HAL_Driver/Src/stm32f0xx_hal_pcd.c ****   * This software component is licensed by ST under BSD 3-Clause license,
  49:Drivers/STM32F0xx_HAL_Driver/Src/stm32f0xx_hal_pcd.c ****   * the "License"; You may not use this file except in compliance with the
  50:Drivers/STM32F0xx_HAL_Driver/Src/stm32f0xx_hal_pcd.c ****   * License. You may obtain a copy of the License at:
  51:Drivers/STM32F0xx_HAL_Driver/Src/stm32f0xx_hal_pcd.c ****   *                        opensource.org/licenses/BSD-3-Clause
  52:Drivers/STM32F0xx_HAL_Driver/Src/stm32f0xx_hal_pcd.c ****   *
  53:Drivers/STM32F0xx_HAL_Driver/Src/stm32f0xx_hal_pcd.c ****   ******************************************************************************
  54:Drivers/STM32F0xx_HAL_Driver/Src/stm32f0xx_hal_pcd.c ****   */
  55:Drivers/STM32F0xx_HAL_Driver/Src/stm32f0xx_hal_pcd.c **** 
  56:Drivers/STM32F0xx_HAL_Driver/Src/stm32f0xx_hal_pcd.c **** /* Includes ------------------------------------------------------------------*/
  57:Drivers/STM32F0xx_HAL_Driver/Src/stm32f0xx_hal_pcd.c **** #include "stm32f0xx_hal.h"
  58:Drivers/STM32F0xx_HAL_Driver/Src/stm32f0xx_hal_pcd.c **** 
  59:Drivers/STM32F0xx_HAL_Driver/Src/stm32f0xx_hal_pcd.c **** /** @addtogroup STM32F0xx_HAL_Driver
  60:Drivers/STM32F0xx_HAL_Driver/Src/stm32f0xx_hal_pcd.c ****   * @{
  61:Drivers/STM32F0xx_HAL_Driver/Src/stm32f0xx_hal_pcd.c ****   */
  62:Drivers/STM32F0xx_HAL_Driver/Src/stm32f0xx_hal_pcd.c **** 
  63:Drivers/STM32F0xx_HAL_Driver/Src/stm32f0xx_hal_pcd.c **** /** @defgroup PCD PCD
  64:Drivers/STM32F0xx_HAL_Driver/Src/stm32f0xx_hal_pcd.c ****   * @brief PCD HAL module driver
  65:Drivers/STM32F0xx_HAL_Driver/Src/stm32f0xx_hal_pcd.c ****   * @{
  66:Drivers/STM32F0xx_HAL_Driver/Src/stm32f0xx_hal_pcd.c ****   */
  67:Drivers/STM32F0xx_HAL_Driver/Src/stm32f0xx_hal_pcd.c **** 
  68:Drivers/STM32F0xx_HAL_Driver/Src/stm32f0xx_hal_pcd.c **** #ifdef HAL_PCD_MODULE_ENABLED
  69:Drivers/STM32F0xx_HAL_Driver/Src/stm32f0xx_hal_pcd.c **** 
  70:Drivers/STM32F0xx_HAL_Driver/Src/stm32f0xx_hal_pcd.c **** #if defined (USB)
  71:Drivers/STM32F0xx_HAL_Driver/Src/stm32f0xx_hal_pcd.c **** 
  72:Drivers/STM32F0xx_HAL_Driver/Src/stm32f0xx_hal_pcd.c **** /* Private types -------------------------------------------------------------*/
  73:Drivers/STM32F0xx_HAL_Driver/Src/stm32f0xx_hal_pcd.c **** /* Private variables ---------------------------------------------------------*/
  74:Drivers/STM32F0xx_HAL_Driver/Src/stm32f0xx_hal_pcd.c **** /* Private constants ---------------------------------------------------------*/
  75:Drivers/STM32F0xx_HAL_Driver/Src/stm32f0xx_hal_pcd.c **** /* Private macros ------------------------------------------------------------*/
  76:Drivers/STM32F0xx_HAL_Driver/Src/stm32f0xx_hal_pcd.c **** /** @defgroup PCD_Private_Macros PCD Private Macros
  77:Drivers/STM32F0xx_HAL_Driver/Src/stm32f0xx_hal_pcd.c ****   * @{
  78:Drivers/STM32F0xx_HAL_Driver/Src/stm32f0xx_hal_pcd.c ****   */
  79:Drivers/STM32F0xx_HAL_Driver/Src/stm32f0xx_hal_pcd.c **** #define PCD_MIN(a, b)  (((a) < (b)) ? (a) : (b))
  80:Drivers/STM32F0xx_HAL_Driver/Src/stm32f0xx_hal_pcd.c **** #define PCD_MAX(a, b)  (((a) > (b)) ? (a) : (b))
  81:Drivers/STM32F0xx_HAL_Driver/Src/stm32f0xx_hal_pcd.c **** /**
  82:Drivers/STM32F0xx_HAL_Driver/Src/stm32f0xx_hal_pcd.c ****   * @}
  83:Drivers/STM32F0xx_HAL_Driver/Src/stm32f0xx_hal_pcd.c ****   */
  84:Drivers/STM32F0xx_HAL_Driver/Src/stm32f0xx_hal_pcd.c **** 
  85:Drivers/STM32F0xx_HAL_Driver/Src/stm32f0xx_hal_pcd.c **** /* Private functions prototypes ----------------------------------------------*/
  86:Drivers/STM32F0xx_HAL_Driver/Src/stm32f0xx_hal_pcd.c **** /** @defgroup PCD_Private_Functions PCD Private Functions
  87:Drivers/STM32F0xx_HAL_Driver/Src/stm32f0xx_hal_pcd.c ****   * @{
  88:Drivers/STM32F0xx_HAL_Driver/Src/stm32f0xx_hal_pcd.c ****   */
ARM GAS  /tmp/ccd7InD5.s 			page 3


  89:Drivers/STM32F0xx_HAL_Driver/Src/stm32f0xx_hal_pcd.c **** 
  90:Drivers/STM32F0xx_HAL_Driver/Src/stm32f0xx_hal_pcd.c **** static HAL_StatusTypeDef PCD_EP_ISR_Handler(PCD_HandleTypeDef *hpcd);
  91:Drivers/STM32F0xx_HAL_Driver/Src/stm32f0xx_hal_pcd.c **** 
  92:Drivers/STM32F0xx_HAL_Driver/Src/stm32f0xx_hal_pcd.c **** /**
  93:Drivers/STM32F0xx_HAL_Driver/Src/stm32f0xx_hal_pcd.c ****   * @}
  94:Drivers/STM32F0xx_HAL_Driver/Src/stm32f0xx_hal_pcd.c ****   */
  95:Drivers/STM32F0xx_HAL_Driver/Src/stm32f0xx_hal_pcd.c **** 
  96:Drivers/STM32F0xx_HAL_Driver/Src/stm32f0xx_hal_pcd.c **** /* Exported functions --------------------------------------------------------*/
  97:Drivers/STM32F0xx_HAL_Driver/Src/stm32f0xx_hal_pcd.c **** /** @defgroup PCD_Exported_Functions PCD Exported Functions
  98:Drivers/STM32F0xx_HAL_Driver/Src/stm32f0xx_hal_pcd.c ****   * @{
  99:Drivers/STM32F0xx_HAL_Driver/Src/stm32f0xx_hal_pcd.c ****   */
 100:Drivers/STM32F0xx_HAL_Driver/Src/stm32f0xx_hal_pcd.c **** 
 101:Drivers/STM32F0xx_HAL_Driver/Src/stm32f0xx_hal_pcd.c **** /** @defgroup PCD_Exported_Functions_Group1 Initialization and de-initialization functions
 102:Drivers/STM32F0xx_HAL_Driver/Src/stm32f0xx_hal_pcd.c ****  *  @brief    Initialization and Configuration functions
 103:Drivers/STM32F0xx_HAL_Driver/Src/stm32f0xx_hal_pcd.c ****  *
 104:Drivers/STM32F0xx_HAL_Driver/Src/stm32f0xx_hal_pcd.c **** @verbatim
 105:Drivers/STM32F0xx_HAL_Driver/Src/stm32f0xx_hal_pcd.c ****  ===============================================================================
 106:Drivers/STM32F0xx_HAL_Driver/Src/stm32f0xx_hal_pcd.c ****             ##### Initialization and de-initialization functions #####
 107:Drivers/STM32F0xx_HAL_Driver/Src/stm32f0xx_hal_pcd.c ****  ===============================================================================
 108:Drivers/STM32F0xx_HAL_Driver/Src/stm32f0xx_hal_pcd.c ****     [..]  This section provides functions allowing to:
 109:Drivers/STM32F0xx_HAL_Driver/Src/stm32f0xx_hal_pcd.c **** 
 110:Drivers/STM32F0xx_HAL_Driver/Src/stm32f0xx_hal_pcd.c **** @endverbatim
 111:Drivers/STM32F0xx_HAL_Driver/Src/stm32f0xx_hal_pcd.c ****   * @{
 112:Drivers/STM32F0xx_HAL_Driver/Src/stm32f0xx_hal_pcd.c ****   */
 113:Drivers/STM32F0xx_HAL_Driver/Src/stm32f0xx_hal_pcd.c **** 
 114:Drivers/STM32F0xx_HAL_Driver/Src/stm32f0xx_hal_pcd.c **** /**
 115:Drivers/STM32F0xx_HAL_Driver/Src/stm32f0xx_hal_pcd.c ****   * @brief  Initializes the PCD according to the specified
 116:Drivers/STM32F0xx_HAL_Driver/Src/stm32f0xx_hal_pcd.c ****   *         parameters in the PCD_InitTypeDef and initialize the associated handle.
 117:Drivers/STM32F0xx_HAL_Driver/Src/stm32f0xx_hal_pcd.c ****   * @param  hpcd PCD handle
 118:Drivers/STM32F0xx_HAL_Driver/Src/stm32f0xx_hal_pcd.c ****   * @retval HAL status
 119:Drivers/STM32F0xx_HAL_Driver/Src/stm32f0xx_hal_pcd.c ****   */
 120:Drivers/STM32F0xx_HAL_Driver/Src/stm32f0xx_hal_pcd.c **** HAL_StatusTypeDef HAL_PCD_Init(PCD_HandleTypeDef *hpcd)
 121:Drivers/STM32F0xx_HAL_Driver/Src/stm32f0xx_hal_pcd.c **** {
 122:Drivers/STM32F0xx_HAL_Driver/Src/stm32f0xx_hal_pcd.c ****   uint8_t i;
 123:Drivers/STM32F0xx_HAL_Driver/Src/stm32f0xx_hal_pcd.c **** 
 124:Drivers/STM32F0xx_HAL_Driver/Src/stm32f0xx_hal_pcd.c ****   /* Check the PCD handle allocation */
 125:Drivers/STM32F0xx_HAL_Driver/Src/stm32f0xx_hal_pcd.c ****   if (hpcd == NULL)
 126:Drivers/STM32F0xx_HAL_Driver/Src/stm32f0xx_hal_pcd.c ****   {
 127:Drivers/STM32F0xx_HAL_Driver/Src/stm32f0xx_hal_pcd.c ****     return HAL_ERROR;
 128:Drivers/STM32F0xx_HAL_Driver/Src/stm32f0xx_hal_pcd.c ****   }
 129:Drivers/STM32F0xx_HAL_Driver/Src/stm32f0xx_hal_pcd.c **** 
 130:Drivers/STM32F0xx_HAL_Driver/Src/stm32f0xx_hal_pcd.c ****   /* Check the parameters */
 131:Drivers/STM32F0xx_HAL_Driver/Src/stm32f0xx_hal_pcd.c ****   assert_param(IS_PCD_ALL_INSTANCE(hpcd->Instance));
 132:Drivers/STM32F0xx_HAL_Driver/Src/stm32f0xx_hal_pcd.c **** 
 133:Drivers/STM32F0xx_HAL_Driver/Src/stm32f0xx_hal_pcd.c ****   if (hpcd->State == HAL_PCD_STATE_RESET)
 134:Drivers/STM32F0xx_HAL_Driver/Src/stm32f0xx_hal_pcd.c ****   {
 135:Drivers/STM32F0xx_HAL_Driver/Src/stm32f0xx_hal_pcd.c ****     /* Allocate lock resource and initialize it */
 136:Drivers/STM32F0xx_HAL_Driver/Src/stm32f0xx_hal_pcd.c ****     hpcd->Lock = HAL_UNLOCKED;
 137:Drivers/STM32F0xx_HAL_Driver/Src/stm32f0xx_hal_pcd.c **** 
 138:Drivers/STM32F0xx_HAL_Driver/Src/stm32f0xx_hal_pcd.c **** #if (USE_HAL_PCD_REGISTER_CALLBACKS == 1U)
 139:Drivers/STM32F0xx_HAL_Driver/Src/stm32f0xx_hal_pcd.c ****     hpcd->SOFCallback = HAL_PCD_SOFCallback;
 140:Drivers/STM32F0xx_HAL_Driver/Src/stm32f0xx_hal_pcd.c ****     hpcd->SetupStageCallback = HAL_PCD_SetupStageCallback;
 141:Drivers/STM32F0xx_HAL_Driver/Src/stm32f0xx_hal_pcd.c ****     hpcd->ResetCallback = HAL_PCD_ResetCallback;
 142:Drivers/STM32F0xx_HAL_Driver/Src/stm32f0xx_hal_pcd.c ****     hpcd->SuspendCallback = HAL_PCD_SuspendCallback;
 143:Drivers/STM32F0xx_HAL_Driver/Src/stm32f0xx_hal_pcd.c ****     hpcd->ResumeCallback = HAL_PCD_ResumeCallback;
 144:Drivers/STM32F0xx_HAL_Driver/Src/stm32f0xx_hal_pcd.c ****     hpcd->ConnectCallback = HAL_PCD_ConnectCallback;
 145:Drivers/STM32F0xx_HAL_Driver/Src/stm32f0xx_hal_pcd.c ****     hpcd->DisconnectCallback = HAL_PCD_DisconnectCallback;
ARM GAS  /tmp/ccd7InD5.s 			page 4


 146:Drivers/STM32F0xx_HAL_Driver/Src/stm32f0xx_hal_pcd.c ****     hpcd->DataOutStageCallback = HAL_PCD_DataOutStageCallback;
 147:Drivers/STM32F0xx_HAL_Driver/Src/stm32f0xx_hal_pcd.c ****     hpcd->DataInStageCallback = HAL_PCD_DataInStageCallback;
 148:Drivers/STM32F0xx_HAL_Driver/Src/stm32f0xx_hal_pcd.c ****     hpcd->ISOOUTIncompleteCallback = HAL_PCD_ISOOUTIncompleteCallback;
 149:Drivers/STM32F0xx_HAL_Driver/Src/stm32f0xx_hal_pcd.c ****     hpcd->ISOINIncompleteCallback = HAL_PCD_ISOINIncompleteCallback;
 150:Drivers/STM32F0xx_HAL_Driver/Src/stm32f0xx_hal_pcd.c ****     hpcd->LPMCallback = HAL_PCDEx_LPM_Callback;
 151:Drivers/STM32F0xx_HAL_Driver/Src/stm32f0xx_hal_pcd.c ****     hpcd->BCDCallback = HAL_PCDEx_BCD_Callback;
 152:Drivers/STM32F0xx_HAL_Driver/Src/stm32f0xx_hal_pcd.c **** 
 153:Drivers/STM32F0xx_HAL_Driver/Src/stm32f0xx_hal_pcd.c ****     if (hpcd->MspInitCallback == NULL)
 154:Drivers/STM32F0xx_HAL_Driver/Src/stm32f0xx_hal_pcd.c ****     {
 155:Drivers/STM32F0xx_HAL_Driver/Src/stm32f0xx_hal_pcd.c ****       hpcd->MspInitCallback = HAL_PCD_MspInit;
 156:Drivers/STM32F0xx_HAL_Driver/Src/stm32f0xx_hal_pcd.c ****     }
 157:Drivers/STM32F0xx_HAL_Driver/Src/stm32f0xx_hal_pcd.c **** 
 158:Drivers/STM32F0xx_HAL_Driver/Src/stm32f0xx_hal_pcd.c ****     /* Init the low level hardware */
 159:Drivers/STM32F0xx_HAL_Driver/Src/stm32f0xx_hal_pcd.c ****     hpcd->MspInitCallback(hpcd);
 160:Drivers/STM32F0xx_HAL_Driver/Src/stm32f0xx_hal_pcd.c **** #else
 161:Drivers/STM32F0xx_HAL_Driver/Src/stm32f0xx_hal_pcd.c ****     /* Init the low level hardware : GPIO, CLOCK, NVIC... */
 162:Drivers/STM32F0xx_HAL_Driver/Src/stm32f0xx_hal_pcd.c ****     HAL_PCD_MspInit(hpcd);
 163:Drivers/STM32F0xx_HAL_Driver/Src/stm32f0xx_hal_pcd.c **** #endif /* (USE_HAL_PCD_REGISTER_CALLBACKS) */
 164:Drivers/STM32F0xx_HAL_Driver/Src/stm32f0xx_hal_pcd.c ****   }
 165:Drivers/STM32F0xx_HAL_Driver/Src/stm32f0xx_hal_pcd.c **** 
 166:Drivers/STM32F0xx_HAL_Driver/Src/stm32f0xx_hal_pcd.c ****   hpcd->State = HAL_PCD_STATE_BUSY;
 167:Drivers/STM32F0xx_HAL_Driver/Src/stm32f0xx_hal_pcd.c **** 
 168:Drivers/STM32F0xx_HAL_Driver/Src/stm32f0xx_hal_pcd.c ****   /* Disable the Interrupts */
 169:Drivers/STM32F0xx_HAL_Driver/Src/stm32f0xx_hal_pcd.c ****   __HAL_PCD_DISABLE(hpcd);
 170:Drivers/STM32F0xx_HAL_Driver/Src/stm32f0xx_hal_pcd.c **** 
 171:Drivers/STM32F0xx_HAL_Driver/Src/stm32f0xx_hal_pcd.c ****   /* Init endpoints structures */
 172:Drivers/STM32F0xx_HAL_Driver/Src/stm32f0xx_hal_pcd.c ****   for (i = 0U; i < hpcd->Init.dev_endpoints; i++)
 173:Drivers/STM32F0xx_HAL_Driver/Src/stm32f0xx_hal_pcd.c ****   {
 174:Drivers/STM32F0xx_HAL_Driver/Src/stm32f0xx_hal_pcd.c ****     /* Init ep structure */
 175:Drivers/STM32F0xx_HAL_Driver/Src/stm32f0xx_hal_pcd.c ****     hpcd->IN_ep[i].is_in = 1U;
 176:Drivers/STM32F0xx_HAL_Driver/Src/stm32f0xx_hal_pcd.c ****     hpcd->IN_ep[i].num = i;
 177:Drivers/STM32F0xx_HAL_Driver/Src/stm32f0xx_hal_pcd.c ****     hpcd->IN_ep[i].tx_fifo_num = i;
 178:Drivers/STM32F0xx_HAL_Driver/Src/stm32f0xx_hal_pcd.c ****     /* Control until ep is activated */
 179:Drivers/STM32F0xx_HAL_Driver/Src/stm32f0xx_hal_pcd.c ****     hpcd->IN_ep[i].type = EP_TYPE_CTRL;
 180:Drivers/STM32F0xx_HAL_Driver/Src/stm32f0xx_hal_pcd.c ****     hpcd->IN_ep[i].maxpacket = 0U;
 181:Drivers/STM32F0xx_HAL_Driver/Src/stm32f0xx_hal_pcd.c ****     hpcd->IN_ep[i].xfer_buff = 0U;
 182:Drivers/STM32F0xx_HAL_Driver/Src/stm32f0xx_hal_pcd.c ****     hpcd->IN_ep[i].xfer_len = 0U;
 183:Drivers/STM32F0xx_HAL_Driver/Src/stm32f0xx_hal_pcd.c ****   }
 184:Drivers/STM32F0xx_HAL_Driver/Src/stm32f0xx_hal_pcd.c **** 
 185:Drivers/STM32F0xx_HAL_Driver/Src/stm32f0xx_hal_pcd.c ****   for (i = 0U; i < hpcd->Init.dev_endpoints; i++)
 186:Drivers/STM32F0xx_HAL_Driver/Src/stm32f0xx_hal_pcd.c ****   {
 187:Drivers/STM32F0xx_HAL_Driver/Src/stm32f0xx_hal_pcd.c ****     hpcd->OUT_ep[i].is_in = 0U;
 188:Drivers/STM32F0xx_HAL_Driver/Src/stm32f0xx_hal_pcd.c ****     hpcd->OUT_ep[i].num = i;
 189:Drivers/STM32F0xx_HAL_Driver/Src/stm32f0xx_hal_pcd.c ****     /* Control until ep is activated */
 190:Drivers/STM32F0xx_HAL_Driver/Src/stm32f0xx_hal_pcd.c ****     hpcd->OUT_ep[i].type = EP_TYPE_CTRL;
 191:Drivers/STM32F0xx_HAL_Driver/Src/stm32f0xx_hal_pcd.c ****     hpcd->OUT_ep[i].maxpacket = 0U;
 192:Drivers/STM32F0xx_HAL_Driver/Src/stm32f0xx_hal_pcd.c ****     hpcd->OUT_ep[i].xfer_buff = 0U;
 193:Drivers/STM32F0xx_HAL_Driver/Src/stm32f0xx_hal_pcd.c ****     hpcd->OUT_ep[i].xfer_len = 0U;
 194:Drivers/STM32F0xx_HAL_Driver/Src/stm32f0xx_hal_pcd.c ****   }
 195:Drivers/STM32F0xx_HAL_Driver/Src/stm32f0xx_hal_pcd.c **** 
 196:Drivers/STM32F0xx_HAL_Driver/Src/stm32f0xx_hal_pcd.c ****   /* Init Device */
 197:Drivers/STM32F0xx_HAL_Driver/Src/stm32f0xx_hal_pcd.c ****   (void)USB_DevInit(hpcd->Instance, hpcd->Init);
 198:Drivers/STM32F0xx_HAL_Driver/Src/stm32f0xx_hal_pcd.c **** 
 199:Drivers/STM32F0xx_HAL_Driver/Src/stm32f0xx_hal_pcd.c ****   hpcd->USB_Address = 0U;
 200:Drivers/STM32F0xx_HAL_Driver/Src/stm32f0xx_hal_pcd.c ****   hpcd->State = HAL_PCD_STATE_READY;
 201:Drivers/STM32F0xx_HAL_Driver/Src/stm32f0xx_hal_pcd.c ****   
 202:Drivers/STM32F0xx_HAL_Driver/Src/stm32f0xx_hal_pcd.c ****   /* Activate LPM */
ARM GAS  /tmp/ccd7InD5.s 			page 5


 203:Drivers/STM32F0xx_HAL_Driver/Src/stm32f0xx_hal_pcd.c ****   if (hpcd->Init.lpm_enable == 1U)
 204:Drivers/STM32F0xx_HAL_Driver/Src/stm32f0xx_hal_pcd.c ****   {
 205:Drivers/STM32F0xx_HAL_Driver/Src/stm32f0xx_hal_pcd.c ****     (void)HAL_PCDEx_ActivateLPM(hpcd);
 206:Drivers/STM32F0xx_HAL_Driver/Src/stm32f0xx_hal_pcd.c ****   }
 207:Drivers/STM32F0xx_HAL_Driver/Src/stm32f0xx_hal_pcd.c ****   
 208:Drivers/STM32F0xx_HAL_Driver/Src/stm32f0xx_hal_pcd.c ****   return HAL_OK;
 209:Drivers/STM32F0xx_HAL_Driver/Src/stm32f0xx_hal_pcd.c **** }
 210:Drivers/STM32F0xx_HAL_Driver/Src/stm32f0xx_hal_pcd.c **** 
 211:Drivers/STM32F0xx_HAL_Driver/Src/stm32f0xx_hal_pcd.c **** /**
 212:Drivers/STM32F0xx_HAL_Driver/Src/stm32f0xx_hal_pcd.c ****   * @brief  DeInitializes the PCD peripheral.
 213:Drivers/STM32F0xx_HAL_Driver/Src/stm32f0xx_hal_pcd.c ****   * @param  hpcd PCD handle
 214:Drivers/STM32F0xx_HAL_Driver/Src/stm32f0xx_hal_pcd.c ****   * @retval HAL status
 215:Drivers/STM32F0xx_HAL_Driver/Src/stm32f0xx_hal_pcd.c ****   */
 216:Drivers/STM32F0xx_HAL_Driver/Src/stm32f0xx_hal_pcd.c **** HAL_StatusTypeDef HAL_PCD_DeInit(PCD_HandleTypeDef *hpcd)
 217:Drivers/STM32F0xx_HAL_Driver/Src/stm32f0xx_hal_pcd.c **** {
 218:Drivers/STM32F0xx_HAL_Driver/Src/stm32f0xx_hal_pcd.c ****   /* Check the PCD handle allocation */
 219:Drivers/STM32F0xx_HAL_Driver/Src/stm32f0xx_hal_pcd.c ****   if (hpcd == NULL)
 220:Drivers/STM32F0xx_HAL_Driver/Src/stm32f0xx_hal_pcd.c ****   {
 221:Drivers/STM32F0xx_HAL_Driver/Src/stm32f0xx_hal_pcd.c ****     return HAL_ERROR;
 222:Drivers/STM32F0xx_HAL_Driver/Src/stm32f0xx_hal_pcd.c ****   }
 223:Drivers/STM32F0xx_HAL_Driver/Src/stm32f0xx_hal_pcd.c **** 
 224:Drivers/STM32F0xx_HAL_Driver/Src/stm32f0xx_hal_pcd.c ****   hpcd->State = HAL_PCD_STATE_BUSY;
 225:Drivers/STM32F0xx_HAL_Driver/Src/stm32f0xx_hal_pcd.c **** 
 226:Drivers/STM32F0xx_HAL_Driver/Src/stm32f0xx_hal_pcd.c ****   /* Stop Device */
 227:Drivers/STM32F0xx_HAL_Driver/Src/stm32f0xx_hal_pcd.c ****   (void)HAL_PCD_Stop(hpcd);
 228:Drivers/STM32F0xx_HAL_Driver/Src/stm32f0xx_hal_pcd.c **** 
 229:Drivers/STM32F0xx_HAL_Driver/Src/stm32f0xx_hal_pcd.c **** #if (USE_HAL_PCD_REGISTER_CALLBACKS == 1U)
 230:Drivers/STM32F0xx_HAL_Driver/Src/stm32f0xx_hal_pcd.c ****   if (hpcd->MspDeInitCallback == NULL)
 231:Drivers/STM32F0xx_HAL_Driver/Src/stm32f0xx_hal_pcd.c ****   {
 232:Drivers/STM32F0xx_HAL_Driver/Src/stm32f0xx_hal_pcd.c ****     hpcd->MspDeInitCallback = HAL_PCD_MspDeInit; /* Legacy weak MspDeInit  */
 233:Drivers/STM32F0xx_HAL_Driver/Src/stm32f0xx_hal_pcd.c ****   }
 234:Drivers/STM32F0xx_HAL_Driver/Src/stm32f0xx_hal_pcd.c **** 
 235:Drivers/STM32F0xx_HAL_Driver/Src/stm32f0xx_hal_pcd.c ****   /* DeInit the low level hardware */
 236:Drivers/STM32F0xx_HAL_Driver/Src/stm32f0xx_hal_pcd.c ****   hpcd->MspDeInitCallback(hpcd);
 237:Drivers/STM32F0xx_HAL_Driver/Src/stm32f0xx_hal_pcd.c **** #else
 238:Drivers/STM32F0xx_HAL_Driver/Src/stm32f0xx_hal_pcd.c ****   /* DeInit the low level hardware: CLOCK, NVIC.*/
 239:Drivers/STM32F0xx_HAL_Driver/Src/stm32f0xx_hal_pcd.c ****   HAL_PCD_MspDeInit(hpcd);
 240:Drivers/STM32F0xx_HAL_Driver/Src/stm32f0xx_hal_pcd.c **** #endif /* USE_HAL_PCD_REGISTER_CALLBACKS */
 241:Drivers/STM32F0xx_HAL_Driver/Src/stm32f0xx_hal_pcd.c **** 
 242:Drivers/STM32F0xx_HAL_Driver/Src/stm32f0xx_hal_pcd.c ****   hpcd->State = HAL_PCD_STATE_RESET;
 243:Drivers/STM32F0xx_HAL_Driver/Src/stm32f0xx_hal_pcd.c **** 
 244:Drivers/STM32F0xx_HAL_Driver/Src/stm32f0xx_hal_pcd.c ****   return HAL_OK;
 245:Drivers/STM32F0xx_HAL_Driver/Src/stm32f0xx_hal_pcd.c **** }
 246:Drivers/STM32F0xx_HAL_Driver/Src/stm32f0xx_hal_pcd.c **** 
 247:Drivers/STM32F0xx_HAL_Driver/Src/stm32f0xx_hal_pcd.c **** /**
 248:Drivers/STM32F0xx_HAL_Driver/Src/stm32f0xx_hal_pcd.c ****   * @brief  Initializes the PCD MSP.
 249:Drivers/STM32F0xx_HAL_Driver/Src/stm32f0xx_hal_pcd.c ****   * @param  hpcd PCD handle
 250:Drivers/STM32F0xx_HAL_Driver/Src/stm32f0xx_hal_pcd.c ****   * @retval None
 251:Drivers/STM32F0xx_HAL_Driver/Src/stm32f0xx_hal_pcd.c ****   */
 252:Drivers/STM32F0xx_HAL_Driver/Src/stm32f0xx_hal_pcd.c **** __weak void HAL_PCD_MspInit(PCD_HandleTypeDef *hpcd)
 253:Drivers/STM32F0xx_HAL_Driver/Src/stm32f0xx_hal_pcd.c **** {
  28              		.loc 1 253 1 view -0
  29              		.cfi_startproc
  30              		@ args = 0, pretend = 0, frame = 0
  31              		@ frame_needed = 0, uses_anonymous_args = 0
  32              		@ link register save eliminated.
 254:Drivers/STM32F0xx_HAL_Driver/Src/stm32f0xx_hal_pcd.c ****   /* Prevent unused argument(s) compilation warning */
ARM GAS  /tmp/ccd7InD5.s 			page 6


 255:Drivers/STM32F0xx_HAL_Driver/Src/stm32f0xx_hal_pcd.c ****   UNUSED(hpcd);
  33              		.loc 1 255 3 view .LVU1
 256:Drivers/STM32F0xx_HAL_Driver/Src/stm32f0xx_hal_pcd.c **** 
 257:Drivers/STM32F0xx_HAL_Driver/Src/stm32f0xx_hal_pcd.c ****   /* NOTE : This function should not be modified, when the callback is needed,
 258:Drivers/STM32F0xx_HAL_Driver/Src/stm32f0xx_hal_pcd.c ****             the HAL_PCD_MspInit could be implemented in the user file
 259:Drivers/STM32F0xx_HAL_Driver/Src/stm32f0xx_hal_pcd.c ****    */
 260:Drivers/STM32F0xx_HAL_Driver/Src/stm32f0xx_hal_pcd.c **** }
  34              		.loc 1 260 1 is_stmt 0 view .LVU2
  35              		@ sp needed
  36 0000 7047     		bx	lr
  37              		.cfi_endproc
  38              	.LFE42:
  40              		.section	.text.HAL_PCD_Init,"ax",%progbits
  41              		.align	1
  42              		.global	HAL_PCD_Init
  43              		.syntax unified
  44              		.code	16
  45              		.thumb_func
  46              		.fpu softvfp
  48              	HAL_PCD_Init:
  49              	.LVL1:
  50              	.LFB40:
 121:Drivers/STM32F0xx_HAL_Driver/Src/stm32f0xx_hal_pcd.c ****   uint8_t i;
  51              		.loc 1 121 1 is_stmt 1 view -0
  52              		.cfi_startproc
  53              		@ args = 0, pretend = 0, frame = 0
  54              		@ frame_needed = 0, uses_anonymous_args = 0
 121:Drivers/STM32F0xx_HAL_Driver/Src/stm32f0xx_hal_pcd.c ****   uint8_t i;
  55              		.loc 1 121 1 is_stmt 0 view .LVU4
  56 0000 70B5     		push	{r4, r5, r6, lr}
  57              	.LCFI0:
  58              		.cfi_def_cfa_offset 16
  59              		.cfi_offset 4, -16
  60              		.cfi_offset 5, -12
  61              		.cfi_offset 6, -8
  62              		.cfi_offset 14, -4
  63 0002 86B0     		sub	sp, sp, #24
  64              	.LCFI1:
  65              		.cfi_def_cfa_offset 40
  66 0004 041E     		subs	r4, r0, #0
 122:Drivers/STM32F0xx_HAL_Driver/Src/stm32f0xx_hal_pcd.c **** 
  67              		.loc 1 122 3 is_stmt 1 view .LVU5
 125:Drivers/STM32F0xx_HAL_Driver/Src/stm32f0xx_hal_pcd.c ****   {
  68              		.loc 1 125 3 view .LVU6
 125:Drivers/STM32F0xx_HAL_Driver/Src/stm32f0xx_hal_pcd.c ****   {
  69              		.loc 1 125 6 is_stmt 0 view .LVU7
  70 0006 61D0     		beq	.L9
 131:Drivers/STM32F0xx_HAL_Driver/Src/stm32f0xx_hal_pcd.c **** 
  71              		.loc 1 131 3 is_stmt 1 view .LVU8
 133:Drivers/STM32F0xx_HAL_Driver/Src/stm32f0xx_hal_pcd.c ****   {
  72              		.loc 1 133 3 view .LVU9
 133:Drivers/STM32F0xx_HAL_Driver/Src/stm32f0xx_hal_pcd.c ****   {
  73              		.loc 1 133 11 is_stmt 0 view .LVU10
  74 0008 314B     		ldr	r3, .L13
  75 000a C35C     		ldrb	r3, [r0, r3]
 133:Drivers/STM32F0xx_HAL_Driver/Src/stm32f0xx_hal_pcd.c ****   {
  76              		.loc 1 133 6 view .LVU11
ARM GAS  /tmp/ccd7InD5.s 			page 7


  77 000c 002B     		cmp	r3, #0
  78 000e 07D0     		beq	.L11
  79              	.LVL2:
  80              	.L4:
 166:Drivers/STM32F0xx_HAL_Driver/Src/stm32f0xx_hal_pcd.c **** 
  81              		.loc 1 166 3 is_stmt 1 view .LVU12
 166:Drivers/STM32F0xx_HAL_Driver/Src/stm32f0xx_hal_pcd.c **** 
  82              		.loc 1 166 15 is_stmt 0 view .LVU13
  83 0010 2F4B     		ldr	r3, .L13
  84 0012 0322     		movs	r2, #3
  85 0014 E254     		strb	r2, [r4, r3]
 169:Drivers/STM32F0xx_HAL_Driver/Src/stm32f0xx_hal_pcd.c **** 
  86              		.loc 1 169 3 is_stmt 1 view .LVU14
  87 0016 2068     		ldr	r0, [r4]
  88 0018 FFF7FEFF 		bl	USB_DisableGlobalInt
  89              	.LVL3:
 172:Drivers/STM32F0xx_HAL_Driver/Src/stm32f0xx_hal_pcd.c ****   {
  90              		.loc 1 172 3 view .LVU15
 172:Drivers/STM32F0xx_HAL_Driver/Src/stm32f0xx_hal_pcd.c ****   {
  91              		.loc 1 172 10 is_stmt 0 view .LVU16
  92 001c 0023     		movs	r3, #0
 172:Drivers/STM32F0xx_HAL_Driver/Src/stm32f0xx_hal_pcd.c ****   {
  93              		.loc 1 172 3 view .LVU17
  94 001e 1AE0     		b	.L5
  95              	.LVL4:
  96              	.L11:
 136:Drivers/STM32F0xx_HAL_Driver/Src/stm32f0xx_hal_pcd.c **** 
  97              		.loc 1 136 5 is_stmt 1 view .LVU18
 136:Drivers/STM32F0xx_HAL_Driver/Src/stm32f0xx_hal_pcd.c **** 
  98              		.loc 1 136 16 is_stmt 0 view .LVU19
  99 0020 8A23     		movs	r3, #138
 100 0022 9B00     		lsls	r3, r3, #2
 101 0024 0022     		movs	r2, #0
 102 0026 C254     		strb	r2, [r0, r3]
 162:Drivers/STM32F0xx_HAL_Driver/Src/stm32f0xx_hal_pcd.c **** #endif /* (USE_HAL_PCD_REGISTER_CALLBACKS) */
 103              		.loc 1 162 5 is_stmt 1 view .LVU20
 104 0028 FFF7FEFF 		bl	HAL_PCD_MspInit
 105              	.LVL5:
 162:Drivers/STM32F0xx_HAL_Driver/Src/stm32f0xx_hal_pcd.c **** #endif /* (USE_HAL_PCD_REGISTER_CALLBACKS) */
 106              		.loc 1 162 5 is_stmt 0 view .LVU21
 107 002c F0E7     		b	.L4
 108              	.LVL6:
 109              	.L6:
 175:Drivers/STM32F0xx_HAL_Driver/Src/stm32f0xx_hal_pcd.c ****     hpcd->IN_ep[i].num = i;
 110              		.loc 1 175 5 is_stmt 1 discriminator 3 view .LVU22
 175:Drivers/STM32F0xx_HAL_Driver/Src/stm32f0xx_hal_pcd.c ****     hpcd->IN_ep[i].num = i;
 111              		.loc 1 175 26 is_stmt 0 discriminator 3 view .LVU23
 112 002e 5A01     		lsls	r2, r3, #5
 113 0030 A218     		adds	r2, r4, r2
 114 0032 1100     		movs	r1, r2
 115 0034 2931     		adds	r1, r1, #41
 116 0036 0120     		movs	r0, #1
 117 0038 0870     		strb	r0, [r1]
 176:Drivers/STM32F0xx_HAL_Driver/Src/stm32f0xx_hal_pcd.c ****     hpcd->IN_ep[i].tx_fifo_num = i;
 118              		.loc 1 176 5 is_stmt 1 discriminator 3 view .LVU24
 176:Drivers/STM32F0xx_HAL_Driver/Src/stm32f0xx_hal_pcd.c ****     hpcd->IN_ep[i].tx_fifo_num = i;
 119              		.loc 1 176 24 is_stmt 0 discriminator 3 view .LVU25
ARM GAS  /tmp/ccd7InD5.s 			page 8


 120 003a 0139     		subs	r1, r1, #1
 121 003c 0B70     		strb	r3, [r1]
 177:Drivers/STM32F0xx_HAL_Driver/Src/stm32f0xx_hal_pcd.c ****     /* Control until ep is activated */
 122              		.loc 1 177 5 is_stmt 1 discriminator 3 view .LVU26
 177:Drivers/STM32F0xx_HAL_Driver/Src/stm32f0xx_hal_pcd.c ****     /* Control until ep is activated */
 123              		.loc 1 177 32 is_stmt 0 discriminator 3 view .LVU27
 124 003e D386     		strh	r3, [r2, #54]
 179:Drivers/STM32F0xx_HAL_Driver/Src/stm32f0xx_hal_pcd.c ****     hpcd->IN_ep[i].maxpacket = 0U;
 125              		.loc 1 179 5 is_stmt 1 discriminator 3 view .LVU28
 179:Drivers/STM32F0xx_HAL_Driver/Src/stm32f0xx_hal_pcd.c ****     hpcd->IN_ep[i].maxpacket = 0U;
 126              		.loc 1 179 25 is_stmt 0 discriminator 3 view .LVU29
 127 0040 1000     		movs	r0, r2
 128 0042 2B30     		adds	r0, r0, #43
 129 0044 0021     		movs	r1, #0
 130 0046 0170     		strb	r1, [r0]
 180:Drivers/STM32F0xx_HAL_Driver/Src/stm32f0xx_hal_pcd.c ****     hpcd->IN_ep[i].xfer_buff = 0U;
 131              		.loc 1 180 5 is_stmt 1 discriminator 3 view .LVU30
 180:Drivers/STM32F0xx_HAL_Driver/Src/stm32f0xx_hal_pcd.c ****     hpcd->IN_ep[i].xfer_buff = 0U;
 132              		.loc 1 180 30 is_stmt 0 discriminator 3 view .LVU31
 133 0048 9163     		str	r1, [r2, #56]
 181:Drivers/STM32F0xx_HAL_Driver/Src/stm32f0xx_hal_pcd.c ****     hpcd->IN_ep[i].xfer_len = 0U;
 134              		.loc 1 181 5 is_stmt 1 discriminator 3 view .LVU32
 181:Drivers/STM32F0xx_HAL_Driver/Src/stm32f0xx_hal_pcd.c ****     hpcd->IN_ep[i].xfer_len = 0U;
 135              		.loc 1 181 30 is_stmt 0 discriminator 3 view .LVU33
 136 004a D163     		str	r1, [r2, #60]
 182:Drivers/STM32F0xx_HAL_Driver/Src/stm32f0xx_hal_pcd.c ****   }
 137              		.loc 1 182 5 is_stmt 1 discriminator 3 view .LVU34
 182:Drivers/STM32F0xx_HAL_Driver/Src/stm32f0xx_hal_pcd.c ****   }
 138              		.loc 1 182 29 is_stmt 0 discriminator 3 view .LVU35
 139 004c 9A1C     		adds	r2, r3, #2
 140 004e 5201     		lsls	r2, r2, #5
 141 0050 1151     		str	r1, [r2, r4]
 172:Drivers/STM32F0xx_HAL_Driver/Src/stm32f0xx_hal_pcd.c ****   {
 142              		.loc 1 172 47 is_stmt 1 discriminator 3 view .LVU36
 143 0052 0133     		adds	r3, r3, #1
 144              	.LVL7:
 172:Drivers/STM32F0xx_HAL_Driver/Src/stm32f0xx_hal_pcd.c ****   {
 145              		.loc 1 172 47 is_stmt 0 discriminator 3 view .LVU37
 146 0054 DBB2     		uxtb	r3, r3
 147              	.LVL8:
 148              	.L5:
 172:Drivers/STM32F0xx_HAL_Driver/Src/stm32f0xx_hal_pcd.c ****   {
 149              		.loc 1 172 18 is_stmt 1 discriminator 1 view .LVU38
 172:Drivers/STM32F0xx_HAL_Driver/Src/stm32f0xx_hal_pcd.c ****   {
 150              		.loc 1 172 30 is_stmt 0 discriminator 1 view .LVU39
 151 0056 6068     		ldr	r0, [r4, #4]
 172:Drivers/STM32F0xx_HAL_Driver/Src/stm32f0xx_hal_pcd.c ****   {
 152              		.loc 1 172 18 discriminator 1 view .LVU40
 153 0058 8342     		cmp	r3, r0
 154 005a E8D3     		bcc	.L6
 185:Drivers/STM32F0xx_HAL_Driver/Src/stm32f0xx_hal_pcd.c ****   {
 155              		.loc 1 185 10 view .LVU41
 156 005c 0022     		movs	r2, #0
 157 005e 15E0     		b	.L7
 158              	.LVL9:
 159              	.L8:
 187:Drivers/STM32F0xx_HAL_Driver/Src/stm32f0xx_hal_pcd.c ****     hpcd->OUT_ep[i].num = i;
ARM GAS  /tmp/ccd7InD5.s 			page 9


 160              		.loc 1 187 5 is_stmt 1 discriminator 3 view .LVU42
 187:Drivers/STM32F0xx_HAL_Driver/Src/stm32f0xx_hal_pcd.c ****     hpcd->OUT_ep[i].num = i;
 161              		.loc 1 187 27 is_stmt 0 discriminator 3 view .LVU43
 162 0060 5301     		lsls	r3, r2, #5
 163 0062 E318     		adds	r3, r4, r3
 164 0064 1D00     		movs	r5, r3
 165 0066 2A35     		adds	r5, r5, #42
 166 0068 FF35     		adds	r5, r5, #255
 167 006a 0021     		movs	r1, #0
 168 006c 2970     		strb	r1, [r5]
 188:Drivers/STM32F0xx_HAL_Driver/Src/stm32f0xx_hal_pcd.c ****     /* Control until ep is activated */
 169              		.loc 1 188 5 is_stmt 1 discriminator 3 view .LVU44
 188:Drivers/STM32F0xx_HAL_Driver/Src/stm32f0xx_hal_pcd.c ****     /* Control until ep is activated */
 170              		.loc 1 188 25 is_stmt 0 discriminator 3 view .LVU45
 171 006e 013D     		subs	r5, r5, #1
 172 0070 2A70     		strb	r2, [r5]
 190:Drivers/STM32F0xx_HAL_Driver/Src/stm32f0xx_hal_pcd.c ****     hpcd->OUT_ep[i].maxpacket = 0U;
 173              		.loc 1 190 5 is_stmt 1 discriminator 3 view .LVU46
 190:Drivers/STM32F0xx_HAL_Driver/Src/stm32f0xx_hal_pcd.c ****     hpcd->OUT_ep[i].maxpacket = 0U;
 174              		.loc 1 190 26 is_stmt 0 discriminator 3 view .LVU47
 175 0072 0335     		adds	r5, r5, #3
 176 0074 2970     		strb	r1, [r5]
 191:Drivers/STM32F0xx_HAL_Driver/Src/stm32f0xx_hal_pcd.c ****     hpcd->OUT_ep[i].xfer_buff = 0U;
 177              		.loc 1 191 5 is_stmt 1 discriminator 3 view .LVU48
 191:Drivers/STM32F0xx_HAL_Driver/Src/stm32f0xx_hal_pcd.c ****     hpcd->OUT_ep[i].xfer_buff = 0U;
 178              		.loc 1 191 31 is_stmt 0 discriminator 3 view .LVU49
 179 0076 0D35     		adds	r5, r5, #13
 180 0078 2960     		str	r1, [r5]
 192:Drivers/STM32F0xx_HAL_Driver/Src/stm32f0xx_hal_pcd.c ****     hpcd->OUT_ep[i].xfer_len = 0U;
 181              		.loc 1 192 5 is_stmt 1 discriminator 3 view .LVU50
 192:Drivers/STM32F0xx_HAL_Driver/Src/stm32f0xx_hal_pcd.c ****     hpcd->OUT_ep[i].xfer_len = 0U;
 182              		.loc 1 192 31 is_stmt 0 discriminator 3 view .LVU51
 183 007a 3D33     		adds	r3, r3, #61
 184 007c FF33     		adds	r3, r3, #255
 185 007e 1960     		str	r1, [r3]
 193:Drivers/STM32F0xx_HAL_Driver/Src/stm32f0xx_hal_pcd.c ****   }
 186              		.loc 1 193 5 is_stmt 1 discriminator 3 view .LVU52
 193:Drivers/STM32F0xx_HAL_Driver/Src/stm32f0xx_hal_pcd.c ****   }
 187              		.loc 1 193 30 is_stmt 0 discriminator 3 view .LVU53
 188 0080 1300     		movs	r3, r2
 189 0082 0A33     		adds	r3, r3, #10
 190 0084 5B01     		lsls	r3, r3, #5
 191 0086 1951     		str	r1, [r3, r4]
 185:Drivers/STM32F0xx_HAL_Driver/Src/stm32f0xx_hal_pcd.c ****   {
 192              		.loc 1 185 47 is_stmt 1 discriminator 3 view .LVU54
 193 0088 0132     		adds	r2, r2, #1
 194              	.LVL10:
 185:Drivers/STM32F0xx_HAL_Driver/Src/stm32f0xx_hal_pcd.c ****   {
 195              		.loc 1 185 47 is_stmt 0 discriminator 3 view .LVU55
 196 008a D2B2     		uxtb	r2, r2
 197              	.LVL11:
 198              	.L7:
 185:Drivers/STM32F0xx_HAL_Driver/Src/stm32f0xx_hal_pcd.c ****   {
 199              		.loc 1 185 18 is_stmt 1 discriminator 1 view .LVU56
 200 008c 9042     		cmp	r0, r2
 201 008e E7D8     		bhi	.L8
 197:Drivers/STM32F0xx_HAL_Driver/Src/stm32f0xx_hal_pcd.c **** 
ARM GAS  /tmp/ccd7InD5.s 			page 10


 202              		.loc 1 197 3 view .LVU57
 197:Drivers/STM32F0xx_HAL_Driver/Src/stm32f0xx_hal_pcd.c **** 
 203              		.loc 1 197 25 is_stmt 0 view .LVU58
 204 0090 2068     		ldr	r0, [r4]
 197:Drivers/STM32F0xx_HAL_Driver/Src/stm32f0xx_hal_pcd.c **** 
 205              		.loc 1 197 9 view .LVU59
 206 0092 2300     		movs	r3, r4
 207 0094 1033     		adds	r3, r3, #16
 208 0096 6A46     		mov	r2, sp
 209              	.LVL12:
 197:Drivers/STM32F0xx_HAL_Driver/Src/stm32f0xx_hal_pcd.c **** 
 210              		.loc 1 197 9 view .LVU60
 211 0098 62CB     		ldmia	r3!, {r1, r5, r6}
 212 009a 62C2     		stmia	r2!, {r1, r5, r6}
 213 009c 22CB     		ldmia	r3!, {r1, r5}
 214 009e 22C2     		stmia	r2!, {r1, r5}
 215 00a0 6168     		ldr	r1, [r4, #4]
 216 00a2 A268     		ldr	r2, [r4, #8]
 217 00a4 E368     		ldr	r3, [r4, #12]
 218 00a6 FFF7FEFF 		bl	USB_DevInit
 219              	.LVL13:
 199:Drivers/STM32F0xx_HAL_Driver/Src/stm32f0xx_hal_pcd.c ****   hpcd->State = HAL_PCD_STATE_READY;
 220              		.loc 1 199 3 is_stmt 1 view .LVU61
 199:Drivers/STM32F0xx_HAL_Driver/Src/stm32f0xx_hal_pcd.c ****   hpcd->State = HAL_PCD_STATE_READY;
 221              		.loc 1 199 21 is_stmt 0 view .LVU62
 222 00aa 2423     		movs	r3, #36
 223 00ac 0022     		movs	r2, #0
 224 00ae E254     		strb	r2, [r4, r3]
 200:Drivers/STM32F0xx_HAL_Driver/Src/stm32f0xx_hal_pcd.c ****   
 225              		.loc 1 200 3 is_stmt 1 view .LVU63
 200:Drivers/STM32F0xx_HAL_Driver/Src/stm32f0xx_hal_pcd.c ****   
 226              		.loc 1 200 15 is_stmt 0 view .LVU64
 227 00b0 074B     		ldr	r3, .L13
 228 00b2 0132     		adds	r2, r2, #1
 229 00b4 E254     		strb	r2, [r4, r3]
 203:Drivers/STM32F0xx_HAL_Driver/Src/stm32f0xx_hal_pcd.c ****   {
 230              		.loc 1 203 3 is_stmt 1 view .LVU65
 203:Drivers/STM32F0xx_HAL_Driver/Src/stm32f0xx_hal_pcd.c ****   {
 231              		.loc 1 203 17 is_stmt 0 view .LVU66
 232 00b6 E369     		ldr	r3, [r4, #28]
 203:Drivers/STM32F0xx_HAL_Driver/Src/stm32f0xx_hal_pcd.c ****   {
 233              		.loc 1 203 6 view .LVU67
 234 00b8 012B     		cmp	r3, #1
 235 00ba 02D0     		beq	.L12
 208:Drivers/STM32F0xx_HAL_Driver/Src/stm32f0xx_hal_pcd.c **** }
 236              		.loc 1 208 10 view .LVU68
 237 00bc 0020     		movs	r0, #0
 238              	.L3:
 209:Drivers/STM32F0xx_HAL_Driver/Src/stm32f0xx_hal_pcd.c **** 
 239              		.loc 1 209 1 view .LVU69
 240 00be 06B0     		add	sp, sp, #24
 241              		@ sp needed
 242              	.LVL14:
 209:Drivers/STM32F0xx_HAL_Driver/Src/stm32f0xx_hal_pcd.c **** 
 243              		.loc 1 209 1 view .LVU70
 244 00c0 70BD     		pop	{r4, r5, r6, pc}
 245              	.LVL15:
ARM GAS  /tmp/ccd7InD5.s 			page 11


 246              	.L12:
 205:Drivers/STM32F0xx_HAL_Driver/Src/stm32f0xx_hal_pcd.c ****   }
 247              		.loc 1 205 5 is_stmt 1 view .LVU71
 205:Drivers/STM32F0xx_HAL_Driver/Src/stm32f0xx_hal_pcd.c ****   }
 248              		.loc 1 205 11 is_stmt 0 view .LVU72
 249 00c2 2000     		movs	r0, r4
 250 00c4 FFF7FEFF 		bl	HAL_PCDEx_ActivateLPM
 251              	.LVL16:
 208:Drivers/STM32F0xx_HAL_Driver/Src/stm32f0xx_hal_pcd.c **** }
 252              		.loc 1 208 10 view .LVU73
 253 00c8 0020     		movs	r0, #0
 254 00ca F8E7     		b	.L3
 255              	.LVL17:
 256              	.L9:
 127:Drivers/STM32F0xx_HAL_Driver/Src/stm32f0xx_hal_pcd.c ****   }
 257              		.loc 1 127 12 view .LVU74
 258 00cc 0120     		movs	r0, #1
 259              	.LVL18:
 127:Drivers/STM32F0xx_HAL_Driver/Src/stm32f0xx_hal_pcd.c ****   }
 260              		.loc 1 127 12 view .LVU75
 261 00ce F6E7     		b	.L3
 262              	.L14:
 263              		.align	2
 264              	.L13:
 265 00d0 29020000 		.word	553
 266              		.cfi_endproc
 267              	.LFE40:
 269              		.section	.text.HAL_PCD_MspDeInit,"ax",%progbits
 270              		.align	1
 271              		.weak	HAL_PCD_MspDeInit
 272              		.syntax unified
 273              		.code	16
 274              		.thumb_func
 275              		.fpu softvfp
 277              	HAL_PCD_MspDeInit:
 278              	.LVL19:
 279              	.LFB43:
 261:Drivers/STM32F0xx_HAL_Driver/Src/stm32f0xx_hal_pcd.c **** 
 262:Drivers/STM32F0xx_HAL_Driver/Src/stm32f0xx_hal_pcd.c **** /**
 263:Drivers/STM32F0xx_HAL_Driver/Src/stm32f0xx_hal_pcd.c ****   * @brief  DeInitializes PCD MSP.
 264:Drivers/STM32F0xx_HAL_Driver/Src/stm32f0xx_hal_pcd.c ****   * @param  hpcd PCD handle
 265:Drivers/STM32F0xx_HAL_Driver/Src/stm32f0xx_hal_pcd.c ****   * @retval None
 266:Drivers/STM32F0xx_HAL_Driver/Src/stm32f0xx_hal_pcd.c ****   */
 267:Drivers/STM32F0xx_HAL_Driver/Src/stm32f0xx_hal_pcd.c **** __weak void HAL_PCD_MspDeInit(PCD_HandleTypeDef *hpcd)
 268:Drivers/STM32F0xx_HAL_Driver/Src/stm32f0xx_hal_pcd.c **** {
 280              		.loc 1 268 1 is_stmt 1 view -0
 281              		.cfi_startproc
 282              		@ args = 0, pretend = 0, frame = 0
 283              		@ frame_needed = 0, uses_anonymous_args = 0
 284              		@ link register save eliminated.
 269:Drivers/STM32F0xx_HAL_Driver/Src/stm32f0xx_hal_pcd.c ****   /* Prevent unused argument(s) compilation warning */
 270:Drivers/STM32F0xx_HAL_Driver/Src/stm32f0xx_hal_pcd.c ****   UNUSED(hpcd);
 285              		.loc 1 270 3 view .LVU77
 271:Drivers/STM32F0xx_HAL_Driver/Src/stm32f0xx_hal_pcd.c **** 
 272:Drivers/STM32F0xx_HAL_Driver/Src/stm32f0xx_hal_pcd.c ****   /* NOTE : This function should not be modified, when the callback is needed,
 273:Drivers/STM32F0xx_HAL_Driver/Src/stm32f0xx_hal_pcd.c ****             the HAL_PCD_MspDeInit could be implemented in the user file
 274:Drivers/STM32F0xx_HAL_Driver/Src/stm32f0xx_hal_pcd.c ****    */
ARM GAS  /tmp/ccd7InD5.s 			page 12


 275:Drivers/STM32F0xx_HAL_Driver/Src/stm32f0xx_hal_pcd.c **** }
 286              		.loc 1 275 1 is_stmt 0 view .LVU78
 287              		@ sp needed
 288 0000 7047     		bx	lr
 289              		.cfi_endproc
 290              	.LFE43:
 292              		.section	.text.HAL_PCD_Start,"ax",%progbits
 293              		.align	1
 294              		.global	HAL_PCD_Start
 295              		.syntax unified
 296              		.code	16
 297              		.thumb_func
 298              		.fpu softvfp
 300              	HAL_PCD_Start:
 301              	.LVL20:
 302              	.LFB44:
 276:Drivers/STM32F0xx_HAL_Driver/Src/stm32f0xx_hal_pcd.c **** 
 277:Drivers/STM32F0xx_HAL_Driver/Src/stm32f0xx_hal_pcd.c **** #if (USE_HAL_PCD_REGISTER_CALLBACKS == 1U)
 278:Drivers/STM32F0xx_HAL_Driver/Src/stm32f0xx_hal_pcd.c **** /**
 279:Drivers/STM32F0xx_HAL_Driver/Src/stm32f0xx_hal_pcd.c ****   * @brief  Register a User USB PCD Callback
 280:Drivers/STM32F0xx_HAL_Driver/Src/stm32f0xx_hal_pcd.c ****   *         To be used instead of the weak predefined callback
 281:Drivers/STM32F0xx_HAL_Driver/Src/stm32f0xx_hal_pcd.c ****   * @param  hpcd USB PCD handle
 282:Drivers/STM32F0xx_HAL_Driver/Src/stm32f0xx_hal_pcd.c ****   * @param  CallbackID ID of the callback to be registered
 283:Drivers/STM32F0xx_HAL_Driver/Src/stm32f0xx_hal_pcd.c ****   *         This parameter can be one of the following values:
 284:Drivers/STM32F0xx_HAL_Driver/Src/stm32f0xx_hal_pcd.c ****   *          @arg @ref HAL_PCD_SOF_CB_ID USB PCD SOF callback ID
 285:Drivers/STM32F0xx_HAL_Driver/Src/stm32f0xx_hal_pcd.c ****   *          @arg @ref HAL_PCD_SETUPSTAGE_CB_ID USB PCD Setup callback ID
 286:Drivers/STM32F0xx_HAL_Driver/Src/stm32f0xx_hal_pcd.c ****   *          @arg @ref HAL_PCD_RESET_CB_ID USB PCD Reset callback ID
 287:Drivers/STM32F0xx_HAL_Driver/Src/stm32f0xx_hal_pcd.c ****   *          @arg @ref HAL_PCD_SUSPEND_CB_ID USB PCD Suspend callback ID
 288:Drivers/STM32F0xx_HAL_Driver/Src/stm32f0xx_hal_pcd.c ****   *          @arg @ref HAL_PCD_RESUME_CB_ID USB PCD Resume callback ID
 289:Drivers/STM32F0xx_HAL_Driver/Src/stm32f0xx_hal_pcd.c ****   *          @arg @ref HAL_PCD_CONNECT_CB_ID USB PCD Connect callback ID
 290:Drivers/STM32F0xx_HAL_Driver/Src/stm32f0xx_hal_pcd.c ****   *          @arg @ref HAL_PCD_DISCONNECT_CB_ID OTG PCD Disconnect callback ID
 291:Drivers/STM32F0xx_HAL_Driver/Src/stm32f0xx_hal_pcd.c ****   *          @arg @ref HAL_PCD_MSPINIT_CB_ID MspDeInit callback ID
 292:Drivers/STM32F0xx_HAL_Driver/Src/stm32f0xx_hal_pcd.c ****   *          @arg @ref HAL_PCD_MSPDEINIT_CB_ID MspDeInit callback ID
 293:Drivers/STM32F0xx_HAL_Driver/Src/stm32f0xx_hal_pcd.c ****   * @param  pCallback pointer to the Callback function
 294:Drivers/STM32F0xx_HAL_Driver/Src/stm32f0xx_hal_pcd.c ****   * @retval HAL status
 295:Drivers/STM32F0xx_HAL_Driver/Src/stm32f0xx_hal_pcd.c ****   */
 296:Drivers/STM32F0xx_HAL_Driver/Src/stm32f0xx_hal_pcd.c **** HAL_StatusTypeDef HAL_PCD_RegisterCallback(PCD_HandleTypeDef *hpcd, HAL_PCD_CallbackIDTypeDef Callb
 297:Drivers/STM32F0xx_HAL_Driver/Src/stm32f0xx_hal_pcd.c **** {
 298:Drivers/STM32F0xx_HAL_Driver/Src/stm32f0xx_hal_pcd.c ****   HAL_StatusTypeDef status = HAL_OK;
 299:Drivers/STM32F0xx_HAL_Driver/Src/stm32f0xx_hal_pcd.c **** 
 300:Drivers/STM32F0xx_HAL_Driver/Src/stm32f0xx_hal_pcd.c ****   if (pCallback == NULL)
 301:Drivers/STM32F0xx_HAL_Driver/Src/stm32f0xx_hal_pcd.c ****   {
 302:Drivers/STM32F0xx_HAL_Driver/Src/stm32f0xx_hal_pcd.c ****     /* Update the error code */
 303:Drivers/STM32F0xx_HAL_Driver/Src/stm32f0xx_hal_pcd.c ****     hpcd->ErrorCode |= HAL_PCD_ERROR_INVALID_CALLBACK;
 304:Drivers/STM32F0xx_HAL_Driver/Src/stm32f0xx_hal_pcd.c ****     return HAL_ERROR;
 305:Drivers/STM32F0xx_HAL_Driver/Src/stm32f0xx_hal_pcd.c ****   }
 306:Drivers/STM32F0xx_HAL_Driver/Src/stm32f0xx_hal_pcd.c ****   /* Process locked */
 307:Drivers/STM32F0xx_HAL_Driver/Src/stm32f0xx_hal_pcd.c ****   __HAL_LOCK(hpcd);
 308:Drivers/STM32F0xx_HAL_Driver/Src/stm32f0xx_hal_pcd.c **** 
 309:Drivers/STM32F0xx_HAL_Driver/Src/stm32f0xx_hal_pcd.c ****   if (hpcd->State == HAL_PCD_STATE_READY)
 310:Drivers/STM32F0xx_HAL_Driver/Src/stm32f0xx_hal_pcd.c ****   {
 311:Drivers/STM32F0xx_HAL_Driver/Src/stm32f0xx_hal_pcd.c ****     switch (CallbackID)
 312:Drivers/STM32F0xx_HAL_Driver/Src/stm32f0xx_hal_pcd.c ****     {
 313:Drivers/STM32F0xx_HAL_Driver/Src/stm32f0xx_hal_pcd.c ****       case HAL_PCD_SOF_CB_ID :
 314:Drivers/STM32F0xx_HAL_Driver/Src/stm32f0xx_hal_pcd.c ****         hpcd->SOFCallback = pCallback;
 315:Drivers/STM32F0xx_HAL_Driver/Src/stm32f0xx_hal_pcd.c ****         break;
 316:Drivers/STM32F0xx_HAL_Driver/Src/stm32f0xx_hal_pcd.c **** 
ARM GAS  /tmp/ccd7InD5.s 			page 13


 317:Drivers/STM32F0xx_HAL_Driver/Src/stm32f0xx_hal_pcd.c ****       case HAL_PCD_SETUPSTAGE_CB_ID :
 318:Drivers/STM32F0xx_HAL_Driver/Src/stm32f0xx_hal_pcd.c ****         hpcd->SetupStageCallback = pCallback;
 319:Drivers/STM32F0xx_HAL_Driver/Src/stm32f0xx_hal_pcd.c ****         break;
 320:Drivers/STM32F0xx_HAL_Driver/Src/stm32f0xx_hal_pcd.c **** 
 321:Drivers/STM32F0xx_HAL_Driver/Src/stm32f0xx_hal_pcd.c ****       case HAL_PCD_RESET_CB_ID :
 322:Drivers/STM32F0xx_HAL_Driver/Src/stm32f0xx_hal_pcd.c ****         hpcd->ResetCallback = pCallback;
 323:Drivers/STM32F0xx_HAL_Driver/Src/stm32f0xx_hal_pcd.c ****         break;
 324:Drivers/STM32F0xx_HAL_Driver/Src/stm32f0xx_hal_pcd.c **** 
 325:Drivers/STM32F0xx_HAL_Driver/Src/stm32f0xx_hal_pcd.c ****       case HAL_PCD_SUSPEND_CB_ID :
 326:Drivers/STM32F0xx_HAL_Driver/Src/stm32f0xx_hal_pcd.c ****         hpcd->SuspendCallback = pCallback;
 327:Drivers/STM32F0xx_HAL_Driver/Src/stm32f0xx_hal_pcd.c ****         break;
 328:Drivers/STM32F0xx_HAL_Driver/Src/stm32f0xx_hal_pcd.c **** 
 329:Drivers/STM32F0xx_HAL_Driver/Src/stm32f0xx_hal_pcd.c ****       case HAL_PCD_RESUME_CB_ID :
 330:Drivers/STM32F0xx_HAL_Driver/Src/stm32f0xx_hal_pcd.c ****         hpcd->ResumeCallback = pCallback;
 331:Drivers/STM32F0xx_HAL_Driver/Src/stm32f0xx_hal_pcd.c ****         break;
 332:Drivers/STM32F0xx_HAL_Driver/Src/stm32f0xx_hal_pcd.c **** 
 333:Drivers/STM32F0xx_HAL_Driver/Src/stm32f0xx_hal_pcd.c ****       case HAL_PCD_CONNECT_CB_ID :
 334:Drivers/STM32F0xx_HAL_Driver/Src/stm32f0xx_hal_pcd.c ****         hpcd->ConnectCallback = pCallback;
 335:Drivers/STM32F0xx_HAL_Driver/Src/stm32f0xx_hal_pcd.c ****         break;
 336:Drivers/STM32F0xx_HAL_Driver/Src/stm32f0xx_hal_pcd.c **** 
 337:Drivers/STM32F0xx_HAL_Driver/Src/stm32f0xx_hal_pcd.c ****       case HAL_PCD_DISCONNECT_CB_ID :
 338:Drivers/STM32F0xx_HAL_Driver/Src/stm32f0xx_hal_pcd.c ****         hpcd->DisconnectCallback = pCallback;
 339:Drivers/STM32F0xx_HAL_Driver/Src/stm32f0xx_hal_pcd.c ****         break;
 340:Drivers/STM32F0xx_HAL_Driver/Src/stm32f0xx_hal_pcd.c **** 
 341:Drivers/STM32F0xx_HAL_Driver/Src/stm32f0xx_hal_pcd.c ****       case HAL_PCD_MSPINIT_CB_ID :
 342:Drivers/STM32F0xx_HAL_Driver/Src/stm32f0xx_hal_pcd.c ****         hpcd->MspInitCallback = pCallback;
 343:Drivers/STM32F0xx_HAL_Driver/Src/stm32f0xx_hal_pcd.c ****         break;
 344:Drivers/STM32F0xx_HAL_Driver/Src/stm32f0xx_hal_pcd.c **** 
 345:Drivers/STM32F0xx_HAL_Driver/Src/stm32f0xx_hal_pcd.c ****       case HAL_PCD_MSPDEINIT_CB_ID :
 346:Drivers/STM32F0xx_HAL_Driver/Src/stm32f0xx_hal_pcd.c ****         hpcd->MspDeInitCallback = pCallback;
 347:Drivers/STM32F0xx_HAL_Driver/Src/stm32f0xx_hal_pcd.c ****         break;
 348:Drivers/STM32F0xx_HAL_Driver/Src/stm32f0xx_hal_pcd.c **** 
 349:Drivers/STM32F0xx_HAL_Driver/Src/stm32f0xx_hal_pcd.c ****       default :
 350:Drivers/STM32F0xx_HAL_Driver/Src/stm32f0xx_hal_pcd.c ****         /* Update the error code */
 351:Drivers/STM32F0xx_HAL_Driver/Src/stm32f0xx_hal_pcd.c ****         hpcd->ErrorCode |= HAL_PCD_ERROR_INVALID_CALLBACK;
 352:Drivers/STM32F0xx_HAL_Driver/Src/stm32f0xx_hal_pcd.c ****         /* Return error status */
 353:Drivers/STM32F0xx_HAL_Driver/Src/stm32f0xx_hal_pcd.c ****         status =  HAL_ERROR;
 354:Drivers/STM32F0xx_HAL_Driver/Src/stm32f0xx_hal_pcd.c ****         break;
 355:Drivers/STM32F0xx_HAL_Driver/Src/stm32f0xx_hal_pcd.c ****     }
 356:Drivers/STM32F0xx_HAL_Driver/Src/stm32f0xx_hal_pcd.c ****   }
 357:Drivers/STM32F0xx_HAL_Driver/Src/stm32f0xx_hal_pcd.c ****   else if (hpcd->State == HAL_PCD_STATE_RESET)
 358:Drivers/STM32F0xx_HAL_Driver/Src/stm32f0xx_hal_pcd.c ****   {
 359:Drivers/STM32F0xx_HAL_Driver/Src/stm32f0xx_hal_pcd.c ****     switch (CallbackID)
 360:Drivers/STM32F0xx_HAL_Driver/Src/stm32f0xx_hal_pcd.c ****     {
 361:Drivers/STM32F0xx_HAL_Driver/Src/stm32f0xx_hal_pcd.c ****       case HAL_PCD_MSPINIT_CB_ID :
 362:Drivers/STM32F0xx_HAL_Driver/Src/stm32f0xx_hal_pcd.c ****         hpcd->MspInitCallback = pCallback;
 363:Drivers/STM32F0xx_HAL_Driver/Src/stm32f0xx_hal_pcd.c ****         break;
 364:Drivers/STM32F0xx_HAL_Driver/Src/stm32f0xx_hal_pcd.c **** 
 365:Drivers/STM32F0xx_HAL_Driver/Src/stm32f0xx_hal_pcd.c ****       case HAL_PCD_MSPDEINIT_CB_ID :
 366:Drivers/STM32F0xx_HAL_Driver/Src/stm32f0xx_hal_pcd.c ****         hpcd->MspDeInitCallback = pCallback;
 367:Drivers/STM32F0xx_HAL_Driver/Src/stm32f0xx_hal_pcd.c ****         break;
 368:Drivers/STM32F0xx_HAL_Driver/Src/stm32f0xx_hal_pcd.c **** 
 369:Drivers/STM32F0xx_HAL_Driver/Src/stm32f0xx_hal_pcd.c ****       default :
 370:Drivers/STM32F0xx_HAL_Driver/Src/stm32f0xx_hal_pcd.c ****         /* Update the error code */
 371:Drivers/STM32F0xx_HAL_Driver/Src/stm32f0xx_hal_pcd.c ****         hpcd->ErrorCode |= HAL_PCD_ERROR_INVALID_CALLBACK;
 372:Drivers/STM32F0xx_HAL_Driver/Src/stm32f0xx_hal_pcd.c ****         /* Return error status */
 373:Drivers/STM32F0xx_HAL_Driver/Src/stm32f0xx_hal_pcd.c ****         status =  HAL_ERROR;
ARM GAS  /tmp/ccd7InD5.s 			page 14


 374:Drivers/STM32F0xx_HAL_Driver/Src/stm32f0xx_hal_pcd.c ****         break;
 375:Drivers/STM32F0xx_HAL_Driver/Src/stm32f0xx_hal_pcd.c ****     }
 376:Drivers/STM32F0xx_HAL_Driver/Src/stm32f0xx_hal_pcd.c ****   }
 377:Drivers/STM32F0xx_HAL_Driver/Src/stm32f0xx_hal_pcd.c ****   else
 378:Drivers/STM32F0xx_HAL_Driver/Src/stm32f0xx_hal_pcd.c ****   {
 379:Drivers/STM32F0xx_HAL_Driver/Src/stm32f0xx_hal_pcd.c ****     /* Update the error code */
 380:Drivers/STM32F0xx_HAL_Driver/Src/stm32f0xx_hal_pcd.c ****     hpcd->ErrorCode |= HAL_PCD_ERROR_INVALID_CALLBACK;
 381:Drivers/STM32F0xx_HAL_Driver/Src/stm32f0xx_hal_pcd.c ****     /* Return error status */
 382:Drivers/STM32F0xx_HAL_Driver/Src/stm32f0xx_hal_pcd.c ****     status =  HAL_ERROR;
 383:Drivers/STM32F0xx_HAL_Driver/Src/stm32f0xx_hal_pcd.c ****   }
 384:Drivers/STM32F0xx_HAL_Driver/Src/stm32f0xx_hal_pcd.c **** 
 385:Drivers/STM32F0xx_HAL_Driver/Src/stm32f0xx_hal_pcd.c ****   /* Release Lock */
 386:Drivers/STM32F0xx_HAL_Driver/Src/stm32f0xx_hal_pcd.c ****   __HAL_UNLOCK(hpcd);
 387:Drivers/STM32F0xx_HAL_Driver/Src/stm32f0xx_hal_pcd.c ****   return status;
 388:Drivers/STM32F0xx_HAL_Driver/Src/stm32f0xx_hal_pcd.c **** }
 389:Drivers/STM32F0xx_HAL_Driver/Src/stm32f0xx_hal_pcd.c **** 
 390:Drivers/STM32F0xx_HAL_Driver/Src/stm32f0xx_hal_pcd.c **** /**
 391:Drivers/STM32F0xx_HAL_Driver/Src/stm32f0xx_hal_pcd.c ****   * @brief  Unregister an USB PCD Callback
 392:Drivers/STM32F0xx_HAL_Driver/Src/stm32f0xx_hal_pcd.c ****   *         USB PCD callabck is redirected to the weak predefined callback
 393:Drivers/STM32F0xx_HAL_Driver/Src/stm32f0xx_hal_pcd.c ****   * @param  hpcd USB PCD handle
 394:Drivers/STM32F0xx_HAL_Driver/Src/stm32f0xx_hal_pcd.c ****   * @param  CallbackID ID of the callback to be unregistered
 395:Drivers/STM32F0xx_HAL_Driver/Src/stm32f0xx_hal_pcd.c ****   *         This parameter can be one of the following values:
 396:Drivers/STM32F0xx_HAL_Driver/Src/stm32f0xx_hal_pcd.c ****   *          @arg @ref HAL_PCD_SOF_CB_ID USB PCD SOF callback ID
 397:Drivers/STM32F0xx_HAL_Driver/Src/stm32f0xx_hal_pcd.c ****   *          @arg @ref HAL_PCD_SETUPSTAGE_CB_ID USB PCD Setup callback ID
 398:Drivers/STM32F0xx_HAL_Driver/Src/stm32f0xx_hal_pcd.c ****   *          @arg @ref HAL_PCD_RESET_CB_ID USB PCD Reset callback ID
 399:Drivers/STM32F0xx_HAL_Driver/Src/stm32f0xx_hal_pcd.c ****   *          @arg @ref HAL_PCD_SUSPEND_CB_ID USB PCD Suspend callback ID
 400:Drivers/STM32F0xx_HAL_Driver/Src/stm32f0xx_hal_pcd.c ****   *          @arg @ref HAL_PCD_RESUME_CB_ID USB PCD Resume callback ID
 401:Drivers/STM32F0xx_HAL_Driver/Src/stm32f0xx_hal_pcd.c ****   *          @arg @ref HAL_PCD_CONNECT_CB_ID USB PCD Connect callback ID
 402:Drivers/STM32F0xx_HAL_Driver/Src/stm32f0xx_hal_pcd.c ****   *          @arg @ref HAL_PCD_DISCONNECT_CB_ID OTG PCD Disconnect callback ID
 403:Drivers/STM32F0xx_HAL_Driver/Src/stm32f0xx_hal_pcd.c ****   *          @arg @ref HAL_PCD_MSPINIT_CB_ID MspDeInit callback ID
 404:Drivers/STM32F0xx_HAL_Driver/Src/stm32f0xx_hal_pcd.c ****   *          @arg @ref HAL_PCD_MSPDEINIT_CB_ID MspDeInit callback ID
 405:Drivers/STM32F0xx_HAL_Driver/Src/stm32f0xx_hal_pcd.c ****   * @retval HAL status
 406:Drivers/STM32F0xx_HAL_Driver/Src/stm32f0xx_hal_pcd.c ****   */
 407:Drivers/STM32F0xx_HAL_Driver/Src/stm32f0xx_hal_pcd.c **** HAL_StatusTypeDef HAL_PCD_UnRegisterCallback(PCD_HandleTypeDef *hpcd, HAL_PCD_CallbackIDTypeDef Cal
 408:Drivers/STM32F0xx_HAL_Driver/Src/stm32f0xx_hal_pcd.c **** {
 409:Drivers/STM32F0xx_HAL_Driver/Src/stm32f0xx_hal_pcd.c ****   HAL_StatusTypeDef status = HAL_OK;
 410:Drivers/STM32F0xx_HAL_Driver/Src/stm32f0xx_hal_pcd.c **** 
 411:Drivers/STM32F0xx_HAL_Driver/Src/stm32f0xx_hal_pcd.c ****   /* Process locked */
 412:Drivers/STM32F0xx_HAL_Driver/Src/stm32f0xx_hal_pcd.c ****   __HAL_LOCK(hpcd);
 413:Drivers/STM32F0xx_HAL_Driver/Src/stm32f0xx_hal_pcd.c **** 
 414:Drivers/STM32F0xx_HAL_Driver/Src/stm32f0xx_hal_pcd.c ****   /* Setup Legacy weak Callbacks  */
 415:Drivers/STM32F0xx_HAL_Driver/Src/stm32f0xx_hal_pcd.c ****   if (hpcd->State == HAL_PCD_STATE_READY)
 416:Drivers/STM32F0xx_HAL_Driver/Src/stm32f0xx_hal_pcd.c ****   {
 417:Drivers/STM32F0xx_HAL_Driver/Src/stm32f0xx_hal_pcd.c ****     switch (CallbackID)
 418:Drivers/STM32F0xx_HAL_Driver/Src/stm32f0xx_hal_pcd.c ****     {
 419:Drivers/STM32F0xx_HAL_Driver/Src/stm32f0xx_hal_pcd.c ****       case HAL_PCD_SOF_CB_ID :
 420:Drivers/STM32F0xx_HAL_Driver/Src/stm32f0xx_hal_pcd.c ****         hpcd->SOFCallback = HAL_PCD_SOFCallback;
 421:Drivers/STM32F0xx_HAL_Driver/Src/stm32f0xx_hal_pcd.c ****         break;
 422:Drivers/STM32F0xx_HAL_Driver/Src/stm32f0xx_hal_pcd.c **** 
 423:Drivers/STM32F0xx_HAL_Driver/Src/stm32f0xx_hal_pcd.c ****       case HAL_PCD_SETUPSTAGE_CB_ID :
 424:Drivers/STM32F0xx_HAL_Driver/Src/stm32f0xx_hal_pcd.c ****         hpcd->SetupStageCallback = HAL_PCD_SetupStageCallback;
 425:Drivers/STM32F0xx_HAL_Driver/Src/stm32f0xx_hal_pcd.c ****         break;
 426:Drivers/STM32F0xx_HAL_Driver/Src/stm32f0xx_hal_pcd.c **** 
 427:Drivers/STM32F0xx_HAL_Driver/Src/stm32f0xx_hal_pcd.c ****       case HAL_PCD_RESET_CB_ID :
 428:Drivers/STM32F0xx_HAL_Driver/Src/stm32f0xx_hal_pcd.c ****         hpcd->ResetCallback = HAL_PCD_ResetCallback;
 429:Drivers/STM32F0xx_HAL_Driver/Src/stm32f0xx_hal_pcd.c ****         break;
 430:Drivers/STM32F0xx_HAL_Driver/Src/stm32f0xx_hal_pcd.c **** 
ARM GAS  /tmp/ccd7InD5.s 			page 15


 431:Drivers/STM32F0xx_HAL_Driver/Src/stm32f0xx_hal_pcd.c ****       case HAL_PCD_SUSPEND_CB_ID :
 432:Drivers/STM32F0xx_HAL_Driver/Src/stm32f0xx_hal_pcd.c ****         hpcd->SuspendCallback = HAL_PCD_SuspendCallback;
 433:Drivers/STM32F0xx_HAL_Driver/Src/stm32f0xx_hal_pcd.c ****         break;
 434:Drivers/STM32F0xx_HAL_Driver/Src/stm32f0xx_hal_pcd.c **** 
 435:Drivers/STM32F0xx_HAL_Driver/Src/stm32f0xx_hal_pcd.c ****       case HAL_PCD_RESUME_CB_ID :
 436:Drivers/STM32F0xx_HAL_Driver/Src/stm32f0xx_hal_pcd.c ****         hpcd->ResumeCallback = HAL_PCD_ResumeCallback;
 437:Drivers/STM32F0xx_HAL_Driver/Src/stm32f0xx_hal_pcd.c ****         break;
 438:Drivers/STM32F0xx_HAL_Driver/Src/stm32f0xx_hal_pcd.c **** 
 439:Drivers/STM32F0xx_HAL_Driver/Src/stm32f0xx_hal_pcd.c ****       case HAL_PCD_CONNECT_CB_ID :
 440:Drivers/STM32F0xx_HAL_Driver/Src/stm32f0xx_hal_pcd.c ****         hpcd->ConnectCallback = HAL_PCD_ConnectCallback;
 441:Drivers/STM32F0xx_HAL_Driver/Src/stm32f0xx_hal_pcd.c ****         break;
 442:Drivers/STM32F0xx_HAL_Driver/Src/stm32f0xx_hal_pcd.c **** 
 443:Drivers/STM32F0xx_HAL_Driver/Src/stm32f0xx_hal_pcd.c ****       case HAL_PCD_DISCONNECT_CB_ID :
 444:Drivers/STM32F0xx_HAL_Driver/Src/stm32f0xx_hal_pcd.c ****         hpcd->DisconnectCallback = HAL_PCD_DisconnectCallback;
 445:Drivers/STM32F0xx_HAL_Driver/Src/stm32f0xx_hal_pcd.c ****         break;
 446:Drivers/STM32F0xx_HAL_Driver/Src/stm32f0xx_hal_pcd.c **** 
 447:Drivers/STM32F0xx_HAL_Driver/Src/stm32f0xx_hal_pcd.c ****       case HAL_PCD_MSPINIT_CB_ID :
 448:Drivers/STM32F0xx_HAL_Driver/Src/stm32f0xx_hal_pcd.c ****         hpcd->MspInitCallback = HAL_PCD_MspInit;
 449:Drivers/STM32F0xx_HAL_Driver/Src/stm32f0xx_hal_pcd.c ****         break;
 450:Drivers/STM32F0xx_HAL_Driver/Src/stm32f0xx_hal_pcd.c **** 
 451:Drivers/STM32F0xx_HAL_Driver/Src/stm32f0xx_hal_pcd.c ****       case HAL_PCD_MSPDEINIT_CB_ID :
 452:Drivers/STM32F0xx_HAL_Driver/Src/stm32f0xx_hal_pcd.c ****         hpcd->MspDeInitCallback = HAL_PCD_MspDeInit;
 453:Drivers/STM32F0xx_HAL_Driver/Src/stm32f0xx_hal_pcd.c ****         break;
 454:Drivers/STM32F0xx_HAL_Driver/Src/stm32f0xx_hal_pcd.c **** 
 455:Drivers/STM32F0xx_HAL_Driver/Src/stm32f0xx_hal_pcd.c ****       default :
 456:Drivers/STM32F0xx_HAL_Driver/Src/stm32f0xx_hal_pcd.c ****         /* Update the error code */
 457:Drivers/STM32F0xx_HAL_Driver/Src/stm32f0xx_hal_pcd.c ****         hpcd->ErrorCode |= HAL_PCD_ERROR_INVALID_CALLBACK;
 458:Drivers/STM32F0xx_HAL_Driver/Src/stm32f0xx_hal_pcd.c **** 
 459:Drivers/STM32F0xx_HAL_Driver/Src/stm32f0xx_hal_pcd.c ****         /* Return error status */
 460:Drivers/STM32F0xx_HAL_Driver/Src/stm32f0xx_hal_pcd.c ****         status =  HAL_ERROR;
 461:Drivers/STM32F0xx_HAL_Driver/Src/stm32f0xx_hal_pcd.c ****         break;
 462:Drivers/STM32F0xx_HAL_Driver/Src/stm32f0xx_hal_pcd.c ****     }
 463:Drivers/STM32F0xx_HAL_Driver/Src/stm32f0xx_hal_pcd.c ****   }
 464:Drivers/STM32F0xx_HAL_Driver/Src/stm32f0xx_hal_pcd.c ****   else if (hpcd->State == HAL_PCD_STATE_RESET)
 465:Drivers/STM32F0xx_HAL_Driver/Src/stm32f0xx_hal_pcd.c ****   {
 466:Drivers/STM32F0xx_HAL_Driver/Src/stm32f0xx_hal_pcd.c ****     switch (CallbackID)
 467:Drivers/STM32F0xx_HAL_Driver/Src/stm32f0xx_hal_pcd.c ****     {
 468:Drivers/STM32F0xx_HAL_Driver/Src/stm32f0xx_hal_pcd.c ****       case HAL_PCD_MSPINIT_CB_ID :
 469:Drivers/STM32F0xx_HAL_Driver/Src/stm32f0xx_hal_pcd.c ****         hpcd->MspInitCallback = HAL_PCD_MspInit;
 470:Drivers/STM32F0xx_HAL_Driver/Src/stm32f0xx_hal_pcd.c ****         break;
 471:Drivers/STM32F0xx_HAL_Driver/Src/stm32f0xx_hal_pcd.c **** 
 472:Drivers/STM32F0xx_HAL_Driver/Src/stm32f0xx_hal_pcd.c ****       case HAL_PCD_MSPDEINIT_CB_ID :
 473:Drivers/STM32F0xx_HAL_Driver/Src/stm32f0xx_hal_pcd.c ****         hpcd->MspDeInitCallback = HAL_PCD_MspDeInit;
 474:Drivers/STM32F0xx_HAL_Driver/Src/stm32f0xx_hal_pcd.c ****         break;
 475:Drivers/STM32F0xx_HAL_Driver/Src/stm32f0xx_hal_pcd.c **** 
 476:Drivers/STM32F0xx_HAL_Driver/Src/stm32f0xx_hal_pcd.c ****       default :
 477:Drivers/STM32F0xx_HAL_Driver/Src/stm32f0xx_hal_pcd.c ****         /* Update the error code */
 478:Drivers/STM32F0xx_HAL_Driver/Src/stm32f0xx_hal_pcd.c ****         hpcd->ErrorCode |= HAL_PCD_ERROR_INVALID_CALLBACK;
 479:Drivers/STM32F0xx_HAL_Driver/Src/stm32f0xx_hal_pcd.c **** 
 480:Drivers/STM32F0xx_HAL_Driver/Src/stm32f0xx_hal_pcd.c ****         /* Return error status */
 481:Drivers/STM32F0xx_HAL_Driver/Src/stm32f0xx_hal_pcd.c ****         status =  HAL_ERROR;
 482:Drivers/STM32F0xx_HAL_Driver/Src/stm32f0xx_hal_pcd.c ****         break;
 483:Drivers/STM32F0xx_HAL_Driver/Src/stm32f0xx_hal_pcd.c ****     }
 484:Drivers/STM32F0xx_HAL_Driver/Src/stm32f0xx_hal_pcd.c ****   }
 485:Drivers/STM32F0xx_HAL_Driver/Src/stm32f0xx_hal_pcd.c ****   else
 486:Drivers/STM32F0xx_HAL_Driver/Src/stm32f0xx_hal_pcd.c ****   {
 487:Drivers/STM32F0xx_HAL_Driver/Src/stm32f0xx_hal_pcd.c ****     /* Update the error code */
ARM GAS  /tmp/ccd7InD5.s 			page 16


 488:Drivers/STM32F0xx_HAL_Driver/Src/stm32f0xx_hal_pcd.c ****     hpcd->ErrorCode |= HAL_PCD_ERROR_INVALID_CALLBACK;
 489:Drivers/STM32F0xx_HAL_Driver/Src/stm32f0xx_hal_pcd.c **** 
 490:Drivers/STM32F0xx_HAL_Driver/Src/stm32f0xx_hal_pcd.c ****     /* Return error status */
 491:Drivers/STM32F0xx_HAL_Driver/Src/stm32f0xx_hal_pcd.c ****     status =  HAL_ERROR;
 492:Drivers/STM32F0xx_HAL_Driver/Src/stm32f0xx_hal_pcd.c ****   }
 493:Drivers/STM32F0xx_HAL_Driver/Src/stm32f0xx_hal_pcd.c **** 
 494:Drivers/STM32F0xx_HAL_Driver/Src/stm32f0xx_hal_pcd.c ****   /* Release Lock */
 495:Drivers/STM32F0xx_HAL_Driver/Src/stm32f0xx_hal_pcd.c ****   __HAL_UNLOCK(hpcd);
 496:Drivers/STM32F0xx_HAL_Driver/Src/stm32f0xx_hal_pcd.c ****   return status;
 497:Drivers/STM32F0xx_HAL_Driver/Src/stm32f0xx_hal_pcd.c **** }
 498:Drivers/STM32F0xx_HAL_Driver/Src/stm32f0xx_hal_pcd.c **** 
 499:Drivers/STM32F0xx_HAL_Driver/Src/stm32f0xx_hal_pcd.c **** /**
 500:Drivers/STM32F0xx_HAL_Driver/Src/stm32f0xx_hal_pcd.c ****   * @brief  Register USB PCD Data OUT Stage Callback
 501:Drivers/STM32F0xx_HAL_Driver/Src/stm32f0xx_hal_pcd.c ****   *         To be used instead of the weak HAL_PCD_DataOutStageCallback() predefined callback
 502:Drivers/STM32F0xx_HAL_Driver/Src/stm32f0xx_hal_pcd.c ****   * @param  hpcd PCD handle
 503:Drivers/STM32F0xx_HAL_Driver/Src/stm32f0xx_hal_pcd.c ****   * @param  pCallback pointer to the USB PCD Data OUT Stage Callback function
 504:Drivers/STM32F0xx_HAL_Driver/Src/stm32f0xx_hal_pcd.c ****   * @retval HAL status
 505:Drivers/STM32F0xx_HAL_Driver/Src/stm32f0xx_hal_pcd.c ****   */
 506:Drivers/STM32F0xx_HAL_Driver/Src/stm32f0xx_hal_pcd.c **** HAL_StatusTypeDef HAL_PCD_RegisterDataOutStageCallback(PCD_HandleTypeDef *hpcd, pPCD_DataOutStageCa
 507:Drivers/STM32F0xx_HAL_Driver/Src/stm32f0xx_hal_pcd.c **** {
 508:Drivers/STM32F0xx_HAL_Driver/Src/stm32f0xx_hal_pcd.c ****   HAL_StatusTypeDef status = HAL_OK;
 509:Drivers/STM32F0xx_HAL_Driver/Src/stm32f0xx_hal_pcd.c **** 
 510:Drivers/STM32F0xx_HAL_Driver/Src/stm32f0xx_hal_pcd.c ****   if (pCallback == NULL)
 511:Drivers/STM32F0xx_HAL_Driver/Src/stm32f0xx_hal_pcd.c ****   {
 512:Drivers/STM32F0xx_HAL_Driver/Src/stm32f0xx_hal_pcd.c ****     /* Update the error code */
 513:Drivers/STM32F0xx_HAL_Driver/Src/stm32f0xx_hal_pcd.c ****     hpcd->ErrorCode |= HAL_PCD_ERROR_INVALID_CALLBACK;
 514:Drivers/STM32F0xx_HAL_Driver/Src/stm32f0xx_hal_pcd.c **** 
 515:Drivers/STM32F0xx_HAL_Driver/Src/stm32f0xx_hal_pcd.c ****     return HAL_ERROR;
 516:Drivers/STM32F0xx_HAL_Driver/Src/stm32f0xx_hal_pcd.c ****   }
 517:Drivers/STM32F0xx_HAL_Driver/Src/stm32f0xx_hal_pcd.c **** 
 518:Drivers/STM32F0xx_HAL_Driver/Src/stm32f0xx_hal_pcd.c ****   /* Process locked */
 519:Drivers/STM32F0xx_HAL_Driver/Src/stm32f0xx_hal_pcd.c ****   __HAL_LOCK(hpcd);
 520:Drivers/STM32F0xx_HAL_Driver/Src/stm32f0xx_hal_pcd.c **** 
 521:Drivers/STM32F0xx_HAL_Driver/Src/stm32f0xx_hal_pcd.c ****   if (hpcd->State == HAL_PCD_STATE_READY)
 522:Drivers/STM32F0xx_HAL_Driver/Src/stm32f0xx_hal_pcd.c ****   {
 523:Drivers/STM32F0xx_HAL_Driver/Src/stm32f0xx_hal_pcd.c ****     hpcd->DataOutStageCallback = pCallback;
 524:Drivers/STM32F0xx_HAL_Driver/Src/stm32f0xx_hal_pcd.c ****   }
 525:Drivers/STM32F0xx_HAL_Driver/Src/stm32f0xx_hal_pcd.c ****   else
 526:Drivers/STM32F0xx_HAL_Driver/Src/stm32f0xx_hal_pcd.c ****   {
 527:Drivers/STM32F0xx_HAL_Driver/Src/stm32f0xx_hal_pcd.c ****     /* Update the error code */
 528:Drivers/STM32F0xx_HAL_Driver/Src/stm32f0xx_hal_pcd.c ****     hpcd->ErrorCode |= HAL_PCD_ERROR_INVALID_CALLBACK;
 529:Drivers/STM32F0xx_HAL_Driver/Src/stm32f0xx_hal_pcd.c **** 
 530:Drivers/STM32F0xx_HAL_Driver/Src/stm32f0xx_hal_pcd.c ****     /* Return error status */
 531:Drivers/STM32F0xx_HAL_Driver/Src/stm32f0xx_hal_pcd.c ****     status =  HAL_ERROR;
 532:Drivers/STM32F0xx_HAL_Driver/Src/stm32f0xx_hal_pcd.c ****   }
 533:Drivers/STM32F0xx_HAL_Driver/Src/stm32f0xx_hal_pcd.c **** 
 534:Drivers/STM32F0xx_HAL_Driver/Src/stm32f0xx_hal_pcd.c ****   /* Release Lock */
 535:Drivers/STM32F0xx_HAL_Driver/Src/stm32f0xx_hal_pcd.c ****   __HAL_UNLOCK(hpcd);
 536:Drivers/STM32F0xx_HAL_Driver/Src/stm32f0xx_hal_pcd.c **** 
 537:Drivers/STM32F0xx_HAL_Driver/Src/stm32f0xx_hal_pcd.c ****   return status;
 538:Drivers/STM32F0xx_HAL_Driver/Src/stm32f0xx_hal_pcd.c **** }
 539:Drivers/STM32F0xx_HAL_Driver/Src/stm32f0xx_hal_pcd.c **** 
 540:Drivers/STM32F0xx_HAL_Driver/Src/stm32f0xx_hal_pcd.c **** /**
 541:Drivers/STM32F0xx_HAL_Driver/Src/stm32f0xx_hal_pcd.c ****   * @brief  UnRegister the USB PCD Data OUT Stage Callback
 542:Drivers/STM32F0xx_HAL_Driver/Src/stm32f0xx_hal_pcd.c ****   *         USB PCD Data OUT Stage Callback is redirected to the weak HAL_PCD_DataOutStageCallback(
 543:Drivers/STM32F0xx_HAL_Driver/Src/stm32f0xx_hal_pcd.c ****   * @param  hpcd PCD handle
 544:Drivers/STM32F0xx_HAL_Driver/Src/stm32f0xx_hal_pcd.c ****   * @retval HAL status
ARM GAS  /tmp/ccd7InD5.s 			page 17


 545:Drivers/STM32F0xx_HAL_Driver/Src/stm32f0xx_hal_pcd.c ****   */
 546:Drivers/STM32F0xx_HAL_Driver/Src/stm32f0xx_hal_pcd.c **** HAL_StatusTypeDef HAL_PCD_UnRegisterDataOutStageCallback(PCD_HandleTypeDef *hpcd)
 547:Drivers/STM32F0xx_HAL_Driver/Src/stm32f0xx_hal_pcd.c **** {
 548:Drivers/STM32F0xx_HAL_Driver/Src/stm32f0xx_hal_pcd.c ****   HAL_StatusTypeDef status = HAL_OK;
 549:Drivers/STM32F0xx_HAL_Driver/Src/stm32f0xx_hal_pcd.c **** 
 550:Drivers/STM32F0xx_HAL_Driver/Src/stm32f0xx_hal_pcd.c ****   /* Process locked */
 551:Drivers/STM32F0xx_HAL_Driver/Src/stm32f0xx_hal_pcd.c ****   __HAL_LOCK(hpcd);
 552:Drivers/STM32F0xx_HAL_Driver/Src/stm32f0xx_hal_pcd.c **** 
 553:Drivers/STM32F0xx_HAL_Driver/Src/stm32f0xx_hal_pcd.c ****   if (hpcd->State == HAL_PCD_STATE_READY)
 554:Drivers/STM32F0xx_HAL_Driver/Src/stm32f0xx_hal_pcd.c ****   {
 555:Drivers/STM32F0xx_HAL_Driver/Src/stm32f0xx_hal_pcd.c ****     hpcd->DataOutStageCallback = HAL_PCD_DataOutStageCallback; /* Legacy weak DataOutStageCallback 
 556:Drivers/STM32F0xx_HAL_Driver/Src/stm32f0xx_hal_pcd.c ****   }
 557:Drivers/STM32F0xx_HAL_Driver/Src/stm32f0xx_hal_pcd.c ****   else
 558:Drivers/STM32F0xx_HAL_Driver/Src/stm32f0xx_hal_pcd.c ****   {
 559:Drivers/STM32F0xx_HAL_Driver/Src/stm32f0xx_hal_pcd.c ****     /* Update the error code */
 560:Drivers/STM32F0xx_HAL_Driver/Src/stm32f0xx_hal_pcd.c ****     hpcd->ErrorCode |= HAL_PCD_ERROR_INVALID_CALLBACK;
 561:Drivers/STM32F0xx_HAL_Driver/Src/stm32f0xx_hal_pcd.c **** 
 562:Drivers/STM32F0xx_HAL_Driver/Src/stm32f0xx_hal_pcd.c ****     /* Return error status */
 563:Drivers/STM32F0xx_HAL_Driver/Src/stm32f0xx_hal_pcd.c ****     status =  HAL_ERROR;
 564:Drivers/STM32F0xx_HAL_Driver/Src/stm32f0xx_hal_pcd.c ****   }
 565:Drivers/STM32F0xx_HAL_Driver/Src/stm32f0xx_hal_pcd.c **** 
 566:Drivers/STM32F0xx_HAL_Driver/Src/stm32f0xx_hal_pcd.c ****   /* Release Lock */
 567:Drivers/STM32F0xx_HAL_Driver/Src/stm32f0xx_hal_pcd.c ****   __HAL_UNLOCK(hpcd);
 568:Drivers/STM32F0xx_HAL_Driver/Src/stm32f0xx_hal_pcd.c **** 
 569:Drivers/STM32F0xx_HAL_Driver/Src/stm32f0xx_hal_pcd.c ****   return status;
 570:Drivers/STM32F0xx_HAL_Driver/Src/stm32f0xx_hal_pcd.c **** }
 571:Drivers/STM32F0xx_HAL_Driver/Src/stm32f0xx_hal_pcd.c **** 
 572:Drivers/STM32F0xx_HAL_Driver/Src/stm32f0xx_hal_pcd.c **** /**
 573:Drivers/STM32F0xx_HAL_Driver/Src/stm32f0xx_hal_pcd.c ****   * @brief  Register USB PCD Data IN Stage Callback
 574:Drivers/STM32F0xx_HAL_Driver/Src/stm32f0xx_hal_pcd.c ****   *         To be used instead of the weak HAL_PCD_DataInStageCallback() predefined callback
 575:Drivers/STM32F0xx_HAL_Driver/Src/stm32f0xx_hal_pcd.c ****   * @param  hpcd PCD handle
 576:Drivers/STM32F0xx_HAL_Driver/Src/stm32f0xx_hal_pcd.c ****   * @param  pCallback pointer to the USB PCD Data IN Stage Callback function
 577:Drivers/STM32F0xx_HAL_Driver/Src/stm32f0xx_hal_pcd.c ****   * @retval HAL status
 578:Drivers/STM32F0xx_HAL_Driver/Src/stm32f0xx_hal_pcd.c ****   */
 579:Drivers/STM32F0xx_HAL_Driver/Src/stm32f0xx_hal_pcd.c **** HAL_StatusTypeDef HAL_PCD_RegisterDataInStageCallback(PCD_HandleTypeDef *hpcd, pPCD_DataInStageCall
 580:Drivers/STM32F0xx_HAL_Driver/Src/stm32f0xx_hal_pcd.c **** {
 581:Drivers/STM32F0xx_HAL_Driver/Src/stm32f0xx_hal_pcd.c ****   HAL_StatusTypeDef status = HAL_OK;
 582:Drivers/STM32F0xx_HAL_Driver/Src/stm32f0xx_hal_pcd.c **** 
 583:Drivers/STM32F0xx_HAL_Driver/Src/stm32f0xx_hal_pcd.c ****   if (pCallback == NULL)
 584:Drivers/STM32F0xx_HAL_Driver/Src/stm32f0xx_hal_pcd.c ****   {
 585:Drivers/STM32F0xx_HAL_Driver/Src/stm32f0xx_hal_pcd.c ****     /* Update the error code */
 586:Drivers/STM32F0xx_HAL_Driver/Src/stm32f0xx_hal_pcd.c ****     hpcd->ErrorCode |= HAL_PCD_ERROR_INVALID_CALLBACK;
 587:Drivers/STM32F0xx_HAL_Driver/Src/stm32f0xx_hal_pcd.c **** 
 588:Drivers/STM32F0xx_HAL_Driver/Src/stm32f0xx_hal_pcd.c ****     return HAL_ERROR;
 589:Drivers/STM32F0xx_HAL_Driver/Src/stm32f0xx_hal_pcd.c ****   }
 590:Drivers/STM32F0xx_HAL_Driver/Src/stm32f0xx_hal_pcd.c **** 
 591:Drivers/STM32F0xx_HAL_Driver/Src/stm32f0xx_hal_pcd.c ****   /* Process locked */
 592:Drivers/STM32F0xx_HAL_Driver/Src/stm32f0xx_hal_pcd.c ****   __HAL_LOCK(hpcd);
 593:Drivers/STM32F0xx_HAL_Driver/Src/stm32f0xx_hal_pcd.c **** 
 594:Drivers/STM32F0xx_HAL_Driver/Src/stm32f0xx_hal_pcd.c ****   if (hpcd->State == HAL_PCD_STATE_READY)
 595:Drivers/STM32F0xx_HAL_Driver/Src/stm32f0xx_hal_pcd.c ****   {
 596:Drivers/STM32F0xx_HAL_Driver/Src/stm32f0xx_hal_pcd.c ****     hpcd->DataInStageCallback = pCallback;
 597:Drivers/STM32F0xx_HAL_Driver/Src/stm32f0xx_hal_pcd.c ****   }
 598:Drivers/STM32F0xx_HAL_Driver/Src/stm32f0xx_hal_pcd.c ****   else
 599:Drivers/STM32F0xx_HAL_Driver/Src/stm32f0xx_hal_pcd.c ****   {
 600:Drivers/STM32F0xx_HAL_Driver/Src/stm32f0xx_hal_pcd.c ****     /* Update the error code */
 601:Drivers/STM32F0xx_HAL_Driver/Src/stm32f0xx_hal_pcd.c ****     hpcd->ErrorCode |= HAL_PCD_ERROR_INVALID_CALLBACK;
ARM GAS  /tmp/ccd7InD5.s 			page 18


 602:Drivers/STM32F0xx_HAL_Driver/Src/stm32f0xx_hal_pcd.c **** 
 603:Drivers/STM32F0xx_HAL_Driver/Src/stm32f0xx_hal_pcd.c ****     /* Return error status */
 604:Drivers/STM32F0xx_HAL_Driver/Src/stm32f0xx_hal_pcd.c ****     status =  HAL_ERROR;
 605:Drivers/STM32F0xx_HAL_Driver/Src/stm32f0xx_hal_pcd.c ****   }
 606:Drivers/STM32F0xx_HAL_Driver/Src/stm32f0xx_hal_pcd.c **** 
 607:Drivers/STM32F0xx_HAL_Driver/Src/stm32f0xx_hal_pcd.c ****   /* Release Lock */
 608:Drivers/STM32F0xx_HAL_Driver/Src/stm32f0xx_hal_pcd.c ****   __HAL_UNLOCK(hpcd);
 609:Drivers/STM32F0xx_HAL_Driver/Src/stm32f0xx_hal_pcd.c **** 
 610:Drivers/STM32F0xx_HAL_Driver/Src/stm32f0xx_hal_pcd.c ****   return status;
 611:Drivers/STM32F0xx_HAL_Driver/Src/stm32f0xx_hal_pcd.c **** }
 612:Drivers/STM32F0xx_HAL_Driver/Src/stm32f0xx_hal_pcd.c **** 
 613:Drivers/STM32F0xx_HAL_Driver/Src/stm32f0xx_hal_pcd.c **** /**
 614:Drivers/STM32F0xx_HAL_Driver/Src/stm32f0xx_hal_pcd.c ****   * @brief  UnRegister the USB PCD Data IN Stage Callback
 615:Drivers/STM32F0xx_HAL_Driver/Src/stm32f0xx_hal_pcd.c ****   *         USB PCD Data OUT Stage Callback is redirected to the weak HAL_PCD_DataInStageCallback()
 616:Drivers/STM32F0xx_HAL_Driver/Src/stm32f0xx_hal_pcd.c ****   * @param  hpcd PCD handle
 617:Drivers/STM32F0xx_HAL_Driver/Src/stm32f0xx_hal_pcd.c ****   * @retval HAL status
 618:Drivers/STM32F0xx_HAL_Driver/Src/stm32f0xx_hal_pcd.c ****   */
 619:Drivers/STM32F0xx_HAL_Driver/Src/stm32f0xx_hal_pcd.c **** HAL_StatusTypeDef HAL_PCD_UnRegisterDataInStageCallback(PCD_HandleTypeDef *hpcd)
 620:Drivers/STM32F0xx_HAL_Driver/Src/stm32f0xx_hal_pcd.c **** {
 621:Drivers/STM32F0xx_HAL_Driver/Src/stm32f0xx_hal_pcd.c ****   HAL_StatusTypeDef status = HAL_OK;
 622:Drivers/STM32F0xx_HAL_Driver/Src/stm32f0xx_hal_pcd.c **** 
 623:Drivers/STM32F0xx_HAL_Driver/Src/stm32f0xx_hal_pcd.c ****   /* Process locked */
 624:Drivers/STM32F0xx_HAL_Driver/Src/stm32f0xx_hal_pcd.c ****   __HAL_LOCK(hpcd);
 625:Drivers/STM32F0xx_HAL_Driver/Src/stm32f0xx_hal_pcd.c **** 
 626:Drivers/STM32F0xx_HAL_Driver/Src/stm32f0xx_hal_pcd.c ****   if (hpcd->State == HAL_PCD_STATE_READY)
 627:Drivers/STM32F0xx_HAL_Driver/Src/stm32f0xx_hal_pcd.c ****   {
 628:Drivers/STM32F0xx_HAL_Driver/Src/stm32f0xx_hal_pcd.c ****     hpcd->DataInStageCallback = HAL_PCD_DataInStageCallback; /* Legacy weak DataInStageCallback  */
 629:Drivers/STM32F0xx_HAL_Driver/Src/stm32f0xx_hal_pcd.c ****   }
 630:Drivers/STM32F0xx_HAL_Driver/Src/stm32f0xx_hal_pcd.c ****   else
 631:Drivers/STM32F0xx_HAL_Driver/Src/stm32f0xx_hal_pcd.c ****   {
 632:Drivers/STM32F0xx_HAL_Driver/Src/stm32f0xx_hal_pcd.c ****     /* Update the error code */
 633:Drivers/STM32F0xx_HAL_Driver/Src/stm32f0xx_hal_pcd.c ****     hpcd->ErrorCode |= HAL_PCD_ERROR_INVALID_CALLBACK;
 634:Drivers/STM32F0xx_HAL_Driver/Src/stm32f0xx_hal_pcd.c **** 
 635:Drivers/STM32F0xx_HAL_Driver/Src/stm32f0xx_hal_pcd.c ****     /* Return error status */
 636:Drivers/STM32F0xx_HAL_Driver/Src/stm32f0xx_hal_pcd.c ****     status =  HAL_ERROR;
 637:Drivers/STM32F0xx_HAL_Driver/Src/stm32f0xx_hal_pcd.c ****   }
 638:Drivers/STM32F0xx_HAL_Driver/Src/stm32f0xx_hal_pcd.c **** 
 639:Drivers/STM32F0xx_HAL_Driver/Src/stm32f0xx_hal_pcd.c ****   /* Release Lock */
 640:Drivers/STM32F0xx_HAL_Driver/Src/stm32f0xx_hal_pcd.c ****   __HAL_UNLOCK(hpcd);
 641:Drivers/STM32F0xx_HAL_Driver/Src/stm32f0xx_hal_pcd.c **** 
 642:Drivers/STM32F0xx_HAL_Driver/Src/stm32f0xx_hal_pcd.c ****   return status;
 643:Drivers/STM32F0xx_HAL_Driver/Src/stm32f0xx_hal_pcd.c **** }
 644:Drivers/STM32F0xx_HAL_Driver/Src/stm32f0xx_hal_pcd.c **** 
 645:Drivers/STM32F0xx_HAL_Driver/Src/stm32f0xx_hal_pcd.c **** /**
 646:Drivers/STM32F0xx_HAL_Driver/Src/stm32f0xx_hal_pcd.c ****   * @brief  Register USB PCD Iso OUT incomplete Callback
 647:Drivers/STM32F0xx_HAL_Driver/Src/stm32f0xx_hal_pcd.c ****   *         To be used instead of the weak HAL_PCD_ISOOUTIncompleteCallback() predefined callback
 648:Drivers/STM32F0xx_HAL_Driver/Src/stm32f0xx_hal_pcd.c ****   * @param  hpcd PCD handle
 649:Drivers/STM32F0xx_HAL_Driver/Src/stm32f0xx_hal_pcd.c ****   * @param  pCallback pointer to the USB PCD Iso OUT incomplete Callback function
 650:Drivers/STM32F0xx_HAL_Driver/Src/stm32f0xx_hal_pcd.c ****   * @retval HAL status
 651:Drivers/STM32F0xx_HAL_Driver/Src/stm32f0xx_hal_pcd.c ****   */
 652:Drivers/STM32F0xx_HAL_Driver/Src/stm32f0xx_hal_pcd.c **** HAL_StatusTypeDef HAL_PCD_RegisterIsoOutIncpltCallback(PCD_HandleTypeDef *hpcd, pPCD_IsoOutIncpltCa
 653:Drivers/STM32F0xx_HAL_Driver/Src/stm32f0xx_hal_pcd.c **** {
 654:Drivers/STM32F0xx_HAL_Driver/Src/stm32f0xx_hal_pcd.c ****   HAL_StatusTypeDef status = HAL_OK;
 655:Drivers/STM32F0xx_HAL_Driver/Src/stm32f0xx_hal_pcd.c **** 
 656:Drivers/STM32F0xx_HAL_Driver/Src/stm32f0xx_hal_pcd.c ****   if (pCallback == NULL)
 657:Drivers/STM32F0xx_HAL_Driver/Src/stm32f0xx_hal_pcd.c ****   {
 658:Drivers/STM32F0xx_HAL_Driver/Src/stm32f0xx_hal_pcd.c ****     /* Update the error code */
ARM GAS  /tmp/ccd7InD5.s 			page 19


 659:Drivers/STM32F0xx_HAL_Driver/Src/stm32f0xx_hal_pcd.c ****     hpcd->ErrorCode |= HAL_PCD_ERROR_INVALID_CALLBACK;
 660:Drivers/STM32F0xx_HAL_Driver/Src/stm32f0xx_hal_pcd.c **** 
 661:Drivers/STM32F0xx_HAL_Driver/Src/stm32f0xx_hal_pcd.c ****     return HAL_ERROR;
 662:Drivers/STM32F0xx_HAL_Driver/Src/stm32f0xx_hal_pcd.c ****   }
 663:Drivers/STM32F0xx_HAL_Driver/Src/stm32f0xx_hal_pcd.c **** 
 664:Drivers/STM32F0xx_HAL_Driver/Src/stm32f0xx_hal_pcd.c ****   /* Process locked */
 665:Drivers/STM32F0xx_HAL_Driver/Src/stm32f0xx_hal_pcd.c ****   __HAL_LOCK(hpcd);
 666:Drivers/STM32F0xx_HAL_Driver/Src/stm32f0xx_hal_pcd.c **** 
 667:Drivers/STM32F0xx_HAL_Driver/Src/stm32f0xx_hal_pcd.c ****   if (hpcd->State == HAL_PCD_STATE_READY)
 668:Drivers/STM32F0xx_HAL_Driver/Src/stm32f0xx_hal_pcd.c ****   {
 669:Drivers/STM32F0xx_HAL_Driver/Src/stm32f0xx_hal_pcd.c ****     hpcd->ISOOUTIncompleteCallback = pCallback;
 670:Drivers/STM32F0xx_HAL_Driver/Src/stm32f0xx_hal_pcd.c ****   }
 671:Drivers/STM32F0xx_HAL_Driver/Src/stm32f0xx_hal_pcd.c ****   else
 672:Drivers/STM32F0xx_HAL_Driver/Src/stm32f0xx_hal_pcd.c ****   {
 673:Drivers/STM32F0xx_HAL_Driver/Src/stm32f0xx_hal_pcd.c ****     /* Update the error code */
 674:Drivers/STM32F0xx_HAL_Driver/Src/stm32f0xx_hal_pcd.c ****     hpcd->ErrorCode |= HAL_PCD_ERROR_INVALID_CALLBACK;
 675:Drivers/STM32F0xx_HAL_Driver/Src/stm32f0xx_hal_pcd.c **** 
 676:Drivers/STM32F0xx_HAL_Driver/Src/stm32f0xx_hal_pcd.c ****     /* Return error status */
 677:Drivers/STM32F0xx_HAL_Driver/Src/stm32f0xx_hal_pcd.c ****     status =  HAL_ERROR;
 678:Drivers/STM32F0xx_HAL_Driver/Src/stm32f0xx_hal_pcd.c ****   }
 679:Drivers/STM32F0xx_HAL_Driver/Src/stm32f0xx_hal_pcd.c **** 
 680:Drivers/STM32F0xx_HAL_Driver/Src/stm32f0xx_hal_pcd.c ****   /* Release Lock */
 681:Drivers/STM32F0xx_HAL_Driver/Src/stm32f0xx_hal_pcd.c ****   __HAL_UNLOCK(hpcd);
 682:Drivers/STM32F0xx_HAL_Driver/Src/stm32f0xx_hal_pcd.c **** 
 683:Drivers/STM32F0xx_HAL_Driver/Src/stm32f0xx_hal_pcd.c ****   return status;
 684:Drivers/STM32F0xx_HAL_Driver/Src/stm32f0xx_hal_pcd.c **** }
 685:Drivers/STM32F0xx_HAL_Driver/Src/stm32f0xx_hal_pcd.c **** 
 686:Drivers/STM32F0xx_HAL_Driver/Src/stm32f0xx_hal_pcd.c **** /**
 687:Drivers/STM32F0xx_HAL_Driver/Src/stm32f0xx_hal_pcd.c ****   * @brief  UnRegister the USB PCD Iso OUT incomplete Callback
 688:Drivers/STM32F0xx_HAL_Driver/Src/stm32f0xx_hal_pcd.c ****   *         USB PCD Iso OUT incomplete Callback is redirected to the weak HAL_PCD_ISOOUTIncompleteC
 689:Drivers/STM32F0xx_HAL_Driver/Src/stm32f0xx_hal_pcd.c ****   * @param  hpcd PCD handle
 690:Drivers/STM32F0xx_HAL_Driver/Src/stm32f0xx_hal_pcd.c ****   * @retval HAL status
 691:Drivers/STM32F0xx_HAL_Driver/Src/stm32f0xx_hal_pcd.c ****   */
 692:Drivers/STM32F0xx_HAL_Driver/Src/stm32f0xx_hal_pcd.c **** HAL_StatusTypeDef HAL_PCD_UnRegisterIsoOutIncpltCallback(PCD_HandleTypeDef *hpcd)
 693:Drivers/STM32F0xx_HAL_Driver/Src/stm32f0xx_hal_pcd.c **** {
 694:Drivers/STM32F0xx_HAL_Driver/Src/stm32f0xx_hal_pcd.c ****   HAL_StatusTypeDef status = HAL_OK;
 695:Drivers/STM32F0xx_HAL_Driver/Src/stm32f0xx_hal_pcd.c **** 
 696:Drivers/STM32F0xx_HAL_Driver/Src/stm32f0xx_hal_pcd.c ****   /* Process locked */
 697:Drivers/STM32F0xx_HAL_Driver/Src/stm32f0xx_hal_pcd.c ****   __HAL_LOCK(hpcd);
 698:Drivers/STM32F0xx_HAL_Driver/Src/stm32f0xx_hal_pcd.c **** 
 699:Drivers/STM32F0xx_HAL_Driver/Src/stm32f0xx_hal_pcd.c ****   if (hpcd->State == HAL_PCD_STATE_READY)
 700:Drivers/STM32F0xx_HAL_Driver/Src/stm32f0xx_hal_pcd.c ****   {
 701:Drivers/STM32F0xx_HAL_Driver/Src/stm32f0xx_hal_pcd.c ****     hpcd->ISOOUTIncompleteCallback = HAL_PCD_ISOOUTIncompleteCallback; /* Legacy weak ISOOUTIncompl
 702:Drivers/STM32F0xx_HAL_Driver/Src/stm32f0xx_hal_pcd.c ****   }
 703:Drivers/STM32F0xx_HAL_Driver/Src/stm32f0xx_hal_pcd.c ****   else
 704:Drivers/STM32F0xx_HAL_Driver/Src/stm32f0xx_hal_pcd.c ****   {
 705:Drivers/STM32F0xx_HAL_Driver/Src/stm32f0xx_hal_pcd.c ****     /* Update the error code */
 706:Drivers/STM32F0xx_HAL_Driver/Src/stm32f0xx_hal_pcd.c ****     hpcd->ErrorCode |= HAL_PCD_ERROR_INVALID_CALLBACK;
 707:Drivers/STM32F0xx_HAL_Driver/Src/stm32f0xx_hal_pcd.c **** 
 708:Drivers/STM32F0xx_HAL_Driver/Src/stm32f0xx_hal_pcd.c ****     /* Return error status */
 709:Drivers/STM32F0xx_HAL_Driver/Src/stm32f0xx_hal_pcd.c ****     status =  HAL_ERROR;
 710:Drivers/STM32F0xx_HAL_Driver/Src/stm32f0xx_hal_pcd.c ****   }
 711:Drivers/STM32F0xx_HAL_Driver/Src/stm32f0xx_hal_pcd.c **** 
 712:Drivers/STM32F0xx_HAL_Driver/Src/stm32f0xx_hal_pcd.c ****   /* Release Lock */
 713:Drivers/STM32F0xx_HAL_Driver/Src/stm32f0xx_hal_pcd.c ****   __HAL_UNLOCK(hpcd);
 714:Drivers/STM32F0xx_HAL_Driver/Src/stm32f0xx_hal_pcd.c **** 
 715:Drivers/STM32F0xx_HAL_Driver/Src/stm32f0xx_hal_pcd.c ****   return status;
ARM GAS  /tmp/ccd7InD5.s 			page 20


 716:Drivers/STM32F0xx_HAL_Driver/Src/stm32f0xx_hal_pcd.c **** }
 717:Drivers/STM32F0xx_HAL_Driver/Src/stm32f0xx_hal_pcd.c **** 
 718:Drivers/STM32F0xx_HAL_Driver/Src/stm32f0xx_hal_pcd.c **** /**
 719:Drivers/STM32F0xx_HAL_Driver/Src/stm32f0xx_hal_pcd.c ****   * @brief  Register USB PCD Iso IN incomplete Callback
 720:Drivers/STM32F0xx_HAL_Driver/Src/stm32f0xx_hal_pcd.c ****   *         To be used instead of the weak HAL_PCD_ISOINIncompleteCallback() predefined callback
 721:Drivers/STM32F0xx_HAL_Driver/Src/stm32f0xx_hal_pcd.c ****   * @param  hpcd PCD handle
 722:Drivers/STM32F0xx_HAL_Driver/Src/stm32f0xx_hal_pcd.c ****   * @param  pCallback pointer to the USB PCD Iso IN incomplete Callback function
 723:Drivers/STM32F0xx_HAL_Driver/Src/stm32f0xx_hal_pcd.c ****   * @retval HAL status
 724:Drivers/STM32F0xx_HAL_Driver/Src/stm32f0xx_hal_pcd.c ****   */
 725:Drivers/STM32F0xx_HAL_Driver/Src/stm32f0xx_hal_pcd.c **** HAL_StatusTypeDef HAL_PCD_RegisterIsoInIncpltCallback(PCD_HandleTypeDef *hpcd, pPCD_IsoInIncpltCall
 726:Drivers/STM32F0xx_HAL_Driver/Src/stm32f0xx_hal_pcd.c **** {
 727:Drivers/STM32F0xx_HAL_Driver/Src/stm32f0xx_hal_pcd.c ****   HAL_StatusTypeDef status = HAL_OK;
 728:Drivers/STM32F0xx_HAL_Driver/Src/stm32f0xx_hal_pcd.c **** 
 729:Drivers/STM32F0xx_HAL_Driver/Src/stm32f0xx_hal_pcd.c ****   if (pCallback == NULL)
 730:Drivers/STM32F0xx_HAL_Driver/Src/stm32f0xx_hal_pcd.c ****   {
 731:Drivers/STM32F0xx_HAL_Driver/Src/stm32f0xx_hal_pcd.c ****     /* Update the error code */
 732:Drivers/STM32F0xx_HAL_Driver/Src/stm32f0xx_hal_pcd.c ****     hpcd->ErrorCode |= HAL_PCD_ERROR_INVALID_CALLBACK;
 733:Drivers/STM32F0xx_HAL_Driver/Src/stm32f0xx_hal_pcd.c **** 
 734:Drivers/STM32F0xx_HAL_Driver/Src/stm32f0xx_hal_pcd.c ****     return HAL_ERROR;
 735:Drivers/STM32F0xx_HAL_Driver/Src/stm32f0xx_hal_pcd.c ****   }
 736:Drivers/STM32F0xx_HAL_Driver/Src/stm32f0xx_hal_pcd.c **** 
 737:Drivers/STM32F0xx_HAL_Driver/Src/stm32f0xx_hal_pcd.c ****   /* Process locked */
 738:Drivers/STM32F0xx_HAL_Driver/Src/stm32f0xx_hal_pcd.c ****   __HAL_LOCK(hpcd);
 739:Drivers/STM32F0xx_HAL_Driver/Src/stm32f0xx_hal_pcd.c **** 
 740:Drivers/STM32F0xx_HAL_Driver/Src/stm32f0xx_hal_pcd.c ****   if (hpcd->State == HAL_PCD_STATE_READY)
 741:Drivers/STM32F0xx_HAL_Driver/Src/stm32f0xx_hal_pcd.c ****   {
 742:Drivers/STM32F0xx_HAL_Driver/Src/stm32f0xx_hal_pcd.c ****     hpcd->ISOINIncompleteCallback = pCallback;
 743:Drivers/STM32F0xx_HAL_Driver/Src/stm32f0xx_hal_pcd.c ****   }
 744:Drivers/STM32F0xx_HAL_Driver/Src/stm32f0xx_hal_pcd.c ****   else
 745:Drivers/STM32F0xx_HAL_Driver/Src/stm32f0xx_hal_pcd.c ****   {
 746:Drivers/STM32F0xx_HAL_Driver/Src/stm32f0xx_hal_pcd.c ****     /* Update the error code */
 747:Drivers/STM32F0xx_HAL_Driver/Src/stm32f0xx_hal_pcd.c ****     hpcd->ErrorCode |= HAL_PCD_ERROR_INVALID_CALLBACK;
 748:Drivers/STM32F0xx_HAL_Driver/Src/stm32f0xx_hal_pcd.c **** 
 749:Drivers/STM32F0xx_HAL_Driver/Src/stm32f0xx_hal_pcd.c ****     /* Return error status */
 750:Drivers/STM32F0xx_HAL_Driver/Src/stm32f0xx_hal_pcd.c ****     status =  HAL_ERROR;
 751:Drivers/STM32F0xx_HAL_Driver/Src/stm32f0xx_hal_pcd.c ****   }
 752:Drivers/STM32F0xx_HAL_Driver/Src/stm32f0xx_hal_pcd.c **** 
 753:Drivers/STM32F0xx_HAL_Driver/Src/stm32f0xx_hal_pcd.c ****   /* Release Lock */
 754:Drivers/STM32F0xx_HAL_Driver/Src/stm32f0xx_hal_pcd.c ****   __HAL_UNLOCK(hpcd);
 755:Drivers/STM32F0xx_HAL_Driver/Src/stm32f0xx_hal_pcd.c **** 
 756:Drivers/STM32F0xx_HAL_Driver/Src/stm32f0xx_hal_pcd.c ****   return status;
 757:Drivers/STM32F0xx_HAL_Driver/Src/stm32f0xx_hal_pcd.c **** }
 758:Drivers/STM32F0xx_HAL_Driver/Src/stm32f0xx_hal_pcd.c **** 
 759:Drivers/STM32F0xx_HAL_Driver/Src/stm32f0xx_hal_pcd.c **** /**
 760:Drivers/STM32F0xx_HAL_Driver/Src/stm32f0xx_hal_pcd.c ****   * @brief  UnRegister the USB PCD Iso IN incomplete Callback
 761:Drivers/STM32F0xx_HAL_Driver/Src/stm32f0xx_hal_pcd.c ****   *         USB PCD Iso IN incomplete Callback is redirected to the weak HAL_PCD_ISOINIncompleteCal
 762:Drivers/STM32F0xx_HAL_Driver/Src/stm32f0xx_hal_pcd.c ****   * @param  hpcd PCD handle
 763:Drivers/STM32F0xx_HAL_Driver/Src/stm32f0xx_hal_pcd.c ****   * @retval HAL status
 764:Drivers/STM32F0xx_HAL_Driver/Src/stm32f0xx_hal_pcd.c ****   */
 765:Drivers/STM32F0xx_HAL_Driver/Src/stm32f0xx_hal_pcd.c **** HAL_StatusTypeDef HAL_PCD_UnRegisterIsoInIncpltCallback(PCD_HandleTypeDef *hpcd)
 766:Drivers/STM32F0xx_HAL_Driver/Src/stm32f0xx_hal_pcd.c **** {
 767:Drivers/STM32F0xx_HAL_Driver/Src/stm32f0xx_hal_pcd.c ****   HAL_StatusTypeDef status = HAL_OK;
 768:Drivers/STM32F0xx_HAL_Driver/Src/stm32f0xx_hal_pcd.c **** 
 769:Drivers/STM32F0xx_HAL_Driver/Src/stm32f0xx_hal_pcd.c ****   /* Process locked */
 770:Drivers/STM32F0xx_HAL_Driver/Src/stm32f0xx_hal_pcd.c ****   __HAL_LOCK(hpcd);
 771:Drivers/STM32F0xx_HAL_Driver/Src/stm32f0xx_hal_pcd.c **** 
 772:Drivers/STM32F0xx_HAL_Driver/Src/stm32f0xx_hal_pcd.c ****   if (hpcd->State == HAL_PCD_STATE_READY)
ARM GAS  /tmp/ccd7InD5.s 			page 21


 773:Drivers/STM32F0xx_HAL_Driver/Src/stm32f0xx_hal_pcd.c ****   {
 774:Drivers/STM32F0xx_HAL_Driver/Src/stm32f0xx_hal_pcd.c ****     hpcd->ISOINIncompleteCallback = HAL_PCD_ISOINIncompleteCallback; /* Legacy weak ISOINIncomplete
 775:Drivers/STM32F0xx_HAL_Driver/Src/stm32f0xx_hal_pcd.c ****   }
 776:Drivers/STM32F0xx_HAL_Driver/Src/stm32f0xx_hal_pcd.c ****   else
 777:Drivers/STM32F0xx_HAL_Driver/Src/stm32f0xx_hal_pcd.c ****   {
 778:Drivers/STM32F0xx_HAL_Driver/Src/stm32f0xx_hal_pcd.c ****     /* Update the error code */
 779:Drivers/STM32F0xx_HAL_Driver/Src/stm32f0xx_hal_pcd.c ****     hpcd->ErrorCode |= HAL_PCD_ERROR_INVALID_CALLBACK;
 780:Drivers/STM32F0xx_HAL_Driver/Src/stm32f0xx_hal_pcd.c **** 
 781:Drivers/STM32F0xx_HAL_Driver/Src/stm32f0xx_hal_pcd.c ****     /* Return error status */
 782:Drivers/STM32F0xx_HAL_Driver/Src/stm32f0xx_hal_pcd.c ****     status =  HAL_ERROR;
 783:Drivers/STM32F0xx_HAL_Driver/Src/stm32f0xx_hal_pcd.c ****   }
 784:Drivers/STM32F0xx_HAL_Driver/Src/stm32f0xx_hal_pcd.c **** 
 785:Drivers/STM32F0xx_HAL_Driver/Src/stm32f0xx_hal_pcd.c ****   /* Release Lock */
 786:Drivers/STM32F0xx_HAL_Driver/Src/stm32f0xx_hal_pcd.c ****   __HAL_UNLOCK(hpcd);
 787:Drivers/STM32F0xx_HAL_Driver/Src/stm32f0xx_hal_pcd.c **** 
 788:Drivers/STM32F0xx_HAL_Driver/Src/stm32f0xx_hal_pcd.c ****   return status;
 789:Drivers/STM32F0xx_HAL_Driver/Src/stm32f0xx_hal_pcd.c **** }
 790:Drivers/STM32F0xx_HAL_Driver/Src/stm32f0xx_hal_pcd.c **** 
 791:Drivers/STM32F0xx_HAL_Driver/Src/stm32f0xx_hal_pcd.c **** /**
 792:Drivers/STM32F0xx_HAL_Driver/Src/stm32f0xx_hal_pcd.c ****   * @brief  Register USB PCD BCD Callback
 793:Drivers/STM32F0xx_HAL_Driver/Src/stm32f0xx_hal_pcd.c ****   *         To be used instead of the weak HAL_PCDEx_BCD_Callback() predefined callback
 794:Drivers/STM32F0xx_HAL_Driver/Src/stm32f0xx_hal_pcd.c ****   * @param  hpcd PCD handle
 795:Drivers/STM32F0xx_HAL_Driver/Src/stm32f0xx_hal_pcd.c ****   * @param  pCallback pointer to the USB PCD BCD Callback function
 796:Drivers/STM32F0xx_HAL_Driver/Src/stm32f0xx_hal_pcd.c ****   * @retval HAL status
 797:Drivers/STM32F0xx_HAL_Driver/Src/stm32f0xx_hal_pcd.c ****   */
 798:Drivers/STM32F0xx_HAL_Driver/Src/stm32f0xx_hal_pcd.c **** HAL_StatusTypeDef HAL_PCD_RegisterBcdCallback(PCD_HandleTypeDef *hpcd, pPCD_BcdCallbackTypeDef pCal
 799:Drivers/STM32F0xx_HAL_Driver/Src/stm32f0xx_hal_pcd.c **** {
 800:Drivers/STM32F0xx_HAL_Driver/Src/stm32f0xx_hal_pcd.c ****   HAL_StatusTypeDef status = HAL_OK;
 801:Drivers/STM32F0xx_HAL_Driver/Src/stm32f0xx_hal_pcd.c **** 
 802:Drivers/STM32F0xx_HAL_Driver/Src/stm32f0xx_hal_pcd.c ****   if (pCallback == NULL)
 803:Drivers/STM32F0xx_HAL_Driver/Src/stm32f0xx_hal_pcd.c ****   {
 804:Drivers/STM32F0xx_HAL_Driver/Src/stm32f0xx_hal_pcd.c ****     /* Update the error code */
 805:Drivers/STM32F0xx_HAL_Driver/Src/stm32f0xx_hal_pcd.c ****     hpcd->ErrorCode |= HAL_PCD_ERROR_INVALID_CALLBACK;
 806:Drivers/STM32F0xx_HAL_Driver/Src/stm32f0xx_hal_pcd.c **** 
 807:Drivers/STM32F0xx_HAL_Driver/Src/stm32f0xx_hal_pcd.c ****     return HAL_ERROR;
 808:Drivers/STM32F0xx_HAL_Driver/Src/stm32f0xx_hal_pcd.c ****   }
 809:Drivers/STM32F0xx_HAL_Driver/Src/stm32f0xx_hal_pcd.c **** 
 810:Drivers/STM32F0xx_HAL_Driver/Src/stm32f0xx_hal_pcd.c ****   /* Process locked */
 811:Drivers/STM32F0xx_HAL_Driver/Src/stm32f0xx_hal_pcd.c ****   __HAL_LOCK(hpcd);
 812:Drivers/STM32F0xx_HAL_Driver/Src/stm32f0xx_hal_pcd.c **** 
 813:Drivers/STM32F0xx_HAL_Driver/Src/stm32f0xx_hal_pcd.c ****   if (hpcd->State == HAL_PCD_STATE_READY)
 814:Drivers/STM32F0xx_HAL_Driver/Src/stm32f0xx_hal_pcd.c ****   {
 815:Drivers/STM32F0xx_HAL_Driver/Src/stm32f0xx_hal_pcd.c ****     hpcd->BCDCallback = pCallback;
 816:Drivers/STM32F0xx_HAL_Driver/Src/stm32f0xx_hal_pcd.c ****   }
 817:Drivers/STM32F0xx_HAL_Driver/Src/stm32f0xx_hal_pcd.c ****   else
 818:Drivers/STM32F0xx_HAL_Driver/Src/stm32f0xx_hal_pcd.c ****   {
 819:Drivers/STM32F0xx_HAL_Driver/Src/stm32f0xx_hal_pcd.c ****     /* Update the error code */
 820:Drivers/STM32F0xx_HAL_Driver/Src/stm32f0xx_hal_pcd.c ****     hpcd->ErrorCode |= HAL_PCD_ERROR_INVALID_CALLBACK;
 821:Drivers/STM32F0xx_HAL_Driver/Src/stm32f0xx_hal_pcd.c **** 
 822:Drivers/STM32F0xx_HAL_Driver/Src/stm32f0xx_hal_pcd.c ****     /* Return error status */
 823:Drivers/STM32F0xx_HAL_Driver/Src/stm32f0xx_hal_pcd.c ****     status =  HAL_ERROR;
 824:Drivers/STM32F0xx_HAL_Driver/Src/stm32f0xx_hal_pcd.c ****   }
 825:Drivers/STM32F0xx_HAL_Driver/Src/stm32f0xx_hal_pcd.c **** 
 826:Drivers/STM32F0xx_HAL_Driver/Src/stm32f0xx_hal_pcd.c ****   /* Release Lock */
 827:Drivers/STM32F0xx_HAL_Driver/Src/stm32f0xx_hal_pcd.c ****   __HAL_UNLOCK(hpcd);
 828:Drivers/STM32F0xx_HAL_Driver/Src/stm32f0xx_hal_pcd.c **** 
 829:Drivers/STM32F0xx_HAL_Driver/Src/stm32f0xx_hal_pcd.c ****   return status;
ARM GAS  /tmp/ccd7InD5.s 			page 22


 830:Drivers/STM32F0xx_HAL_Driver/Src/stm32f0xx_hal_pcd.c **** }
 831:Drivers/STM32F0xx_HAL_Driver/Src/stm32f0xx_hal_pcd.c **** 
 832:Drivers/STM32F0xx_HAL_Driver/Src/stm32f0xx_hal_pcd.c **** /**
 833:Drivers/STM32F0xx_HAL_Driver/Src/stm32f0xx_hal_pcd.c ****   * @brief  UnRegister the USB PCD BCD Callback
 834:Drivers/STM32F0xx_HAL_Driver/Src/stm32f0xx_hal_pcd.c ****   *         USB BCD Callback is redirected to the weak HAL_PCDEx_BCD_Callback() predefined callback
 835:Drivers/STM32F0xx_HAL_Driver/Src/stm32f0xx_hal_pcd.c ****   * @param  hpcd PCD handle
 836:Drivers/STM32F0xx_HAL_Driver/Src/stm32f0xx_hal_pcd.c ****   * @retval HAL status
 837:Drivers/STM32F0xx_HAL_Driver/Src/stm32f0xx_hal_pcd.c ****   */
 838:Drivers/STM32F0xx_HAL_Driver/Src/stm32f0xx_hal_pcd.c **** HAL_StatusTypeDef HAL_PCD_UnRegisterBcdCallback(PCD_HandleTypeDef *hpcd)
 839:Drivers/STM32F0xx_HAL_Driver/Src/stm32f0xx_hal_pcd.c **** {
 840:Drivers/STM32F0xx_HAL_Driver/Src/stm32f0xx_hal_pcd.c ****   HAL_StatusTypeDef status = HAL_OK;
 841:Drivers/STM32F0xx_HAL_Driver/Src/stm32f0xx_hal_pcd.c **** 
 842:Drivers/STM32F0xx_HAL_Driver/Src/stm32f0xx_hal_pcd.c ****   /* Process locked */
 843:Drivers/STM32F0xx_HAL_Driver/Src/stm32f0xx_hal_pcd.c ****   __HAL_LOCK(hpcd);
 844:Drivers/STM32F0xx_HAL_Driver/Src/stm32f0xx_hal_pcd.c **** 
 845:Drivers/STM32F0xx_HAL_Driver/Src/stm32f0xx_hal_pcd.c ****   if (hpcd->State == HAL_PCD_STATE_READY)
 846:Drivers/STM32F0xx_HAL_Driver/Src/stm32f0xx_hal_pcd.c ****   {
 847:Drivers/STM32F0xx_HAL_Driver/Src/stm32f0xx_hal_pcd.c ****     hpcd->BCDCallback = HAL_PCDEx_BCD_Callback; /* Legacy weak HAL_PCDEx_BCD_Callback  */
 848:Drivers/STM32F0xx_HAL_Driver/Src/stm32f0xx_hal_pcd.c ****   }
 849:Drivers/STM32F0xx_HAL_Driver/Src/stm32f0xx_hal_pcd.c ****   else
 850:Drivers/STM32F0xx_HAL_Driver/Src/stm32f0xx_hal_pcd.c ****   {
 851:Drivers/STM32F0xx_HAL_Driver/Src/stm32f0xx_hal_pcd.c ****     /* Update the error code */
 852:Drivers/STM32F0xx_HAL_Driver/Src/stm32f0xx_hal_pcd.c ****     hpcd->ErrorCode |= HAL_PCD_ERROR_INVALID_CALLBACK;
 853:Drivers/STM32F0xx_HAL_Driver/Src/stm32f0xx_hal_pcd.c **** 
 854:Drivers/STM32F0xx_HAL_Driver/Src/stm32f0xx_hal_pcd.c ****     /* Return error status */
 855:Drivers/STM32F0xx_HAL_Driver/Src/stm32f0xx_hal_pcd.c ****     status =  HAL_ERROR;
 856:Drivers/STM32F0xx_HAL_Driver/Src/stm32f0xx_hal_pcd.c ****   }
 857:Drivers/STM32F0xx_HAL_Driver/Src/stm32f0xx_hal_pcd.c **** 
 858:Drivers/STM32F0xx_HAL_Driver/Src/stm32f0xx_hal_pcd.c ****   /* Release Lock */
 859:Drivers/STM32F0xx_HAL_Driver/Src/stm32f0xx_hal_pcd.c ****   __HAL_UNLOCK(hpcd);
 860:Drivers/STM32F0xx_HAL_Driver/Src/stm32f0xx_hal_pcd.c **** 
 861:Drivers/STM32F0xx_HAL_Driver/Src/stm32f0xx_hal_pcd.c ****   return status;
 862:Drivers/STM32F0xx_HAL_Driver/Src/stm32f0xx_hal_pcd.c **** }
 863:Drivers/STM32F0xx_HAL_Driver/Src/stm32f0xx_hal_pcd.c **** 
 864:Drivers/STM32F0xx_HAL_Driver/Src/stm32f0xx_hal_pcd.c **** /**
 865:Drivers/STM32F0xx_HAL_Driver/Src/stm32f0xx_hal_pcd.c ****   * @brief  Register USB PCD LPM Callback
 866:Drivers/STM32F0xx_HAL_Driver/Src/stm32f0xx_hal_pcd.c ****   *         To be used instead of the weak HAL_PCDEx_LPM_Callback() predefined callback
 867:Drivers/STM32F0xx_HAL_Driver/Src/stm32f0xx_hal_pcd.c ****   * @param  hpcd PCD handle
 868:Drivers/STM32F0xx_HAL_Driver/Src/stm32f0xx_hal_pcd.c ****   * @param  pCallback pointer to the USB PCD LPM Callback function
 869:Drivers/STM32F0xx_HAL_Driver/Src/stm32f0xx_hal_pcd.c ****   * @retval HAL status
 870:Drivers/STM32F0xx_HAL_Driver/Src/stm32f0xx_hal_pcd.c ****   */
 871:Drivers/STM32F0xx_HAL_Driver/Src/stm32f0xx_hal_pcd.c **** HAL_StatusTypeDef HAL_PCD_RegisterLpmCallback(PCD_HandleTypeDef *hpcd, pPCD_LpmCallbackTypeDef pCal
 872:Drivers/STM32F0xx_HAL_Driver/Src/stm32f0xx_hal_pcd.c **** {
 873:Drivers/STM32F0xx_HAL_Driver/Src/stm32f0xx_hal_pcd.c ****   HAL_StatusTypeDef status = HAL_OK;
 874:Drivers/STM32F0xx_HAL_Driver/Src/stm32f0xx_hal_pcd.c **** 
 875:Drivers/STM32F0xx_HAL_Driver/Src/stm32f0xx_hal_pcd.c ****   if (pCallback == NULL)
 876:Drivers/STM32F0xx_HAL_Driver/Src/stm32f0xx_hal_pcd.c ****   {
 877:Drivers/STM32F0xx_HAL_Driver/Src/stm32f0xx_hal_pcd.c ****     /* Update the error code */
 878:Drivers/STM32F0xx_HAL_Driver/Src/stm32f0xx_hal_pcd.c ****     hpcd->ErrorCode |= HAL_PCD_ERROR_INVALID_CALLBACK;
 879:Drivers/STM32F0xx_HAL_Driver/Src/stm32f0xx_hal_pcd.c **** 
 880:Drivers/STM32F0xx_HAL_Driver/Src/stm32f0xx_hal_pcd.c ****     return HAL_ERROR;
 881:Drivers/STM32F0xx_HAL_Driver/Src/stm32f0xx_hal_pcd.c ****   }
 882:Drivers/STM32F0xx_HAL_Driver/Src/stm32f0xx_hal_pcd.c **** 
 883:Drivers/STM32F0xx_HAL_Driver/Src/stm32f0xx_hal_pcd.c ****   /* Process locked */
 884:Drivers/STM32F0xx_HAL_Driver/Src/stm32f0xx_hal_pcd.c ****   __HAL_LOCK(hpcd);
 885:Drivers/STM32F0xx_HAL_Driver/Src/stm32f0xx_hal_pcd.c **** 
 886:Drivers/STM32F0xx_HAL_Driver/Src/stm32f0xx_hal_pcd.c ****   if (hpcd->State == HAL_PCD_STATE_READY)
ARM GAS  /tmp/ccd7InD5.s 			page 23


 887:Drivers/STM32F0xx_HAL_Driver/Src/stm32f0xx_hal_pcd.c ****   {
 888:Drivers/STM32F0xx_HAL_Driver/Src/stm32f0xx_hal_pcd.c ****     hpcd->LPMCallback = pCallback;
 889:Drivers/STM32F0xx_HAL_Driver/Src/stm32f0xx_hal_pcd.c ****   }
 890:Drivers/STM32F0xx_HAL_Driver/Src/stm32f0xx_hal_pcd.c ****   else
 891:Drivers/STM32F0xx_HAL_Driver/Src/stm32f0xx_hal_pcd.c ****   {
 892:Drivers/STM32F0xx_HAL_Driver/Src/stm32f0xx_hal_pcd.c ****     /* Update the error code */
 893:Drivers/STM32F0xx_HAL_Driver/Src/stm32f0xx_hal_pcd.c ****     hpcd->ErrorCode |= HAL_PCD_ERROR_INVALID_CALLBACK;
 894:Drivers/STM32F0xx_HAL_Driver/Src/stm32f0xx_hal_pcd.c **** 
 895:Drivers/STM32F0xx_HAL_Driver/Src/stm32f0xx_hal_pcd.c ****     /* Return error status */
 896:Drivers/STM32F0xx_HAL_Driver/Src/stm32f0xx_hal_pcd.c ****     status =  HAL_ERROR;
 897:Drivers/STM32F0xx_HAL_Driver/Src/stm32f0xx_hal_pcd.c ****   }
 898:Drivers/STM32F0xx_HAL_Driver/Src/stm32f0xx_hal_pcd.c **** 
 899:Drivers/STM32F0xx_HAL_Driver/Src/stm32f0xx_hal_pcd.c ****   /* Release Lock */
 900:Drivers/STM32F0xx_HAL_Driver/Src/stm32f0xx_hal_pcd.c ****   __HAL_UNLOCK(hpcd);
 901:Drivers/STM32F0xx_HAL_Driver/Src/stm32f0xx_hal_pcd.c **** 
 902:Drivers/STM32F0xx_HAL_Driver/Src/stm32f0xx_hal_pcd.c ****   return status;
 903:Drivers/STM32F0xx_HAL_Driver/Src/stm32f0xx_hal_pcd.c **** }
 904:Drivers/STM32F0xx_HAL_Driver/Src/stm32f0xx_hal_pcd.c **** 
 905:Drivers/STM32F0xx_HAL_Driver/Src/stm32f0xx_hal_pcd.c **** /**
 906:Drivers/STM32F0xx_HAL_Driver/Src/stm32f0xx_hal_pcd.c ****   * @brief  UnRegister the USB PCD LPM Callback
 907:Drivers/STM32F0xx_HAL_Driver/Src/stm32f0xx_hal_pcd.c ****   *         USB LPM Callback is redirected to the weak HAL_PCDEx_LPM_Callback() predefined callback
 908:Drivers/STM32F0xx_HAL_Driver/Src/stm32f0xx_hal_pcd.c ****   * @param  hpcd PCD handle
 909:Drivers/STM32F0xx_HAL_Driver/Src/stm32f0xx_hal_pcd.c ****   * @retval HAL status
 910:Drivers/STM32F0xx_HAL_Driver/Src/stm32f0xx_hal_pcd.c ****   */
 911:Drivers/STM32F0xx_HAL_Driver/Src/stm32f0xx_hal_pcd.c **** HAL_StatusTypeDef HAL_PCD_UnRegisterLpmCallback(PCD_HandleTypeDef *hpcd)
 912:Drivers/STM32F0xx_HAL_Driver/Src/stm32f0xx_hal_pcd.c **** {
 913:Drivers/STM32F0xx_HAL_Driver/Src/stm32f0xx_hal_pcd.c ****   HAL_StatusTypeDef status = HAL_OK;
 914:Drivers/STM32F0xx_HAL_Driver/Src/stm32f0xx_hal_pcd.c **** 
 915:Drivers/STM32F0xx_HAL_Driver/Src/stm32f0xx_hal_pcd.c ****   /* Process locked */
 916:Drivers/STM32F0xx_HAL_Driver/Src/stm32f0xx_hal_pcd.c ****   __HAL_LOCK(hpcd);
 917:Drivers/STM32F0xx_HAL_Driver/Src/stm32f0xx_hal_pcd.c **** 
 918:Drivers/STM32F0xx_HAL_Driver/Src/stm32f0xx_hal_pcd.c ****   if (hpcd->State == HAL_PCD_STATE_READY)
 919:Drivers/STM32F0xx_HAL_Driver/Src/stm32f0xx_hal_pcd.c ****   {
 920:Drivers/STM32F0xx_HAL_Driver/Src/stm32f0xx_hal_pcd.c ****     hpcd->LPMCallback = HAL_PCDEx_LPM_Callback; /* Legacy weak HAL_PCDEx_LPM_Callback  */
 921:Drivers/STM32F0xx_HAL_Driver/Src/stm32f0xx_hal_pcd.c ****   }
 922:Drivers/STM32F0xx_HAL_Driver/Src/stm32f0xx_hal_pcd.c ****   else
 923:Drivers/STM32F0xx_HAL_Driver/Src/stm32f0xx_hal_pcd.c ****   {
 924:Drivers/STM32F0xx_HAL_Driver/Src/stm32f0xx_hal_pcd.c ****     /* Update the error code */
 925:Drivers/STM32F0xx_HAL_Driver/Src/stm32f0xx_hal_pcd.c ****     hpcd->ErrorCode |= HAL_PCD_ERROR_INVALID_CALLBACK;
 926:Drivers/STM32F0xx_HAL_Driver/Src/stm32f0xx_hal_pcd.c **** 
 927:Drivers/STM32F0xx_HAL_Driver/Src/stm32f0xx_hal_pcd.c ****     /* Return error status */
 928:Drivers/STM32F0xx_HAL_Driver/Src/stm32f0xx_hal_pcd.c ****     status =  HAL_ERROR;
 929:Drivers/STM32F0xx_HAL_Driver/Src/stm32f0xx_hal_pcd.c ****   }
 930:Drivers/STM32F0xx_HAL_Driver/Src/stm32f0xx_hal_pcd.c **** 
 931:Drivers/STM32F0xx_HAL_Driver/Src/stm32f0xx_hal_pcd.c ****   /* Release Lock */
 932:Drivers/STM32F0xx_HAL_Driver/Src/stm32f0xx_hal_pcd.c ****   __HAL_UNLOCK(hpcd);
 933:Drivers/STM32F0xx_HAL_Driver/Src/stm32f0xx_hal_pcd.c **** 
 934:Drivers/STM32F0xx_HAL_Driver/Src/stm32f0xx_hal_pcd.c ****   return status;
 935:Drivers/STM32F0xx_HAL_Driver/Src/stm32f0xx_hal_pcd.c **** }
 936:Drivers/STM32F0xx_HAL_Driver/Src/stm32f0xx_hal_pcd.c **** #endif /* USE_HAL_PCD_REGISTER_CALLBACKS */
 937:Drivers/STM32F0xx_HAL_Driver/Src/stm32f0xx_hal_pcd.c **** 
 938:Drivers/STM32F0xx_HAL_Driver/Src/stm32f0xx_hal_pcd.c **** /**
 939:Drivers/STM32F0xx_HAL_Driver/Src/stm32f0xx_hal_pcd.c ****   * @}
 940:Drivers/STM32F0xx_HAL_Driver/Src/stm32f0xx_hal_pcd.c ****   */
 941:Drivers/STM32F0xx_HAL_Driver/Src/stm32f0xx_hal_pcd.c **** 
 942:Drivers/STM32F0xx_HAL_Driver/Src/stm32f0xx_hal_pcd.c **** /** @defgroup PCD_Exported_Functions_Group2 Input and Output operation functions
 943:Drivers/STM32F0xx_HAL_Driver/Src/stm32f0xx_hal_pcd.c ****  *  @brief   Data transfers functions
ARM GAS  /tmp/ccd7InD5.s 			page 24


 944:Drivers/STM32F0xx_HAL_Driver/Src/stm32f0xx_hal_pcd.c ****  *
 945:Drivers/STM32F0xx_HAL_Driver/Src/stm32f0xx_hal_pcd.c **** @verbatim
 946:Drivers/STM32F0xx_HAL_Driver/Src/stm32f0xx_hal_pcd.c ****  ===============================================================================
 947:Drivers/STM32F0xx_HAL_Driver/Src/stm32f0xx_hal_pcd.c ****                       ##### IO operation functions #####
 948:Drivers/STM32F0xx_HAL_Driver/Src/stm32f0xx_hal_pcd.c ****  ===============================================================================
 949:Drivers/STM32F0xx_HAL_Driver/Src/stm32f0xx_hal_pcd.c ****     [..]
 950:Drivers/STM32F0xx_HAL_Driver/Src/stm32f0xx_hal_pcd.c ****     This subsection provides a set of functions allowing to manage the PCD data
 951:Drivers/STM32F0xx_HAL_Driver/Src/stm32f0xx_hal_pcd.c ****     transfers.
 952:Drivers/STM32F0xx_HAL_Driver/Src/stm32f0xx_hal_pcd.c **** 
 953:Drivers/STM32F0xx_HAL_Driver/Src/stm32f0xx_hal_pcd.c **** @endverbatim
 954:Drivers/STM32F0xx_HAL_Driver/Src/stm32f0xx_hal_pcd.c ****   * @{
 955:Drivers/STM32F0xx_HAL_Driver/Src/stm32f0xx_hal_pcd.c ****   */
 956:Drivers/STM32F0xx_HAL_Driver/Src/stm32f0xx_hal_pcd.c **** 
 957:Drivers/STM32F0xx_HAL_Driver/Src/stm32f0xx_hal_pcd.c **** /**
 958:Drivers/STM32F0xx_HAL_Driver/Src/stm32f0xx_hal_pcd.c ****   * @brief  Start the USB device
 959:Drivers/STM32F0xx_HAL_Driver/Src/stm32f0xx_hal_pcd.c ****   * @param  hpcd PCD handle
 960:Drivers/STM32F0xx_HAL_Driver/Src/stm32f0xx_hal_pcd.c ****   * @retval HAL status
 961:Drivers/STM32F0xx_HAL_Driver/Src/stm32f0xx_hal_pcd.c ****   */
 962:Drivers/STM32F0xx_HAL_Driver/Src/stm32f0xx_hal_pcd.c **** HAL_StatusTypeDef HAL_PCD_Start(PCD_HandleTypeDef *hpcd)
 963:Drivers/STM32F0xx_HAL_Driver/Src/stm32f0xx_hal_pcd.c **** {
 303              		.loc 1 963 1 is_stmt 1 view -0
 304              		.cfi_startproc
 305              		@ args = 0, pretend = 0, frame = 0
 306              		@ frame_needed = 0, uses_anonymous_args = 0
 307              		.loc 1 963 1 is_stmt 0 view .LVU80
 308 0000 70B5     		push	{r4, r5, r6, lr}
 309              	.LCFI2:
 310              		.cfi_def_cfa_offset 16
 311              		.cfi_offset 4, -16
 312              		.cfi_offset 5, -12
 313              		.cfi_offset 6, -8
 314              		.cfi_offset 14, -4
 315 0002 0400     		movs	r4, r0
 964:Drivers/STM32F0xx_HAL_Driver/Src/stm32f0xx_hal_pcd.c ****   __HAL_LOCK(hpcd);
 316              		.loc 1 964 3 is_stmt 1 view .LVU81
 317              		.loc 1 964 3 view .LVU82
 318 0004 8A23     		movs	r3, #138
 319 0006 9B00     		lsls	r3, r3, #2
 320 0008 C35C     		ldrb	r3, [r0, r3]
 321 000a 012B     		cmp	r3, #1
 322 000c 0DD0     		beq	.L18
 323              		.loc 1 964 3 discriminator 2 view .LVU83
 324 000e 8A25     		movs	r5, #138
 325 0010 AD00     		lsls	r5, r5, #2
 326 0012 0123     		movs	r3, #1
 327 0014 4355     		strb	r3, [r0, r5]
 328              		.loc 1 964 3 discriminator 2 view .LVU84
 965:Drivers/STM32F0xx_HAL_Driver/Src/stm32f0xx_hal_pcd.c ****   (void)USB_DevConnect(hpcd->Instance);
 329              		.loc 1 965 3 discriminator 2 view .LVU85
 330              		.loc 1 965 28 is_stmt 0 discriminator 2 view .LVU86
 331 0016 0068     		ldr	r0, [r0]
 332              	.LVL21:
 333              		.loc 1 965 9 discriminator 2 view .LVU87
 334 0018 FFF7FEFF 		bl	USB_DevConnect
 335              	.LVL22:
 966:Drivers/STM32F0xx_HAL_Driver/Src/stm32f0xx_hal_pcd.c ****   __HAL_PCD_ENABLE(hpcd);
 336              		.loc 1 966 3 is_stmt 1 discriminator 2 view .LVU88
ARM GAS  /tmp/ccd7InD5.s 			page 25


 337 001c 2068     		ldr	r0, [r4]
 338 001e FFF7FEFF 		bl	USB_EnableGlobalInt
 339              	.LVL23:
 967:Drivers/STM32F0xx_HAL_Driver/Src/stm32f0xx_hal_pcd.c ****   __HAL_UNLOCK(hpcd);
 340              		.loc 1 967 3 discriminator 2 view .LVU89
 341              		.loc 1 967 3 discriminator 2 view .LVU90
 342 0022 0023     		movs	r3, #0
 343 0024 6355     		strb	r3, [r4, r5]
 344              		.loc 1 967 3 discriminator 2 view .LVU91
 968:Drivers/STM32F0xx_HAL_Driver/Src/stm32f0xx_hal_pcd.c ****   return HAL_OK;
 345              		.loc 1 968 3 discriminator 2 view .LVU92
 346              		.loc 1 968 10 is_stmt 0 discriminator 2 view .LVU93
 347 0026 0020     		movs	r0, #0
 348              	.L17:
 969:Drivers/STM32F0xx_HAL_Driver/Src/stm32f0xx_hal_pcd.c **** }
 349              		.loc 1 969 1 view .LVU94
 350              		@ sp needed
 351              	.LVL24:
 352              		.loc 1 969 1 view .LVU95
 353 0028 70BD     		pop	{r4, r5, r6, pc}
 354              	.LVL25:
 355              	.L18:
 964:Drivers/STM32F0xx_HAL_Driver/Src/stm32f0xx_hal_pcd.c ****   (void)USB_DevConnect(hpcd->Instance);
 356              		.loc 1 964 3 view .LVU96
 357 002a 0220     		movs	r0, #2
 358              	.LVL26:
 964:Drivers/STM32F0xx_HAL_Driver/Src/stm32f0xx_hal_pcd.c ****   (void)USB_DevConnect(hpcd->Instance);
 359              		.loc 1 964 3 view .LVU97
 360 002c FCE7     		b	.L17
 361              		.cfi_endproc
 362              	.LFE44:
 364              		.section	.text.HAL_PCD_Stop,"ax",%progbits
 365              		.align	1
 366              		.global	HAL_PCD_Stop
 367              		.syntax unified
 368              		.code	16
 369              		.thumb_func
 370              		.fpu softvfp
 372              	HAL_PCD_Stop:
 373              	.LVL27:
 374              	.LFB45:
 970:Drivers/STM32F0xx_HAL_Driver/Src/stm32f0xx_hal_pcd.c **** 
 971:Drivers/STM32F0xx_HAL_Driver/Src/stm32f0xx_hal_pcd.c **** /**
 972:Drivers/STM32F0xx_HAL_Driver/Src/stm32f0xx_hal_pcd.c ****   * @brief  Stop the USB device.
 973:Drivers/STM32F0xx_HAL_Driver/Src/stm32f0xx_hal_pcd.c ****   * @param  hpcd PCD handle
 974:Drivers/STM32F0xx_HAL_Driver/Src/stm32f0xx_hal_pcd.c ****   * @retval HAL status
 975:Drivers/STM32F0xx_HAL_Driver/Src/stm32f0xx_hal_pcd.c ****   */
 976:Drivers/STM32F0xx_HAL_Driver/Src/stm32f0xx_hal_pcd.c **** HAL_StatusTypeDef HAL_PCD_Stop(PCD_HandleTypeDef *hpcd)
 977:Drivers/STM32F0xx_HAL_Driver/Src/stm32f0xx_hal_pcd.c **** {
 375              		.loc 1 977 1 is_stmt 1 view -0
 376              		.cfi_startproc
 377              		@ args = 0, pretend = 0, frame = 0
 378              		@ frame_needed = 0, uses_anonymous_args = 0
 379              		.loc 1 977 1 is_stmt 0 view .LVU99
 380 0000 70B5     		push	{r4, r5, r6, lr}
 381              	.LCFI3:
 382              		.cfi_def_cfa_offset 16
ARM GAS  /tmp/ccd7InD5.s 			page 26


 383              		.cfi_offset 4, -16
 384              		.cfi_offset 5, -12
 385              		.cfi_offset 6, -8
 386              		.cfi_offset 14, -4
 387 0002 0400     		movs	r4, r0
 978:Drivers/STM32F0xx_HAL_Driver/Src/stm32f0xx_hal_pcd.c ****   __HAL_LOCK(hpcd);
 388              		.loc 1 978 3 is_stmt 1 view .LVU100
 389              		.loc 1 978 3 view .LVU101
 390 0004 8A23     		movs	r3, #138
 391 0006 9B00     		lsls	r3, r3, #2
 392 0008 C35C     		ldrb	r3, [r0, r3]
 393 000a 012B     		cmp	r3, #1
 394 000c 0DD0     		beq	.L21
 395              		.loc 1 978 3 discriminator 2 view .LVU102
 396 000e 8A25     		movs	r5, #138
 397 0010 AD00     		lsls	r5, r5, #2
 398 0012 0123     		movs	r3, #1
 399 0014 4355     		strb	r3, [r0, r5]
 400              		.loc 1 978 3 discriminator 2 view .LVU103
 979:Drivers/STM32F0xx_HAL_Driver/Src/stm32f0xx_hal_pcd.c ****   __HAL_PCD_DISABLE(hpcd);
 401              		.loc 1 979 3 discriminator 2 view .LVU104
 402 0016 0068     		ldr	r0, [r0]
 403              	.LVL28:
 404              		.loc 1 979 3 is_stmt 0 discriminator 2 view .LVU105
 405 0018 FFF7FEFF 		bl	USB_DisableGlobalInt
 406              	.LVL29:
 980:Drivers/STM32F0xx_HAL_Driver/Src/stm32f0xx_hal_pcd.c **** 
 981:Drivers/STM32F0xx_HAL_Driver/Src/stm32f0xx_hal_pcd.c ****   (void)USB_StopDevice(hpcd->Instance);
 407              		.loc 1 981 3 is_stmt 1 discriminator 2 view .LVU106
 408              		.loc 1 981 28 is_stmt 0 discriminator 2 view .LVU107
 409 001c 2068     		ldr	r0, [r4]
 410              		.loc 1 981 9 discriminator 2 view .LVU108
 411 001e FFF7FEFF 		bl	USB_StopDevice
 412              	.LVL30:
 982:Drivers/STM32F0xx_HAL_Driver/Src/stm32f0xx_hal_pcd.c **** 
 983:Drivers/STM32F0xx_HAL_Driver/Src/stm32f0xx_hal_pcd.c ****   __HAL_UNLOCK(hpcd);
 413              		.loc 1 983 3 is_stmt 1 discriminator 2 view .LVU109
 414              		.loc 1 983 3 discriminator 2 view .LVU110
 415 0022 0023     		movs	r3, #0
 416 0024 6355     		strb	r3, [r4, r5]
 417              		.loc 1 983 3 discriminator 2 view .LVU111
 984:Drivers/STM32F0xx_HAL_Driver/Src/stm32f0xx_hal_pcd.c **** 
 985:Drivers/STM32F0xx_HAL_Driver/Src/stm32f0xx_hal_pcd.c ****   return HAL_OK;
 418              		.loc 1 985 3 discriminator 2 view .LVU112
 419              		.loc 1 985 10 is_stmt 0 discriminator 2 view .LVU113
 420 0026 0020     		movs	r0, #0
 421              	.L20:
 986:Drivers/STM32F0xx_HAL_Driver/Src/stm32f0xx_hal_pcd.c **** }
 422              		.loc 1 986 1 view .LVU114
 423              		@ sp needed
 424              	.LVL31:
 425              		.loc 1 986 1 view .LVU115
 426 0028 70BD     		pop	{r4, r5, r6, pc}
 427              	.LVL32:
 428              	.L21:
 978:Drivers/STM32F0xx_HAL_Driver/Src/stm32f0xx_hal_pcd.c ****   __HAL_PCD_DISABLE(hpcd);
 429              		.loc 1 978 3 view .LVU116
ARM GAS  /tmp/ccd7InD5.s 			page 27


 430 002a 0220     		movs	r0, #2
 431              	.LVL33:
 978:Drivers/STM32F0xx_HAL_Driver/Src/stm32f0xx_hal_pcd.c ****   __HAL_PCD_DISABLE(hpcd);
 432              		.loc 1 978 3 view .LVU117
 433 002c FCE7     		b	.L20
 434              		.cfi_endproc
 435              	.LFE45:
 437              		.section	.text.HAL_PCD_DeInit,"ax",%progbits
 438              		.align	1
 439              		.global	HAL_PCD_DeInit
 440              		.syntax unified
 441              		.code	16
 442              		.thumb_func
 443              		.fpu softvfp
 445              	HAL_PCD_DeInit:
 446              	.LVL34:
 447              	.LFB41:
 217:Drivers/STM32F0xx_HAL_Driver/Src/stm32f0xx_hal_pcd.c ****   /* Check the PCD handle allocation */
 448              		.loc 1 217 1 is_stmt 1 view -0
 449              		.cfi_startproc
 450              		@ args = 0, pretend = 0, frame = 0
 451              		@ frame_needed = 0, uses_anonymous_args = 0
 217:Drivers/STM32F0xx_HAL_Driver/Src/stm32f0xx_hal_pcd.c ****   /* Check the PCD handle allocation */
 452              		.loc 1 217 1 is_stmt 0 view .LVU119
 453 0000 70B5     		push	{r4, r5, r6, lr}
 454              	.LCFI4:
 455              		.cfi_def_cfa_offset 16
 456              		.cfi_offset 4, -16
 457              		.cfi_offset 5, -12
 458              		.cfi_offset 6, -8
 459              		.cfi_offset 14, -4
 460 0002 041E     		subs	r4, r0, #0
 219:Drivers/STM32F0xx_HAL_Driver/Src/stm32f0xx_hal_pcd.c ****   {
 461              		.loc 1 219 3 is_stmt 1 view .LVU120
 219:Drivers/STM32F0xx_HAL_Driver/Src/stm32f0xx_hal_pcd.c ****   {
 462              		.loc 1 219 6 is_stmt 0 view .LVU121
 463 0004 0BD0     		beq	.L24
 224:Drivers/STM32F0xx_HAL_Driver/Src/stm32f0xx_hal_pcd.c **** 
 464              		.loc 1 224 3 is_stmt 1 view .LVU122
 224:Drivers/STM32F0xx_HAL_Driver/Src/stm32f0xx_hal_pcd.c **** 
 465              		.loc 1 224 15 is_stmt 0 view .LVU123
 466 0006 074D     		ldr	r5, .L25
 467 0008 0323     		movs	r3, #3
 468 000a 4355     		strb	r3, [r0, r5]
 227:Drivers/STM32F0xx_HAL_Driver/Src/stm32f0xx_hal_pcd.c **** 
 469              		.loc 1 227 3 is_stmt 1 view .LVU124
 227:Drivers/STM32F0xx_HAL_Driver/Src/stm32f0xx_hal_pcd.c **** 
 470              		.loc 1 227 9 is_stmt 0 view .LVU125
 471 000c FFF7FEFF 		bl	HAL_PCD_Stop
 472              	.LVL35:
 239:Drivers/STM32F0xx_HAL_Driver/Src/stm32f0xx_hal_pcd.c **** #endif /* USE_HAL_PCD_REGISTER_CALLBACKS */
 473              		.loc 1 239 3 is_stmt 1 view .LVU126
 474 0010 2000     		movs	r0, r4
 475 0012 FFF7FEFF 		bl	HAL_PCD_MspDeInit
 476              	.LVL36:
 242:Drivers/STM32F0xx_HAL_Driver/Src/stm32f0xx_hal_pcd.c **** 
 477              		.loc 1 242 3 view .LVU127
ARM GAS  /tmp/ccd7InD5.s 			page 28


 242:Drivers/STM32F0xx_HAL_Driver/Src/stm32f0xx_hal_pcd.c **** 
 478              		.loc 1 242 15 is_stmt 0 view .LVU128
 479 0016 0023     		movs	r3, #0
 480 0018 6355     		strb	r3, [r4, r5]
 244:Drivers/STM32F0xx_HAL_Driver/Src/stm32f0xx_hal_pcd.c **** }
 481              		.loc 1 244 3 is_stmt 1 view .LVU129
 244:Drivers/STM32F0xx_HAL_Driver/Src/stm32f0xx_hal_pcd.c **** }
 482              		.loc 1 244 10 is_stmt 0 view .LVU130
 483 001a 0020     		movs	r0, #0
 484              	.L23:
 245:Drivers/STM32F0xx_HAL_Driver/Src/stm32f0xx_hal_pcd.c **** 
 485              		.loc 1 245 1 view .LVU131
 486              		@ sp needed
 487              	.LVL37:
 245:Drivers/STM32F0xx_HAL_Driver/Src/stm32f0xx_hal_pcd.c **** 
 488              		.loc 1 245 1 view .LVU132
 489 001c 70BD     		pop	{r4, r5, r6, pc}
 490              	.LVL38:
 491              	.L24:
 221:Drivers/STM32F0xx_HAL_Driver/Src/stm32f0xx_hal_pcd.c ****   }
 492              		.loc 1 221 12 view .LVU133
 493 001e 0120     		movs	r0, #1
 494              	.LVL39:
 221:Drivers/STM32F0xx_HAL_Driver/Src/stm32f0xx_hal_pcd.c ****   }
 495              		.loc 1 221 12 view .LVU134
 496 0020 FCE7     		b	.L23
 497              	.L26:
 498 0022 C046     		.align	2
 499              	.L25:
 500 0024 29020000 		.word	553
 501              		.cfi_endproc
 502              	.LFE41:
 504              		.section	.text.HAL_PCD_DataOutStageCallback,"ax",%progbits
 505              		.align	1
 506              		.weak	HAL_PCD_DataOutStageCallback
 507              		.syntax unified
 508              		.code	16
 509              		.thumb_func
 510              		.fpu softvfp
 512              	HAL_PCD_DataOutStageCallback:
 513              	.LVL40:
 514              	.LFB47:
 987:Drivers/STM32F0xx_HAL_Driver/Src/stm32f0xx_hal_pcd.c **** 
 988:Drivers/STM32F0xx_HAL_Driver/Src/stm32f0xx_hal_pcd.c **** 
 989:Drivers/STM32F0xx_HAL_Driver/Src/stm32f0xx_hal_pcd.c **** /**
 990:Drivers/STM32F0xx_HAL_Driver/Src/stm32f0xx_hal_pcd.c ****   * @brief  This function handles PCD interrupt request.
 991:Drivers/STM32F0xx_HAL_Driver/Src/stm32f0xx_hal_pcd.c ****   * @param  hpcd PCD handle
 992:Drivers/STM32F0xx_HAL_Driver/Src/stm32f0xx_hal_pcd.c ****   * @retval HAL status
 993:Drivers/STM32F0xx_HAL_Driver/Src/stm32f0xx_hal_pcd.c ****   */
 994:Drivers/STM32F0xx_HAL_Driver/Src/stm32f0xx_hal_pcd.c **** void HAL_PCD_IRQHandler(PCD_HandleTypeDef *hpcd)
 995:Drivers/STM32F0xx_HAL_Driver/Src/stm32f0xx_hal_pcd.c **** {
 996:Drivers/STM32F0xx_HAL_Driver/Src/stm32f0xx_hal_pcd.c ****   if (__HAL_PCD_GET_FLAG(hpcd, USB_ISTR_CTR))
 997:Drivers/STM32F0xx_HAL_Driver/Src/stm32f0xx_hal_pcd.c ****   {
 998:Drivers/STM32F0xx_HAL_Driver/Src/stm32f0xx_hal_pcd.c ****     /* servicing of the endpoint correct transfer interrupt */
 999:Drivers/STM32F0xx_HAL_Driver/Src/stm32f0xx_hal_pcd.c ****     /* clear of the CTR flag into the sub */
1000:Drivers/STM32F0xx_HAL_Driver/Src/stm32f0xx_hal_pcd.c ****     (void)PCD_EP_ISR_Handler(hpcd);
1001:Drivers/STM32F0xx_HAL_Driver/Src/stm32f0xx_hal_pcd.c ****   }
ARM GAS  /tmp/ccd7InD5.s 			page 29


1002:Drivers/STM32F0xx_HAL_Driver/Src/stm32f0xx_hal_pcd.c **** 
1003:Drivers/STM32F0xx_HAL_Driver/Src/stm32f0xx_hal_pcd.c ****   if (__HAL_PCD_GET_FLAG(hpcd, USB_ISTR_RESET))
1004:Drivers/STM32F0xx_HAL_Driver/Src/stm32f0xx_hal_pcd.c ****   {
1005:Drivers/STM32F0xx_HAL_Driver/Src/stm32f0xx_hal_pcd.c ****     __HAL_PCD_CLEAR_FLAG(hpcd, USB_ISTR_RESET);
1006:Drivers/STM32F0xx_HAL_Driver/Src/stm32f0xx_hal_pcd.c **** 
1007:Drivers/STM32F0xx_HAL_Driver/Src/stm32f0xx_hal_pcd.c **** #if (USE_HAL_PCD_REGISTER_CALLBACKS == 1U)
1008:Drivers/STM32F0xx_HAL_Driver/Src/stm32f0xx_hal_pcd.c ****     hpcd->ResetCallback(hpcd);
1009:Drivers/STM32F0xx_HAL_Driver/Src/stm32f0xx_hal_pcd.c **** #else
1010:Drivers/STM32F0xx_HAL_Driver/Src/stm32f0xx_hal_pcd.c ****     HAL_PCD_ResetCallback(hpcd);
1011:Drivers/STM32F0xx_HAL_Driver/Src/stm32f0xx_hal_pcd.c **** #endif /* USE_HAL_PCD_REGISTER_CALLBACKS */
1012:Drivers/STM32F0xx_HAL_Driver/Src/stm32f0xx_hal_pcd.c **** 
1013:Drivers/STM32F0xx_HAL_Driver/Src/stm32f0xx_hal_pcd.c ****     (void)HAL_PCD_SetAddress(hpcd, 0U);
1014:Drivers/STM32F0xx_HAL_Driver/Src/stm32f0xx_hal_pcd.c ****   }
1015:Drivers/STM32F0xx_HAL_Driver/Src/stm32f0xx_hal_pcd.c **** 
1016:Drivers/STM32F0xx_HAL_Driver/Src/stm32f0xx_hal_pcd.c ****   if (__HAL_PCD_GET_FLAG(hpcd, USB_ISTR_PMAOVR))
1017:Drivers/STM32F0xx_HAL_Driver/Src/stm32f0xx_hal_pcd.c ****   {
1018:Drivers/STM32F0xx_HAL_Driver/Src/stm32f0xx_hal_pcd.c ****     __HAL_PCD_CLEAR_FLAG(hpcd, USB_ISTR_PMAOVR);
1019:Drivers/STM32F0xx_HAL_Driver/Src/stm32f0xx_hal_pcd.c ****   }
1020:Drivers/STM32F0xx_HAL_Driver/Src/stm32f0xx_hal_pcd.c **** 
1021:Drivers/STM32F0xx_HAL_Driver/Src/stm32f0xx_hal_pcd.c ****   if (__HAL_PCD_GET_FLAG(hpcd, USB_ISTR_ERR))
1022:Drivers/STM32F0xx_HAL_Driver/Src/stm32f0xx_hal_pcd.c ****   {
1023:Drivers/STM32F0xx_HAL_Driver/Src/stm32f0xx_hal_pcd.c ****     __HAL_PCD_CLEAR_FLAG(hpcd, USB_ISTR_ERR);
1024:Drivers/STM32F0xx_HAL_Driver/Src/stm32f0xx_hal_pcd.c ****   }
1025:Drivers/STM32F0xx_HAL_Driver/Src/stm32f0xx_hal_pcd.c **** 
1026:Drivers/STM32F0xx_HAL_Driver/Src/stm32f0xx_hal_pcd.c ****   if (__HAL_PCD_GET_FLAG(hpcd, USB_ISTR_WKUP))
1027:Drivers/STM32F0xx_HAL_Driver/Src/stm32f0xx_hal_pcd.c ****   {
1028:Drivers/STM32F0xx_HAL_Driver/Src/stm32f0xx_hal_pcd.c ****     hpcd->Instance->CNTR &= (uint16_t) ~(USB_CNTR_LPMODE);
1029:Drivers/STM32F0xx_HAL_Driver/Src/stm32f0xx_hal_pcd.c ****     hpcd->Instance->CNTR &= (uint16_t) ~(USB_CNTR_FSUSP);
1030:Drivers/STM32F0xx_HAL_Driver/Src/stm32f0xx_hal_pcd.c **** 
1031:Drivers/STM32F0xx_HAL_Driver/Src/stm32f0xx_hal_pcd.c ****     if (hpcd->LPM_State == LPM_L1)
1032:Drivers/STM32F0xx_HAL_Driver/Src/stm32f0xx_hal_pcd.c ****     {
1033:Drivers/STM32F0xx_HAL_Driver/Src/stm32f0xx_hal_pcd.c ****       hpcd->LPM_State = LPM_L0;
1034:Drivers/STM32F0xx_HAL_Driver/Src/stm32f0xx_hal_pcd.c **** #if (USE_HAL_PCD_REGISTER_CALLBACKS == 1U)
1035:Drivers/STM32F0xx_HAL_Driver/Src/stm32f0xx_hal_pcd.c ****       hpcd->LPMCallback(hpcd, PCD_LPM_L0_ACTIVE);
1036:Drivers/STM32F0xx_HAL_Driver/Src/stm32f0xx_hal_pcd.c **** #else
1037:Drivers/STM32F0xx_HAL_Driver/Src/stm32f0xx_hal_pcd.c ****       HAL_PCDEx_LPM_Callback(hpcd, PCD_LPM_L0_ACTIVE);
1038:Drivers/STM32F0xx_HAL_Driver/Src/stm32f0xx_hal_pcd.c **** #endif /* USE_HAL_PCD_REGISTER_CALLBACKS */
1039:Drivers/STM32F0xx_HAL_Driver/Src/stm32f0xx_hal_pcd.c ****     }
1040:Drivers/STM32F0xx_HAL_Driver/Src/stm32f0xx_hal_pcd.c **** 
1041:Drivers/STM32F0xx_HAL_Driver/Src/stm32f0xx_hal_pcd.c **** #if (USE_HAL_PCD_REGISTER_CALLBACKS == 1U)
1042:Drivers/STM32F0xx_HAL_Driver/Src/stm32f0xx_hal_pcd.c ****     hpcd->ResumeCallback(hpcd);
1043:Drivers/STM32F0xx_HAL_Driver/Src/stm32f0xx_hal_pcd.c **** #else
1044:Drivers/STM32F0xx_HAL_Driver/Src/stm32f0xx_hal_pcd.c ****     HAL_PCD_ResumeCallback(hpcd);
1045:Drivers/STM32F0xx_HAL_Driver/Src/stm32f0xx_hal_pcd.c **** #endif /* USE_HAL_PCD_REGISTER_CALLBACKS */
1046:Drivers/STM32F0xx_HAL_Driver/Src/stm32f0xx_hal_pcd.c **** 
1047:Drivers/STM32F0xx_HAL_Driver/Src/stm32f0xx_hal_pcd.c ****     __HAL_PCD_CLEAR_FLAG(hpcd, USB_ISTR_WKUP);
1048:Drivers/STM32F0xx_HAL_Driver/Src/stm32f0xx_hal_pcd.c ****   }
1049:Drivers/STM32F0xx_HAL_Driver/Src/stm32f0xx_hal_pcd.c **** 
1050:Drivers/STM32F0xx_HAL_Driver/Src/stm32f0xx_hal_pcd.c ****   if (__HAL_PCD_GET_FLAG(hpcd, USB_ISTR_SUSP))
1051:Drivers/STM32F0xx_HAL_Driver/Src/stm32f0xx_hal_pcd.c ****   {
1052:Drivers/STM32F0xx_HAL_Driver/Src/stm32f0xx_hal_pcd.c ****     /* Force low-power mode in the macrocell */
1053:Drivers/STM32F0xx_HAL_Driver/Src/stm32f0xx_hal_pcd.c ****     hpcd->Instance->CNTR |= USB_CNTR_FSUSP;
1054:Drivers/STM32F0xx_HAL_Driver/Src/stm32f0xx_hal_pcd.c **** 
1055:Drivers/STM32F0xx_HAL_Driver/Src/stm32f0xx_hal_pcd.c ****     /* clear of the ISTR bit must be done after setting of CNTR_FSUSP */
1056:Drivers/STM32F0xx_HAL_Driver/Src/stm32f0xx_hal_pcd.c ****     __HAL_PCD_CLEAR_FLAG(hpcd, USB_ISTR_SUSP);
1057:Drivers/STM32F0xx_HAL_Driver/Src/stm32f0xx_hal_pcd.c **** 
1058:Drivers/STM32F0xx_HAL_Driver/Src/stm32f0xx_hal_pcd.c ****     hpcd->Instance->CNTR |= USB_CNTR_LPMODE;
ARM GAS  /tmp/ccd7InD5.s 			page 30


1059:Drivers/STM32F0xx_HAL_Driver/Src/stm32f0xx_hal_pcd.c **** 
1060:Drivers/STM32F0xx_HAL_Driver/Src/stm32f0xx_hal_pcd.c ****     if (__HAL_PCD_GET_FLAG(hpcd, USB_ISTR_WKUP) == 0U)
1061:Drivers/STM32F0xx_HAL_Driver/Src/stm32f0xx_hal_pcd.c ****     {
1062:Drivers/STM32F0xx_HAL_Driver/Src/stm32f0xx_hal_pcd.c **** #if (USE_HAL_PCD_REGISTER_CALLBACKS == 1U)
1063:Drivers/STM32F0xx_HAL_Driver/Src/stm32f0xx_hal_pcd.c ****       hpcd->SuspendCallback(hpcd);
1064:Drivers/STM32F0xx_HAL_Driver/Src/stm32f0xx_hal_pcd.c **** #else
1065:Drivers/STM32F0xx_HAL_Driver/Src/stm32f0xx_hal_pcd.c ****       HAL_PCD_SuspendCallback(hpcd);
1066:Drivers/STM32F0xx_HAL_Driver/Src/stm32f0xx_hal_pcd.c **** #endif /* USE_HAL_PCD_REGISTER_CALLBACKS */
1067:Drivers/STM32F0xx_HAL_Driver/Src/stm32f0xx_hal_pcd.c ****     }
1068:Drivers/STM32F0xx_HAL_Driver/Src/stm32f0xx_hal_pcd.c ****   }
1069:Drivers/STM32F0xx_HAL_Driver/Src/stm32f0xx_hal_pcd.c **** 
1070:Drivers/STM32F0xx_HAL_Driver/Src/stm32f0xx_hal_pcd.c ****   /* Handle LPM Interrupt */
1071:Drivers/STM32F0xx_HAL_Driver/Src/stm32f0xx_hal_pcd.c ****   if (__HAL_PCD_GET_FLAG(hpcd, USB_ISTR_L1REQ))
1072:Drivers/STM32F0xx_HAL_Driver/Src/stm32f0xx_hal_pcd.c ****   {
1073:Drivers/STM32F0xx_HAL_Driver/Src/stm32f0xx_hal_pcd.c ****     __HAL_PCD_CLEAR_FLAG(hpcd, USB_ISTR_L1REQ);
1074:Drivers/STM32F0xx_HAL_Driver/Src/stm32f0xx_hal_pcd.c ****     if (hpcd->LPM_State == LPM_L0)
1075:Drivers/STM32F0xx_HAL_Driver/Src/stm32f0xx_hal_pcd.c ****     {
1076:Drivers/STM32F0xx_HAL_Driver/Src/stm32f0xx_hal_pcd.c ****       /* Force suspend and low-power mode before going to L1 state*/
1077:Drivers/STM32F0xx_HAL_Driver/Src/stm32f0xx_hal_pcd.c ****       hpcd->Instance->CNTR |= USB_CNTR_LPMODE;
1078:Drivers/STM32F0xx_HAL_Driver/Src/stm32f0xx_hal_pcd.c ****       hpcd->Instance->CNTR |= USB_CNTR_FSUSP;
1079:Drivers/STM32F0xx_HAL_Driver/Src/stm32f0xx_hal_pcd.c **** 
1080:Drivers/STM32F0xx_HAL_Driver/Src/stm32f0xx_hal_pcd.c ****       hpcd->LPM_State = LPM_L1;
1081:Drivers/STM32F0xx_HAL_Driver/Src/stm32f0xx_hal_pcd.c ****       hpcd->BESL = ((uint32_t)hpcd->Instance->LPMCSR & USB_LPMCSR_BESL) >> 2;
1082:Drivers/STM32F0xx_HAL_Driver/Src/stm32f0xx_hal_pcd.c **** #if (USE_HAL_PCD_REGISTER_CALLBACKS == 1U)
1083:Drivers/STM32F0xx_HAL_Driver/Src/stm32f0xx_hal_pcd.c ****       hpcd->LPMCallback(hpcd, PCD_LPM_L1_ACTIVE);
1084:Drivers/STM32F0xx_HAL_Driver/Src/stm32f0xx_hal_pcd.c **** #else
1085:Drivers/STM32F0xx_HAL_Driver/Src/stm32f0xx_hal_pcd.c ****       HAL_PCDEx_LPM_Callback(hpcd, PCD_LPM_L1_ACTIVE);
1086:Drivers/STM32F0xx_HAL_Driver/Src/stm32f0xx_hal_pcd.c **** #endif /* USE_HAL_PCD_REGISTER_CALLBACKS */
1087:Drivers/STM32F0xx_HAL_Driver/Src/stm32f0xx_hal_pcd.c ****     }
1088:Drivers/STM32F0xx_HAL_Driver/Src/stm32f0xx_hal_pcd.c ****     else
1089:Drivers/STM32F0xx_HAL_Driver/Src/stm32f0xx_hal_pcd.c ****     {
1090:Drivers/STM32F0xx_HAL_Driver/Src/stm32f0xx_hal_pcd.c **** #if (USE_HAL_PCD_REGISTER_CALLBACKS == 1U)
1091:Drivers/STM32F0xx_HAL_Driver/Src/stm32f0xx_hal_pcd.c ****       hpcd->SuspendCallback(hpcd);
1092:Drivers/STM32F0xx_HAL_Driver/Src/stm32f0xx_hal_pcd.c **** #else
1093:Drivers/STM32F0xx_HAL_Driver/Src/stm32f0xx_hal_pcd.c ****       HAL_PCD_SuspendCallback(hpcd);
1094:Drivers/STM32F0xx_HAL_Driver/Src/stm32f0xx_hal_pcd.c **** #endif /* USE_HAL_PCD_REGISTER_CALLBACKS */
1095:Drivers/STM32F0xx_HAL_Driver/Src/stm32f0xx_hal_pcd.c ****     }
1096:Drivers/STM32F0xx_HAL_Driver/Src/stm32f0xx_hal_pcd.c ****   }
1097:Drivers/STM32F0xx_HAL_Driver/Src/stm32f0xx_hal_pcd.c **** 
1098:Drivers/STM32F0xx_HAL_Driver/Src/stm32f0xx_hal_pcd.c ****   if (__HAL_PCD_GET_FLAG(hpcd, USB_ISTR_SOF))
1099:Drivers/STM32F0xx_HAL_Driver/Src/stm32f0xx_hal_pcd.c ****   {
1100:Drivers/STM32F0xx_HAL_Driver/Src/stm32f0xx_hal_pcd.c ****     __HAL_PCD_CLEAR_FLAG(hpcd, USB_ISTR_SOF);
1101:Drivers/STM32F0xx_HAL_Driver/Src/stm32f0xx_hal_pcd.c **** 
1102:Drivers/STM32F0xx_HAL_Driver/Src/stm32f0xx_hal_pcd.c **** #if (USE_HAL_PCD_REGISTER_CALLBACKS == 1U)
1103:Drivers/STM32F0xx_HAL_Driver/Src/stm32f0xx_hal_pcd.c ****     hpcd->SOFCallback(hpcd);
1104:Drivers/STM32F0xx_HAL_Driver/Src/stm32f0xx_hal_pcd.c **** #else
1105:Drivers/STM32F0xx_HAL_Driver/Src/stm32f0xx_hal_pcd.c ****     HAL_PCD_SOFCallback(hpcd);
1106:Drivers/STM32F0xx_HAL_Driver/Src/stm32f0xx_hal_pcd.c **** #endif /* USE_HAL_PCD_REGISTER_CALLBACKS */
1107:Drivers/STM32F0xx_HAL_Driver/Src/stm32f0xx_hal_pcd.c ****   }
1108:Drivers/STM32F0xx_HAL_Driver/Src/stm32f0xx_hal_pcd.c **** 
1109:Drivers/STM32F0xx_HAL_Driver/Src/stm32f0xx_hal_pcd.c ****   if (__HAL_PCD_GET_FLAG(hpcd, USB_ISTR_ESOF))
1110:Drivers/STM32F0xx_HAL_Driver/Src/stm32f0xx_hal_pcd.c ****   {
1111:Drivers/STM32F0xx_HAL_Driver/Src/stm32f0xx_hal_pcd.c ****     /* clear ESOF flag in ISTR */
1112:Drivers/STM32F0xx_HAL_Driver/Src/stm32f0xx_hal_pcd.c ****     __HAL_PCD_CLEAR_FLAG(hpcd, USB_ISTR_ESOF);
1113:Drivers/STM32F0xx_HAL_Driver/Src/stm32f0xx_hal_pcd.c ****   }
1114:Drivers/STM32F0xx_HAL_Driver/Src/stm32f0xx_hal_pcd.c **** }
1115:Drivers/STM32F0xx_HAL_Driver/Src/stm32f0xx_hal_pcd.c **** 
ARM GAS  /tmp/ccd7InD5.s 			page 31


1116:Drivers/STM32F0xx_HAL_Driver/Src/stm32f0xx_hal_pcd.c **** 
1117:Drivers/STM32F0xx_HAL_Driver/Src/stm32f0xx_hal_pcd.c **** /**
1118:Drivers/STM32F0xx_HAL_Driver/Src/stm32f0xx_hal_pcd.c ****   * @brief  Data OUT stage callback.
1119:Drivers/STM32F0xx_HAL_Driver/Src/stm32f0xx_hal_pcd.c ****   * @param  hpcd PCD handle
1120:Drivers/STM32F0xx_HAL_Driver/Src/stm32f0xx_hal_pcd.c ****   * @param  epnum endpoint number
1121:Drivers/STM32F0xx_HAL_Driver/Src/stm32f0xx_hal_pcd.c ****   * @retval None
1122:Drivers/STM32F0xx_HAL_Driver/Src/stm32f0xx_hal_pcd.c ****   */
1123:Drivers/STM32F0xx_HAL_Driver/Src/stm32f0xx_hal_pcd.c **** __weak void HAL_PCD_DataOutStageCallback(PCD_HandleTypeDef *hpcd, uint8_t epnum)
1124:Drivers/STM32F0xx_HAL_Driver/Src/stm32f0xx_hal_pcd.c **** {
 515              		.loc 1 1124 1 is_stmt 1 view -0
 516              		.cfi_startproc
 517              		@ args = 0, pretend = 0, frame = 0
 518              		@ frame_needed = 0, uses_anonymous_args = 0
 519              		@ link register save eliminated.
1125:Drivers/STM32F0xx_HAL_Driver/Src/stm32f0xx_hal_pcd.c ****   /* Prevent unused argument(s) compilation warning */
1126:Drivers/STM32F0xx_HAL_Driver/Src/stm32f0xx_hal_pcd.c ****   UNUSED(hpcd);
 520              		.loc 1 1126 3 view .LVU136
1127:Drivers/STM32F0xx_HAL_Driver/Src/stm32f0xx_hal_pcd.c ****   UNUSED(epnum);
 521              		.loc 1 1127 3 view .LVU137
1128:Drivers/STM32F0xx_HAL_Driver/Src/stm32f0xx_hal_pcd.c **** 
1129:Drivers/STM32F0xx_HAL_Driver/Src/stm32f0xx_hal_pcd.c ****   /* NOTE : This function should not be modified, when the callback is needed,
1130:Drivers/STM32F0xx_HAL_Driver/Src/stm32f0xx_hal_pcd.c ****             the HAL_PCD_DataOutStageCallback could be implemented in the user file
1131:Drivers/STM32F0xx_HAL_Driver/Src/stm32f0xx_hal_pcd.c ****    */
1132:Drivers/STM32F0xx_HAL_Driver/Src/stm32f0xx_hal_pcd.c **** }
 522              		.loc 1 1132 1 is_stmt 0 view .LVU138
 523              		@ sp needed
 524 0000 7047     		bx	lr
 525              		.cfi_endproc
 526              	.LFE47:
 528              		.section	.text.HAL_PCD_DataInStageCallback,"ax",%progbits
 529              		.align	1
 530              		.weak	HAL_PCD_DataInStageCallback
 531              		.syntax unified
 532              		.code	16
 533              		.thumb_func
 534              		.fpu softvfp
 536              	HAL_PCD_DataInStageCallback:
 537              	.LVL41:
 538              	.LFB48:
1133:Drivers/STM32F0xx_HAL_Driver/Src/stm32f0xx_hal_pcd.c **** 
1134:Drivers/STM32F0xx_HAL_Driver/Src/stm32f0xx_hal_pcd.c **** /**
1135:Drivers/STM32F0xx_HAL_Driver/Src/stm32f0xx_hal_pcd.c ****   * @brief  Data IN stage callback
1136:Drivers/STM32F0xx_HAL_Driver/Src/stm32f0xx_hal_pcd.c ****   * @param  hpcd PCD handle
1137:Drivers/STM32F0xx_HAL_Driver/Src/stm32f0xx_hal_pcd.c ****   * @param  epnum endpoint number
1138:Drivers/STM32F0xx_HAL_Driver/Src/stm32f0xx_hal_pcd.c ****   * @retval None
1139:Drivers/STM32F0xx_HAL_Driver/Src/stm32f0xx_hal_pcd.c ****   */
1140:Drivers/STM32F0xx_HAL_Driver/Src/stm32f0xx_hal_pcd.c **** __weak void HAL_PCD_DataInStageCallback(PCD_HandleTypeDef *hpcd, uint8_t epnum)
1141:Drivers/STM32F0xx_HAL_Driver/Src/stm32f0xx_hal_pcd.c **** {
 539              		.loc 1 1141 1 is_stmt 1 view -0
 540              		.cfi_startproc
 541              		@ args = 0, pretend = 0, frame = 0
 542              		@ frame_needed = 0, uses_anonymous_args = 0
 543              		@ link register save eliminated.
1142:Drivers/STM32F0xx_HAL_Driver/Src/stm32f0xx_hal_pcd.c ****   /* Prevent unused argument(s) compilation warning */
1143:Drivers/STM32F0xx_HAL_Driver/Src/stm32f0xx_hal_pcd.c ****   UNUSED(hpcd);
 544              		.loc 1 1143 3 view .LVU140
1144:Drivers/STM32F0xx_HAL_Driver/Src/stm32f0xx_hal_pcd.c ****   UNUSED(epnum);
ARM GAS  /tmp/ccd7InD5.s 			page 32


 545              		.loc 1 1144 3 view .LVU141
1145:Drivers/STM32F0xx_HAL_Driver/Src/stm32f0xx_hal_pcd.c **** 
1146:Drivers/STM32F0xx_HAL_Driver/Src/stm32f0xx_hal_pcd.c ****   /* NOTE : This function should not be modified, when the callback is needed,
1147:Drivers/STM32F0xx_HAL_Driver/Src/stm32f0xx_hal_pcd.c ****             the HAL_PCD_DataInStageCallback could be implemented in the user file
1148:Drivers/STM32F0xx_HAL_Driver/Src/stm32f0xx_hal_pcd.c ****    */
1149:Drivers/STM32F0xx_HAL_Driver/Src/stm32f0xx_hal_pcd.c **** }
 546              		.loc 1 1149 1 is_stmt 0 view .LVU142
 547              		@ sp needed
 548 0000 7047     		bx	lr
 549              		.cfi_endproc
 550              	.LFE48:
 552              		.section	.text.HAL_PCD_SetupStageCallback,"ax",%progbits
 553              		.align	1
 554              		.weak	HAL_PCD_SetupStageCallback
 555              		.syntax unified
 556              		.code	16
 557              		.thumb_func
 558              		.fpu softvfp
 560              	HAL_PCD_SetupStageCallback:
 561              	.LVL42:
 562              	.LFB49:
1150:Drivers/STM32F0xx_HAL_Driver/Src/stm32f0xx_hal_pcd.c **** /**
1151:Drivers/STM32F0xx_HAL_Driver/Src/stm32f0xx_hal_pcd.c ****   * @brief  Setup stage callback
1152:Drivers/STM32F0xx_HAL_Driver/Src/stm32f0xx_hal_pcd.c ****   * @param  hpcd PCD handle
1153:Drivers/STM32F0xx_HAL_Driver/Src/stm32f0xx_hal_pcd.c ****   * @retval None
1154:Drivers/STM32F0xx_HAL_Driver/Src/stm32f0xx_hal_pcd.c ****   */
1155:Drivers/STM32F0xx_HAL_Driver/Src/stm32f0xx_hal_pcd.c **** __weak void HAL_PCD_SetupStageCallback(PCD_HandleTypeDef *hpcd)
1156:Drivers/STM32F0xx_HAL_Driver/Src/stm32f0xx_hal_pcd.c **** {
 563              		.loc 1 1156 1 is_stmt 1 view -0
 564              		.cfi_startproc
 565              		@ args = 0, pretend = 0, frame = 0
 566              		@ frame_needed = 0, uses_anonymous_args = 0
 567              		@ link register save eliminated.
1157:Drivers/STM32F0xx_HAL_Driver/Src/stm32f0xx_hal_pcd.c ****   /* Prevent unused argument(s) compilation warning */
1158:Drivers/STM32F0xx_HAL_Driver/Src/stm32f0xx_hal_pcd.c ****   UNUSED(hpcd);
 568              		.loc 1 1158 3 view .LVU144
1159:Drivers/STM32F0xx_HAL_Driver/Src/stm32f0xx_hal_pcd.c **** 
1160:Drivers/STM32F0xx_HAL_Driver/Src/stm32f0xx_hal_pcd.c ****   /* NOTE : This function should not be modified, when the callback is needed,
1161:Drivers/STM32F0xx_HAL_Driver/Src/stm32f0xx_hal_pcd.c ****             the HAL_PCD_SetupStageCallback could be implemented in the user file
1162:Drivers/STM32F0xx_HAL_Driver/Src/stm32f0xx_hal_pcd.c ****    */
1163:Drivers/STM32F0xx_HAL_Driver/Src/stm32f0xx_hal_pcd.c **** }
 569              		.loc 1 1163 1 is_stmt 0 view .LVU145
 570              		@ sp needed
 571 0000 7047     		bx	lr
 572              		.cfi_endproc
 573              	.LFE49:
 575              		.section	.text.HAL_PCD_SOFCallback,"ax",%progbits
 576              		.align	1
 577              		.weak	HAL_PCD_SOFCallback
 578              		.syntax unified
 579              		.code	16
 580              		.thumb_func
 581              		.fpu softvfp
 583              	HAL_PCD_SOFCallback:
 584              	.LVL43:
 585              	.LFB50:
1164:Drivers/STM32F0xx_HAL_Driver/Src/stm32f0xx_hal_pcd.c **** 
ARM GAS  /tmp/ccd7InD5.s 			page 33


1165:Drivers/STM32F0xx_HAL_Driver/Src/stm32f0xx_hal_pcd.c **** /**
1166:Drivers/STM32F0xx_HAL_Driver/Src/stm32f0xx_hal_pcd.c ****   * @brief  USB Start Of Frame callback.
1167:Drivers/STM32F0xx_HAL_Driver/Src/stm32f0xx_hal_pcd.c ****   * @param  hpcd PCD handle
1168:Drivers/STM32F0xx_HAL_Driver/Src/stm32f0xx_hal_pcd.c ****   * @retval None
1169:Drivers/STM32F0xx_HAL_Driver/Src/stm32f0xx_hal_pcd.c ****   */
1170:Drivers/STM32F0xx_HAL_Driver/Src/stm32f0xx_hal_pcd.c **** __weak void HAL_PCD_SOFCallback(PCD_HandleTypeDef *hpcd)
1171:Drivers/STM32F0xx_HAL_Driver/Src/stm32f0xx_hal_pcd.c **** {
 586              		.loc 1 1171 1 is_stmt 1 view -0
 587              		.cfi_startproc
 588              		@ args = 0, pretend = 0, frame = 0
 589              		@ frame_needed = 0, uses_anonymous_args = 0
 590              		@ link register save eliminated.
1172:Drivers/STM32F0xx_HAL_Driver/Src/stm32f0xx_hal_pcd.c ****   /* Prevent unused argument(s) compilation warning */
1173:Drivers/STM32F0xx_HAL_Driver/Src/stm32f0xx_hal_pcd.c ****   UNUSED(hpcd);
 591              		.loc 1 1173 3 view .LVU147
1174:Drivers/STM32F0xx_HAL_Driver/Src/stm32f0xx_hal_pcd.c **** 
1175:Drivers/STM32F0xx_HAL_Driver/Src/stm32f0xx_hal_pcd.c ****   /* NOTE : This function should not be modified, when the callback is needed,
1176:Drivers/STM32F0xx_HAL_Driver/Src/stm32f0xx_hal_pcd.c ****             the HAL_PCD_SOFCallback could be implemented in the user file
1177:Drivers/STM32F0xx_HAL_Driver/Src/stm32f0xx_hal_pcd.c ****    */
1178:Drivers/STM32F0xx_HAL_Driver/Src/stm32f0xx_hal_pcd.c **** }
 592              		.loc 1 1178 1 is_stmt 0 view .LVU148
 593              		@ sp needed
 594 0000 7047     		bx	lr
 595              		.cfi_endproc
 596              	.LFE50:
 598              		.section	.text.HAL_PCD_ResetCallback,"ax",%progbits
 599              		.align	1
 600              		.weak	HAL_PCD_ResetCallback
 601              		.syntax unified
 602              		.code	16
 603              		.thumb_func
 604              		.fpu softvfp
 606              	HAL_PCD_ResetCallback:
 607              	.LVL44:
 608              	.LFB51:
1179:Drivers/STM32F0xx_HAL_Driver/Src/stm32f0xx_hal_pcd.c **** 
1180:Drivers/STM32F0xx_HAL_Driver/Src/stm32f0xx_hal_pcd.c **** /**
1181:Drivers/STM32F0xx_HAL_Driver/Src/stm32f0xx_hal_pcd.c ****   * @brief  USB Reset callback.
1182:Drivers/STM32F0xx_HAL_Driver/Src/stm32f0xx_hal_pcd.c ****   * @param  hpcd PCD handle
1183:Drivers/STM32F0xx_HAL_Driver/Src/stm32f0xx_hal_pcd.c ****   * @retval None
1184:Drivers/STM32F0xx_HAL_Driver/Src/stm32f0xx_hal_pcd.c ****   */
1185:Drivers/STM32F0xx_HAL_Driver/Src/stm32f0xx_hal_pcd.c **** __weak void HAL_PCD_ResetCallback(PCD_HandleTypeDef *hpcd)
1186:Drivers/STM32F0xx_HAL_Driver/Src/stm32f0xx_hal_pcd.c **** {
 609              		.loc 1 1186 1 is_stmt 1 view -0
 610              		.cfi_startproc
 611              		@ args = 0, pretend = 0, frame = 0
 612              		@ frame_needed = 0, uses_anonymous_args = 0
 613              		@ link register save eliminated.
1187:Drivers/STM32F0xx_HAL_Driver/Src/stm32f0xx_hal_pcd.c ****   /* Prevent unused argument(s) compilation warning */
1188:Drivers/STM32F0xx_HAL_Driver/Src/stm32f0xx_hal_pcd.c ****   UNUSED(hpcd);
 614              		.loc 1 1188 3 view .LVU150
1189:Drivers/STM32F0xx_HAL_Driver/Src/stm32f0xx_hal_pcd.c **** 
1190:Drivers/STM32F0xx_HAL_Driver/Src/stm32f0xx_hal_pcd.c ****   /* NOTE : This function should not be modified, when the callback is needed,
1191:Drivers/STM32F0xx_HAL_Driver/Src/stm32f0xx_hal_pcd.c ****             the HAL_PCD_ResetCallback could be implemented in the user file
1192:Drivers/STM32F0xx_HAL_Driver/Src/stm32f0xx_hal_pcd.c ****    */
1193:Drivers/STM32F0xx_HAL_Driver/Src/stm32f0xx_hal_pcd.c **** }
 615              		.loc 1 1193 1 is_stmt 0 view .LVU151
ARM GAS  /tmp/ccd7InD5.s 			page 34


 616              		@ sp needed
 617 0000 7047     		bx	lr
 618              		.cfi_endproc
 619              	.LFE51:
 621              		.section	.text.HAL_PCD_SuspendCallback,"ax",%progbits
 622              		.align	1
 623              		.weak	HAL_PCD_SuspendCallback
 624              		.syntax unified
 625              		.code	16
 626              		.thumb_func
 627              		.fpu softvfp
 629              	HAL_PCD_SuspendCallback:
 630              	.LVL45:
 631              	.LFB52:
1194:Drivers/STM32F0xx_HAL_Driver/Src/stm32f0xx_hal_pcd.c **** 
1195:Drivers/STM32F0xx_HAL_Driver/Src/stm32f0xx_hal_pcd.c **** /**
1196:Drivers/STM32F0xx_HAL_Driver/Src/stm32f0xx_hal_pcd.c ****   * @brief  Suspend event callback.
1197:Drivers/STM32F0xx_HAL_Driver/Src/stm32f0xx_hal_pcd.c ****   * @param  hpcd PCD handle
1198:Drivers/STM32F0xx_HAL_Driver/Src/stm32f0xx_hal_pcd.c ****   * @retval None
1199:Drivers/STM32F0xx_HAL_Driver/Src/stm32f0xx_hal_pcd.c ****   */
1200:Drivers/STM32F0xx_HAL_Driver/Src/stm32f0xx_hal_pcd.c **** __weak void HAL_PCD_SuspendCallback(PCD_HandleTypeDef *hpcd)
1201:Drivers/STM32F0xx_HAL_Driver/Src/stm32f0xx_hal_pcd.c **** {
 632              		.loc 1 1201 1 is_stmt 1 view -0
 633              		.cfi_startproc
 634              		@ args = 0, pretend = 0, frame = 0
 635              		@ frame_needed = 0, uses_anonymous_args = 0
 636              		@ link register save eliminated.
1202:Drivers/STM32F0xx_HAL_Driver/Src/stm32f0xx_hal_pcd.c ****   /* Prevent unused argument(s) compilation warning */
1203:Drivers/STM32F0xx_HAL_Driver/Src/stm32f0xx_hal_pcd.c ****   UNUSED(hpcd);
 637              		.loc 1 1203 3 view .LVU153
1204:Drivers/STM32F0xx_HAL_Driver/Src/stm32f0xx_hal_pcd.c **** 
1205:Drivers/STM32F0xx_HAL_Driver/Src/stm32f0xx_hal_pcd.c ****   /* NOTE : This function should not be modified, when the callback is needed,
1206:Drivers/STM32F0xx_HAL_Driver/Src/stm32f0xx_hal_pcd.c ****             the HAL_PCD_SuspendCallback could be implemented in the user file
1207:Drivers/STM32F0xx_HAL_Driver/Src/stm32f0xx_hal_pcd.c ****    */
1208:Drivers/STM32F0xx_HAL_Driver/Src/stm32f0xx_hal_pcd.c **** }
 638              		.loc 1 1208 1 is_stmt 0 view .LVU154
 639              		@ sp needed
 640 0000 7047     		bx	lr
 641              		.cfi_endproc
 642              	.LFE52:
 644              		.section	.text.HAL_PCD_ResumeCallback,"ax",%progbits
 645              		.align	1
 646              		.weak	HAL_PCD_ResumeCallback
 647              		.syntax unified
 648              		.code	16
 649              		.thumb_func
 650              		.fpu softvfp
 652              	HAL_PCD_ResumeCallback:
 653              	.LVL46:
 654              	.LFB53:
1209:Drivers/STM32F0xx_HAL_Driver/Src/stm32f0xx_hal_pcd.c **** 
1210:Drivers/STM32F0xx_HAL_Driver/Src/stm32f0xx_hal_pcd.c **** /**
1211:Drivers/STM32F0xx_HAL_Driver/Src/stm32f0xx_hal_pcd.c ****   * @brief  Resume event callback.
1212:Drivers/STM32F0xx_HAL_Driver/Src/stm32f0xx_hal_pcd.c ****   * @param  hpcd PCD handle
1213:Drivers/STM32F0xx_HAL_Driver/Src/stm32f0xx_hal_pcd.c ****   * @retval None
1214:Drivers/STM32F0xx_HAL_Driver/Src/stm32f0xx_hal_pcd.c ****   */
1215:Drivers/STM32F0xx_HAL_Driver/Src/stm32f0xx_hal_pcd.c **** __weak void HAL_PCD_ResumeCallback(PCD_HandleTypeDef *hpcd)
ARM GAS  /tmp/ccd7InD5.s 			page 35


1216:Drivers/STM32F0xx_HAL_Driver/Src/stm32f0xx_hal_pcd.c **** {
 655              		.loc 1 1216 1 is_stmt 1 view -0
 656              		.cfi_startproc
 657              		@ args = 0, pretend = 0, frame = 0
 658              		@ frame_needed = 0, uses_anonymous_args = 0
 659              		@ link register save eliminated.
1217:Drivers/STM32F0xx_HAL_Driver/Src/stm32f0xx_hal_pcd.c ****   /* Prevent unused argument(s) compilation warning */
1218:Drivers/STM32F0xx_HAL_Driver/Src/stm32f0xx_hal_pcd.c ****   UNUSED(hpcd);
 660              		.loc 1 1218 3 view .LVU156
1219:Drivers/STM32F0xx_HAL_Driver/Src/stm32f0xx_hal_pcd.c **** 
1220:Drivers/STM32F0xx_HAL_Driver/Src/stm32f0xx_hal_pcd.c ****   /* NOTE : This function should not be modified, when the callback is needed,
1221:Drivers/STM32F0xx_HAL_Driver/Src/stm32f0xx_hal_pcd.c ****             the HAL_PCD_ResumeCallback could be implemented in the user file
1222:Drivers/STM32F0xx_HAL_Driver/Src/stm32f0xx_hal_pcd.c ****    */
1223:Drivers/STM32F0xx_HAL_Driver/Src/stm32f0xx_hal_pcd.c **** }
 661              		.loc 1 1223 1 is_stmt 0 view .LVU157
 662              		@ sp needed
 663 0000 7047     		bx	lr
 664              		.cfi_endproc
 665              	.LFE53:
 667              		.section	.text.HAL_PCD_ISOOUTIncompleteCallback,"ax",%progbits
 668              		.align	1
 669              		.weak	HAL_PCD_ISOOUTIncompleteCallback
 670              		.syntax unified
 671              		.code	16
 672              		.thumb_func
 673              		.fpu softvfp
 675              	HAL_PCD_ISOOUTIncompleteCallback:
 676              	.LVL47:
 677              	.LFB54:
1224:Drivers/STM32F0xx_HAL_Driver/Src/stm32f0xx_hal_pcd.c **** 
1225:Drivers/STM32F0xx_HAL_Driver/Src/stm32f0xx_hal_pcd.c **** /**
1226:Drivers/STM32F0xx_HAL_Driver/Src/stm32f0xx_hal_pcd.c ****   * @brief  Incomplete ISO OUT callback.
1227:Drivers/STM32F0xx_HAL_Driver/Src/stm32f0xx_hal_pcd.c ****   * @param  hpcd PCD handle
1228:Drivers/STM32F0xx_HAL_Driver/Src/stm32f0xx_hal_pcd.c ****   * @param  epnum endpoint number
1229:Drivers/STM32F0xx_HAL_Driver/Src/stm32f0xx_hal_pcd.c ****   * @retval None
1230:Drivers/STM32F0xx_HAL_Driver/Src/stm32f0xx_hal_pcd.c ****   */
1231:Drivers/STM32F0xx_HAL_Driver/Src/stm32f0xx_hal_pcd.c **** __weak void HAL_PCD_ISOOUTIncompleteCallback(PCD_HandleTypeDef *hpcd, uint8_t epnum)
1232:Drivers/STM32F0xx_HAL_Driver/Src/stm32f0xx_hal_pcd.c **** {
 678              		.loc 1 1232 1 is_stmt 1 view -0
 679              		.cfi_startproc
 680              		@ args = 0, pretend = 0, frame = 0
 681              		@ frame_needed = 0, uses_anonymous_args = 0
 682              		@ link register save eliminated.
1233:Drivers/STM32F0xx_HAL_Driver/Src/stm32f0xx_hal_pcd.c ****   /* Prevent unused argument(s) compilation warning */
1234:Drivers/STM32F0xx_HAL_Driver/Src/stm32f0xx_hal_pcd.c ****   UNUSED(hpcd);
 683              		.loc 1 1234 3 view .LVU159
1235:Drivers/STM32F0xx_HAL_Driver/Src/stm32f0xx_hal_pcd.c ****   UNUSED(epnum);
 684              		.loc 1 1235 3 view .LVU160
1236:Drivers/STM32F0xx_HAL_Driver/Src/stm32f0xx_hal_pcd.c **** 
1237:Drivers/STM32F0xx_HAL_Driver/Src/stm32f0xx_hal_pcd.c ****   /* NOTE : This function should not be modified, when the callback is needed,
1238:Drivers/STM32F0xx_HAL_Driver/Src/stm32f0xx_hal_pcd.c ****             the HAL_PCD_ISOOUTIncompleteCallback could be implemented in the user file
1239:Drivers/STM32F0xx_HAL_Driver/Src/stm32f0xx_hal_pcd.c ****    */
1240:Drivers/STM32F0xx_HAL_Driver/Src/stm32f0xx_hal_pcd.c **** }
 685              		.loc 1 1240 1 is_stmt 0 view .LVU161
 686              		@ sp needed
 687 0000 7047     		bx	lr
 688              		.cfi_endproc
ARM GAS  /tmp/ccd7InD5.s 			page 36


 689              	.LFE54:
 691              		.section	.text.HAL_PCD_ISOINIncompleteCallback,"ax",%progbits
 692              		.align	1
 693              		.weak	HAL_PCD_ISOINIncompleteCallback
 694              		.syntax unified
 695              		.code	16
 696              		.thumb_func
 697              		.fpu softvfp
 699              	HAL_PCD_ISOINIncompleteCallback:
 700              	.LVL48:
 701              	.LFB55:
1241:Drivers/STM32F0xx_HAL_Driver/Src/stm32f0xx_hal_pcd.c **** 
1242:Drivers/STM32F0xx_HAL_Driver/Src/stm32f0xx_hal_pcd.c **** /**
1243:Drivers/STM32F0xx_HAL_Driver/Src/stm32f0xx_hal_pcd.c ****   * @brief  Incomplete ISO IN callback.
1244:Drivers/STM32F0xx_HAL_Driver/Src/stm32f0xx_hal_pcd.c ****   * @param  hpcd PCD handle
1245:Drivers/STM32F0xx_HAL_Driver/Src/stm32f0xx_hal_pcd.c ****   * @param  epnum endpoint number
1246:Drivers/STM32F0xx_HAL_Driver/Src/stm32f0xx_hal_pcd.c ****   * @retval None
1247:Drivers/STM32F0xx_HAL_Driver/Src/stm32f0xx_hal_pcd.c ****   */
1248:Drivers/STM32F0xx_HAL_Driver/Src/stm32f0xx_hal_pcd.c **** __weak void HAL_PCD_ISOINIncompleteCallback(PCD_HandleTypeDef *hpcd, uint8_t epnum)
1249:Drivers/STM32F0xx_HAL_Driver/Src/stm32f0xx_hal_pcd.c **** {
 702              		.loc 1 1249 1 is_stmt 1 view -0
 703              		.cfi_startproc
 704              		@ args = 0, pretend = 0, frame = 0
 705              		@ frame_needed = 0, uses_anonymous_args = 0
 706              		@ link register save eliminated.
1250:Drivers/STM32F0xx_HAL_Driver/Src/stm32f0xx_hal_pcd.c ****   /* Prevent unused argument(s) compilation warning */
1251:Drivers/STM32F0xx_HAL_Driver/Src/stm32f0xx_hal_pcd.c ****   UNUSED(hpcd);
 707              		.loc 1 1251 3 view .LVU163
1252:Drivers/STM32F0xx_HAL_Driver/Src/stm32f0xx_hal_pcd.c ****   UNUSED(epnum);
 708              		.loc 1 1252 3 view .LVU164
1253:Drivers/STM32F0xx_HAL_Driver/Src/stm32f0xx_hal_pcd.c **** 
1254:Drivers/STM32F0xx_HAL_Driver/Src/stm32f0xx_hal_pcd.c ****   /* NOTE : This function should not be modified, when the callback is needed,
1255:Drivers/STM32F0xx_HAL_Driver/Src/stm32f0xx_hal_pcd.c ****             the HAL_PCD_ISOINIncompleteCallback could be implemented in the user file
1256:Drivers/STM32F0xx_HAL_Driver/Src/stm32f0xx_hal_pcd.c ****    */
1257:Drivers/STM32F0xx_HAL_Driver/Src/stm32f0xx_hal_pcd.c **** }
 709              		.loc 1 1257 1 is_stmt 0 view .LVU165
 710              		@ sp needed
 711 0000 7047     		bx	lr
 712              		.cfi_endproc
 713              	.LFE55:
 715              		.section	.text.HAL_PCD_ConnectCallback,"ax",%progbits
 716              		.align	1
 717              		.weak	HAL_PCD_ConnectCallback
 718              		.syntax unified
 719              		.code	16
 720              		.thumb_func
 721              		.fpu softvfp
 723              	HAL_PCD_ConnectCallback:
 724              	.LVL49:
 725              	.LFB56:
1258:Drivers/STM32F0xx_HAL_Driver/Src/stm32f0xx_hal_pcd.c **** 
1259:Drivers/STM32F0xx_HAL_Driver/Src/stm32f0xx_hal_pcd.c **** /**
1260:Drivers/STM32F0xx_HAL_Driver/Src/stm32f0xx_hal_pcd.c ****   * @brief  Connection event callback.
1261:Drivers/STM32F0xx_HAL_Driver/Src/stm32f0xx_hal_pcd.c ****   * @param  hpcd PCD handle
1262:Drivers/STM32F0xx_HAL_Driver/Src/stm32f0xx_hal_pcd.c ****   * @retval None
1263:Drivers/STM32F0xx_HAL_Driver/Src/stm32f0xx_hal_pcd.c ****   */
1264:Drivers/STM32F0xx_HAL_Driver/Src/stm32f0xx_hal_pcd.c **** __weak void HAL_PCD_ConnectCallback(PCD_HandleTypeDef *hpcd)
ARM GAS  /tmp/ccd7InD5.s 			page 37


1265:Drivers/STM32F0xx_HAL_Driver/Src/stm32f0xx_hal_pcd.c **** {
 726              		.loc 1 1265 1 is_stmt 1 view -0
 727              		.cfi_startproc
 728              		@ args = 0, pretend = 0, frame = 0
 729              		@ frame_needed = 0, uses_anonymous_args = 0
 730              		@ link register save eliminated.
1266:Drivers/STM32F0xx_HAL_Driver/Src/stm32f0xx_hal_pcd.c ****   /* Prevent unused argument(s) compilation warning */
1267:Drivers/STM32F0xx_HAL_Driver/Src/stm32f0xx_hal_pcd.c ****   UNUSED(hpcd);
 731              		.loc 1 1267 3 view .LVU167
1268:Drivers/STM32F0xx_HAL_Driver/Src/stm32f0xx_hal_pcd.c **** 
1269:Drivers/STM32F0xx_HAL_Driver/Src/stm32f0xx_hal_pcd.c ****   /* NOTE : This function should not be modified, when the callback is needed,
1270:Drivers/STM32F0xx_HAL_Driver/Src/stm32f0xx_hal_pcd.c ****             the HAL_PCD_ConnectCallback could be implemented in the user file
1271:Drivers/STM32F0xx_HAL_Driver/Src/stm32f0xx_hal_pcd.c ****    */
1272:Drivers/STM32F0xx_HAL_Driver/Src/stm32f0xx_hal_pcd.c **** }
 732              		.loc 1 1272 1 is_stmt 0 view .LVU168
 733              		@ sp needed
 734 0000 7047     		bx	lr
 735              		.cfi_endproc
 736              	.LFE56:
 738              		.section	.text.HAL_PCD_DisconnectCallback,"ax",%progbits
 739              		.align	1
 740              		.weak	HAL_PCD_DisconnectCallback
 741              		.syntax unified
 742              		.code	16
 743              		.thumb_func
 744              		.fpu softvfp
 746              	HAL_PCD_DisconnectCallback:
 747              	.LVL50:
 748              	.LFB57:
1273:Drivers/STM32F0xx_HAL_Driver/Src/stm32f0xx_hal_pcd.c **** 
1274:Drivers/STM32F0xx_HAL_Driver/Src/stm32f0xx_hal_pcd.c **** /**
1275:Drivers/STM32F0xx_HAL_Driver/Src/stm32f0xx_hal_pcd.c ****   * @brief  Disconnection event callback.
1276:Drivers/STM32F0xx_HAL_Driver/Src/stm32f0xx_hal_pcd.c ****   * @param  hpcd PCD handle
1277:Drivers/STM32F0xx_HAL_Driver/Src/stm32f0xx_hal_pcd.c ****   * @retval None
1278:Drivers/STM32F0xx_HAL_Driver/Src/stm32f0xx_hal_pcd.c ****   */
1279:Drivers/STM32F0xx_HAL_Driver/Src/stm32f0xx_hal_pcd.c **** __weak void HAL_PCD_DisconnectCallback(PCD_HandleTypeDef *hpcd)
1280:Drivers/STM32F0xx_HAL_Driver/Src/stm32f0xx_hal_pcd.c **** {
 749              		.loc 1 1280 1 is_stmt 1 view -0
 750              		.cfi_startproc
 751              		@ args = 0, pretend = 0, frame = 0
 752              		@ frame_needed = 0, uses_anonymous_args = 0
 753              		@ link register save eliminated.
1281:Drivers/STM32F0xx_HAL_Driver/Src/stm32f0xx_hal_pcd.c ****   /* Prevent unused argument(s) compilation warning */
1282:Drivers/STM32F0xx_HAL_Driver/Src/stm32f0xx_hal_pcd.c ****   UNUSED(hpcd);
 754              		.loc 1 1282 3 view .LVU170
1283:Drivers/STM32F0xx_HAL_Driver/Src/stm32f0xx_hal_pcd.c **** 
1284:Drivers/STM32F0xx_HAL_Driver/Src/stm32f0xx_hal_pcd.c ****   /* NOTE : This function should not be modified, when the callback is needed,
1285:Drivers/STM32F0xx_HAL_Driver/Src/stm32f0xx_hal_pcd.c ****             the HAL_PCD_DisconnectCallback could be implemented in the user file
1286:Drivers/STM32F0xx_HAL_Driver/Src/stm32f0xx_hal_pcd.c ****    */
1287:Drivers/STM32F0xx_HAL_Driver/Src/stm32f0xx_hal_pcd.c **** }
 755              		.loc 1 1287 1 is_stmt 0 view .LVU171
 756              		@ sp needed
 757 0000 7047     		bx	lr
 758              		.cfi_endproc
 759              	.LFE57:
 761              		.section	.text.HAL_PCD_DevConnect,"ax",%progbits
 762              		.align	1
ARM GAS  /tmp/ccd7InD5.s 			page 38


 763              		.global	HAL_PCD_DevConnect
 764              		.syntax unified
 765              		.code	16
 766              		.thumb_func
 767              		.fpu softvfp
 769              	HAL_PCD_DevConnect:
 770              	.LVL51:
 771              	.LFB58:
1288:Drivers/STM32F0xx_HAL_Driver/Src/stm32f0xx_hal_pcd.c **** 
1289:Drivers/STM32F0xx_HAL_Driver/Src/stm32f0xx_hal_pcd.c **** /**
1290:Drivers/STM32F0xx_HAL_Driver/Src/stm32f0xx_hal_pcd.c ****   * @}
1291:Drivers/STM32F0xx_HAL_Driver/Src/stm32f0xx_hal_pcd.c ****   */
1292:Drivers/STM32F0xx_HAL_Driver/Src/stm32f0xx_hal_pcd.c **** 
1293:Drivers/STM32F0xx_HAL_Driver/Src/stm32f0xx_hal_pcd.c **** /** @defgroup PCD_Exported_Functions_Group3 Peripheral Control functions
1294:Drivers/STM32F0xx_HAL_Driver/Src/stm32f0xx_hal_pcd.c ****  *  @brief   management functions
1295:Drivers/STM32F0xx_HAL_Driver/Src/stm32f0xx_hal_pcd.c ****  *
1296:Drivers/STM32F0xx_HAL_Driver/Src/stm32f0xx_hal_pcd.c **** @verbatim
1297:Drivers/STM32F0xx_HAL_Driver/Src/stm32f0xx_hal_pcd.c ****  ===============================================================================
1298:Drivers/STM32F0xx_HAL_Driver/Src/stm32f0xx_hal_pcd.c ****                       ##### Peripheral Control functions #####
1299:Drivers/STM32F0xx_HAL_Driver/Src/stm32f0xx_hal_pcd.c ****  ===============================================================================
1300:Drivers/STM32F0xx_HAL_Driver/Src/stm32f0xx_hal_pcd.c ****     [..]
1301:Drivers/STM32F0xx_HAL_Driver/Src/stm32f0xx_hal_pcd.c ****     This subsection provides a set of functions allowing to control the PCD data
1302:Drivers/STM32F0xx_HAL_Driver/Src/stm32f0xx_hal_pcd.c ****     transfers.
1303:Drivers/STM32F0xx_HAL_Driver/Src/stm32f0xx_hal_pcd.c **** 
1304:Drivers/STM32F0xx_HAL_Driver/Src/stm32f0xx_hal_pcd.c **** @endverbatim
1305:Drivers/STM32F0xx_HAL_Driver/Src/stm32f0xx_hal_pcd.c ****   * @{
1306:Drivers/STM32F0xx_HAL_Driver/Src/stm32f0xx_hal_pcd.c ****   */
1307:Drivers/STM32F0xx_HAL_Driver/Src/stm32f0xx_hal_pcd.c **** 
1308:Drivers/STM32F0xx_HAL_Driver/Src/stm32f0xx_hal_pcd.c **** /**
1309:Drivers/STM32F0xx_HAL_Driver/Src/stm32f0xx_hal_pcd.c ****   * @brief  Connect the USB device
1310:Drivers/STM32F0xx_HAL_Driver/Src/stm32f0xx_hal_pcd.c ****   * @param  hpcd PCD handle
1311:Drivers/STM32F0xx_HAL_Driver/Src/stm32f0xx_hal_pcd.c ****   * @retval HAL status
1312:Drivers/STM32F0xx_HAL_Driver/Src/stm32f0xx_hal_pcd.c ****   */
1313:Drivers/STM32F0xx_HAL_Driver/Src/stm32f0xx_hal_pcd.c **** HAL_StatusTypeDef HAL_PCD_DevConnect(PCD_HandleTypeDef *hpcd)
1314:Drivers/STM32F0xx_HAL_Driver/Src/stm32f0xx_hal_pcd.c **** {
 772              		.loc 1 1314 1 is_stmt 1 view -0
 773              		.cfi_startproc
 774              		@ args = 0, pretend = 0, frame = 0
 775              		@ frame_needed = 0, uses_anonymous_args = 0
 776              		.loc 1 1314 1 is_stmt 0 view .LVU173
 777 0000 70B5     		push	{r4, r5, r6, lr}
 778              	.LCFI5:
 779              		.cfi_def_cfa_offset 16
 780              		.cfi_offset 4, -16
 781              		.cfi_offset 5, -12
 782              		.cfi_offset 6, -8
 783              		.cfi_offset 14, -4
 784 0002 0400     		movs	r4, r0
1315:Drivers/STM32F0xx_HAL_Driver/Src/stm32f0xx_hal_pcd.c ****   __HAL_LOCK(hpcd);
 785              		.loc 1 1315 3 is_stmt 1 view .LVU174
 786              		.loc 1 1315 3 view .LVU175
 787 0004 8A23     		movs	r3, #138
 788 0006 9B00     		lsls	r3, r3, #2
 789 0008 C35C     		ldrb	r3, [r0, r3]
 790 000a 012B     		cmp	r3, #1
 791 000c 0AD0     		beq	.L40
 792              		.loc 1 1315 3 discriminator 2 view .LVU176
ARM GAS  /tmp/ccd7InD5.s 			page 39


 793 000e 8A25     		movs	r5, #138
 794 0010 AD00     		lsls	r5, r5, #2
 795 0012 0123     		movs	r3, #1
 796 0014 4355     		strb	r3, [r0, r5]
 797              		.loc 1 1315 3 discriminator 2 view .LVU177
1316:Drivers/STM32F0xx_HAL_Driver/Src/stm32f0xx_hal_pcd.c ****   (void)USB_DevConnect(hpcd->Instance);
 798              		.loc 1 1316 3 discriminator 2 view .LVU178
 799              		.loc 1 1316 28 is_stmt 0 discriminator 2 view .LVU179
 800 0016 0068     		ldr	r0, [r0]
 801              	.LVL52:
 802              		.loc 1 1316 9 discriminator 2 view .LVU180
 803 0018 FFF7FEFF 		bl	USB_DevConnect
 804              	.LVL53:
1317:Drivers/STM32F0xx_HAL_Driver/Src/stm32f0xx_hal_pcd.c ****   __HAL_UNLOCK(hpcd);
 805              		.loc 1 1317 3 is_stmt 1 discriminator 2 view .LVU181
 806              		.loc 1 1317 3 discriminator 2 view .LVU182
 807 001c 0023     		movs	r3, #0
 808 001e 6355     		strb	r3, [r4, r5]
 809              		.loc 1 1317 3 discriminator 2 view .LVU183
1318:Drivers/STM32F0xx_HAL_Driver/Src/stm32f0xx_hal_pcd.c ****   return HAL_OK;
 810              		.loc 1 1318 3 discriminator 2 view .LVU184
 811              		.loc 1 1318 10 is_stmt 0 discriminator 2 view .LVU185
 812 0020 0020     		movs	r0, #0
 813              	.L39:
1319:Drivers/STM32F0xx_HAL_Driver/Src/stm32f0xx_hal_pcd.c **** }
 814              		.loc 1 1319 1 view .LVU186
 815              		@ sp needed
 816              	.LVL54:
 817              		.loc 1 1319 1 view .LVU187
 818 0022 70BD     		pop	{r4, r5, r6, pc}
 819              	.LVL55:
 820              	.L40:
1315:Drivers/STM32F0xx_HAL_Driver/Src/stm32f0xx_hal_pcd.c ****   (void)USB_DevConnect(hpcd->Instance);
 821              		.loc 1 1315 3 view .LVU188
 822 0024 0220     		movs	r0, #2
 823              	.LVL56:
1315:Drivers/STM32F0xx_HAL_Driver/Src/stm32f0xx_hal_pcd.c ****   (void)USB_DevConnect(hpcd->Instance);
 824              		.loc 1 1315 3 view .LVU189
 825 0026 FCE7     		b	.L39
 826              		.cfi_endproc
 827              	.LFE58:
 829              		.section	.text.HAL_PCD_DevDisconnect,"ax",%progbits
 830              		.align	1
 831              		.global	HAL_PCD_DevDisconnect
 832              		.syntax unified
 833              		.code	16
 834              		.thumb_func
 835              		.fpu softvfp
 837              	HAL_PCD_DevDisconnect:
 838              	.LVL57:
 839              	.LFB59:
1320:Drivers/STM32F0xx_HAL_Driver/Src/stm32f0xx_hal_pcd.c **** 
1321:Drivers/STM32F0xx_HAL_Driver/Src/stm32f0xx_hal_pcd.c **** /**
1322:Drivers/STM32F0xx_HAL_Driver/Src/stm32f0xx_hal_pcd.c ****   * @brief  Disconnect the USB device.
1323:Drivers/STM32F0xx_HAL_Driver/Src/stm32f0xx_hal_pcd.c ****   * @param  hpcd PCD handle
1324:Drivers/STM32F0xx_HAL_Driver/Src/stm32f0xx_hal_pcd.c ****   * @retval HAL status
1325:Drivers/STM32F0xx_HAL_Driver/Src/stm32f0xx_hal_pcd.c ****   */
ARM GAS  /tmp/ccd7InD5.s 			page 40


1326:Drivers/STM32F0xx_HAL_Driver/Src/stm32f0xx_hal_pcd.c **** HAL_StatusTypeDef HAL_PCD_DevDisconnect(PCD_HandleTypeDef *hpcd)
1327:Drivers/STM32F0xx_HAL_Driver/Src/stm32f0xx_hal_pcd.c **** {
 840              		.loc 1 1327 1 is_stmt 1 view -0
 841              		.cfi_startproc
 842              		@ args = 0, pretend = 0, frame = 0
 843              		@ frame_needed = 0, uses_anonymous_args = 0
 844              		.loc 1 1327 1 is_stmt 0 view .LVU191
 845 0000 70B5     		push	{r4, r5, r6, lr}
 846              	.LCFI6:
 847              		.cfi_def_cfa_offset 16
 848              		.cfi_offset 4, -16
 849              		.cfi_offset 5, -12
 850              		.cfi_offset 6, -8
 851              		.cfi_offset 14, -4
 852 0002 0400     		movs	r4, r0
1328:Drivers/STM32F0xx_HAL_Driver/Src/stm32f0xx_hal_pcd.c ****   __HAL_LOCK(hpcd);
 853              		.loc 1 1328 3 is_stmt 1 view .LVU192
 854              		.loc 1 1328 3 view .LVU193
 855 0004 8A23     		movs	r3, #138
 856 0006 9B00     		lsls	r3, r3, #2
 857 0008 C35C     		ldrb	r3, [r0, r3]
 858 000a 012B     		cmp	r3, #1
 859 000c 0AD0     		beq	.L43
 860              		.loc 1 1328 3 discriminator 2 view .LVU194
 861 000e 8A25     		movs	r5, #138
 862 0010 AD00     		lsls	r5, r5, #2
 863 0012 0123     		movs	r3, #1
 864 0014 4355     		strb	r3, [r0, r5]
 865              		.loc 1 1328 3 discriminator 2 view .LVU195
1329:Drivers/STM32F0xx_HAL_Driver/Src/stm32f0xx_hal_pcd.c ****   (void)USB_DevDisconnect(hpcd->Instance);
 866              		.loc 1 1329 3 discriminator 2 view .LVU196
 867              		.loc 1 1329 31 is_stmt 0 discriminator 2 view .LVU197
 868 0016 0068     		ldr	r0, [r0]
 869              	.LVL58:
 870              		.loc 1 1329 9 discriminator 2 view .LVU198
 871 0018 FFF7FEFF 		bl	USB_DevDisconnect
 872              	.LVL59:
1330:Drivers/STM32F0xx_HAL_Driver/Src/stm32f0xx_hal_pcd.c ****   __HAL_UNLOCK(hpcd);
 873              		.loc 1 1330 3 is_stmt 1 discriminator 2 view .LVU199
 874              		.loc 1 1330 3 discriminator 2 view .LVU200
 875 001c 0023     		movs	r3, #0
 876 001e 6355     		strb	r3, [r4, r5]
 877              		.loc 1 1330 3 discriminator 2 view .LVU201
1331:Drivers/STM32F0xx_HAL_Driver/Src/stm32f0xx_hal_pcd.c ****   return HAL_OK;
 878              		.loc 1 1331 3 discriminator 2 view .LVU202
 879              		.loc 1 1331 10 is_stmt 0 discriminator 2 view .LVU203
 880 0020 0020     		movs	r0, #0
 881              	.L42:
1332:Drivers/STM32F0xx_HAL_Driver/Src/stm32f0xx_hal_pcd.c **** }
 882              		.loc 1 1332 1 view .LVU204
 883              		@ sp needed
 884              	.LVL60:
 885              		.loc 1 1332 1 view .LVU205
 886 0022 70BD     		pop	{r4, r5, r6, pc}
 887              	.LVL61:
 888              	.L43:
1328:Drivers/STM32F0xx_HAL_Driver/Src/stm32f0xx_hal_pcd.c ****   (void)USB_DevDisconnect(hpcd->Instance);
ARM GAS  /tmp/ccd7InD5.s 			page 41


 889              		.loc 1 1328 3 view .LVU206
 890 0024 0220     		movs	r0, #2
 891              	.LVL62:
1328:Drivers/STM32F0xx_HAL_Driver/Src/stm32f0xx_hal_pcd.c ****   (void)USB_DevDisconnect(hpcd->Instance);
 892              		.loc 1 1328 3 view .LVU207
 893 0026 FCE7     		b	.L42
 894              		.cfi_endproc
 895              	.LFE59:
 897              		.section	.text.HAL_PCD_SetAddress,"ax",%progbits
 898              		.align	1
 899              		.global	HAL_PCD_SetAddress
 900              		.syntax unified
 901              		.code	16
 902              		.thumb_func
 903              		.fpu softvfp
 905              	HAL_PCD_SetAddress:
 906              	.LVL63:
 907              	.LFB60:
1333:Drivers/STM32F0xx_HAL_Driver/Src/stm32f0xx_hal_pcd.c **** 
1334:Drivers/STM32F0xx_HAL_Driver/Src/stm32f0xx_hal_pcd.c **** /**
1335:Drivers/STM32F0xx_HAL_Driver/Src/stm32f0xx_hal_pcd.c ****   * @brief  Set the USB Device address.
1336:Drivers/STM32F0xx_HAL_Driver/Src/stm32f0xx_hal_pcd.c ****   * @param  hpcd PCD handle
1337:Drivers/STM32F0xx_HAL_Driver/Src/stm32f0xx_hal_pcd.c ****   * @param  address new device address
1338:Drivers/STM32F0xx_HAL_Driver/Src/stm32f0xx_hal_pcd.c ****   * @retval HAL status
1339:Drivers/STM32F0xx_HAL_Driver/Src/stm32f0xx_hal_pcd.c ****   */
1340:Drivers/STM32F0xx_HAL_Driver/Src/stm32f0xx_hal_pcd.c **** HAL_StatusTypeDef HAL_PCD_SetAddress(PCD_HandleTypeDef *hpcd, uint8_t address)
1341:Drivers/STM32F0xx_HAL_Driver/Src/stm32f0xx_hal_pcd.c **** {
 908              		.loc 1 1341 1 is_stmt 1 view -0
 909              		.cfi_startproc
 910              		@ args = 0, pretend = 0, frame = 0
 911              		@ frame_needed = 0, uses_anonymous_args = 0
 912              		.loc 1 1341 1 is_stmt 0 view .LVU209
 913 0000 70B5     		push	{r4, r5, r6, lr}
 914              	.LCFI7:
 915              		.cfi_def_cfa_offset 16
 916              		.cfi_offset 4, -16
 917              		.cfi_offset 5, -12
 918              		.cfi_offset 6, -8
 919              		.cfi_offset 14, -4
 920 0002 0400     		movs	r4, r0
1342:Drivers/STM32F0xx_HAL_Driver/Src/stm32f0xx_hal_pcd.c ****   __HAL_LOCK(hpcd);
 921              		.loc 1 1342 3 is_stmt 1 view .LVU210
 922              		.loc 1 1342 3 view .LVU211
 923 0004 8A23     		movs	r3, #138
 924 0006 9B00     		lsls	r3, r3, #2
 925 0008 C35C     		ldrb	r3, [r0, r3]
 926 000a 012B     		cmp	r3, #1
 927 000c 0CD0     		beq	.L46
 928              		.loc 1 1342 3 discriminator 2 view .LVU212
 929 000e 8A25     		movs	r5, #138
 930 0010 AD00     		lsls	r5, r5, #2
 931 0012 0123     		movs	r3, #1
 932 0014 4355     		strb	r3, [r0, r5]
 933              		.loc 1 1342 3 discriminator 2 view .LVU213
1343:Drivers/STM32F0xx_HAL_Driver/Src/stm32f0xx_hal_pcd.c ****   hpcd->USB_Address = address;
 934              		.loc 1 1343 3 discriminator 2 view .LVU214
 935              		.loc 1 1343 21 is_stmt 0 discriminator 2 view .LVU215
ARM GAS  /tmp/ccd7InD5.s 			page 42


 936 0016 2333     		adds	r3, r3, #35
 937 0018 C154     		strb	r1, [r0, r3]
1344:Drivers/STM32F0xx_HAL_Driver/Src/stm32f0xx_hal_pcd.c ****   (void)USB_SetDevAddress(hpcd->Instance, address);
 938              		.loc 1 1344 3 is_stmt 1 discriminator 2 view .LVU216
 939              		.loc 1 1344 31 is_stmt 0 discriminator 2 view .LVU217
 940 001a 0068     		ldr	r0, [r0]
 941              	.LVL64:
 942              		.loc 1 1344 9 discriminator 2 view .LVU218
 943 001c FFF7FEFF 		bl	USB_SetDevAddress
 944              	.LVL65:
1345:Drivers/STM32F0xx_HAL_Driver/Src/stm32f0xx_hal_pcd.c ****   __HAL_UNLOCK(hpcd);
 945              		.loc 1 1345 3 is_stmt 1 discriminator 2 view .LVU219
 946              		.loc 1 1345 3 discriminator 2 view .LVU220
 947 0020 0023     		movs	r3, #0
 948 0022 6355     		strb	r3, [r4, r5]
 949              		.loc 1 1345 3 discriminator 2 view .LVU221
1346:Drivers/STM32F0xx_HAL_Driver/Src/stm32f0xx_hal_pcd.c ****   return HAL_OK;
 950              		.loc 1 1346 3 discriminator 2 view .LVU222
 951              		.loc 1 1346 10 is_stmt 0 discriminator 2 view .LVU223
 952 0024 0020     		movs	r0, #0
 953              	.L45:
1347:Drivers/STM32F0xx_HAL_Driver/Src/stm32f0xx_hal_pcd.c **** }
 954              		.loc 1 1347 1 view .LVU224
 955              		@ sp needed
 956              	.LVL66:
 957              		.loc 1 1347 1 view .LVU225
 958 0026 70BD     		pop	{r4, r5, r6, pc}
 959              	.LVL67:
 960              	.L46:
1342:Drivers/STM32F0xx_HAL_Driver/Src/stm32f0xx_hal_pcd.c ****   hpcd->USB_Address = address;
 961              		.loc 1 1342 3 view .LVU226
 962 0028 0220     		movs	r0, #2
 963              	.LVL68:
1342:Drivers/STM32F0xx_HAL_Driver/Src/stm32f0xx_hal_pcd.c ****   hpcd->USB_Address = address;
 964              		.loc 1 1342 3 view .LVU227
 965 002a FCE7     		b	.L45
 966              		.cfi_endproc
 967              	.LFE60:
 969              		.section	.text.HAL_PCD_EP_Open,"ax",%progbits
 970              		.align	1
 971              		.global	HAL_PCD_EP_Open
 972              		.syntax unified
 973              		.code	16
 974              		.thumb_func
 975              		.fpu softvfp
 977              	HAL_PCD_EP_Open:
 978              	.LVL69:
 979              	.LFB61:
1348:Drivers/STM32F0xx_HAL_Driver/Src/stm32f0xx_hal_pcd.c **** /**
1349:Drivers/STM32F0xx_HAL_Driver/Src/stm32f0xx_hal_pcd.c ****   * @brief  Open and configure an endpoint.
1350:Drivers/STM32F0xx_HAL_Driver/Src/stm32f0xx_hal_pcd.c ****   * @param  hpcd PCD handle
1351:Drivers/STM32F0xx_HAL_Driver/Src/stm32f0xx_hal_pcd.c ****   * @param  ep_addr endpoint address
1352:Drivers/STM32F0xx_HAL_Driver/Src/stm32f0xx_hal_pcd.c ****   * @param  ep_mps endpoint max packet size
1353:Drivers/STM32F0xx_HAL_Driver/Src/stm32f0xx_hal_pcd.c ****   * @param  ep_type endpoint type
1354:Drivers/STM32F0xx_HAL_Driver/Src/stm32f0xx_hal_pcd.c ****   * @retval HAL status
1355:Drivers/STM32F0xx_HAL_Driver/Src/stm32f0xx_hal_pcd.c ****   */
1356:Drivers/STM32F0xx_HAL_Driver/Src/stm32f0xx_hal_pcd.c **** HAL_StatusTypeDef HAL_PCD_EP_Open(PCD_HandleTypeDef *hpcd, uint8_t ep_addr, uint16_t ep_mps, uint8_
ARM GAS  /tmp/ccd7InD5.s 			page 43


1357:Drivers/STM32F0xx_HAL_Driver/Src/stm32f0xx_hal_pcd.c **** {
 980              		.loc 1 1357 1 is_stmt 1 view -0
 981              		.cfi_startproc
 982              		@ args = 0, pretend = 0, frame = 0
 983              		@ frame_needed = 0, uses_anonymous_args = 0
 984              		.loc 1 1357 1 is_stmt 0 view .LVU229
 985 0000 70B5     		push	{r4, r5, r6, lr}
 986              	.LCFI8:
 987              		.cfi_def_cfa_offset 16
 988              		.cfi_offset 4, -16
 989              		.cfi_offset 5, -12
 990              		.cfi_offset 6, -8
 991              		.cfi_offset 14, -4
 992 0002 0400     		movs	r4, r0
 993 0004 0D00     		movs	r5, r1
1358:Drivers/STM32F0xx_HAL_Driver/Src/stm32f0xx_hal_pcd.c ****   HAL_StatusTypeDef  ret = HAL_OK;
 994              		.loc 1 1358 3 is_stmt 1 view .LVU230
 995              	.LVL70:
1359:Drivers/STM32F0xx_HAL_Driver/Src/stm32f0xx_hal_pcd.c ****   PCD_EPTypeDef *ep;
 996              		.loc 1 1359 3 view .LVU231
1360:Drivers/STM32F0xx_HAL_Driver/Src/stm32f0xx_hal_pcd.c **** 
1361:Drivers/STM32F0xx_HAL_Driver/Src/stm32f0xx_hal_pcd.c ****   if ((ep_addr & 0x80U) == 0x80U)
 997              		.loc 1 1361 3 view .LVU232
 998              		.loc 1 1361 25 is_stmt 0 view .LVU233
 999 0006 49B2     		sxtb	r1, r1
 1000              		.loc 1 1361 6 view .LVU234
 1001 0008 0029     		cmp	r1, #0
 1002 000a 26DB     		blt	.L54
1362:Drivers/STM32F0xx_HAL_Driver/Src/stm32f0xx_hal_pcd.c ****   {
1363:Drivers/STM32F0xx_HAL_Driver/Src/stm32f0xx_hal_pcd.c ****     ep = &hpcd->IN_ep[ep_addr & EP_ADDR_MSK];
1364:Drivers/STM32F0xx_HAL_Driver/Src/stm32f0xx_hal_pcd.c ****     ep->is_in = 1U;
1365:Drivers/STM32F0xx_HAL_Driver/Src/stm32f0xx_hal_pcd.c ****   }
1366:Drivers/STM32F0xx_HAL_Driver/Src/stm32f0xx_hal_pcd.c ****   else
1367:Drivers/STM32F0xx_HAL_Driver/Src/stm32f0xx_hal_pcd.c ****   {
1368:Drivers/STM32F0xx_HAL_Driver/Src/stm32f0xx_hal_pcd.c ****     ep = &hpcd->OUT_ep[ep_addr & EP_ADDR_MSK];
 1003              		.loc 1 1368 5 is_stmt 1 view .LVU235
 1004              		.loc 1 1368 32 is_stmt 0 view .LVU236
 1005 000c 0720     		movs	r0, #7
 1006              	.LVL71:
 1007              		.loc 1 1368 32 view .LVU237
 1008 000e 2840     		ands	r0, r5
 1009              		.loc 1 1368 8 view .LVU238
 1010 0010 4001     		lsls	r0, r0, #5
 1011 0012 0100     		movs	r1, r0
 1012              	.LVL72:
 1013              		.loc 1 1368 8 view .LVU239
 1014 0014 2931     		adds	r1, r1, #41
 1015 0016 FF31     		adds	r1, r1, #255
 1016 0018 6118     		adds	r1, r4, r1
 1017              	.LVL73:
1369:Drivers/STM32F0xx_HAL_Driver/Src/stm32f0xx_hal_pcd.c ****     ep->is_in = 0U;
 1018              		.loc 1 1369 5 is_stmt 1 view .LVU240
 1019              		.loc 1 1369 15 is_stmt 0 view .LVU241
 1020 001a 2018     		adds	r0, r4, r0
 1021 001c 2A30     		adds	r0, r0, #42
 1022 001e FF30     		adds	r0, r0, #255
 1023 0020 0026     		movs	r6, #0
ARM GAS  /tmp/ccd7InD5.s 			page 44


 1024 0022 0670     		strb	r6, [r0]
 1025              	.L49:
1370:Drivers/STM32F0xx_HAL_Driver/Src/stm32f0xx_hal_pcd.c ****   }
1371:Drivers/STM32F0xx_HAL_Driver/Src/stm32f0xx_hal_pcd.c **** 
1372:Drivers/STM32F0xx_HAL_Driver/Src/stm32f0xx_hal_pcd.c ****   ep->num = ep_addr & EP_ADDR_MSK;
 1026              		.loc 1 1372 3 is_stmt 1 view .LVU242
 1027              		.loc 1 1372 21 is_stmt 0 view .LVU243
 1028 0024 0720     		movs	r0, #7
 1029 0026 2840     		ands	r0, r5
 1030              		.loc 1 1372 11 view .LVU244
 1031 0028 0870     		strb	r0, [r1]
1373:Drivers/STM32F0xx_HAL_Driver/Src/stm32f0xx_hal_pcd.c ****   ep->maxpacket = ep_mps;
 1032              		.loc 1 1373 3 is_stmt 1 view .LVU245
 1033              		.loc 1 1373 17 is_stmt 0 view .LVU246
 1034 002a 0A61     		str	r2, [r1, #16]
1374:Drivers/STM32F0xx_HAL_Driver/Src/stm32f0xx_hal_pcd.c ****   ep->type = ep_type;
 1035              		.loc 1 1374 3 is_stmt 1 view .LVU247
 1036              		.loc 1 1374 12 is_stmt 0 view .LVU248
 1037 002c CB70     		strb	r3, [r1, #3]
1375:Drivers/STM32F0xx_HAL_Driver/Src/stm32f0xx_hal_pcd.c **** 
1376:Drivers/STM32F0xx_HAL_Driver/Src/stm32f0xx_hal_pcd.c ****   if (ep->is_in != 0U)
 1038              		.loc 1 1376 3 is_stmt 1 view .LVU249
 1039              		.loc 1 1376 9 is_stmt 0 view .LVU250
 1040 002e 4A78     		ldrb	r2, [r1, #1]
 1041              	.LVL74:
 1042              		.loc 1 1376 6 view .LVU251
 1043 0030 002A     		cmp	r2, #0
 1044 0032 00D0     		beq	.L50
1377:Drivers/STM32F0xx_HAL_Driver/Src/stm32f0xx_hal_pcd.c ****   {
1378:Drivers/STM32F0xx_HAL_Driver/Src/stm32f0xx_hal_pcd.c ****     /* Assign a Tx FIFO */
1379:Drivers/STM32F0xx_HAL_Driver/Src/stm32f0xx_hal_pcd.c ****     ep->tx_fifo_num = ep->num;
 1045              		.loc 1 1379 5 is_stmt 1 view .LVU252
 1046              		.loc 1 1379 21 is_stmt 0 view .LVU253
 1047 0034 C881     		strh	r0, [r1, #14]
 1048              	.L50:
1380:Drivers/STM32F0xx_HAL_Driver/Src/stm32f0xx_hal_pcd.c ****   }
1381:Drivers/STM32F0xx_HAL_Driver/Src/stm32f0xx_hal_pcd.c ****   /* Set initial data PID. */
1382:Drivers/STM32F0xx_HAL_Driver/Src/stm32f0xx_hal_pcd.c ****   if (ep_type == EP_TYPE_BULK)
 1049              		.loc 1 1382 3 is_stmt 1 view .LVU254
 1050              		.loc 1 1382 6 is_stmt 0 view .LVU255
 1051 0036 022B     		cmp	r3, #2
 1052 0038 1AD0     		beq	.L55
 1053              	.LVL75:
 1054              	.L51:
1383:Drivers/STM32F0xx_HAL_Driver/Src/stm32f0xx_hal_pcd.c ****   {
1384:Drivers/STM32F0xx_HAL_Driver/Src/stm32f0xx_hal_pcd.c ****     ep->data_pid_start = 0U;
1385:Drivers/STM32F0xx_HAL_Driver/Src/stm32f0xx_hal_pcd.c ****   }
1386:Drivers/STM32F0xx_HAL_Driver/Src/stm32f0xx_hal_pcd.c **** 
1387:Drivers/STM32F0xx_HAL_Driver/Src/stm32f0xx_hal_pcd.c ****   __HAL_LOCK(hpcd);
 1055              		.loc 1 1387 3 is_stmt 1 view .LVU256
 1056              		.loc 1 1387 3 view .LVU257
 1057 003a 8A23     		movs	r3, #138
 1058 003c 9B00     		lsls	r3, r3, #2
 1059 003e E35C     		ldrb	r3, [r4, r3]
 1060 0040 012B     		cmp	r3, #1
 1061 0042 18D0     		beq	.L53
 1062              		.loc 1 1387 3 discriminator 2 view .LVU258
ARM GAS  /tmp/ccd7InD5.s 			page 45


 1063 0044 8A25     		movs	r5, #138
 1064 0046 AD00     		lsls	r5, r5, #2
 1065 0048 0123     		movs	r3, #1
 1066 004a 6355     		strb	r3, [r4, r5]
 1067              	.LVL76:
 1068              		.loc 1 1387 3 discriminator 2 view .LVU259
1388:Drivers/STM32F0xx_HAL_Driver/Src/stm32f0xx_hal_pcd.c ****   (void)USB_ActivateEndpoint(hpcd->Instance, ep);
 1069              		.loc 1 1388 3 discriminator 2 view .LVU260
 1070              		.loc 1 1388 34 is_stmt 0 discriminator 2 view .LVU261
 1071 004c 2068     		ldr	r0, [r4]
 1072              		.loc 1 1388 9 discriminator 2 view .LVU262
 1073 004e FFF7FEFF 		bl	USB_ActivateEndpoint
 1074              	.LVL77:
1389:Drivers/STM32F0xx_HAL_Driver/Src/stm32f0xx_hal_pcd.c ****   __HAL_UNLOCK(hpcd);
 1075              		.loc 1 1389 3 is_stmt 1 discriminator 2 view .LVU263
 1076              		.loc 1 1389 3 discriminator 2 view .LVU264
 1077 0052 0023     		movs	r3, #0
 1078 0054 6355     		strb	r3, [r4, r5]
 1079              		.loc 1 1389 3 discriminator 2 view .LVU265
1390:Drivers/STM32F0xx_HAL_Driver/Src/stm32f0xx_hal_pcd.c **** 
1391:Drivers/STM32F0xx_HAL_Driver/Src/stm32f0xx_hal_pcd.c ****   return ret;
 1080              		.loc 1 1391 3 discriminator 2 view .LVU266
 1081              		.loc 1 1391 10 is_stmt 0 discriminator 2 view .LVU267
 1082 0056 0020     		movs	r0, #0
 1083              	.L52:
1392:Drivers/STM32F0xx_HAL_Driver/Src/stm32f0xx_hal_pcd.c **** }
 1084              		.loc 1 1392 1 view .LVU268
 1085              		@ sp needed
 1086              	.LVL78:
 1087              		.loc 1 1392 1 view .LVU269
 1088 0058 70BD     		pop	{r4, r5, r6, pc}
 1089              	.LVL79:
 1090              	.L54:
1363:Drivers/STM32F0xx_HAL_Driver/Src/stm32f0xx_hal_pcd.c ****     ep->is_in = 1U;
 1091              		.loc 1 1363 5 is_stmt 1 view .LVU270
1363:Drivers/STM32F0xx_HAL_Driver/Src/stm32f0xx_hal_pcd.c ****     ep->is_in = 1U;
 1092              		.loc 1 1363 31 is_stmt 0 view .LVU271
 1093 005a 0720     		movs	r0, #7
 1094              	.LVL80:
1363:Drivers/STM32F0xx_HAL_Driver/Src/stm32f0xx_hal_pcd.c ****     ep->is_in = 1U;
 1095              		.loc 1 1363 31 view .LVU272
 1096 005c 2840     		ands	r0, r5
1363:Drivers/STM32F0xx_HAL_Driver/Src/stm32f0xx_hal_pcd.c ****     ep->is_in = 1U;
 1097              		.loc 1 1363 8 view .LVU273
 1098 005e 4001     		lsls	r0, r0, #5
 1099 0060 0100     		movs	r1, r0
 1100 0062 2831     		adds	r1, r1, #40
 1101 0064 6118     		adds	r1, r4, r1
 1102              	.LVL81:
1364:Drivers/STM32F0xx_HAL_Driver/Src/stm32f0xx_hal_pcd.c ****   }
 1103              		.loc 1 1364 5 is_stmt 1 view .LVU274
1364:Drivers/STM32F0xx_HAL_Driver/Src/stm32f0xx_hal_pcd.c ****   }
 1104              		.loc 1 1364 15 is_stmt 0 view .LVU275
 1105 0066 2018     		adds	r0, r4, r0
 1106 0068 2930     		adds	r0, r0, #41
 1107 006a 0126     		movs	r6, #1
 1108 006c 0670     		strb	r6, [r0]
ARM GAS  /tmp/ccd7InD5.s 			page 46


 1109 006e D9E7     		b	.L49
 1110              	.LVL82:
 1111              	.L55:
1384:Drivers/STM32F0xx_HAL_Driver/Src/stm32f0xx_hal_pcd.c ****   }
 1112              		.loc 1 1384 5 is_stmt 1 view .LVU276
1384:Drivers/STM32F0xx_HAL_Driver/Src/stm32f0xx_hal_pcd.c ****   }
 1113              		.loc 1 1384 24 is_stmt 0 view .LVU277
 1114 0070 0023     		movs	r3, #0
 1115              	.LVL83:
1384:Drivers/STM32F0xx_HAL_Driver/Src/stm32f0xx_hal_pcd.c ****   }
 1116              		.loc 1 1384 24 view .LVU278
 1117 0072 0B71     		strb	r3, [r1, #4]
 1118 0074 E1E7     		b	.L51
 1119              	.L53:
1387:Drivers/STM32F0xx_HAL_Driver/Src/stm32f0xx_hal_pcd.c ****   (void)USB_ActivateEndpoint(hpcd->Instance, ep);
 1120              		.loc 1 1387 3 view .LVU279
 1121 0076 0220     		movs	r0, #2
 1122 0078 EEE7     		b	.L52
 1123              		.cfi_endproc
 1124              	.LFE61:
 1126              		.section	.text.HAL_PCD_EP_Close,"ax",%progbits
 1127              		.align	1
 1128              		.global	HAL_PCD_EP_Close
 1129              		.syntax unified
 1130              		.code	16
 1131              		.thumb_func
 1132              		.fpu softvfp
 1134              	HAL_PCD_EP_Close:
 1135              	.LVL84:
 1136              	.LFB62:
1393:Drivers/STM32F0xx_HAL_Driver/Src/stm32f0xx_hal_pcd.c **** 
1394:Drivers/STM32F0xx_HAL_Driver/Src/stm32f0xx_hal_pcd.c **** /**
1395:Drivers/STM32F0xx_HAL_Driver/Src/stm32f0xx_hal_pcd.c ****   * @brief  Deactivate an endpoint.
1396:Drivers/STM32F0xx_HAL_Driver/Src/stm32f0xx_hal_pcd.c ****   * @param  hpcd PCD handle
1397:Drivers/STM32F0xx_HAL_Driver/Src/stm32f0xx_hal_pcd.c ****   * @param  ep_addr endpoint address
1398:Drivers/STM32F0xx_HAL_Driver/Src/stm32f0xx_hal_pcd.c ****   * @retval HAL status
1399:Drivers/STM32F0xx_HAL_Driver/Src/stm32f0xx_hal_pcd.c ****   */
1400:Drivers/STM32F0xx_HAL_Driver/Src/stm32f0xx_hal_pcd.c **** HAL_StatusTypeDef HAL_PCD_EP_Close(PCD_HandleTypeDef *hpcd, uint8_t ep_addr)
1401:Drivers/STM32F0xx_HAL_Driver/Src/stm32f0xx_hal_pcd.c **** {
 1137              		.loc 1 1401 1 is_stmt 1 view -0
 1138              		.cfi_startproc
 1139              		@ args = 0, pretend = 0, frame = 0
 1140              		@ frame_needed = 0, uses_anonymous_args = 0
 1141              		.loc 1 1401 1 is_stmt 0 view .LVU281
 1142 0000 70B5     		push	{r4, r5, r6, lr}
 1143              	.LCFI9:
 1144              		.cfi_def_cfa_offset 16
 1145              		.cfi_offset 4, -16
 1146              		.cfi_offset 5, -12
 1147              		.cfi_offset 6, -8
 1148              		.cfi_offset 14, -4
 1149 0002 0400     		movs	r4, r0
 1150 0004 0A00     		movs	r2, r1
1402:Drivers/STM32F0xx_HAL_Driver/Src/stm32f0xx_hal_pcd.c ****   PCD_EPTypeDef *ep;
 1151              		.loc 1 1402 3 is_stmt 1 view .LVU282
1403:Drivers/STM32F0xx_HAL_Driver/Src/stm32f0xx_hal_pcd.c **** 
1404:Drivers/STM32F0xx_HAL_Driver/Src/stm32f0xx_hal_pcd.c ****   if ((ep_addr & 0x80U) == 0x80U)
ARM GAS  /tmp/ccd7InD5.s 			page 47


 1152              		.loc 1 1404 3 view .LVU283
 1153              		.loc 1 1404 25 is_stmt 0 view .LVU284
 1154 0006 4BB2     		sxtb	r3, r1
 1155              		.loc 1 1404 6 view .LVU285
 1156 0008 002B     		cmp	r3, #0
 1157 000a 1EDB     		blt	.L61
1405:Drivers/STM32F0xx_HAL_Driver/Src/stm32f0xx_hal_pcd.c ****   {
1406:Drivers/STM32F0xx_HAL_Driver/Src/stm32f0xx_hal_pcd.c ****     ep = &hpcd->IN_ep[ep_addr & EP_ADDR_MSK];
1407:Drivers/STM32F0xx_HAL_Driver/Src/stm32f0xx_hal_pcd.c ****     ep->is_in = 1U;
1408:Drivers/STM32F0xx_HAL_Driver/Src/stm32f0xx_hal_pcd.c ****   }
1409:Drivers/STM32F0xx_HAL_Driver/Src/stm32f0xx_hal_pcd.c ****   else
1410:Drivers/STM32F0xx_HAL_Driver/Src/stm32f0xx_hal_pcd.c ****   {
1411:Drivers/STM32F0xx_HAL_Driver/Src/stm32f0xx_hal_pcd.c ****     ep = &hpcd->OUT_ep[ep_addr & EP_ADDR_MSK];
 1158              		.loc 1 1411 5 is_stmt 1 view .LVU286
 1159              		.loc 1 1411 32 is_stmt 0 view .LVU287
 1160 000c 0723     		movs	r3, #7
 1161 000e 0B40     		ands	r3, r1
 1162              		.loc 1 1411 8 view .LVU288
 1163 0010 5B01     		lsls	r3, r3, #5
 1164 0012 1900     		movs	r1, r3
 1165              	.LVL85:
 1166              		.loc 1 1411 8 view .LVU289
 1167 0014 2931     		adds	r1, r1, #41
 1168 0016 FF31     		adds	r1, r1, #255
 1169 0018 4118     		adds	r1, r0, r1
 1170              	.LVL86:
1412:Drivers/STM32F0xx_HAL_Driver/Src/stm32f0xx_hal_pcd.c ****     ep->is_in = 0U;
 1171              		.loc 1 1412 5 is_stmt 1 view .LVU290
 1172              		.loc 1 1412 15 is_stmt 0 view .LVU291
 1173 001a C318     		adds	r3, r0, r3
 1174 001c 2A33     		adds	r3, r3, #42
 1175 001e FF33     		adds	r3, r3, #255
 1176 0020 0020     		movs	r0, #0
 1177              	.LVL87:
 1178              		.loc 1 1412 15 view .LVU292
 1179 0022 1870     		strb	r0, [r3]
 1180              	.L58:
1413:Drivers/STM32F0xx_HAL_Driver/Src/stm32f0xx_hal_pcd.c ****   }
1414:Drivers/STM32F0xx_HAL_Driver/Src/stm32f0xx_hal_pcd.c ****   ep->num   = ep_addr & EP_ADDR_MSK;
 1181              		.loc 1 1414 3 is_stmt 1 view .LVU293
 1182              		.loc 1 1414 23 is_stmt 0 view .LVU294
 1183 0024 0723     		movs	r3, #7
 1184 0026 1340     		ands	r3, r2
 1185              		.loc 1 1414 13 view .LVU295
 1186 0028 0B70     		strb	r3, [r1]
1415:Drivers/STM32F0xx_HAL_Driver/Src/stm32f0xx_hal_pcd.c **** 
1416:Drivers/STM32F0xx_HAL_Driver/Src/stm32f0xx_hal_pcd.c ****   __HAL_LOCK(hpcd);
 1187              		.loc 1 1416 3 is_stmt 1 view .LVU296
 1188              		.loc 1 1416 3 view .LVU297
 1189 002a 8A23     		movs	r3, #138
 1190 002c 9B00     		lsls	r3, r3, #2
 1191 002e E35C     		ldrb	r3, [r4, r3]
 1192 0030 012B     		cmp	r3, #1
 1193 0032 15D0     		beq	.L60
 1194              		.loc 1 1416 3 discriminator 2 view .LVU298
 1195 0034 8A25     		movs	r5, #138
 1196 0036 AD00     		lsls	r5, r5, #2
ARM GAS  /tmp/ccd7InD5.s 			page 48


 1197 0038 0123     		movs	r3, #1
 1198 003a 6355     		strb	r3, [r4, r5]
 1199              		.loc 1 1416 3 discriminator 2 view .LVU299
1417:Drivers/STM32F0xx_HAL_Driver/Src/stm32f0xx_hal_pcd.c ****   (void)USB_DeactivateEndpoint(hpcd->Instance, ep);
 1200              		.loc 1 1417 3 discriminator 2 view .LVU300
 1201              		.loc 1 1417 36 is_stmt 0 discriminator 2 view .LVU301
 1202 003c 2068     		ldr	r0, [r4]
 1203              		.loc 1 1417 9 discriminator 2 view .LVU302
 1204 003e FFF7FEFF 		bl	USB_DeactivateEndpoint
 1205              	.LVL88:
1418:Drivers/STM32F0xx_HAL_Driver/Src/stm32f0xx_hal_pcd.c ****   __HAL_UNLOCK(hpcd);
 1206              		.loc 1 1418 3 is_stmt 1 discriminator 2 view .LVU303
 1207              		.loc 1 1418 3 discriminator 2 view .LVU304
 1208 0042 0023     		movs	r3, #0
 1209 0044 6355     		strb	r3, [r4, r5]
 1210              		.loc 1 1418 3 discriminator 2 view .LVU305
1419:Drivers/STM32F0xx_HAL_Driver/Src/stm32f0xx_hal_pcd.c ****   return HAL_OK;
 1211              		.loc 1 1419 3 discriminator 2 view .LVU306
 1212              		.loc 1 1419 10 is_stmt 0 discriminator 2 view .LVU307
 1213 0046 0020     		movs	r0, #0
 1214              	.L59:
1420:Drivers/STM32F0xx_HAL_Driver/Src/stm32f0xx_hal_pcd.c **** }
 1215              		.loc 1 1420 1 view .LVU308
 1216              		@ sp needed
 1217              	.LVL89:
 1218              		.loc 1 1420 1 view .LVU309
 1219 0048 70BD     		pop	{r4, r5, r6, pc}
 1220              	.LVL90:
 1221              	.L61:
1406:Drivers/STM32F0xx_HAL_Driver/Src/stm32f0xx_hal_pcd.c ****     ep->is_in = 1U;
 1222              		.loc 1 1406 5 is_stmt 1 view .LVU310
1406:Drivers/STM32F0xx_HAL_Driver/Src/stm32f0xx_hal_pcd.c ****     ep->is_in = 1U;
 1223              		.loc 1 1406 31 is_stmt 0 view .LVU311
 1224 004a 0723     		movs	r3, #7
 1225 004c 0B40     		ands	r3, r1
1406:Drivers/STM32F0xx_HAL_Driver/Src/stm32f0xx_hal_pcd.c ****     ep->is_in = 1U;
 1226              		.loc 1 1406 8 view .LVU312
 1227 004e 5B01     		lsls	r3, r3, #5
 1228 0050 1900     		movs	r1, r3
 1229              	.LVL91:
1406:Drivers/STM32F0xx_HAL_Driver/Src/stm32f0xx_hal_pcd.c ****     ep->is_in = 1U;
 1230              		.loc 1 1406 8 view .LVU313
 1231 0052 2831     		adds	r1, r1, #40
 1232 0054 4118     		adds	r1, r0, r1
 1233              	.LVL92:
1407:Drivers/STM32F0xx_HAL_Driver/Src/stm32f0xx_hal_pcd.c ****   }
 1234              		.loc 1 1407 5 is_stmt 1 view .LVU314
1407:Drivers/STM32F0xx_HAL_Driver/Src/stm32f0xx_hal_pcd.c ****   }
 1235              		.loc 1 1407 15 is_stmt 0 view .LVU315
 1236 0056 C318     		adds	r3, r0, r3
 1237 0058 2933     		adds	r3, r3, #41
 1238 005a 0120     		movs	r0, #1
 1239              	.LVL93:
1407:Drivers/STM32F0xx_HAL_Driver/Src/stm32f0xx_hal_pcd.c ****   }
 1240              		.loc 1 1407 15 view .LVU316
 1241 005c 1870     		strb	r0, [r3]
 1242 005e E1E7     		b	.L58
ARM GAS  /tmp/ccd7InD5.s 			page 49


 1243              	.L60:
1416:Drivers/STM32F0xx_HAL_Driver/Src/stm32f0xx_hal_pcd.c ****   (void)USB_DeactivateEndpoint(hpcd->Instance, ep);
 1244              		.loc 1 1416 3 view .LVU317
 1245 0060 0220     		movs	r0, #2
 1246 0062 F1E7     		b	.L59
 1247              		.cfi_endproc
 1248              	.LFE62:
 1250              		.section	.text.HAL_PCD_EP_Receive,"ax",%progbits
 1251              		.align	1
 1252              		.global	HAL_PCD_EP_Receive
 1253              		.syntax unified
 1254              		.code	16
 1255              		.thumb_func
 1256              		.fpu softvfp
 1258              	HAL_PCD_EP_Receive:
 1259              	.LVL94:
 1260              	.LFB63:
1421:Drivers/STM32F0xx_HAL_Driver/Src/stm32f0xx_hal_pcd.c **** 
1422:Drivers/STM32F0xx_HAL_Driver/Src/stm32f0xx_hal_pcd.c **** 
1423:Drivers/STM32F0xx_HAL_Driver/Src/stm32f0xx_hal_pcd.c **** /**
1424:Drivers/STM32F0xx_HAL_Driver/Src/stm32f0xx_hal_pcd.c ****   * @brief  Receive an amount of data.
1425:Drivers/STM32F0xx_HAL_Driver/Src/stm32f0xx_hal_pcd.c ****   * @param  hpcd PCD handle
1426:Drivers/STM32F0xx_HAL_Driver/Src/stm32f0xx_hal_pcd.c ****   * @param  ep_addr endpoint address
1427:Drivers/STM32F0xx_HAL_Driver/Src/stm32f0xx_hal_pcd.c ****   * @param  pBuf pointer to the reception buffer
1428:Drivers/STM32F0xx_HAL_Driver/Src/stm32f0xx_hal_pcd.c ****   * @param  len amount of data to be received
1429:Drivers/STM32F0xx_HAL_Driver/Src/stm32f0xx_hal_pcd.c ****   * @retval HAL status
1430:Drivers/STM32F0xx_HAL_Driver/Src/stm32f0xx_hal_pcd.c ****   */
1431:Drivers/STM32F0xx_HAL_Driver/Src/stm32f0xx_hal_pcd.c **** HAL_StatusTypeDef HAL_PCD_EP_Receive(PCD_HandleTypeDef *hpcd, uint8_t ep_addr, uint8_t *pBuf, uint3
1432:Drivers/STM32F0xx_HAL_Driver/Src/stm32f0xx_hal_pcd.c **** {
 1261              		.loc 1 1432 1 is_stmt 1 view -0
 1262              		.cfi_startproc
 1263              		@ args = 0, pretend = 0, frame = 0
 1264              		@ frame_needed = 0, uses_anonymous_args = 0
 1265              		.loc 1 1432 1 is_stmt 0 view .LVU319
 1266 0000 70B5     		push	{r4, r5, r6, lr}
 1267              	.LCFI10:
 1268              		.cfi_def_cfa_offset 16
 1269              		.cfi_offset 4, -16
 1270              		.cfi_offset 5, -12
 1271              		.cfi_offset 6, -8
 1272              		.cfi_offset 14, -4
1433:Drivers/STM32F0xx_HAL_Driver/Src/stm32f0xx_hal_pcd.c ****   PCD_EPTypeDef *ep;
 1273              		.loc 1 1433 3 is_stmt 1 view .LVU320
1434:Drivers/STM32F0xx_HAL_Driver/Src/stm32f0xx_hal_pcd.c **** 
1435:Drivers/STM32F0xx_HAL_Driver/Src/stm32f0xx_hal_pcd.c ****   ep = &hpcd->OUT_ep[ep_addr & EP_ADDR_MSK];
 1274              		.loc 1 1435 3 view .LVU321
 1275 0002 0725     		movs	r5, #7
 1276 0004 0D40     		ands	r5, r1
 1277              		.loc 1 1435 6 is_stmt 0 view .LVU322
 1278 0006 6C01     		lsls	r4, r5, #5
 1279 0008 2100     		movs	r1, r4
 1280              	.LVL95:
 1281              		.loc 1 1435 6 view .LVU323
 1282 000a 2931     		adds	r1, r1, #41
 1283 000c FF31     		adds	r1, r1, #255
 1284 000e 4118     		adds	r1, r0, r1
 1285              	.LVL96:
ARM GAS  /tmp/ccd7InD5.s 			page 50


1436:Drivers/STM32F0xx_HAL_Driver/Src/stm32f0xx_hal_pcd.c **** 
1437:Drivers/STM32F0xx_HAL_Driver/Src/stm32f0xx_hal_pcd.c ****   /*setup and start the Xfer */
1438:Drivers/STM32F0xx_HAL_Driver/Src/stm32f0xx_hal_pcd.c ****   ep->xfer_buff = pBuf;
 1286              		.loc 1 1438 3 is_stmt 1 view .LVU324
 1287              		.loc 1 1438 17 is_stmt 0 view .LVU325
 1288 0010 0419     		adds	r4, r0, r4
 1289 0012 2600     		movs	r6, r4
 1290 0014 3D36     		adds	r6, r6, #61
 1291 0016 FF36     		adds	r6, r6, #255
 1292 0018 3260     		str	r2, [r6]
1439:Drivers/STM32F0xx_HAL_Driver/Src/stm32f0xx_hal_pcd.c ****   ep->xfer_len = len;
 1293              		.loc 1 1439 3 is_stmt 1 view .LVU326
 1294              		.loc 1 1439 16 is_stmt 0 view .LVU327
 1295 001a 2A00     		movs	r2, r5
 1296              	.LVL97:
 1297              		.loc 1 1439 16 view .LVU328
 1298 001c 0A32     		adds	r2, r2, #10
 1299 001e 5201     		lsls	r2, r2, #5
 1300 0020 8350     		str	r3, [r0, r2]
 1301              	.LVL98:
1440:Drivers/STM32F0xx_HAL_Driver/Src/stm32f0xx_hal_pcd.c ****   ep->xfer_count = 0U;
 1302              		.loc 1 1440 3 is_stmt 1 view .LVU329
 1303              		.loc 1 1440 18 is_stmt 0 view .LVU330
 1304 0022 8218     		adds	r2, r0, r2
 1305 0024 0023     		movs	r3, #0
 1306              	.LVL99:
 1307              		.loc 1 1440 18 view .LVU331
 1308 0026 5360     		str	r3, [r2, #4]
1441:Drivers/STM32F0xx_HAL_Driver/Src/stm32f0xx_hal_pcd.c ****   ep->is_in = 0U;
 1309              		.loc 1 1441 3 is_stmt 1 view .LVU332
 1310              		.loc 1 1441 13 is_stmt 0 view .LVU333
 1311 0028 2200     		movs	r2, r4
 1312              	.LVL100:
 1313              		.loc 1 1441 13 view .LVU334
 1314 002a 2A32     		adds	r2, r2, #42
 1315 002c FF32     		adds	r2, r2, #255
 1316 002e 1370     		strb	r3, [r2]
 1317              	.LVL101:
1442:Drivers/STM32F0xx_HAL_Driver/Src/stm32f0xx_hal_pcd.c ****   ep->num = ep_addr & EP_ADDR_MSK;
 1318              		.loc 1 1442 3 is_stmt 1 view .LVU335
 1319              		.loc 1 1442 11 is_stmt 0 view .LVU336
 1320 0030 2934     		adds	r4, r4, #41
 1321 0032 FF34     		adds	r4, r4, #255
 1322 0034 2570     		strb	r5, [r4]
1443:Drivers/STM32F0xx_HAL_Driver/Src/stm32f0xx_hal_pcd.c **** 
1444:Drivers/STM32F0xx_HAL_Driver/Src/stm32f0xx_hal_pcd.c ****   if ((ep_addr & EP_ADDR_MSK) == 0U)
 1323              		.loc 1 1444 3 is_stmt 1 view .LVU337
 1324              		.loc 1 1444 6 is_stmt 0 view .LVU338
 1325 0036 002D     		cmp	r5, #0
 1326 0038 04D1     		bne	.L63
1445:Drivers/STM32F0xx_HAL_Driver/Src/stm32f0xx_hal_pcd.c ****   {
1446:Drivers/STM32F0xx_HAL_Driver/Src/stm32f0xx_hal_pcd.c ****     (void)USB_EP0StartXfer(hpcd->Instance, ep);
 1327              		.loc 1 1446 5 is_stmt 1 view .LVU339
 1328              		.loc 1 1446 32 is_stmt 0 view .LVU340
 1329 003a 0068     		ldr	r0, [r0]
 1330              	.LVL102:
 1331              		.loc 1 1446 11 view .LVU341
ARM GAS  /tmp/ccd7InD5.s 			page 51


 1332 003c FFF7FEFF 		bl	USB_EPStartXfer
 1333              	.LVL103:
 1334              	.L64:
1447:Drivers/STM32F0xx_HAL_Driver/Src/stm32f0xx_hal_pcd.c ****   }
1448:Drivers/STM32F0xx_HAL_Driver/Src/stm32f0xx_hal_pcd.c ****   else
1449:Drivers/STM32F0xx_HAL_Driver/Src/stm32f0xx_hal_pcd.c ****   {
1450:Drivers/STM32F0xx_HAL_Driver/Src/stm32f0xx_hal_pcd.c ****     (void)USB_EPStartXfer(hpcd->Instance, ep);
1451:Drivers/STM32F0xx_HAL_Driver/Src/stm32f0xx_hal_pcd.c ****   }
1452:Drivers/STM32F0xx_HAL_Driver/Src/stm32f0xx_hal_pcd.c **** 
1453:Drivers/STM32F0xx_HAL_Driver/Src/stm32f0xx_hal_pcd.c ****   return HAL_OK;
 1335              		.loc 1 1453 3 is_stmt 1 view .LVU342
1454:Drivers/STM32F0xx_HAL_Driver/Src/stm32f0xx_hal_pcd.c **** }
 1336              		.loc 1 1454 1 is_stmt 0 view .LVU343
 1337 0040 0020     		movs	r0, #0
 1338              		@ sp needed
 1339              	.LVL104:
 1340              		.loc 1 1454 1 view .LVU344
 1341 0042 70BD     		pop	{r4, r5, r6, pc}
 1342              	.LVL105:
 1343              	.L63:
1450:Drivers/STM32F0xx_HAL_Driver/Src/stm32f0xx_hal_pcd.c ****   }
 1344              		.loc 1 1450 5 is_stmt 1 view .LVU345
1450:Drivers/STM32F0xx_HAL_Driver/Src/stm32f0xx_hal_pcd.c ****   }
 1345              		.loc 1 1450 31 is_stmt 0 view .LVU346
 1346 0044 0068     		ldr	r0, [r0]
 1347              	.LVL106:
1450:Drivers/STM32F0xx_HAL_Driver/Src/stm32f0xx_hal_pcd.c ****   }
 1348              		.loc 1 1450 11 view .LVU347
 1349 0046 FFF7FEFF 		bl	USB_EPStartXfer
 1350              	.LVL107:
1450:Drivers/STM32F0xx_HAL_Driver/Src/stm32f0xx_hal_pcd.c ****   }
 1351              		.loc 1 1450 11 view .LVU348
 1352 004a F9E7     		b	.L64
 1353              		.cfi_endproc
 1354              	.LFE63:
 1356              		.section	.text.HAL_PCD_EP_GetRxCount,"ax",%progbits
 1357              		.align	1
 1358              		.global	HAL_PCD_EP_GetRxCount
 1359              		.syntax unified
 1360              		.code	16
 1361              		.thumb_func
 1362              		.fpu softvfp
 1364              	HAL_PCD_EP_GetRxCount:
 1365              	.LVL108:
 1366              	.LFB64:
1455:Drivers/STM32F0xx_HAL_Driver/Src/stm32f0xx_hal_pcd.c **** 
1456:Drivers/STM32F0xx_HAL_Driver/Src/stm32f0xx_hal_pcd.c **** /**
1457:Drivers/STM32F0xx_HAL_Driver/Src/stm32f0xx_hal_pcd.c ****   * @brief  Get Received Data Size
1458:Drivers/STM32F0xx_HAL_Driver/Src/stm32f0xx_hal_pcd.c ****   * @param  hpcd PCD handle
1459:Drivers/STM32F0xx_HAL_Driver/Src/stm32f0xx_hal_pcd.c ****   * @param  ep_addr endpoint address
1460:Drivers/STM32F0xx_HAL_Driver/Src/stm32f0xx_hal_pcd.c ****   * @retval Data Size
1461:Drivers/STM32F0xx_HAL_Driver/Src/stm32f0xx_hal_pcd.c ****   */
1462:Drivers/STM32F0xx_HAL_Driver/Src/stm32f0xx_hal_pcd.c **** uint32_t HAL_PCD_EP_GetRxCount(PCD_HandleTypeDef *hpcd, uint8_t ep_addr)
1463:Drivers/STM32F0xx_HAL_Driver/Src/stm32f0xx_hal_pcd.c **** {
 1367              		.loc 1 1463 1 is_stmt 1 view -0
 1368              		.cfi_startproc
 1369              		@ args = 0, pretend = 0, frame = 0
ARM GAS  /tmp/ccd7InD5.s 			page 52


 1370              		@ frame_needed = 0, uses_anonymous_args = 0
 1371              		@ link register save eliminated.
1464:Drivers/STM32F0xx_HAL_Driver/Src/stm32f0xx_hal_pcd.c ****   return hpcd->OUT_ep[ep_addr & EP_ADDR_MSK].xfer_count;
 1372              		.loc 1 1464 3 view .LVU350
 1373              		.loc 1 1464 31 is_stmt 0 view .LVU351
 1374 0000 0723     		movs	r3, #7
 1375 0002 0B40     		ands	r3, r1
 1376              		.loc 1 1464 45 view .LVU352
 1377 0004 0A33     		adds	r3, r3, #10
 1378 0006 5B01     		lsls	r3, r3, #5
 1379 0008 C018     		adds	r0, r0, r3
 1380              	.LVL109:
 1381              		.loc 1 1464 45 view .LVU353
 1382 000a 4068     		ldr	r0, [r0, #4]
1465:Drivers/STM32F0xx_HAL_Driver/Src/stm32f0xx_hal_pcd.c **** }
 1383              		.loc 1 1465 1 view .LVU354
 1384              		@ sp needed
 1385 000c 7047     		bx	lr
 1386              		.cfi_endproc
 1387              	.LFE64:
 1389              		.section	.text.HAL_PCD_EP_Transmit,"ax",%progbits
 1390              		.align	1
 1391              		.global	HAL_PCD_EP_Transmit
 1392              		.syntax unified
 1393              		.code	16
 1394              		.thumb_func
 1395              		.fpu softvfp
 1397              	HAL_PCD_EP_Transmit:
 1398              	.LVL110:
 1399              	.LFB65:
1466:Drivers/STM32F0xx_HAL_Driver/Src/stm32f0xx_hal_pcd.c **** /**
1467:Drivers/STM32F0xx_HAL_Driver/Src/stm32f0xx_hal_pcd.c ****   * @brief  Send an amount of data
1468:Drivers/STM32F0xx_HAL_Driver/Src/stm32f0xx_hal_pcd.c ****   * @param  hpcd PCD handle
1469:Drivers/STM32F0xx_HAL_Driver/Src/stm32f0xx_hal_pcd.c ****   * @param  ep_addr endpoint address
1470:Drivers/STM32F0xx_HAL_Driver/Src/stm32f0xx_hal_pcd.c ****   * @param  pBuf pointer to the transmission buffer
1471:Drivers/STM32F0xx_HAL_Driver/Src/stm32f0xx_hal_pcd.c ****   * @param  len amount of data to be sent
1472:Drivers/STM32F0xx_HAL_Driver/Src/stm32f0xx_hal_pcd.c ****   * @retval HAL status
1473:Drivers/STM32F0xx_HAL_Driver/Src/stm32f0xx_hal_pcd.c ****   */
1474:Drivers/STM32F0xx_HAL_Driver/Src/stm32f0xx_hal_pcd.c **** HAL_StatusTypeDef HAL_PCD_EP_Transmit(PCD_HandleTypeDef *hpcd, uint8_t ep_addr, uint8_t *pBuf, uint
1475:Drivers/STM32F0xx_HAL_Driver/Src/stm32f0xx_hal_pcd.c **** {
 1400              		.loc 1 1475 1 is_stmt 1 view -0
 1401              		.cfi_startproc
 1402              		@ args = 0, pretend = 0, frame = 0
 1403              		@ frame_needed = 0, uses_anonymous_args = 0
 1404              		.loc 1 1475 1 is_stmt 0 view .LVU356
 1405 0000 70B5     		push	{r4, r5, r6, lr}
 1406              	.LCFI11:
 1407              		.cfi_def_cfa_offset 16
 1408              		.cfi_offset 4, -16
 1409              		.cfi_offset 5, -12
 1410              		.cfi_offset 6, -8
 1411              		.cfi_offset 14, -4
1476:Drivers/STM32F0xx_HAL_Driver/Src/stm32f0xx_hal_pcd.c ****   PCD_EPTypeDef *ep;
 1412              		.loc 1 1476 3 is_stmt 1 view .LVU357
1477:Drivers/STM32F0xx_HAL_Driver/Src/stm32f0xx_hal_pcd.c **** 
1478:Drivers/STM32F0xx_HAL_Driver/Src/stm32f0xx_hal_pcd.c ****   ep = &hpcd->IN_ep[ep_addr & EP_ADDR_MSK];
 1413              		.loc 1 1478 3 view .LVU358
ARM GAS  /tmp/ccd7InD5.s 			page 53


 1414 0002 0725     		movs	r5, #7
 1415 0004 0D40     		ands	r5, r1
 1416              		.loc 1 1478 6 is_stmt 0 view .LVU359
 1417 0006 6C01     		lsls	r4, r5, #5
 1418 0008 2100     		movs	r1, r4
 1419              	.LVL111:
 1420              		.loc 1 1478 6 view .LVU360
 1421 000a 2831     		adds	r1, r1, #40
 1422 000c 4118     		adds	r1, r0, r1
 1423              	.LVL112:
1479:Drivers/STM32F0xx_HAL_Driver/Src/stm32f0xx_hal_pcd.c **** 
1480:Drivers/STM32F0xx_HAL_Driver/Src/stm32f0xx_hal_pcd.c ****   /*setup and start the Xfer */
1481:Drivers/STM32F0xx_HAL_Driver/Src/stm32f0xx_hal_pcd.c ****   ep->xfer_buff = pBuf;
 1424              		.loc 1 1481 3 is_stmt 1 view .LVU361
 1425              		.loc 1 1481 17 is_stmt 0 view .LVU362
 1426 000e 0419     		adds	r4, r0, r4
 1427 0010 E263     		str	r2, [r4, #60]
1482:Drivers/STM32F0xx_HAL_Driver/Src/stm32f0xx_hal_pcd.c ****   ep->xfer_len = len;
 1428              		.loc 1 1482 3 is_stmt 1 view .LVU363
 1429              		.loc 1 1482 16 is_stmt 0 view .LVU364
 1430 0012 AA1C     		adds	r2, r5, #2
 1431              	.LVL113:
 1432              		.loc 1 1482 16 view .LVU365
 1433 0014 5201     		lsls	r2, r2, #5
 1434 0016 8350     		str	r3, [r0, r2]
 1435              	.LVL114:
1483:Drivers/STM32F0xx_HAL_Driver/Src/stm32f0xx_hal_pcd.c ****   ep->xfer_count = 0U;
 1436              		.loc 1 1483 3 is_stmt 1 view .LVU366
 1437              		.loc 1 1483 18 is_stmt 0 view .LVU367
 1438 0018 8218     		adds	r2, r0, r2
 1439 001a 0023     		movs	r3, #0
 1440              	.LVL115:
 1441              		.loc 1 1483 18 view .LVU368
 1442 001c 5360     		str	r3, [r2, #4]
1484:Drivers/STM32F0xx_HAL_Driver/Src/stm32f0xx_hal_pcd.c ****   ep->is_in = 1U;
 1443              		.loc 1 1484 3 is_stmt 1 view .LVU369
 1444              		.loc 1 1484 13 is_stmt 0 view .LVU370
 1445 001e 2300     		movs	r3, r4
 1446 0020 2933     		adds	r3, r3, #41
 1447 0022 0122     		movs	r2, #1
 1448              	.LVL116:
 1449              		.loc 1 1484 13 view .LVU371
 1450 0024 1A70     		strb	r2, [r3]
 1451              	.LVL117:
1485:Drivers/STM32F0xx_HAL_Driver/Src/stm32f0xx_hal_pcd.c ****   ep->num = ep_addr & EP_ADDR_MSK;
 1452              		.loc 1 1485 3 is_stmt 1 view .LVU372
 1453              		.loc 1 1485 11 is_stmt 0 view .LVU373
 1454 0026 2834     		adds	r4, r4, #40
 1455 0028 2570     		strb	r5, [r4]
1486:Drivers/STM32F0xx_HAL_Driver/Src/stm32f0xx_hal_pcd.c **** 
1487:Drivers/STM32F0xx_HAL_Driver/Src/stm32f0xx_hal_pcd.c ****   if ((ep_addr & EP_ADDR_MSK) == 0U)
 1456              		.loc 1 1487 3 is_stmt 1 view .LVU374
 1457              		.loc 1 1487 6 is_stmt 0 view .LVU375
 1458 002a 002D     		cmp	r5, #0
 1459 002c 04D1     		bne	.L67
1488:Drivers/STM32F0xx_HAL_Driver/Src/stm32f0xx_hal_pcd.c ****   {
1489:Drivers/STM32F0xx_HAL_Driver/Src/stm32f0xx_hal_pcd.c ****     (void)USB_EP0StartXfer(hpcd->Instance, ep);
ARM GAS  /tmp/ccd7InD5.s 			page 54


 1460              		.loc 1 1489 5 is_stmt 1 view .LVU376
 1461              		.loc 1 1489 32 is_stmt 0 view .LVU377
 1462 002e 0068     		ldr	r0, [r0]
 1463              	.LVL118:
 1464              		.loc 1 1489 11 view .LVU378
 1465 0030 FFF7FEFF 		bl	USB_EPStartXfer
 1466              	.LVL119:
 1467              	.L68:
1490:Drivers/STM32F0xx_HAL_Driver/Src/stm32f0xx_hal_pcd.c ****   }
1491:Drivers/STM32F0xx_HAL_Driver/Src/stm32f0xx_hal_pcd.c ****   else
1492:Drivers/STM32F0xx_HAL_Driver/Src/stm32f0xx_hal_pcd.c ****   {
1493:Drivers/STM32F0xx_HAL_Driver/Src/stm32f0xx_hal_pcd.c ****     (void)USB_EPStartXfer(hpcd->Instance, ep);
1494:Drivers/STM32F0xx_HAL_Driver/Src/stm32f0xx_hal_pcd.c ****   }
1495:Drivers/STM32F0xx_HAL_Driver/Src/stm32f0xx_hal_pcd.c **** 
1496:Drivers/STM32F0xx_HAL_Driver/Src/stm32f0xx_hal_pcd.c ****   return HAL_OK;
 1468              		.loc 1 1496 3 is_stmt 1 view .LVU379
1497:Drivers/STM32F0xx_HAL_Driver/Src/stm32f0xx_hal_pcd.c **** }
 1469              		.loc 1 1497 1 is_stmt 0 view .LVU380
 1470 0034 0020     		movs	r0, #0
 1471              		@ sp needed
 1472              	.LVL120:
 1473              		.loc 1 1497 1 view .LVU381
 1474 0036 70BD     		pop	{r4, r5, r6, pc}
 1475              	.LVL121:
 1476              	.L67:
1493:Drivers/STM32F0xx_HAL_Driver/Src/stm32f0xx_hal_pcd.c ****   }
 1477              		.loc 1 1493 5 is_stmt 1 view .LVU382
1493:Drivers/STM32F0xx_HAL_Driver/Src/stm32f0xx_hal_pcd.c ****   }
 1478              		.loc 1 1493 31 is_stmt 0 view .LVU383
 1479 0038 0068     		ldr	r0, [r0]
 1480              	.LVL122:
1493:Drivers/STM32F0xx_HAL_Driver/Src/stm32f0xx_hal_pcd.c ****   }
 1481              		.loc 1 1493 11 view .LVU384
 1482 003a FFF7FEFF 		bl	USB_EPStartXfer
 1483              	.LVL123:
1493:Drivers/STM32F0xx_HAL_Driver/Src/stm32f0xx_hal_pcd.c ****   }
 1484              		.loc 1 1493 11 view .LVU385
 1485 003e F9E7     		b	.L68
 1486              		.cfi_endproc
 1487              	.LFE65:
 1489              		.section	.text.PCD_EP_ISR_Handler,"ax",%progbits
 1490              		.align	1
 1491              		.syntax unified
 1492              		.code	16
 1493              		.thumb_func
 1494              		.fpu softvfp
 1496              	PCD_EP_ISR_Handler:
 1497              	.LVL124:
 1498              	.LFB72:
1498:Drivers/STM32F0xx_HAL_Driver/Src/stm32f0xx_hal_pcd.c **** 
1499:Drivers/STM32F0xx_HAL_Driver/Src/stm32f0xx_hal_pcd.c **** /**
1500:Drivers/STM32F0xx_HAL_Driver/Src/stm32f0xx_hal_pcd.c ****   * @brief  Set a STALL condition over an endpoint
1501:Drivers/STM32F0xx_HAL_Driver/Src/stm32f0xx_hal_pcd.c ****   * @param  hpcd PCD handle
1502:Drivers/STM32F0xx_HAL_Driver/Src/stm32f0xx_hal_pcd.c ****   * @param  ep_addr endpoint address
1503:Drivers/STM32F0xx_HAL_Driver/Src/stm32f0xx_hal_pcd.c ****   * @retval HAL status
1504:Drivers/STM32F0xx_HAL_Driver/Src/stm32f0xx_hal_pcd.c ****   */
1505:Drivers/STM32F0xx_HAL_Driver/Src/stm32f0xx_hal_pcd.c **** HAL_StatusTypeDef HAL_PCD_EP_SetStall(PCD_HandleTypeDef *hpcd, uint8_t ep_addr)
ARM GAS  /tmp/ccd7InD5.s 			page 55


1506:Drivers/STM32F0xx_HAL_Driver/Src/stm32f0xx_hal_pcd.c **** {
1507:Drivers/STM32F0xx_HAL_Driver/Src/stm32f0xx_hal_pcd.c ****   PCD_EPTypeDef *ep;
1508:Drivers/STM32F0xx_HAL_Driver/Src/stm32f0xx_hal_pcd.c **** 
1509:Drivers/STM32F0xx_HAL_Driver/Src/stm32f0xx_hal_pcd.c ****   if (((uint32_t)ep_addr & EP_ADDR_MSK) > hpcd->Init.dev_endpoints)
1510:Drivers/STM32F0xx_HAL_Driver/Src/stm32f0xx_hal_pcd.c ****   {
1511:Drivers/STM32F0xx_HAL_Driver/Src/stm32f0xx_hal_pcd.c ****     return HAL_ERROR;
1512:Drivers/STM32F0xx_HAL_Driver/Src/stm32f0xx_hal_pcd.c ****   }
1513:Drivers/STM32F0xx_HAL_Driver/Src/stm32f0xx_hal_pcd.c **** 
1514:Drivers/STM32F0xx_HAL_Driver/Src/stm32f0xx_hal_pcd.c ****   if ((0x80U & ep_addr) == 0x80U)
1515:Drivers/STM32F0xx_HAL_Driver/Src/stm32f0xx_hal_pcd.c ****   {
1516:Drivers/STM32F0xx_HAL_Driver/Src/stm32f0xx_hal_pcd.c ****     ep = &hpcd->IN_ep[ep_addr & EP_ADDR_MSK];
1517:Drivers/STM32F0xx_HAL_Driver/Src/stm32f0xx_hal_pcd.c ****     ep->is_in = 1U;
1518:Drivers/STM32F0xx_HAL_Driver/Src/stm32f0xx_hal_pcd.c ****   }
1519:Drivers/STM32F0xx_HAL_Driver/Src/stm32f0xx_hal_pcd.c ****   else
1520:Drivers/STM32F0xx_HAL_Driver/Src/stm32f0xx_hal_pcd.c ****   {
1521:Drivers/STM32F0xx_HAL_Driver/Src/stm32f0xx_hal_pcd.c ****     ep = &hpcd->OUT_ep[ep_addr];
1522:Drivers/STM32F0xx_HAL_Driver/Src/stm32f0xx_hal_pcd.c ****     ep->is_in = 0U;
1523:Drivers/STM32F0xx_HAL_Driver/Src/stm32f0xx_hal_pcd.c ****   }
1524:Drivers/STM32F0xx_HAL_Driver/Src/stm32f0xx_hal_pcd.c **** 
1525:Drivers/STM32F0xx_HAL_Driver/Src/stm32f0xx_hal_pcd.c ****   ep->is_stall = 1U;
1526:Drivers/STM32F0xx_HAL_Driver/Src/stm32f0xx_hal_pcd.c ****   ep->num = ep_addr & EP_ADDR_MSK;
1527:Drivers/STM32F0xx_HAL_Driver/Src/stm32f0xx_hal_pcd.c **** 
1528:Drivers/STM32F0xx_HAL_Driver/Src/stm32f0xx_hal_pcd.c ****   __HAL_LOCK(hpcd);
1529:Drivers/STM32F0xx_HAL_Driver/Src/stm32f0xx_hal_pcd.c **** 
1530:Drivers/STM32F0xx_HAL_Driver/Src/stm32f0xx_hal_pcd.c ****   (void)USB_EPSetStall(hpcd->Instance, ep);
1531:Drivers/STM32F0xx_HAL_Driver/Src/stm32f0xx_hal_pcd.c ****   if ((ep_addr & EP_ADDR_MSK) == 0U)
1532:Drivers/STM32F0xx_HAL_Driver/Src/stm32f0xx_hal_pcd.c ****   {
1533:Drivers/STM32F0xx_HAL_Driver/Src/stm32f0xx_hal_pcd.c ****     (void)USB_EP0_OutStart(hpcd->Instance, (uint8_t *)hpcd->Setup);
1534:Drivers/STM32F0xx_HAL_Driver/Src/stm32f0xx_hal_pcd.c ****   }
1535:Drivers/STM32F0xx_HAL_Driver/Src/stm32f0xx_hal_pcd.c ****   __HAL_UNLOCK(hpcd);
1536:Drivers/STM32F0xx_HAL_Driver/Src/stm32f0xx_hal_pcd.c **** 
1537:Drivers/STM32F0xx_HAL_Driver/Src/stm32f0xx_hal_pcd.c ****   return HAL_OK;
1538:Drivers/STM32F0xx_HAL_Driver/Src/stm32f0xx_hal_pcd.c **** }
1539:Drivers/STM32F0xx_HAL_Driver/Src/stm32f0xx_hal_pcd.c **** 
1540:Drivers/STM32F0xx_HAL_Driver/Src/stm32f0xx_hal_pcd.c **** /**
1541:Drivers/STM32F0xx_HAL_Driver/Src/stm32f0xx_hal_pcd.c ****   * @brief  Clear a STALL condition over in an endpoint
1542:Drivers/STM32F0xx_HAL_Driver/Src/stm32f0xx_hal_pcd.c ****   * @param  hpcd PCD handle
1543:Drivers/STM32F0xx_HAL_Driver/Src/stm32f0xx_hal_pcd.c ****   * @param  ep_addr endpoint address
1544:Drivers/STM32F0xx_HAL_Driver/Src/stm32f0xx_hal_pcd.c ****   * @retval HAL status
1545:Drivers/STM32F0xx_HAL_Driver/Src/stm32f0xx_hal_pcd.c ****   */
1546:Drivers/STM32F0xx_HAL_Driver/Src/stm32f0xx_hal_pcd.c **** HAL_StatusTypeDef HAL_PCD_EP_ClrStall(PCD_HandleTypeDef *hpcd, uint8_t ep_addr)
1547:Drivers/STM32F0xx_HAL_Driver/Src/stm32f0xx_hal_pcd.c **** {
1548:Drivers/STM32F0xx_HAL_Driver/Src/stm32f0xx_hal_pcd.c ****   PCD_EPTypeDef *ep;
1549:Drivers/STM32F0xx_HAL_Driver/Src/stm32f0xx_hal_pcd.c **** 
1550:Drivers/STM32F0xx_HAL_Driver/Src/stm32f0xx_hal_pcd.c ****   if (((uint32_t)ep_addr & 0x0FU) > hpcd->Init.dev_endpoints)
1551:Drivers/STM32F0xx_HAL_Driver/Src/stm32f0xx_hal_pcd.c ****   {
1552:Drivers/STM32F0xx_HAL_Driver/Src/stm32f0xx_hal_pcd.c ****     return HAL_ERROR;
1553:Drivers/STM32F0xx_HAL_Driver/Src/stm32f0xx_hal_pcd.c ****   }
1554:Drivers/STM32F0xx_HAL_Driver/Src/stm32f0xx_hal_pcd.c **** 
1555:Drivers/STM32F0xx_HAL_Driver/Src/stm32f0xx_hal_pcd.c ****   if ((0x80U & ep_addr) == 0x80U)
1556:Drivers/STM32F0xx_HAL_Driver/Src/stm32f0xx_hal_pcd.c ****   {
1557:Drivers/STM32F0xx_HAL_Driver/Src/stm32f0xx_hal_pcd.c ****     ep = &hpcd->IN_ep[ep_addr & EP_ADDR_MSK];
1558:Drivers/STM32F0xx_HAL_Driver/Src/stm32f0xx_hal_pcd.c ****     ep->is_in = 1U;
1559:Drivers/STM32F0xx_HAL_Driver/Src/stm32f0xx_hal_pcd.c ****   }
1560:Drivers/STM32F0xx_HAL_Driver/Src/stm32f0xx_hal_pcd.c ****   else
1561:Drivers/STM32F0xx_HAL_Driver/Src/stm32f0xx_hal_pcd.c ****   {
1562:Drivers/STM32F0xx_HAL_Driver/Src/stm32f0xx_hal_pcd.c ****     ep = &hpcd->OUT_ep[ep_addr & EP_ADDR_MSK];
ARM GAS  /tmp/ccd7InD5.s 			page 56


1563:Drivers/STM32F0xx_HAL_Driver/Src/stm32f0xx_hal_pcd.c ****     ep->is_in = 0U;
1564:Drivers/STM32F0xx_HAL_Driver/Src/stm32f0xx_hal_pcd.c ****   }
1565:Drivers/STM32F0xx_HAL_Driver/Src/stm32f0xx_hal_pcd.c **** 
1566:Drivers/STM32F0xx_HAL_Driver/Src/stm32f0xx_hal_pcd.c ****   ep->is_stall = 0U;
1567:Drivers/STM32F0xx_HAL_Driver/Src/stm32f0xx_hal_pcd.c ****   ep->num = ep_addr & EP_ADDR_MSK;
1568:Drivers/STM32F0xx_HAL_Driver/Src/stm32f0xx_hal_pcd.c **** 
1569:Drivers/STM32F0xx_HAL_Driver/Src/stm32f0xx_hal_pcd.c ****   __HAL_LOCK(hpcd);
1570:Drivers/STM32F0xx_HAL_Driver/Src/stm32f0xx_hal_pcd.c ****   (void)USB_EPClearStall(hpcd->Instance, ep);
1571:Drivers/STM32F0xx_HAL_Driver/Src/stm32f0xx_hal_pcd.c ****   __HAL_UNLOCK(hpcd);
1572:Drivers/STM32F0xx_HAL_Driver/Src/stm32f0xx_hal_pcd.c **** 
1573:Drivers/STM32F0xx_HAL_Driver/Src/stm32f0xx_hal_pcd.c ****   return HAL_OK;
1574:Drivers/STM32F0xx_HAL_Driver/Src/stm32f0xx_hal_pcd.c **** }
1575:Drivers/STM32F0xx_HAL_Driver/Src/stm32f0xx_hal_pcd.c **** 
1576:Drivers/STM32F0xx_HAL_Driver/Src/stm32f0xx_hal_pcd.c **** /**
1577:Drivers/STM32F0xx_HAL_Driver/Src/stm32f0xx_hal_pcd.c ****   * @brief  Flush an endpoint
1578:Drivers/STM32F0xx_HAL_Driver/Src/stm32f0xx_hal_pcd.c ****   * @param  hpcd PCD handle
1579:Drivers/STM32F0xx_HAL_Driver/Src/stm32f0xx_hal_pcd.c ****   * @param  ep_addr endpoint address
1580:Drivers/STM32F0xx_HAL_Driver/Src/stm32f0xx_hal_pcd.c ****   * @retval HAL status
1581:Drivers/STM32F0xx_HAL_Driver/Src/stm32f0xx_hal_pcd.c ****   */
1582:Drivers/STM32F0xx_HAL_Driver/Src/stm32f0xx_hal_pcd.c **** HAL_StatusTypeDef HAL_PCD_EP_Flush(PCD_HandleTypeDef *hpcd, uint8_t ep_addr)
1583:Drivers/STM32F0xx_HAL_Driver/Src/stm32f0xx_hal_pcd.c **** {
1584:Drivers/STM32F0xx_HAL_Driver/Src/stm32f0xx_hal_pcd.c ****   /* Prevent unused argument(s) compilation warning */
1585:Drivers/STM32F0xx_HAL_Driver/Src/stm32f0xx_hal_pcd.c ****   UNUSED(hpcd);
1586:Drivers/STM32F0xx_HAL_Driver/Src/stm32f0xx_hal_pcd.c ****   UNUSED(ep_addr);
1587:Drivers/STM32F0xx_HAL_Driver/Src/stm32f0xx_hal_pcd.c **** 
1588:Drivers/STM32F0xx_HAL_Driver/Src/stm32f0xx_hal_pcd.c ****   return HAL_OK;
1589:Drivers/STM32F0xx_HAL_Driver/Src/stm32f0xx_hal_pcd.c **** }
1590:Drivers/STM32F0xx_HAL_Driver/Src/stm32f0xx_hal_pcd.c **** 
1591:Drivers/STM32F0xx_HAL_Driver/Src/stm32f0xx_hal_pcd.c **** /**
1592:Drivers/STM32F0xx_HAL_Driver/Src/stm32f0xx_hal_pcd.c ****   * @brief  Activate remote wakeup signalling
1593:Drivers/STM32F0xx_HAL_Driver/Src/stm32f0xx_hal_pcd.c ****   * @param  hpcd PCD handle
1594:Drivers/STM32F0xx_HAL_Driver/Src/stm32f0xx_hal_pcd.c ****   * @retval HAL status
1595:Drivers/STM32F0xx_HAL_Driver/Src/stm32f0xx_hal_pcd.c ****   */
1596:Drivers/STM32F0xx_HAL_Driver/Src/stm32f0xx_hal_pcd.c **** HAL_StatusTypeDef HAL_PCD_ActivateRemoteWakeup(PCD_HandleTypeDef *hpcd)
1597:Drivers/STM32F0xx_HAL_Driver/Src/stm32f0xx_hal_pcd.c **** {
1598:Drivers/STM32F0xx_HAL_Driver/Src/stm32f0xx_hal_pcd.c ****   return (USB_ActivateRemoteWakeup(hpcd->Instance));
1599:Drivers/STM32F0xx_HAL_Driver/Src/stm32f0xx_hal_pcd.c **** }
1600:Drivers/STM32F0xx_HAL_Driver/Src/stm32f0xx_hal_pcd.c **** 
1601:Drivers/STM32F0xx_HAL_Driver/Src/stm32f0xx_hal_pcd.c **** /**
1602:Drivers/STM32F0xx_HAL_Driver/Src/stm32f0xx_hal_pcd.c ****   * @brief  De-activate remote wakeup signalling.
1603:Drivers/STM32F0xx_HAL_Driver/Src/stm32f0xx_hal_pcd.c ****   * @param  hpcd PCD handle
1604:Drivers/STM32F0xx_HAL_Driver/Src/stm32f0xx_hal_pcd.c ****   * @retval HAL status
1605:Drivers/STM32F0xx_HAL_Driver/Src/stm32f0xx_hal_pcd.c ****   */
1606:Drivers/STM32F0xx_HAL_Driver/Src/stm32f0xx_hal_pcd.c **** HAL_StatusTypeDef HAL_PCD_DeActivateRemoteWakeup(PCD_HandleTypeDef *hpcd)
1607:Drivers/STM32F0xx_HAL_Driver/Src/stm32f0xx_hal_pcd.c **** {
1608:Drivers/STM32F0xx_HAL_Driver/Src/stm32f0xx_hal_pcd.c ****   return (USB_DeActivateRemoteWakeup(hpcd->Instance));
1609:Drivers/STM32F0xx_HAL_Driver/Src/stm32f0xx_hal_pcd.c **** }
1610:Drivers/STM32F0xx_HAL_Driver/Src/stm32f0xx_hal_pcd.c **** 
1611:Drivers/STM32F0xx_HAL_Driver/Src/stm32f0xx_hal_pcd.c **** /**
1612:Drivers/STM32F0xx_HAL_Driver/Src/stm32f0xx_hal_pcd.c ****   * @}
1613:Drivers/STM32F0xx_HAL_Driver/Src/stm32f0xx_hal_pcd.c ****   */
1614:Drivers/STM32F0xx_HAL_Driver/Src/stm32f0xx_hal_pcd.c **** 
1615:Drivers/STM32F0xx_HAL_Driver/Src/stm32f0xx_hal_pcd.c **** /** @defgroup PCD_Exported_Functions_Group4 Peripheral State functions
1616:Drivers/STM32F0xx_HAL_Driver/Src/stm32f0xx_hal_pcd.c ****  *  @brief   Peripheral State functions
1617:Drivers/STM32F0xx_HAL_Driver/Src/stm32f0xx_hal_pcd.c ****  *
1618:Drivers/STM32F0xx_HAL_Driver/Src/stm32f0xx_hal_pcd.c **** @verbatim
1619:Drivers/STM32F0xx_HAL_Driver/Src/stm32f0xx_hal_pcd.c ****  ===============================================================================
ARM GAS  /tmp/ccd7InD5.s 			page 57


1620:Drivers/STM32F0xx_HAL_Driver/Src/stm32f0xx_hal_pcd.c ****                       ##### Peripheral State functions #####
1621:Drivers/STM32F0xx_HAL_Driver/Src/stm32f0xx_hal_pcd.c ****  ===============================================================================
1622:Drivers/STM32F0xx_HAL_Driver/Src/stm32f0xx_hal_pcd.c ****     [..]
1623:Drivers/STM32F0xx_HAL_Driver/Src/stm32f0xx_hal_pcd.c ****     This subsection permits to get in run-time the status of the peripheral
1624:Drivers/STM32F0xx_HAL_Driver/Src/stm32f0xx_hal_pcd.c ****     and the data flow.
1625:Drivers/STM32F0xx_HAL_Driver/Src/stm32f0xx_hal_pcd.c **** 
1626:Drivers/STM32F0xx_HAL_Driver/Src/stm32f0xx_hal_pcd.c **** @endverbatim
1627:Drivers/STM32F0xx_HAL_Driver/Src/stm32f0xx_hal_pcd.c ****   * @{
1628:Drivers/STM32F0xx_HAL_Driver/Src/stm32f0xx_hal_pcd.c ****   */
1629:Drivers/STM32F0xx_HAL_Driver/Src/stm32f0xx_hal_pcd.c **** 
1630:Drivers/STM32F0xx_HAL_Driver/Src/stm32f0xx_hal_pcd.c **** /**
1631:Drivers/STM32F0xx_HAL_Driver/Src/stm32f0xx_hal_pcd.c ****   * @brief  Return the PCD handle state.
1632:Drivers/STM32F0xx_HAL_Driver/Src/stm32f0xx_hal_pcd.c ****   * @param  hpcd PCD handle
1633:Drivers/STM32F0xx_HAL_Driver/Src/stm32f0xx_hal_pcd.c ****   * @retval HAL state
1634:Drivers/STM32F0xx_HAL_Driver/Src/stm32f0xx_hal_pcd.c ****   */
1635:Drivers/STM32F0xx_HAL_Driver/Src/stm32f0xx_hal_pcd.c **** PCD_StateTypeDef HAL_PCD_GetState(PCD_HandleTypeDef *hpcd)
1636:Drivers/STM32F0xx_HAL_Driver/Src/stm32f0xx_hal_pcd.c **** {
1637:Drivers/STM32F0xx_HAL_Driver/Src/stm32f0xx_hal_pcd.c ****   return hpcd->State;
1638:Drivers/STM32F0xx_HAL_Driver/Src/stm32f0xx_hal_pcd.c **** }
1639:Drivers/STM32F0xx_HAL_Driver/Src/stm32f0xx_hal_pcd.c **** 
1640:Drivers/STM32F0xx_HAL_Driver/Src/stm32f0xx_hal_pcd.c **** /**
1641:Drivers/STM32F0xx_HAL_Driver/Src/stm32f0xx_hal_pcd.c ****   * @}
1642:Drivers/STM32F0xx_HAL_Driver/Src/stm32f0xx_hal_pcd.c ****   */
1643:Drivers/STM32F0xx_HAL_Driver/Src/stm32f0xx_hal_pcd.c **** 
1644:Drivers/STM32F0xx_HAL_Driver/Src/stm32f0xx_hal_pcd.c **** /**
1645:Drivers/STM32F0xx_HAL_Driver/Src/stm32f0xx_hal_pcd.c ****   * @}
1646:Drivers/STM32F0xx_HAL_Driver/Src/stm32f0xx_hal_pcd.c ****   */
1647:Drivers/STM32F0xx_HAL_Driver/Src/stm32f0xx_hal_pcd.c **** 
1648:Drivers/STM32F0xx_HAL_Driver/Src/stm32f0xx_hal_pcd.c **** /* Private functions ---------------------------------------------------------*/
1649:Drivers/STM32F0xx_HAL_Driver/Src/stm32f0xx_hal_pcd.c **** /** @addtogroup PCD_Private_Functions
1650:Drivers/STM32F0xx_HAL_Driver/Src/stm32f0xx_hal_pcd.c ****   * @{
1651:Drivers/STM32F0xx_HAL_Driver/Src/stm32f0xx_hal_pcd.c ****   */
1652:Drivers/STM32F0xx_HAL_Driver/Src/stm32f0xx_hal_pcd.c **** 
1653:Drivers/STM32F0xx_HAL_Driver/Src/stm32f0xx_hal_pcd.c **** 
1654:Drivers/STM32F0xx_HAL_Driver/Src/stm32f0xx_hal_pcd.c **** /**
1655:Drivers/STM32F0xx_HAL_Driver/Src/stm32f0xx_hal_pcd.c ****   * @brief  This function handles PCD Endpoint interrupt request.
1656:Drivers/STM32F0xx_HAL_Driver/Src/stm32f0xx_hal_pcd.c ****   * @param  hpcd PCD handle
1657:Drivers/STM32F0xx_HAL_Driver/Src/stm32f0xx_hal_pcd.c ****   * @retval HAL status
1658:Drivers/STM32F0xx_HAL_Driver/Src/stm32f0xx_hal_pcd.c ****   */
1659:Drivers/STM32F0xx_HAL_Driver/Src/stm32f0xx_hal_pcd.c **** static HAL_StatusTypeDef PCD_EP_ISR_Handler(PCD_HandleTypeDef *hpcd)
1660:Drivers/STM32F0xx_HAL_Driver/Src/stm32f0xx_hal_pcd.c **** {
 1499              		.loc 1 1660 1 is_stmt 1 view -0
 1500              		.cfi_startproc
 1501              		@ args = 0, pretend = 0, frame = 0
 1502              		@ frame_needed = 0, uses_anonymous_args = 0
 1503              		.loc 1 1660 1 is_stmt 0 view .LVU387
 1504 0000 F0B5     		push	{r4, r5, r6, r7, lr}
 1505              	.LCFI12:
 1506              		.cfi_def_cfa_offset 20
 1507              		.cfi_offset 4, -20
 1508              		.cfi_offset 5, -16
 1509              		.cfi_offset 6, -12
 1510              		.cfi_offset 7, -8
 1511              		.cfi_offset 14, -4
 1512 0002 C646     		mov	lr, r8
 1513 0004 00B5     		push	{lr}
 1514              	.LCFI13:
ARM GAS  /tmp/ccd7InD5.s 			page 58


 1515              		.cfi_def_cfa_offset 24
 1516              		.cfi_offset 8, -24
 1517 0006 0400     		movs	r4, r0
1661:Drivers/STM32F0xx_HAL_Driver/Src/stm32f0xx_hal_pcd.c ****   PCD_EPTypeDef *ep;
 1518              		.loc 1 1661 3 is_stmt 1 view .LVU388
1662:Drivers/STM32F0xx_HAL_Driver/Src/stm32f0xx_hal_pcd.c ****   uint16_t count;
 1519              		.loc 1 1662 3 view .LVU389
1663:Drivers/STM32F0xx_HAL_Driver/Src/stm32f0xx_hal_pcd.c ****   uint16_t wIstr;
 1520              		.loc 1 1663 3 view .LVU390
1664:Drivers/STM32F0xx_HAL_Driver/Src/stm32f0xx_hal_pcd.c ****   uint16_t wEPVal;
 1521              		.loc 1 1664 3 view .LVU391
1665:Drivers/STM32F0xx_HAL_Driver/Src/stm32f0xx_hal_pcd.c ****   uint8_t epindex;
 1522              		.loc 1 1665 3 view .LVU392
1666:Drivers/STM32F0xx_HAL_Driver/Src/stm32f0xx_hal_pcd.c **** 
1667:Drivers/STM32F0xx_HAL_Driver/Src/stm32f0xx_hal_pcd.c ****   /* stay in loop while pending interrupts */
1668:Drivers/STM32F0xx_HAL_Driver/Src/stm32f0xx_hal_pcd.c ****   while ((hpcd->Instance->ISTR & USB_ISTR_CTR) != 0U)
 1523              		.loc 1 1668 3 view .LVU393
 1524              		.loc 1 1668 9 is_stmt 0 view .LVU394
 1525 0008 98E0     		b	.L70
 1526              	.LVL125:
 1527              	.L95:
1669:Drivers/STM32F0xx_HAL_Driver/Src/stm32f0xx_hal_pcd.c ****   {
1670:Drivers/STM32F0xx_HAL_Driver/Src/stm32f0xx_hal_pcd.c ****     wIstr = hpcd->Instance->ISTR;
1671:Drivers/STM32F0xx_HAL_Driver/Src/stm32f0xx_hal_pcd.c ****     /* extract highest priority endpoint number */
1672:Drivers/STM32F0xx_HAL_Driver/Src/stm32f0xx_hal_pcd.c ****     epindex = (uint8_t)(wIstr & USB_ISTR_EP_ID);
1673:Drivers/STM32F0xx_HAL_Driver/Src/stm32f0xx_hal_pcd.c **** 
1674:Drivers/STM32F0xx_HAL_Driver/Src/stm32f0xx_hal_pcd.c ****     if (epindex == 0U)
1675:Drivers/STM32F0xx_HAL_Driver/Src/stm32f0xx_hal_pcd.c ****     {
1676:Drivers/STM32F0xx_HAL_Driver/Src/stm32f0xx_hal_pcd.c ****       /* Decode and service control endpoint interrupt */
1677:Drivers/STM32F0xx_HAL_Driver/Src/stm32f0xx_hal_pcd.c **** 
1678:Drivers/STM32F0xx_HAL_Driver/Src/stm32f0xx_hal_pcd.c ****       /* DIR bit = origin of the interrupt */
1679:Drivers/STM32F0xx_HAL_Driver/Src/stm32f0xx_hal_pcd.c ****       if ((wIstr & USB_ISTR_DIR) == 0U)
1680:Drivers/STM32F0xx_HAL_Driver/Src/stm32f0xx_hal_pcd.c ****       {
1681:Drivers/STM32F0xx_HAL_Driver/Src/stm32f0xx_hal_pcd.c ****         /* DIR = 0 */
1682:Drivers/STM32F0xx_HAL_Driver/Src/stm32f0xx_hal_pcd.c **** 
1683:Drivers/STM32F0xx_HAL_Driver/Src/stm32f0xx_hal_pcd.c ****         /* DIR = 0      => IN  int */
1684:Drivers/STM32F0xx_HAL_Driver/Src/stm32f0xx_hal_pcd.c ****         /* DIR = 0 implies that (EP_CTR_TX = 1) always  */
1685:Drivers/STM32F0xx_HAL_Driver/Src/stm32f0xx_hal_pcd.c ****         PCD_CLEAR_TX_EP_CTR(hpcd->Instance, PCD_ENDP0);
 1528              		.loc 1 1685 9 is_stmt 1 view .LVU395
 1529              	.LBB2:
 1530              		.loc 1 1685 9 view .LVU396
 1531              		.loc 1 1685 9 view .LVU397
 1532 000a 0288     		ldrh	r2, [r0]
 1533 000c D34B     		ldr	r3, .L98
 1534              	.LVL126:
 1535              		.loc 1 1685 9 is_stmt 0 view .LVU398
 1536 000e 1A40     		ands	r2, r3
 1537              	.LVL127:
 1538              		.loc 1 1685 9 is_stmt 1 view .LVU399
 1539 0010 D34B     		ldr	r3, .L98+4
 1540 0012 1343     		orrs	r3, r2
 1541 0014 9BB2     		uxth	r3, r3
 1542 0016 0380     		strh	r3, [r0]
 1543              	.LBE2:
 1544              		.loc 1 1685 9 view .LVU400
1686:Drivers/STM32F0xx_HAL_Driver/Src/stm32f0xx_hal_pcd.c ****         ep = &hpcd->IN_ep[0];
 1545              		.loc 1 1686 9 view .LVU401
ARM GAS  /tmp/ccd7InD5.s 			page 59


 1546              	.LVL128:
1687:Drivers/STM32F0xx_HAL_Driver/Src/stm32f0xx_hal_pcd.c **** 
1688:Drivers/STM32F0xx_HAL_Driver/Src/stm32f0xx_hal_pcd.c ****         ep->xfer_count = PCD_GET_EP_TX_CNT(hpcd->Instance, ep->num);
 1547              		.loc 1 1688 9 view .LVU402
 1548              		.loc 1 1688 26 is_stmt 0 view .LVU403
 1549 0018 2168     		ldr	r1, [r4]
 1550 001a 5023     		movs	r3, #80
 1551 001c CB5A     		ldrh	r3, [r1, r3]
 1552 001e 2822     		movs	r2, #40
 1553              	.LVL129:
 1554              		.loc 1 1688 26 view .LVU404
 1555 0020 A25C     		ldrb	r2, [r4, r2]
 1556 0022 D200     		lsls	r2, r2, #3
 1557 0024 9B18     		adds	r3, r3, r2
 1558 0026 5B18     		adds	r3, r3, r1
 1559 0028 CE4A     		ldr	r2, .L98+8
 1560 002a 9446     		mov	ip, r2
 1561 002c 6344     		add	r3, r3, ip
 1562 002e 1B88     		ldrh	r3, [r3]
 1563 0030 9B05     		lsls	r3, r3, #22
 1564 0032 9B0D     		lsrs	r3, r3, #22
 1565              		.loc 1 1688 24 view .LVU405
 1566 0034 6364     		str	r3, [r4, #68]
1689:Drivers/STM32F0xx_HAL_Driver/Src/stm32f0xx_hal_pcd.c ****         ep->xfer_buff += ep->xfer_count;
 1567              		.loc 1 1689 9 is_stmt 1 view .LVU406
 1568              		.loc 1 1689 23 is_stmt 0 view .LVU407
 1569 0036 E26B     		ldr	r2, [r4, #60]
 1570 0038 D318     		adds	r3, r2, r3
 1571 003a E363     		str	r3, [r4, #60]
1690:Drivers/STM32F0xx_HAL_Driver/Src/stm32f0xx_hal_pcd.c **** 
1691:Drivers/STM32F0xx_HAL_Driver/Src/stm32f0xx_hal_pcd.c ****         /* TX COMPLETE */
1692:Drivers/STM32F0xx_HAL_Driver/Src/stm32f0xx_hal_pcd.c **** #if (USE_HAL_PCD_REGISTER_CALLBACKS == 1U)
1693:Drivers/STM32F0xx_HAL_Driver/Src/stm32f0xx_hal_pcd.c ****         hpcd->DataInStageCallback(hpcd, 0U);
1694:Drivers/STM32F0xx_HAL_Driver/Src/stm32f0xx_hal_pcd.c **** #else
1695:Drivers/STM32F0xx_HAL_Driver/Src/stm32f0xx_hal_pcd.c ****         HAL_PCD_DataInStageCallback(hpcd, 0U);
 1572              		.loc 1 1695 9 is_stmt 1 view .LVU408
 1573 003c 0021     		movs	r1, #0
 1574 003e 2000     		movs	r0, r4
 1575 0040 FFF7FEFF 		bl	HAL_PCD_DataInStageCallback
 1576              	.LVL130:
1696:Drivers/STM32F0xx_HAL_Driver/Src/stm32f0xx_hal_pcd.c **** #endif /* USE_HAL_PCD_REGISTER_CALLBACKS */
1697:Drivers/STM32F0xx_HAL_Driver/Src/stm32f0xx_hal_pcd.c **** 
1698:Drivers/STM32F0xx_HAL_Driver/Src/stm32f0xx_hal_pcd.c ****         if ((hpcd->USB_Address > 0U) && (ep->xfer_len == 0U))
 1577              		.loc 1 1698 9 view .LVU409
 1578              		.loc 1 1698 18 is_stmt 0 view .LVU410
 1579 0044 2423     		movs	r3, #36
 1580 0046 E35C     		ldrb	r3, [r4, r3]
 1581              		.loc 1 1698 12 view .LVU411
 1582 0048 002B     		cmp	r3, #0
 1583 004a 77D0     		beq	.L70
 1584              		.loc 1 1698 44 discriminator 1 view .LVU412
 1585 004c 236C     		ldr	r3, [r4, #64]
 1586              		.loc 1 1698 38 discriminator 1 view .LVU413
 1587 004e 002B     		cmp	r3, #0
 1588 0050 74D1     		bne	.L70
1699:Drivers/STM32F0xx_HAL_Driver/Src/stm32f0xx_hal_pcd.c ****         {
1700:Drivers/STM32F0xx_HAL_Driver/Src/stm32f0xx_hal_pcd.c ****           hpcd->Instance->DADDR = ((uint16_t)hpcd->USB_Address | USB_DADDR_EF);
ARM GAS  /tmp/ccd7InD5.s 			page 60


 1589              		.loc 1 1700 11 is_stmt 1 view .LVU414
 1590              		.loc 1 1700 50 is_stmt 0 view .LVU415
 1591 0052 2422     		movs	r2, #36
 1592 0054 A35C     		ldrb	r3, [r4, r2]
 1593              		.loc 1 1700 15 view .LVU416
 1594 0056 2068     		ldr	r0, [r4]
 1595              		.loc 1 1700 33 view .LVU417
 1596 0058 8021     		movs	r1, #128
 1597 005a 4942     		rsbs	r1, r1, #0
 1598 005c 0B43     		orrs	r3, r1
 1599 005e DBB2     		uxtb	r3, r3
 1600 0060 CC31     		adds	r1, r1, #204
 1601 0062 4352     		strh	r3, [r0, r1]
1701:Drivers/STM32F0xx_HAL_Driver/Src/stm32f0xx_hal_pcd.c ****           hpcd->USB_Address = 0U;
 1602              		.loc 1 1701 11 is_stmt 1 view .LVU418
 1603              		.loc 1 1701 29 is_stmt 0 view .LVU419
 1604 0064 0023     		movs	r3, #0
 1605 0066 A354     		strb	r3, [r4, r2]
 1606 0068 68E0     		b	.L70
 1607              	.LVL131:
 1608              	.L96:
1702:Drivers/STM32F0xx_HAL_Driver/Src/stm32f0xx_hal_pcd.c ****         }
1703:Drivers/STM32F0xx_HAL_Driver/Src/stm32f0xx_hal_pcd.c ****       }
1704:Drivers/STM32F0xx_HAL_Driver/Src/stm32f0xx_hal_pcd.c ****       else
1705:Drivers/STM32F0xx_HAL_Driver/Src/stm32f0xx_hal_pcd.c ****       {
1706:Drivers/STM32F0xx_HAL_Driver/Src/stm32f0xx_hal_pcd.c ****         /* DIR = 1 */
1707:Drivers/STM32F0xx_HAL_Driver/Src/stm32f0xx_hal_pcd.c **** 
1708:Drivers/STM32F0xx_HAL_Driver/Src/stm32f0xx_hal_pcd.c ****         /* DIR = 1 & CTR_RX       => SETUP or OUT int */
1709:Drivers/STM32F0xx_HAL_Driver/Src/stm32f0xx_hal_pcd.c ****         /* DIR = 1 & (CTR_TX | CTR_RX) => 2 int pending */
1710:Drivers/STM32F0xx_HAL_Driver/Src/stm32f0xx_hal_pcd.c ****         ep = &hpcd->OUT_ep[0];
1711:Drivers/STM32F0xx_HAL_Driver/Src/stm32f0xx_hal_pcd.c ****         wEPVal = PCD_GET_ENDPOINT(hpcd->Instance, PCD_ENDP0);
1712:Drivers/STM32F0xx_HAL_Driver/Src/stm32f0xx_hal_pcd.c **** 
1713:Drivers/STM32F0xx_HAL_Driver/Src/stm32f0xx_hal_pcd.c ****         if ((wEPVal & USB_EP_SETUP) != 0U)
1714:Drivers/STM32F0xx_HAL_Driver/Src/stm32f0xx_hal_pcd.c ****         {
1715:Drivers/STM32F0xx_HAL_Driver/Src/stm32f0xx_hal_pcd.c ****           /* Get SETUP Packet*/
1716:Drivers/STM32F0xx_HAL_Driver/Src/stm32f0xx_hal_pcd.c ****           ep->xfer_count = PCD_GET_EP_RX_CNT(hpcd->Instance, ep->num);
 1609              		.loc 1 1716 11 is_stmt 1 view .LVU420
 1610              		.loc 1 1716 28 is_stmt 0 view .LVU421
 1611 006a 5023     		movs	r3, #80
 1612 006c C35A     		ldrh	r3, [r0, r3]
 1613 006e 9422     		movs	r2, #148
 1614              	.LVL132:
 1615              		.loc 1 1716 28 view .LVU422
 1616 0070 5200     		lsls	r2, r2, #1
 1617 0072 A25C     		ldrb	r2, [r4, r2]
 1618 0074 D200     		lsls	r2, r2, #3
 1619 0076 9B18     		adds	r3, r3, r2
 1620 0078 1B18     		adds	r3, r3, r0
 1621 007a BB4A     		ldr	r2, .L98+12
 1622 007c 9446     		mov	ip, r2
 1623 007e 6344     		add	r3, r3, ip
 1624 0080 1B88     		ldrh	r3, [r3]
 1625 0082 9B05     		lsls	r3, r3, #22
 1626 0084 9B0D     		lsrs	r3, r3, #22
 1627              		.loc 1 1716 26 view .LVU423
 1628 0086 2200     		movs	r2, r4
 1629 0088 2932     		adds	r2, r2, #41
ARM GAS  /tmp/ccd7InD5.s 			page 61


 1630 008a FF32     		adds	r2, r2, #255
 1631 008c D361     		str	r3, [r2, #28]
1717:Drivers/STM32F0xx_HAL_Driver/Src/stm32f0xx_hal_pcd.c **** 
1718:Drivers/STM32F0xx_HAL_Driver/Src/stm32f0xx_hal_pcd.c ****           USB_ReadPMA(hpcd->Instance, (uint8_t *)hpcd->Setup,
 1632              		.loc 1 1718 11 is_stmt 1 view .LVU424
 1633              		.loc 1 1718 50 is_stmt 0 view .LVU425
 1634 008e 8C21     		movs	r1, #140
 1635 0090 8900     		lsls	r1, r1, #2
 1636 0092 6118     		adds	r1, r4, r1
 1637              		.loc 1 1718 11 view .LVU426
 1638 0094 D288     		ldrh	r2, [r2, #6]
 1639 0096 FFF7FEFF 		bl	USB_ReadPMA
 1640              	.LVL133:
1719:Drivers/STM32F0xx_HAL_Driver/Src/stm32f0xx_hal_pcd.c ****                       ep->pmaadress, (uint16_t)ep->xfer_count);
1720:Drivers/STM32F0xx_HAL_Driver/Src/stm32f0xx_hal_pcd.c **** 
1721:Drivers/STM32F0xx_HAL_Driver/Src/stm32f0xx_hal_pcd.c ****           /* SETUP bit kept frozen while CTR_RX = 1*/
1722:Drivers/STM32F0xx_HAL_Driver/Src/stm32f0xx_hal_pcd.c ****           PCD_CLEAR_RX_EP_CTR(hpcd->Instance, PCD_ENDP0);
 1641              		.loc 1 1722 11 is_stmt 1 view .LVU427
 1642              	.LBB3:
 1643              		.loc 1 1722 11 view .LVU428
 1644              		.loc 1 1722 11 view .LVU429
 1645 009a 2268     		ldr	r2, [r4]
 1646 009c 1388     		ldrh	r3, [r2]
 1647 009e B349     		ldr	r1, .L98+16
 1648 00a0 0B40     		ands	r3, r1
 1649              	.LVL134:
 1650              		.loc 1 1722 11 view .LVU430
 1651 00a2 8021     		movs	r1, #128
 1652 00a4 0B43     		orrs	r3, r1
 1653              	.LVL135:
 1654              		.loc 1 1722 11 is_stmt 0 view .LVU431
 1655 00a6 9BB2     		uxth	r3, r3
 1656 00a8 1380     		strh	r3, [r2]
 1657              	.LBE3:
 1658              		.loc 1 1722 11 is_stmt 1 view .LVU432
1723:Drivers/STM32F0xx_HAL_Driver/Src/stm32f0xx_hal_pcd.c **** 
1724:Drivers/STM32F0xx_HAL_Driver/Src/stm32f0xx_hal_pcd.c ****           /* Process SETUP Packet*/
1725:Drivers/STM32F0xx_HAL_Driver/Src/stm32f0xx_hal_pcd.c **** #if (USE_HAL_PCD_REGISTER_CALLBACKS == 1U)
1726:Drivers/STM32F0xx_HAL_Driver/Src/stm32f0xx_hal_pcd.c ****           hpcd->SetupStageCallback(hpcd);
1727:Drivers/STM32F0xx_HAL_Driver/Src/stm32f0xx_hal_pcd.c **** #else
1728:Drivers/STM32F0xx_HAL_Driver/Src/stm32f0xx_hal_pcd.c ****           HAL_PCD_SetupStageCallback(hpcd);
 1659              		.loc 1 1728 11 view .LVU433
 1660 00aa 2000     		movs	r0, r4
 1661 00ac FFF7FEFF 		bl	HAL_PCD_SetupStageCallback
 1662              	.LVL136:
 1663 00b0 44E0     		b	.L70
 1664              	.LVL137:
 1665              	.L76:
 1666              	.LBB4:
 1667              	.LBB5:
1729:Drivers/STM32F0xx_HAL_Driver/Src/stm32f0xx_hal_pcd.c **** #endif /* USE_HAL_PCD_REGISTER_CALLBACKS */
1730:Drivers/STM32F0xx_HAL_Driver/Src/stm32f0xx_hal_pcd.c ****         }
1731:Drivers/STM32F0xx_HAL_Driver/Src/stm32f0xx_hal_pcd.c **** 
1732:Drivers/STM32F0xx_HAL_Driver/Src/stm32f0xx_hal_pcd.c ****         else if ((wEPVal & USB_EP_CTR_RX) != 0U)
1733:Drivers/STM32F0xx_HAL_Driver/Src/stm32f0xx_hal_pcd.c ****         {
1734:Drivers/STM32F0xx_HAL_Driver/Src/stm32f0xx_hal_pcd.c ****           PCD_CLEAR_RX_EP_CTR(hpcd->Instance, PCD_ENDP0);
1735:Drivers/STM32F0xx_HAL_Driver/Src/stm32f0xx_hal_pcd.c **** 
ARM GAS  /tmp/ccd7InD5.s 			page 62


1736:Drivers/STM32F0xx_HAL_Driver/Src/stm32f0xx_hal_pcd.c ****           /* Get Control Data OUT Packet*/
1737:Drivers/STM32F0xx_HAL_Driver/Src/stm32f0xx_hal_pcd.c ****           ep->xfer_count = PCD_GET_EP_RX_CNT(hpcd->Instance, ep->num);
1738:Drivers/STM32F0xx_HAL_Driver/Src/stm32f0xx_hal_pcd.c **** 
1739:Drivers/STM32F0xx_HAL_Driver/Src/stm32f0xx_hal_pcd.c ****           if ((ep->xfer_count != 0U) && (ep->xfer_buff != 0U))
1740:Drivers/STM32F0xx_HAL_Driver/Src/stm32f0xx_hal_pcd.c ****           {
1741:Drivers/STM32F0xx_HAL_Driver/Src/stm32f0xx_hal_pcd.c ****             USB_ReadPMA(hpcd->Instance, ep->xfer_buff,
1742:Drivers/STM32F0xx_HAL_Driver/Src/stm32f0xx_hal_pcd.c ****                         ep->pmaadress, (uint16_t)ep->xfer_count);
1743:Drivers/STM32F0xx_HAL_Driver/Src/stm32f0xx_hal_pcd.c **** 
1744:Drivers/STM32F0xx_HAL_Driver/Src/stm32f0xx_hal_pcd.c ****             ep->xfer_buff += ep->xfer_count;
1745:Drivers/STM32F0xx_HAL_Driver/Src/stm32f0xx_hal_pcd.c **** 
1746:Drivers/STM32F0xx_HAL_Driver/Src/stm32f0xx_hal_pcd.c ****             /* Process Control Data OUT Packet*/
1747:Drivers/STM32F0xx_HAL_Driver/Src/stm32f0xx_hal_pcd.c **** #if (USE_HAL_PCD_REGISTER_CALLBACKS == 1U)
1748:Drivers/STM32F0xx_HAL_Driver/Src/stm32f0xx_hal_pcd.c ****             hpcd->DataOutStageCallback(hpcd, 0U);
1749:Drivers/STM32F0xx_HAL_Driver/Src/stm32f0xx_hal_pcd.c **** #else
1750:Drivers/STM32F0xx_HAL_Driver/Src/stm32f0xx_hal_pcd.c ****             HAL_PCD_DataOutStageCallback(hpcd, 0U);
1751:Drivers/STM32F0xx_HAL_Driver/Src/stm32f0xx_hal_pcd.c **** #endif /* USE_HAL_PCD_REGISTER_CALLBACKS */
1752:Drivers/STM32F0xx_HAL_Driver/Src/stm32f0xx_hal_pcd.c ****           }
1753:Drivers/STM32F0xx_HAL_Driver/Src/stm32f0xx_hal_pcd.c **** 
1754:Drivers/STM32F0xx_HAL_Driver/Src/stm32f0xx_hal_pcd.c ****           PCD_SET_EP_RX_CNT(hpcd->Instance, PCD_ENDP0, ep->maxpacket);
 1668              		.loc 1 1754 11 discriminator 2 view .LVU434
 1669 00b2 3E2A     		cmp	r2, #62
 1670 00b4 06D8     		bhi	.L78
 1671              		.loc 1 1754 11 discriminator 4 view .LVU435
 1672              		.loc 1 1754 11 discriminator 4 view .LVU436
 1673 00b6 5108     		lsrs	r1, r2, #1
 1674              	.LVL138:
 1675              		.loc 1 1754 11 discriminator 4 view .LVU437
 1676 00b8 D207     		lsls	r2, r2, #31
 1677 00ba 00D5     		bpl	.L79
 1678              		.loc 1 1754 11 discriminator 6 view .LVU438
 1679 00bc 0131     		adds	r1, r1, #1
 1680              	.LVL139:
 1681              	.L79:
 1682              		.loc 1 1754 11 discriminator 8 view .LVU439
 1683 00be 8902     		lsls	r1, r1, #10
 1684              	.LVL140:
 1685              		.loc 1 1754 11 is_stmt 0 discriminator 8 view .LVU440
 1686 00c0 1980     		strh	r1, [r3]
 1687              		.loc 1 1754 11 is_stmt 1 discriminator 8 view .LVU441
 1688 00c2 95E0     		b	.L77
 1689              	.L78:
 1690              		.loc 1 1754 11 discriminator 5 view .LVU442
 1691              		.loc 1 1754 11 discriminator 5 view .LVU443
 1692 00c4 5109     		lsrs	r1, r2, #5
 1693              	.LVL141:
 1694              		.loc 1 1754 11 discriminator 5 view .LVU444
 1695 00c6 D206     		lsls	r2, r2, #27
 1696 00c8 00D1     		bne	.L80
 1697              		.loc 1 1754 11 discriminator 10 view .LVU445
 1698 00ca 0139     		subs	r1, r1, #1
 1699              	.LVL142:
 1700              	.L80:
 1701              		.loc 1 1754 11 discriminator 12 view .LVU446
 1702 00cc 8902     		lsls	r1, r1, #10
 1703              	.LVL143:
 1704              		.loc 1 1754 11 is_stmt 0 discriminator 12 view .LVU447
 1705 00ce 89B2     		uxth	r1, r1
ARM GAS  /tmp/ccd7InD5.s 			page 63


 1706 00d0 A34A     		ldr	r2, .L98+4
 1707 00d2 0A43     		orrs	r2, r1
 1708 00d4 1A80     		strh	r2, [r3]
 1709 00d6 8BE0     		b	.L77
 1710              	.LVL144:
 1711              	.L71:
 1712              		.loc 1 1754 11 discriminator 12 view .LVU448
 1713              	.LBE5:
 1714              	.LBE4:
1755:Drivers/STM32F0xx_HAL_Driver/Src/stm32f0xx_hal_pcd.c ****           PCD_SET_EP_RX_STATUS(hpcd->Instance, PCD_ENDP0, USB_EP_RX_VALID);
1756:Drivers/STM32F0xx_HAL_Driver/Src/stm32f0xx_hal_pcd.c ****         }
1757:Drivers/STM32F0xx_HAL_Driver/Src/stm32f0xx_hal_pcd.c ****       }
1758:Drivers/STM32F0xx_HAL_Driver/Src/stm32f0xx_hal_pcd.c ****     }
1759:Drivers/STM32F0xx_HAL_Driver/Src/stm32f0xx_hal_pcd.c ****     else
1760:Drivers/STM32F0xx_HAL_Driver/Src/stm32f0xx_hal_pcd.c ****     {
1761:Drivers/STM32F0xx_HAL_Driver/Src/stm32f0xx_hal_pcd.c ****       /* Decode and service non control endpoints interrupt  */
1762:Drivers/STM32F0xx_HAL_Driver/Src/stm32f0xx_hal_pcd.c **** 
1763:Drivers/STM32F0xx_HAL_Driver/Src/stm32f0xx_hal_pcd.c ****       /* process related endpoint register */
1764:Drivers/STM32F0xx_HAL_Driver/Src/stm32f0xx_hal_pcd.c ****       wEPVal = PCD_GET_ENDPOINT(hpcd->Instance, epindex);
 1715              		.loc 1 1764 7 is_stmt 1 view .LVU449
 1716              		.loc 1 1764 16 is_stmt 0 view .LVU450
 1717 00d8 AE00     		lsls	r6, r5, #2
 1718 00da 8019     		adds	r0, r0, r6
 1719              		.loc 1 1764 14 view .LVU451
 1720 00dc 0388     		ldrh	r3, [r0]
 1721 00de 9FB2     		uxth	r7, r3
 1722              	.LVL145:
1765:Drivers/STM32F0xx_HAL_Driver/Src/stm32f0xx_hal_pcd.c ****       if ((wEPVal & USB_EP_CTR_RX) != 0U)
 1723              		.loc 1 1765 7 is_stmt 1 view .LVU452
 1724              		.loc 1 1765 36 is_stmt 0 view .LVU453
 1725 00e0 1BB2     		sxth	r3, r3
 1726              		.loc 1 1765 10 view .LVU454
 1727 00e2 002B     		cmp	r3, #0
 1728 00e4 00DA     		bge	.LCB1437
 1729 00e6 8FE0     		b	.L93	@long jump
 1730              	.LCB1437:
 1731              	.LVL146:
 1732              	.L81:
1766:Drivers/STM32F0xx_HAL_Driver/Src/stm32f0xx_hal_pcd.c ****       {
1767:Drivers/STM32F0xx_HAL_Driver/Src/stm32f0xx_hal_pcd.c ****         /* clear int flag */
1768:Drivers/STM32F0xx_HAL_Driver/Src/stm32f0xx_hal_pcd.c ****         PCD_CLEAR_RX_EP_CTR(hpcd->Instance, epindex);
1769:Drivers/STM32F0xx_HAL_Driver/Src/stm32f0xx_hal_pcd.c ****         ep = &hpcd->OUT_ep[epindex];
1770:Drivers/STM32F0xx_HAL_Driver/Src/stm32f0xx_hal_pcd.c **** 
1771:Drivers/STM32F0xx_HAL_Driver/Src/stm32f0xx_hal_pcd.c ****         /* OUT double Buffering*/
1772:Drivers/STM32F0xx_HAL_Driver/Src/stm32f0xx_hal_pcd.c ****         if (ep->doublebuffer == 0U)
1773:Drivers/STM32F0xx_HAL_Driver/Src/stm32f0xx_hal_pcd.c ****         {
1774:Drivers/STM32F0xx_HAL_Driver/Src/stm32f0xx_hal_pcd.c ****           count = (uint16_t)PCD_GET_EP_RX_CNT(hpcd->Instance, ep->num);
1775:Drivers/STM32F0xx_HAL_Driver/Src/stm32f0xx_hal_pcd.c ****           if (count != 0U)
1776:Drivers/STM32F0xx_HAL_Driver/Src/stm32f0xx_hal_pcd.c ****           {
1777:Drivers/STM32F0xx_HAL_Driver/Src/stm32f0xx_hal_pcd.c ****             USB_ReadPMA(hpcd->Instance, ep->xfer_buff, ep->pmaadress, count);
1778:Drivers/STM32F0xx_HAL_Driver/Src/stm32f0xx_hal_pcd.c ****           }
1779:Drivers/STM32F0xx_HAL_Driver/Src/stm32f0xx_hal_pcd.c ****         }
1780:Drivers/STM32F0xx_HAL_Driver/Src/stm32f0xx_hal_pcd.c ****         else
1781:Drivers/STM32F0xx_HAL_Driver/Src/stm32f0xx_hal_pcd.c ****         {
1782:Drivers/STM32F0xx_HAL_Driver/Src/stm32f0xx_hal_pcd.c ****           if ((PCD_GET_ENDPOINT(hpcd->Instance, ep->num) & USB_EP_DTOG_RX) != 0U)
1783:Drivers/STM32F0xx_HAL_Driver/Src/stm32f0xx_hal_pcd.c ****           {
1784:Drivers/STM32F0xx_HAL_Driver/Src/stm32f0xx_hal_pcd.c ****             /*read from endpoint BUF0Addr buffer*/
ARM GAS  /tmp/ccd7InD5.s 			page 64


1785:Drivers/STM32F0xx_HAL_Driver/Src/stm32f0xx_hal_pcd.c ****             count = (uint16_t)PCD_GET_EP_DBUF0_CNT(hpcd->Instance, ep->num);
1786:Drivers/STM32F0xx_HAL_Driver/Src/stm32f0xx_hal_pcd.c ****             if (count != 0U)
1787:Drivers/STM32F0xx_HAL_Driver/Src/stm32f0xx_hal_pcd.c ****             {
1788:Drivers/STM32F0xx_HAL_Driver/Src/stm32f0xx_hal_pcd.c ****               USB_ReadPMA(hpcd->Instance, ep->xfer_buff, ep->pmaaddr0, count);
1789:Drivers/STM32F0xx_HAL_Driver/Src/stm32f0xx_hal_pcd.c ****             }
1790:Drivers/STM32F0xx_HAL_Driver/Src/stm32f0xx_hal_pcd.c ****           }
1791:Drivers/STM32F0xx_HAL_Driver/Src/stm32f0xx_hal_pcd.c ****           else
1792:Drivers/STM32F0xx_HAL_Driver/Src/stm32f0xx_hal_pcd.c ****           {
1793:Drivers/STM32F0xx_HAL_Driver/Src/stm32f0xx_hal_pcd.c ****             /*read from endpoint BUF1Addr buffer*/
1794:Drivers/STM32F0xx_HAL_Driver/Src/stm32f0xx_hal_pcd.c ****             count = (uint16_t)PCD_GET_EP_DBUF1_CNT(hpcd->Instance, ep->num);
1795:Drivers/STM32F0xx_HAL_Driver/Src/stm32f0xx_hal_pcd.c ****             if (count != 0U)
1796:Drivers/STM32F0xx_HAL_Driver/Src/stm32f0xx_hal_pcd.c ****             {
1797:Drivers/STM32F0xx_HAL_Driver/Src/stm32f0xx_hal_pcd.c ****               USB_ReadPMA(hpcd->Instance, ep->xfer_buff, ep->pmaaddr1, count);
1798:Drivers/STM32F0xx_HAL_Driver/Src/stm32f0xx_hal_pcd.c ****             }
1799:Drivers/STM32F0xx_HAL_Driver/Src/stm32f0xx_hal_pcd.c ****           }
1800:Drivers/STM32F0xx_HAL_Driver/Src/stm32f0xx_hal_pcd.c ****           /* free EP OUT Buffer */
1801:Drivers/STM32F0xx_HAL_Driver/Src/stm32f0xx_hal_pcd.c ****           PCD_FreeUserBuffer(hpcd->Instance, ep->num, 0U);
1802:Drivers/STM32F0xx_HAL_Driver/Src/stm32f0xx_hal_pcd.c ****         }
1803:Drivers/STM32F0xx_HAL_Driver/Src/stm32f0xx_hal_pcd.c ****         /*multi-packet on the NON control OUT endpoint*/
1804:Drivers/STM32F0xx_HAL_Driver/Src/stm32f0xx_hal_pcd.c ****         ep->xfer_count += count;
1805:Drivers/STM32F0xx_HAL_Driver/Src/stm32f0xx_hal_pcd.c ****         ep->xfer_buff += count;
1806:Drivers/STM32F0xx_HAL_Driver/Src/stm32f0xx_hal_pcd.c **** 
1807:Drivers/STM32F0xx_HAL_Driver/Src/stm32f0xx_hal_pcd.c ****         if ((ep->xfer_len == 0U) || (count < ep->maxpacket))
1808:Drivers/STM32F0xx_HAL_Driver/Src/stm32f0xx_hal_pcd.c ****         {
1809:Drivers/STM32F0xx_HAL_Driver/Src/stm32f0xx_hal_pcd.c ****           /* RX COMPLETE */
1810:Drivers/STM32F0xx_HAL_Driver/Src/stm32f0xx_hal_pcd.c **** #if (USE_HAL_PCD_REGISTER_CALLBACKS == 1U)
1811:Drivers/STM32F0xx_HAL_Driver/Src/stm32f0xx_hal_pcd.c ****           hpcd->DataOutStageCallback(hpcd, ep->num);
1812:Drivers/STM32F0xx_HAL_Driver/Src/stm32f0xx_hal_pcd.c **** #else
1813:Drivers/STM32F0xx_HAL_Driver/Src/stm32f0xx_hal_pcd.c ****           HAL_PCD_DataOutStageCallback(hpcd, ep->num);
1814:Drivers/STM32F0xx_HAL_Driver/Src/stm32f0xx_hal_pcd.c **** #endif /* USE_HAL_PCD_REGISTER_CALLBACKS */
1815:Drivers/STM32F0xx_HAL_Driver/Src/stm32f0xx_hal_pcd.c ****         }
1816:Drivers/STM32F0xx_HAL_Driver/Src/stm32f0xx_hal_pcd.c ****         else
1817:Drivers/STM32F0xx_HAL_Driver/Src/stm32f0xx_hal_pcd.c ****         {
1818:Drivers/STM32F0xx_HAL_Driver/Src/stm32f0xx_hal_pcd.c ****           (void)HAL_PCD_EP_Receive(hpcd, ep->num, ep->xfer_buff, ep->xfer_len);
1819:Drivers/STM32F0xx_HAL_Driver/Src/stm32f0xx_hal_pcd.c ****         }
1820:Drivers/STM32F0xx_HAL_Driver/Src/stm32f0xx_hal_pcd.c **** 
1821:Drivers/STM32F0xx_HAL_Driver/Src/stm32f0xx_hal_pcd.c ****       } /* if((wEPVal & EP_CTR_RX) */
1822:Drivers/STM32F0xx_HAL_Driver/Src/stm32f0xx_hal_pcd.c **** 
1823:Drivers/STM32F0xx_HAL_Driver/Src/stm32f0xx_hal_pcd.c ****       if ((wEPVal & USB_EP_CTR_TX) != 0U)
 1733              		.loc 1 1823 7 is_stmt 1 view .LVU455
 1734              		.loc 1 1823 10 is_stmt 0 view .LVU456
 1735 00e8 3F06     		lsls	r7, r7, #24
 1736 00ea 27D5     		bpl	.L70
 1737              	.LVL147:
1824:Drivers/STM32F0xx_HAL_Driver/Src/stm32f0xx_hal_pcd.c ****       {
1825:Drivers/STM32F0xx_HAL_Driver/Src/stm32f0xx_hal_pcd.c ****         ep = &hpcd->IN_ep[epindex];
 1738              		.loc 1 1825 9 is_stmt 1 view .LVU457
1826:Drivers/STM32F0xx_HAL_Driver/Src/stm32f0xx_hal_pcd.c **** 
1827:Drivers/STM32F0xx_HAL_Driver/Src/stm32f0xx_hal_pcd.c ****         /* clear int flag */
1828:Drivers/STM32F0xx_HAL_Driver/Src/stm32f0xx_hal_pcd.c ****         PCD_CLEAR_TX_EP_CTR(hpcd->Instance, epindex);
 1739              		.loc 1 1828 9 view .LVU458
 1740              	.LBB7:
 1741              		.loc 1 1828 9 view .LVU459
 1742              		.loc 1 1828 9 view .LVU460
 1743 00ec 2268     		ldr	r2, [r4]
 1744 00ee 9219     		adds	r2, r2, r6
 1745 00f0 1188     		ldrh	r1, [r2]
ARM GAS  /tmp/ccd7InD5.s 			page 65


 1746 00f2 9A4B     		ldr	r3, .L98
 1747 00f4 1940     		ands	r1, r3
 1748              	.LVL148:
 1749              		.loc 1 1828 9 view .LVU461
 1750 00f6 9A4B     		ldr	r3, .L98+4
 1751 00f8 0B43     		orrs	r3, r1
 1752 00fa 9BB2     		uxth	r3, r3
 1753 00fc 1380     		strh	r3, [r2]
 1754              	.LBE7:
 1755              		.loc 1 1828 9 view .LVU462
1829:Drivers/STM32F0xx_HAL_Driver/Src/stm32f0xx_hal_pcd.c **** 
1830:Drivers/STM32F0xx_HAL_Driver/Src/stm32f0xx_hal_pcd.c ****         /*multi-packet on the NON control IN endpoint*/
1831:Drivers/STM32F0xx_HAL_Driver/Src/stm32f0xx_hal_pcd.c ****         ep->xfer_count = PCD_GET_EP_TX_CNT(hpcd->Instance, ep->num);
 1756              		.loc 1 1831 9 view .LVU463
 1757              		.loc 1 1831 26 is_stmt 0 view .LVU464
 1758 00fe 2268     		ldr	r2, [r4]
 1759 0100 5023     		movs	r3, #80
 1760 0102 D35A     		ldrh	r3, [r2, r3]
 1761 0104 6801     		lsls	r0, r5, #5
 1762 0106 2018     		adds	r0, r4, r0
 1763 0108 0100     		movs	r1, r0
 1764              	.LVL149:
 1765              		.loc 1 1831 26 view .LVU465
 1766 010a 2831     		adds	r1, r1, #40
 1767              	.LVL150:
 1768              		.loc 1 1831 26 view .LVU466
 1769 010c 0978     		ldrb	r1, [r1]
 1770              	.LVL151:
 1771              		.loc 1 1831 26 view .LVU467
 1772 010e CE00     		lsls	r6, r1, #3
 1773 0110 9B19     		adds	r3, r3, r6
 1774 0112 9B18     		adds	r3, r3, r2
 1775 0114 934A     		ldr	r2, .L98+8
 1776 0116 9446     		mov	ip, r2
 1777 0118 6344     		add	r3, r3, ip
 1778 011a 1B88     		ldrh	r3, [r3]
 1779 011c 9B05     		lsls	r3, r3, #22
 1780 011e 9B0D     		lsrs	r3, r3, #22
 1781              		.loc 1 1831 24 view .LVU468
 1782 0120 0235     		adds	r5, r5, #2
 1783              	.LVL152:
 1784              		.loc 1 1831 24 view .LVU469
 1785 0122 6D01     		lsls	r5, r5, #5
 1786              	.LVL153:
 1787              		.loc 1 1831 24 view .LVU470
 1788 0124 6219     		adds	r2, r4, r5
 1789 0126 5360     		str	r3, [r2, #4]
1832:Drivers/STM32F0xx_HAL_Driver/Src/stm32f0xx_hal_pcd.c ****         ep->xfer_buff += ep->xfer_count;
 1790              		.loc 1 1832 9 is_stmt 1 view .LVU471
 1791              		.loc 1 1832 23 is_stmt 0 view .LVU472
 1792 0128 C26B     		ldr	r2, [r0, #60]
 1793 012a D218     		adds	r2, r2, r3
 1794 012c C263     		str	r2, [r0, #60]
1833:Drivers/STM32F0xx_HAL_Driver/Src/stm32f0xx_hal_pcd.c **** 
1834:Drivers/STM32F0xx_HAL_Driver/Src/stm32f0xx_hal_pcd.c ****         /* Zero Length Packet? */
1835:Drivers/STM32F0xx_HAL_Driver/Src/stm32f0xx_hal_pcd.c ****         if (ep->xfer_len == 0U)
 1795              		.loc 1 1835 9 is_stmt 1 view .LVU473
ARM GAS  /tmp/ccd7InD5.s 			page 66


 1796              		.loc 1 1835 15 is_stmt 0 view .LVU474
 1797 012e 2B59     		ldr	r3, [r5, r4]
 1798              		.loc 1 1835 12 view .LVU475
 1799 0130 002B     		cmp	r3, #0
 1800 0132 00D0     		beq	.LCB1506
 1801 0134 26E1     		b	.L88	@long jump
 1802              	.LCB1506:
1836:Drivers/STM32F0xx_HAL_Driver/Src/stm32f0xx_hal_pcd.c ****         {
1837:Drivers/STM32F0xx_HAL_Driver/Src/stm32f0xx_hal_pcd.c ****           /* TX COMPLETE */
1838:Drivers/STM32F0xx_HAL_Driver/Src/stm32f0xx_hal_pcd.c **** #if (USE_HAL_PCD_REGISTER_CALLBACKS == 1U)
1839:Drivers/STM32F0xx_HAL_Driver/Src/stm32f0xx_hal_pcd.c ****           hpcd->DataInStageCallback(hpcd, ep->num);
1840:Drivers/STM32F0xx_HAL_Driver/Src/stm32f0xx_hal_pcd.c **** #else
1841:Drivers/STM32F0xx_HAL_Driver/Src/stm32f0xx_hal_pcd.c ****           HAL_PCD_DataInStageCallback(hpcd, ep->num);
 1803              		.loc 1 1841 11 is_stmt 1 view .LVU476
 1804 0136 2000     		movs	r0, r4
 1805 0138 FFF7FEFF 		bl	HAL_PCD_DataInStageCallback
 1806              	.LVL154:
 1807              	.L70:
1668:Drivers/STM32F0xx_HAL_Driver/Src/stm32f0xx_hal_pcd.c ****   {
 1808              		.loc 1 1668 48 view .LVU477
1668:Drivers/STM32F0xx_HAL_Driver/Src/stm32f0xx_hal_pcd.c ****   {
 1809              		.loc 1 1668 15 is_stmt 0 view .LVU478
 1810 013c 2068     		ldr	r0, [r4]
1668:Drivers/STM32F0xx_HAL_Driver/Src/stm32f0xx_hal_pcd.c ****   {
 1811              		.loc 1 1668 25 view .LVU479
 1812 013e 4423     		movs	r3, #68
 1813 0140 C35A     		ldrh	r3, [r0, r3]
1668:Drivers/STM32F0xx_HAL_Driver/Src/stm32f0xx_hal_pcd.c ****   {
 1814              		.loc 1 1668 48 view .LVU480
 1815 0142 1BB2     		sxth	r3, r3
 1816 0144 002B     		cmp	r3, #0
 1817 0146 00DB     		blt	.LCB1525
 1818 0148 20E1     		b	.L94	@long jump
 1819              	.LCB1525:
1670:Drivers/STM32F0xx_HAL_Driver/Src/stm32f0xx_hal_pcd.c ****     /* extract highest priority endpoint number */
 1820              		.loc 1 1670 5 is_stmt 1 view .LVU481
1670:Drivers/STM32F0xx_HAL_Driver/Src/stm32f0xx_hal_pcd.c ****     /* extract highest priority endpoint number */
 1821              		.loc 1 1670 11 is_stmt 0 view .LVU482
 1822 014a 4423     		movs	r3, #68
 1823 014c C35A     		ldrh	r3, [r0, r3]
 1824 014e 99B2     		uxth	r1, r3
 1825              	.LVL155:
1672:Drivers/STM32F0xx_HAL_Driver/Src/stm32f0xx_hal_pcd.c **** 
 1826              		.loc 1 1672 5 is_stmt 1 view .LVU483
1672:Drivers/STM32F0xx_HAL_Driver/Src/stm32f0xx_hal_pcd.c **** 
 1827              		.loc 1 1672 13 is_stmt 0 view .LVU484
 1828 0150 0F22     		movs	r2, #15
 1829 0152 1D00     		movs	r5, r3
 1830 0154 1540     		ands	r5, r2
 1831              	.LVL156:
1674:Drivers/STM32F0xx_HAL_Driver/Src/stm32f0xx_hal_pcd.c ****     {
 1832              		.loc 1 1674 5 is_stmt 1 view .LVU485
1674:Drivers/STM32F0xx_HAL_Driver/Src/stm32f0xx_hal_pcd.c ****     {
 1833              		.loc 1 1674 8 is_stmt 0 view .LVU486
 1834 0156 1342     		tst	r3, r2
 1835 0158 BED1     		bne	.L71
1679:Drivers/STM32F0xx_HAL_Driver/Src/stm32f0xx_hal_pcd.c ****       {
ARM GAS  /tmp/ccd7InD5.s 			page 67


 1836              		.loc 1 1679 7 is_stmt 1 view .LVU487
1679:Drivers/STM32F0xx_HAL_Driver/Src/stm32f0xx_hal_pcd.c ****       {
 1837              		.loc 1 1679 10 is_stmt 0 view .LVU488
 1838 015a C906     		lsls	r1, r1, #27
 1839 015c 00D4     		bmi	.LCB1546
 1840 015e 54E7     		b	.L95	@long jump
 1841              	.LCB1546:
 1842              	.LVL157:
1710:Drivers/STM32F0xx_HAL_Driver/Src/stm32f0xx_hal_pcd.c ****         wEPVal = PCD_GET_ENDPOINT(hpcd->Instance, PCD_ENDP0);
 1843              		.loc 1 1710 9 is_stmt 1 view .LVU489
1711:Drivers/STM32F0xx_HAL_Driver/Src/stm32f0xx_hal_pcd.c **** 
 1844              		.loc 1 1711 9 view .LVU490
1711:Drivers/STM32F0xx_HAL_Driver/Src/stm32f0xx_hal_pcd.c **** 
 1845              		.loc 1 1711 16 is_stmt 0 view .LVU491
 1846 0160 0388     		ldrh	r3, [r0]
 1847              	.LVL158:
1711:Drivers/STM32F0xx_HAL_Driver/Src/stm32f0xx_hal_pcd.c **** 
 1848              		.loc 1 1711 16 view .LVU492
 1849 0162 9AB2     		uxth	r2, r3
 1850              	.LVL159:
1713:Drivers/STM32F0xx_HAL_Driver/Src/stm32f0xx_hal_pcd.c ****         {
 1851              		.loc 1 1713 9 is_stmt 1 view .LVU493
1713:Drivers/STM32F0xx_HAL_Driver/Src/stm32f0xx_hal_pcd.c ****         {
 1852              		.loc 1 1713 12 is_stmt 0 view .LVU494
 1853 0164 1B05     		lsls	r3, r3, #20
 1854 0166 00D5     		bpl	.LCB1560
 1855 0168 7FE7     		b	.L96	@long jump
 1856              	.LCB1560:
1732:Drivers/STM32F0xx_HAL_Driver/Src/stm32f0xx_hal_pcd.c ****         {
 1857              		.loc 1 1732 14 is_stmt 1 view .LVU495
1732:Drivers/STM32F0xx_HAL_Driver/Src/stm32f0xx_hal_pcd.c ****         {
 1858              		.loc 1 1732 43 is_stmt 0 view .LVU496
 1859 016a 12B2     		sxth	r2, r2
1732:Drivers/STM32F0xx_HAL_Driver/Src/stm32f0xx_hal_pcd.c ****         {
 1860              		.loc 1 1732 17 view .LVU497
 1861 016c 002A     		cmp	r2, #0
 1862 016e E5DA     		bge	.L70
1734:Drivers/STM32F0xx_HAL_Driver/Src/stm32f0xx_hal_pcd.c **** 
 1863              		.loc 1 1734 11 is_stmt 1 view .LVU498
 1864              	.LBB8:
1734:Drivers/STM32F0xx_HAL_Driver/Src/stm32f0xx_hal_pcd.c **** 
 1865              		.loc 1 1734 11 view .LVU499
1734:Drivers/STM32F0xx_HAL_Driver/Src/stm32f0xx_hal_pcd.c **** 
 1866              		.loc 1 1734 11 view .LVU500
 1867 0170 0388     		ldrh	r3, [r0]
 1868 0172 7E4A     		ldr	r2, .L98+16
 1869              	.LVL160:
1734:Drivers/STM32F0xx_HAL_Driver/Src/stm32f0xx_hal_pcd.c **** 
 1870              		.loc 1 1734 11 is_stmt 0 view .LVU501
 1871 0174 1340     		ands	r3, r2
 1872              	.LVL161:
1734:Drivers/STM32F0xx_HAL_Driver/Src/stm32f0xx_hal_pcd.c **** 
 1873              		.loc 1 1734 11 is_stmt 1 view .LVU502
 1874 0176 8022     		movs	r2, #128
 1875 0178 1343     		orrs	r3, r2
 1876              	.LVL162:
1734:Drivers/STM32F0xx_HAL_Driver/Src/stm32f0xx_hal_pcd.c **** 
ARM GAS  /tmp/ccd7InD5.s 			page 68


 1877              		.loc 1 1734 11 is_stmt 0 view .LVU503
 1878 017a 9BB2     		uxth	r3, r3
 1879 017c 0380     		strh	r3, [r0]
 1880              	.LBE8:
1734:Drivers/STM32F0xx_HAL_Driver/Src/stm32f0xx_hal_pcd.c **** 
 1881              		.loc 1 1734 11 is_stmt 1 view .LVU504
1737:Drivers/STM32F0xx_HAL_Driver/Src/stm32f0xx_hal_pcd.c **** 
 1882              		.loc 1 1737 11 view .LVU505
1737:Drivers/STM32F0xx_HAL_Driver/Src/stm32f0xx_hal_pcd.c **** 
 1883              		.loc 1 1737 28 is_stmt 0 view .LVU506
 1884 017e 2068     		ldr	r0, [r4]
 1885 0180 5023     		movs	r3, #80
 1886 0182 C35A     		ldrh	r3, [r0, r3]
 1887 0184 9422     		movs	r2, #148
 1888 0186 5200     		lsls	r2, r2, #1
 1889 0188 A25C     		ldrb	r2, [r4, r2]
 1890 018a D200     		lsls	r2, r2, #3
 1891 018c 9B18     		adds	r3, r3, r2
 1892 018e 1B18     		adds	r3, r3, r0
 1893 0190 754A     		ldr	r2, .L98+12
 1894 0192 9446     		mov	ip, r2
 1895 0194 6344     		add	r3, r3, ip
 1896 0196 1B88     		ldrh	r3, [r3]
 1897 0198 9B05     		lsls	r3, r3, #22
 1898 019a 9B0D     		lsrs	r3, r3, #22
1737:Drivers/STM32F0xx_HAL_Driver/Src/stm32f0xx_hal_pcd.c **** 
 1899              		.loc 1 1737 26 view .LVU507
 1900 019c 2200     		movs	r2, r4
 1901 019e 2932     		adds	r2, r2, #41
 1902 01a0 FF32     		adds	r2, r2, #255
 1903 01a2 D361     		str	r3, [r2, #28]
1739:Drivers/STM32F0xx_HAL_Driver/Src/stm32f0xx_hal_pcd.c ****           {
 1904              		.loc 1 1739 11 is_stmt 1 view .LVU508
1739:Drivers/STM32F0xx_HAL_Driver/Src/stm32f0xx_hal_pcd.c ****           {
 1905              		.loc 1 1739 14 is_stmt 0 view .LVU509
 1906 01a4 002B     		cmp	r3, #0
 1907 01a6 0ED0     		beq	.L75
1739:Drivers/STM32F0xx_HAL_Driver/Src/stm32f0xx_hal_pcd.c ****           {
 1908              		.loc 1 1739 44 discriminator 1 view .LVU510
 1909 01a8 5169     		ldr	r1, [r2, #20]
1739:Drivers/STM32F0xx_HAL_Driver/Src/stm32f0xx_hal_pcd.c ****           {
 1910              		.loc 1 1739 38 discriminator 1 view .LVU511
 1911 01aa 0029     		cmp	r1, #0
 1912 01ac 0BD0     		beq	.L75
1741:Drivers/STM32F0xx_HAL_Driver/Src/stm32f0xx_hal_pcd.c ****                         ep->pmaadress, (uint16_t)ep->xfer_count);
 1913              		.loc 1 1741 13 is_stmt 1 view .LVU512
 1914 01ae 1500     		movs	r5, r2
 1915              	.LVL163:
1741:Drivers/STM32F0xx_HAL_Driver/Src/stm32f0xx_hal_pcd.c ****                         ep->pmaadress, (uint16_t)ep->xfer_count);
 1916              		.loc 1 1741 13 is_stmt 0 view .LVU513
 1917 01b0 D288     		ldrh	r2, [r2, #6]
 1918 01b2 FFF7FEFF 		bl	USB_ReadPMA
 1919              	.LVL164:
1744:Drivers/STM32F0xx_HAL_Driver/Src/stm32f0xx_hal_pcd.c **** 
 1920              		.loc 1 1744 13 is_stmt 1 view .LVU514
1744:Drivers/STM32F0xx_HAL_Driver/Src/stm32f0xx_hal_pcd.c **** 
 1921              		.loc 1 1744 32 is_stmt 0 view .LVU515
ARM GAS  /tmp/ccd7InD5.s 			page 69


 1922 01b6 EA69     		ldr	r2, [r5, #28]
1744:Drivers/STM32F0xx_HAL_Driver/Src/stm32f0xx_hal_pcd.c **** 
 1923              		.loc 1 1744 27 view .LVU516
 1924 01b8 6B69     		ldr	r3, [r5, #20]
 1925 01ba 9B18     		adds	r3, r3, r2
 1926 01bc 6B61     		str	r3, [r5, #20]
1750:Drivers/STM32F0xx_HAL_Driver/Src/stm32f0xx_hal_pcd.c **** #endif /* USE_HAL_PCD_REGISTER_CALLBACKS */
 1927              		.loc 1 1750 13 is_stmt 1 view .LVU517
 1928 01be 0021     		movs	r1, #0
 1929 01c0 2000     		movs	r0, r4
 1930 01c2 FFF7FEFF 		bl	HAL_PCD_DataOutStageCallback
 1931              	.LVL165:
 1932              	.L75:
1754:Drivers/STM32F0xx_HAL_Driver/Src/stm32f0xx_hal_pcd.c ****           PCD_SET_EP_RX_STATUS(hpcd->Instance, PCD_ENDP0, USB_EP_RX_VALID);
 1933              		.loc 1 1754 11 view .LVU518
 1934              	.LBB9:
1754:Drivers/STM32F0xx_HAL_Driver/Src/stm32f0xx_hal_pcd.c ****           PCD_SET_EP_RX_STATUS(hpcd->Instance, PCD_ENDP0, USB_EP_RX_VALID);
 1935              		.loc 1 1754 11 view .LVU519
 1936 01c6 2368     		ldr	r3, [r4]
 1937              	.LVL166:
1754:Drivers/STM32F0xx_HAL_Driver/Src/stm32f0xx_hal_pcd.c ****           PCD_SET_EP_RX_STATUS(hpcd->Instance, PCD_ENDP0, USB_EP_RX_VALID);
 1938              		.loc 1 1754 11 view .LVU520
1754:Drivers/STM32F0xx_HAL_Driver/Src/stm32f0xx_hal_pcd.c ****           PCD_SET_EP_RX_STATUS(hpcd->Instance, PCD_ENDP0, USB_EP_RX_VALID);
 1939              		.loc 1 1754 11 view .LVU521
 1940 01c8 5022     		movs	r2, #80
 1941 01ca 9A5A     		ldrh	r2, [r3, r2]
 1942 01cc 9B18     		adds	r3, r3, r2
 1943              	.LVL167:
1754:Drivers/STM32F0xx_HAL_Driver/Src/stm32f0xx_hal_pcd.c ****           PCD_SET_EP_RX_STATUS(hpcd->Instance, PCD_ENDP0, USB_EP_RX_VALID);
 1944              		.loc 1 1754 11 view .LVU522
 1945 01ce 664A     		ldr	r2, .L98+12
 1946 01d0 9446     		mov	ip, r2
 1947 01d2 6344     		add	r3, r3, ip
 1948              	.LVL168:
1754:Drivers/STM32F0xx_HAL_Driver/Src/stm32f0xx_hal_pcd.c ****           PCD_SET_EP_RX_STATUS(hpcd->Instance, PCD_ENDP0, USB_EP_RX_VALID);
 1949              		.loc 1 1754 11 view .LVU523
 1950              	.LBB6:
1754:Drivers/STM32F0xx_HAL_Driver/Src/stm32f0xx_hal_pcd.c ****           PCD_SET_EP_RX_STATUS(hpcd->Instance, PCD_ENDP0, USB_EP_RX_VALID);
 1951              		.loc 1 1754 11 view .LVU524
1754:Drivers/STM32F0xx_HAL_Driver/Src/stm32f0xx_hal_pcd.c ****           PCD_SET_EP_RX_STATUS(hpcd->Instance, PCD_ENDP0, USB_EP_RX_VALID);
 1952              		.loc 1 1754 11 view .LVU525
 1953 01d4 2200     		movs	r2, r4
 1954 01d6 2932     		adds	r2, r2, #41
 1955 01d8 FF32     		adds	r2, r2, #255
 1956 01da 1269     		ldr	r2, [r2, #16]
 1957 01dc 002A     		cmp	r2, #0
 1958 01de 00D0     		beq	.LCB1657
 1959 01e0 67E7     		b	.L76	@long jump
 1960              	.LCB1657:
1754:Drivers/STM32F0xx_HAL_Driver/Src/stm32f0xx_hal_pcd.c ****           PCD_SET_EP_RX_STATUS(hpcd->Instance, PCD_ENDP0, USB_EP_RX_VALID);
 1961              		.loc 1 1754 11 discriminator 1 view .LVU526
 1962 01e2 1A88     		ldrh	r2, [r3]
 1963 01e4 6249     		ldr	r1, .L98+20
 1964 01e6 0A40     		ands	r2, r1
 1965 01e8 1A80     		strh	r2, [r3]
1754:Drivers/STM32F0xx_HAL_Driver/Src/stm32f0xx_hal_pcd.c ****           PCD_SET_EP_RX_STATUS(hpcd->Instance, PCD_ENDP0, USB_EP_RX_VALID);
 1966              		.loc 1 1754 11 discriminator 1 view .LVU527
ARM GAS  /tmp/ccd7InD5.s 			page 70


 1967 01ea 5D49     		ldr	r1, .L98+4
 1968 01ec 0A43     		orrs	r2, r1
 1969 01ee 1A80     		strh	r2, [r3]
 1970              	.L77:
1754:Drivers/STM32F0xx_HAL_Driver/Src/stm32f0xx_hal_pcd.c ****           PCD_SET_EP_RX_STATUS(hpcd->Instance, PCD_ENDP0, USB_EP_RX_VALID);
 1971              		.loc 1 1754 11 discriminator 13 view .LVU528
 1972              	.LBE6:
1754:Drivers/STM32F0xx_HAL_Driver/Src/stm32f0xx_hal_pcd.c ****           PCD_SET_EP_RX_STATUS(hpcd->Instance, PCD_ENDP0, USB_EP_RX_VALID);
 1973              		.loc 1 1754 11 discriminator 13 view .LVU529
 1974              	.LBE9:
1754:Drivers/STM32F0xx_HAL_Driver/Src/stm32f0xx_hal_pcd.c ****           PCD_SET_EP_RX_STATUS(hpcd->Instance, PCD_ENDP0, USB_EP_RX_VALID);
 1975              		.loc 1 1754 11 discriminator 13 view .LVU530
1755:Drivers/STM32F0xx_HAL_Driver/Src/stm32f0xx_hal_pcd.c ****         }
 1976              		.loc 1 1755 11 discriminator 13 view .LVU531
 1977              	.LBB10:
1755:Drivers/STM32F0xx_HAL_Driver/Src/stm32f0xx_hal_pcd.c ****         }
 1978              		.loc 1 1755 11 discriminator 13 view .LVU532
1755:Drivers/STM32F0xx_HAL_Driver/Src/stm32f0xx_hal_pcd.c ****         }
 1979              		.loc 1 1755 11 discriminator 13 view .LVU533
 1980 01f0 2168     		ldr	r1, [r4]
 1981 01f2 0B88     		ldrh	r3, [r1]
 1982              	.LVL169:
1755:Drivers/STM32F0xx_HAL_Driver/Src/stm32f0xx_hal_pcd.c ****         }
 1983              		.loc 1 1755 11 is_stmt 0 discriminator 13 view .LVU534
 1984 01f4 5F4A     		ldr	r2, .L98+24
 1985 01f6 1340     		ands	r3, r2
 1986              	.LVL170:
1755:Drivers/STM32F0xx_HAL_Driver/Src/stm32f0xx_hal_pcd.c ****         }
 1987              		.loc 1 1755 11 is_stmt 1 discriminator 13 view .LVU535
1755:Drivers/STM32F0xx_HAL_Driver/Src/stm32f0xx_hal_pcd.c ****         }
 1988              		.loc 1 1755 11 discriminator 13 view .LVU536
1755:Drivers/STM32F0xx_HAL_Driver/Src/stm32f0xx_hal_pcd.c ****         }
 1989              		.loc 1 1755 11 discriminator 13 view .LVU537
1755:Drivers/STM32F0xx_HAL_Driver/Src/stm32f0xx_hal_pcd.c ****         }
 1990              		.loc 1 1755 11 discriminator 13 view .LVU538
 1991 01f8 C022     		movs	r2, #192
 1992 01fa 9201     		lsls	r2, r2, #6
 1993 01fc 5A40     		eors	r2, r3
 1994              	.LVL171:
1755:Drivers/STM32F0xx_HAL_Driver/Src/stm32f0xx_hal_pcd.c ****         }
 1995              		.loc 1 1755 11 discriminator 13 view .LVU539
 1996 01fe 5E4B     		ldr	r3, .L98+28
 1997 0200 1343     		orrs	r3, r2
 1998 0202 9BB2     		uxth	r3, r3
 1999 0204 0B80     		strh	r3, [r1]
 2000 0206 99E7     		b	.L70
 2001              	.LVL172:
 2002              	.L93:
1755:Drivers/STM32F0xx_HAL_Driver/Src/stm32f0xx_hal_pcd.c ****         }
 2003              		.loc 1 1755 11 is_stmt 0 discriminator 13 view .LVU540
 2004              	.LBE10:
1768:Drivers/STM32F0xx_HAL_Driver/Src/stm32f0xx_hal_pcd.c ****         ep = &hpcd->OUT_ep[epindex];
 2005              		.loc 1 1768 9 is_stmt 1 view .LVU541
 2006              	.LBB11:
1768:Drivers/STM32F0xx_HAL_Driver/Src/stm32f0xx_hal_pcd.c ****         ep = &hpcd->OUT_ep[epindex];
 2007              		.loc 1 1768 9 view .LVU542
1768:Drivers/STM32F0xx_HAL_Driver/Src/stm32f0xx_hal_pcd.c ****         ep = &hpcd->OUT_ep[epindex];
ARM GAS  /tmp/ccd7InD5.s 			page 71


 2008              		.loc 1 1768 9 view .LVU543
 2009 0208 0388     		ldrh	r3, [r0]
 2010 020a 584A     		ldr	r2, .L98+16
 2011 020c 1340     		ands	r3, r2
 2012              	.LVL173:
1768:Drivers/STM32F0xx_HAL_Driver/Src/stm32f0xx_hal_pcd.c ****         ep = &hpcd->OUT_ep[epindex];
 2013              		.loc 1 1768 9 view .LVU544
 2014 020e 8022     		movs	r2, #128
 2015 0210 1343     		orrs	r3, r2
 2016              	.LVL174:
1768:Drivers/STM32F0xx_HAL_Driver/Src/stm32f0xx_hal_pcd.c ****         ep = &hpcd->OUT_ep[epindex];
 2017              		.loc 1 1768 9 is_stmt 0 view .LVU545
 2018 0212 9BB2     		uxth	r3, r3
 2019 0214 0380     		strh	r3, [r0]
 2020              	.LBE11:
1768:Drivers/STM32F0xx_HAL_Driver/Src/stm32f0xx_hal_pcd.c ****         ep = &hpcd->OUT_ep[epindex];
 2021              		.loc 1 1768 9 is_stmt 1 view .LVU546
1769:Drivers/STM32F0xx_HAL_Driver/Src/stm32f0xx_hal_pcd.c **** 
 2022              		.loc 1 1769 9 view .LVU547
 2023              	.LVL175:
1772:Drivers/STM32F0xx_HAL_Driver/Src/stm32f0xx_hal_pcd.c ****         {
 2024              		.loc 1 1772 9 view .LVU548
1772:Drivers/STM32F0xx_HAL_Driver/Src/stm32f0xx_hal_pcd.c ****         {
 2025              		.loc 1 1772 15 is_stmt 0 view .LVU549
 2026 0216 6B01     		lsls	r3, r5, #5
 2027 0218 E318     		adds	r3, r4, r3
 2028 021a 3533     		adds	r3, r3, #53
 2029 021c FF33     		adds	r3, r3, #255
 2030 021e 1B78     		ldrb	r3, [r3]
1772:Drivers/STM32F0xx_HAL_Driver/Src/stm32f0xx_hal_pcd.c ****         {
 2031              		.loc 1 1772 12 view .LVU550
 2032 0220 002B     		cmp	r3, #0
 2033 0222 20D1     		bne	.L82
1774:Drivers/STM32F0xx_HAL_Driver/Src/stm32f0xx_hal_pcd.c ****           if (count != 0U)
 2034              		.loc 1 1774 11 is_stmt 1 view .LVU551
1774:Drivers/STM32F0xx_HAL_Driver/Src/stm32f0xx_hal_pcd.c ****           if (count != 0U)
 2035              		.loc 1 1774 29 is_stmt 0 view .LVU552
 2036 0224 2068     		ldr	r0, [r4]
 2037 0226 5033     		adds	r3, r3, #80
 2038 0228 C35A     		ldrh	r3, [r0, r3]
 2039 022a 6A01     		lsls	r2, r5, #5
 2040 022c A218     		adds	r2, r4, r2
 2041 022e 2932     		adds	r2, r2, #41
 2042 0230 FF32     		adds	r2, r2, #255
 2043 0232 1278     		ldrb	r2, [r2]
 2044 0234 D200     		lsls	r2, r2, #3
 2045 0236 9B18     		adds	r3, r3, r2
 2046 0238 1B18     		adds	r3, r3, r0
 2047 023a 4B4A     		ldr	r2, .L98+12
 2048 023c 9446     		mov	ip, r2
 2049 023e 6344     		add	r3, r3, ip
 2050 0240 1B88     		ldrh	r3, [r3]
1774:Drivers/STM32F0xx_HAL_Driver/Src/stm32f0xx_hal_pcd.c ****           if (count != 0U)
 2051              		.loc 1 1774 17 view .LVU553
 2052 0242 9B05     		lsls	r3, r3, #22
 2053 0244 9A0D     		lsrs	r2, r3, #22
 2054 0246 9046     		mov	r8, r2
ARM GAS  /tmp/ccd7InD5.s 			page 72


 2055              	.LVL176:
1775:Drivers/STM32F0xx_HAL_Driver/Src/stm32f0xx_hal_pcd.c ****           {
 2056              		.loc 1 1775 11 is_stmt 1 view .LVU554
1775:Drivers/STM32F0xx_HAL_Driver/Src/stm32f0xx_hal_pcd.c ****           {
 2057              		.loc 1 1775 14 is_stmt 0 view .LVU555
 2058 0248 002B     		cmp	r3, #0
 2059 024a 34D0     		beq	.L83
1777:Drivers/STM32F0xx_HAL_Driver/Src/stm32f0xx_hal_pcd.c ****           }
 2060              		.loc 1 1777 13 is_stmt 1 view .LVU556
 2061 024c 6B01     		lsls	r3, r5, #5
 2062 024e E318     		adds	r3, r4, r3
 2063 0250 1A00     		movs	r2, r3
 2064 0252 2F32     		adds	r2, r2, #47
 2065 0254 FF32     		adds	r2, r2, #255
 2066 0256 1288     		ldrh	r2, [r2]
 2067 0258 3D33     		adds	r3, r3, #61
 2068 025a FF33     		adds	r3, r3, #255
 2069 025c 1968     		ldr	r1, [r3]
 2070              	.LVL177:
1777:Drivers/STM32F0xx_HAL_Driver/Src/stm32f0xx_hal_pcd.c ****           }
 2071              		.loc 1 1777 13 is_stmt 0 view .LVU557
 2072 025e 4346     		mov	r3, r8
 2073 0260 FFF7FEFF 		bl	USB_ReadPMA
 2074              	.LVL178:
 2075 0264 27E0     		b	.L83
 2076              	.LVL179:
 2077              	.L82:
1782:Drivers/STM32F0xx_HAL_Driver/Src/stm32f0xx_hal_pcd.c ****           {
 2078              		.loc 1 1782 11 is_stmt 1 view .LVU558
1782:Drivers/STM32F0xx_HAL_Driver/Src/stm32f0xx_hal_pcd.c ****           {
 2079              		.loc 1 1782 16 is_stmt 0 view .LVU559
 2080 0266 2068     		ldr	r0, [r4]
 2081 0268 6B01     		lsls	r3, r5, #5
 2082 026a E318     		adds	r3, r4, r3
 2083 026c 2933     		adds	r3, r3, #41
 2084 026e FF33     		adds	r3, r3, #255
 2085 0270 1B78     		ldrb	r3, [r3]
 2086 0272 9A00     		lsls	r2, r3, #2
 2087 0274 8218     		adds	r2, r0, r2
 2088 0276 1288     		ldrh	r2, [r2]
1782:Drivers/STM32F0xx_HAL_Driver/Src/stm32f0xx_hal_pcd.c ****           {
 2089              		.loc 1 1782 14 view .LVU560
 2090 0278 5204     		lsls	r2, r2, #17
 2091 027a 4BD5     		bpl	.L84
1785:Drivers/STM32F0xx_HAL_Driver/Src/stm32f0xx_hal_pcd.c ****             if (count != 0U)
 2092              		.loc 1 1785 13 is_stmt 1 view .LVU561
1785:Drivers/STM32F0xx_HAL_Driver/Src/stm32f0xx_hal_pcd.c ****             if (count != 0U)
 2093              		.loc 1 1785 31 is_stmt 0 view .LVU562
 2094 027c 5022     		movs	r2, #80
 2095 027e 825A     		ldrh	r2, [r0, r2]
 2096 0280 DB00     		lsls	r3, r3, #3
 2097 0282 D318     		adds	r3, r2, r3
 2098 0284 1B18     		adds	r3, r3, r0
 2099 0286 374A     		ldr	r2, .L98+8
 2100 0288 9446     		mov	ip, r2
 2101 028a 6344     		add	r3, r3, ip
 2102 028c 1B88     		ldrh	r3, [r3]
ARM GAS  /tmp/ccd7InD5.s 			page 73


1785:Drivers/STM32F0xx_HAL_Driver/Src/stm32f0xx_hal_pcd.c ****             if (count != 0U)
 2103              		.loc 1 1785 19 view .LVU563
 2104 028e 9B05     		lsls	r3, r3, #22
 2105 0290 9A0D     		lsrs	r2, r3, #22
 2106 0292 9046     		mov	r8, r2
 2107              	.LVL180:
1786:Drivers/STM32F0xx_HAL_Driver/Src/stm32f0xx_hal_pcd.c ****             {
 2108              		.loc 1 1786 13 is_stmt 1 view .LVU564
1786:Drivers/STM32F0xx_HAL_Driver/Src/stm32f0xx_hal_pcd.c ****             {
 2109              		.loc 1 1786 16 is_stmt 0 view .LVU565
 2110 0294 002B     		cmp	r3, #0
 2111 0296 30D1     		bne	.L97
 2112              	.LVL181:
 2113              	.L85:
1801:Drivers/STM32F0xx_HAL_Driver/Src/stm32f0xx_hal_pcd.c ****         }
 2114              		.loc 1 1801 11 is_stmt 1 discriminator 1 view .LVU566
1801:Drivers/STM32F0xx_HAL_Driver/Src/stm32f0xx_hal_pcd.c ****         }
 2115              		.loc 1 1801 11 discriminator 1 view .LVU567
1801:Drivers/STM32F0xx_HAL_Driver/Src/stm32f0xx_hal_pcd.c ****         }
 2116              		.loc 1 1801 11 discriminator 1 view .LVU568
 2117              	.LBB12:
1801:Drivers/STM32F0xx_HAL_Driver/Src/stm32f0xx_hal_pcd.c ****         }
 2118              		.loc 1 1801 11 discriminator 1 view .LVU569
1801:Drivers/STM32F0xx_HAL_Driver/Src/stm32f0xx_hal_pcd.c ****         }
 2119              		.loc 1 1801 11 discriminator 1 view .LVU570
 2120 0298 2268     		ldr	r2, [r4]
 2121 029a 6B01     		lsls	r3, r5, #5
 2122 029c E318     		adds	r3, r4, r3
 2123 029e 2933     		adds	r3, r3, #41
 2124 02a0 FF33     		adds	r3, r3, #255
 2125 02a2 1B78     		ldrb	r3, [r3]
 2126 02a4 9B00     		lsls	r3, r3, #2
 2127 02a6 D218     		adds	r2, r2, r3
 2128 02a8 1188     		ldrh	r1, [r2]
 2129 02aa 344B     		ldr	r3, .L98+32
 2130 02ac 1940     		ands	r1, r3
 2131              	.LVL182:
1801:Drivers/STM32F0xx_HAL_Driver/Src/stm32f0xx_hal_pcd.c ****         }
 2132              		.loc 1 1801 11 discriminator 1 view .LVU571
 2133 02ae 344B     		ldr	r3, .L98+36
 2134 02b0 0B43     		orrs	r3, r1
 2135 02b2 9BB2     		uxth	r3, r3
 2136 02b4 1380     		strh	r3, [r2]
 2137              	.LBE12:
1801:Drivers/STM32F0xx_HAL_Driver/Src/stm32f0xx_hal_pcd.c ****         }
 2138              		.loc 1 1801 11 discriminator 1 view .LVU572
 2139              	.LVL183:
 2140              	.L83:
1801:Drivers/STM32F0xx_HAL_Driver/Src/stm32f0xx_hal_pcd.c ****         }
 2141              		.loc 1 1801 11 discriminator 6 view .LVU573
1801:Drivers/STM32F0xx_HAL_Driver/Src/stm32f0xx_hal_pcd.c ****         }
 2142              		.loc 1 1801 11 discriminator 6 view .LVU574
1804:Drivers/STM32F0xx_HAL_Driver/Src/stm32f0xx_hal_pcd.c ****         ep->xfer_buff += count;
 2143              		.loc 1 1804 9 discriminator 6 view .LVU575
1804:Drivers/STM32F0xx_HAL_Driver/Src/stm32f0xx_hal_pcd.c ****         ep->xfer_buff += count;
 2144              		.loc 1 1804 24 is_stmt 0 discriminator 6 view .LVU576
 2145 02b6 4046     		mov	r0, r8
ARM GAS  /tmp/ccd7InD5.s 			page 74


 2146 02b8 2B00     		movs	r3, r5
 2147 02ba 0A33     		adds	r3, r3, #10
 2148 02bc 5B01     		lsls	r3, r3, #5
 2149 02be E118     		adds	r1, r4, r3
 2150 02c0 4A68     		ldr	r2, [r1, #4]
 2151 02c2 4244     		add	r2, r2, r8
 2152 02c4 4A60     		str	r2, [r1, #4]
1805:Drivers/STM32F0xx_HAL_Driver/Src/stm32f0xx_hal_pcd.c **** 
 2153              		.loc 1 1805 9 is_stmt 1 discriminator 6 view .LVU577
1805:Drivers/STM32F0xx_HAL_Driver/Src/stm32f0xx_hal_pcd.c **** 
 2154              		.loc 1 1805 23 is_stmt 0 discriminator 6 view .LVU578
 2155 02c6 6901     		lsls	r1, r5, #5
 2156 02c8 6118     		adds	r1, r4, r1
 2157 02ca 3D31     		adds	r1, r1, #61
 2158 02cc FF31     		adds	r1, r1, #255
 2159 02ce 0A68     		ldr	r2, [r1]
 2160 02d0 4244     		add	r2, r2, r8
 2161 02d2 0A60     		str	r2, [r1]
1807:Drivers/STM32F0xx_HAL_Driver/Src/stm32f0xx_hal_pcd.c ****         {
 2162              		.loc 1 1807 9 is_stmt 1 discriminator 6 view .LVU579
1807:Drivers/STM32F0xx_HAL_Driver/Src/stm32f0xx_hal_pcd.c ****         {
 2163              		.loc 1 1807 16 is_stmt 0 discriminator 6 view .LVU580
 2164 02d4 1B59     		ldr	r3, [r3, r4]
1807:Drivers/STM32F0xx_HAL_Driver/Src/stm32f0xx_hal_pcd.c ****         {
 2165              		.loc 1 1807 12 discriminator 6 view .LVU581
 2166 02d6 002B     		cmp	r3, #0
 2167 02d8 06D0     		beq	.L86
1807:Drivers/STM32F0xx_HAL_Driver/Src/stm32f0xx_hal_pcd.c ****         {
 2168              		.loc 1 1807 48 discriminator 1 view .LVU582
 2169 02da 6901     		lsls	r1, r5, #5
 2170 02dc 6118     		adds	r1, r4, r1
 2171 02de 3931     		adds	r1, r1, #57
 2172 02e0 FF31     		adds	r1, r1, #255
 2173 02e2 0968     		ldr	r1, [r1]
1807:Drivers/STM32F0xx_HAL_Driver/Src/stm32f0xx_hal_pcd.c ****         {
 2174              		.loc 1 1807 34 discriminator 1 view .LVU583
 2175 02e4 8842     		cmp	r0, r1
 2176 02e6 30D2     		bcs	.L87
 2177              	.L86:
1813:Drivers/STM32F0xx_HAL_Driver/Src/stm32f0xx_hal_pcd.c **** #endif /* USE_HAL_PCD_REGISTER_CALLBACKS */
 2178              		.loc 1 1813 11 is_stmt 1 view .LVU584
 2179 02e8 6B01     		lsls	r3, r5, #5
 2180 02ea E318     		adds	r3, r4, r3
 2181 02ec 2933     		adds	r3, r3, #41
 2182 02ee FF33     		adds	r3, r3, #255
 2183 02f0 1978     		ldrb	r1, [r3]
 2184 02f2 2000     		movs	r0, r4
 2185 02f4 FFF7FEFF 		bl	HAL_PCD_DataOutStageCallback
 2186              	.LVL184:
 2187 02f8 F6E6     		b	.L81
 2188              	.LVL185:
 2189              	.L97:
1788:Drivers/STM32F0xx_HAL_Driver/Src/stm32f0xx_hal_pcd.c ****             }
 2190              		.loc 1 1788 15 view .LVU585
 2191 02fa 6B01     		lsls	r3, r5, #5
 2192 02fc E318     		adds	r3, r4, r3
 2193 02fe 1A00     		movs	r2, r3
ARM GAS  /tmp/ccd7InD5.s 			page 75


 2194 0300 3132     		adds	r2, r2, #49
 2195 0302 FF32     		adds	r2, r2, #255
 2196 0304 1288     		ldrh	r2, [r2]
 2197 0306 3D33     		adds	r3, r3, #61
 2198 0308 FF33     		adds	r3, r3, #255
 2199 030a 1968     		ldr	r1, [r3]
 2200              	.LVL186:
1788:Drivers/STM32F0xx_HAL_Driver/Src/stm32f0xx_hal_pcd.c ****             }
 2201              		.loc 1 1788 15 is_stmt 0 view .LVU586
 2202 030c 4346     		mov	r3, r8
 2203 030e FFF7FEFF 		bl	USB_ReadPMA
 2204              	.LVL187:
 2205 0312 C1E7     		b	.L85
 2206              	.LVL188:
 2207              	.L84:
1794:Drivers/STM32F0xx_HAL_Driver/Src/stm32f0xx_hal_pcd.c ****             if (count != 0U)
 2208              		.loc 1 1794 13 is_stmt 1 view .LVU587
1794:Drivers/STM32F0xx_HAL_Driver/Src/stm32f0xx_hal_pcd.c ****             if (count != 0U)
 2209              		.loc 1 1794 31 is_stmt 0 view .LVU588
 2210 0314 5022     		movs	r2, #80
 2211 0316 825A     		ldrh	r2, [r0, r2]
 2212 0318 DB00     		lsls	r3, r3, #3
 2213 031a D318     		adds	r3, r2, r3
 2214 031c 1B18     		adds	r3, r3, r0
 2215 031e 124A     		ldr	r2, .L98+12
 2216 0320 9446     		mov	ip, r2
 2217 0322 6344     		add	r3, r3, ip
 2218 0324 1B88     		ldrh	r3, [r3]
1794:Drivers/STM32F0xx_HAL_Driver/Src/stm32f0xx_hal_pcd.c ****             if (count != 0U)
 2219              		.loc 1 1794 19 view .LVU589
 2220 0326 9B05     		lsls	r3, r3, #22
 2221 0328 9A0D     		lsrs	r2, r3, #22
 2222 032a 9046     		mov	r8, r2
 2223              	.LVL189:
1795:Drivers/STM32F0xx_HAL_Driver/Src/stm32f0xx_hal_pcd.c ****             {
 2224              		.loc 1 1795 13 is_stmt 1 view .LVU590
1795:Drivers/STM32F0xx_HAL_Driver/Src/stm32f0xx_hal_pcd.c ****             {
 2225              		.loc 1 1795 16 is_stmt 0 view .LVU591
 2226 032c 002B     		cmp	r3, #0
 2227 032e B3D0     		beq	.L85
1797:Drivers/STM32F0xx_HAL_Driver/Src/stm32f0xx_hal_pcd.c ****             }
 2228              		.loc 1 1797 15 is_stmt 1 view .LVU592
 2229 0330 6B01     		lsls	r3, r5, #5
 2230 0332 E318     		adds	r3, r4, r3
 2231 0334 1A00     		movs	r2, r3
 2232 0336 3332     		adds	r2, r2, #51
 2233 0338 FF32     		adds	r2, r2, #255
 2234 033a 1288     		ldrh	r2, [r2]
 2235 033c 3D33     		adds	r3, r3, #61
 2236 033e FF33     		adds	r3, r3, #255
 2237 0340 1968     		ldr	r1, [r3]
 2238              	.LVL190:
1797:Drivers/STM32F0xx_HAL_Driver/Src/stm32f0xx_hal_pcd.c ****             }
 2239              		.loc 1 1797 15 is_stmt 0 view .LVU593
 2240 0342 4346     		mov	r3, r8
 2241 0344 FFF7FEFF 		bl	USB_ReadPMA
 2242              	.LVL191:
ARM GAS  /tmp/ccd7InD5.s 			page 76


 2243 0348 A6E7     		b	.L85
 2244              	.L87:
1818:Drivers/STM32F0xx_HAL_Driver/Src/stm32f0xx_hal_pcd.c ****         }
 2245              		.loc 1 1818 11 is_stmt 1 view .LVU594
1818:Drivers/STM32F0xx_HAL_Driver/Src/stm32f0xx_hal_pcd.c ****         }
 2246              		.loc 1 1818 17 is_stmt 0 view .LVU595
 2247 034a 6901     		lsls	r1, r5, #5
 2248 034c 6118     		adds	r1, r4, r1
 2249 034e 2931     		adds	r1, r1, #41
 2250 0350 FF31     		adds	r1, r1, #255
 2251 0352 0978     		ldrb	r1, [r1]
 2252 0354 2000     		movs	r0, r4
 2253 0356 FFF7FEFF 		bl	HAL_PCD_EP_Receive
 2254              	.LVL192:
 2255 035a C5E6     		b	.L81
 2256              	.L99:
 2257              		.align	2
 2258              	.L98:
 2259 035c 0F8FFFFF 		.word	-28913
 2260 0360 0080FFFF 		.word	-32768
 2261 0364 02040000 		.word	1026
 2262 0368 06040000 		.word	1030
 2263 036c 8F0F0000 		.word	3983
 2264 0370 FF83FFFF 		.word	-31745
 2265 0374 8FBFFFFF 		.word	-16497
 2266 0378 8080FFFF 		.word	-32640
 2267 037c 8F8FFFFF 		.word	-28785
 2268 0380 C080FFFF 		.word	-32576
 2269              	.LVL193:
 2270              	.L88:
1842:Drivers/STM32F0xx_HAL_Driver/Src/stm32f0xx_hal_pcd.c **** #endif /* USE_HAL_PCD_REGISTER_CALLBACKS */
1843:Drivers/STM32F0xx_HAL_Driver/Src/stm32f0xx_hal_pcd.c ****         }
1844:Drivers/STM32F0xx_HAL_Driver/Src/stm32f0xx_hal_pcd.c ****         else
1845:Drivers/STM32F0xx_HAL_Driver/Src/stm32f0xx_hal_pcd.c ****         {
1846:Drivers/STM32F0xx_HAL_Driver/Src/stm32f0xx_hal_pcd.c ****           (void)HAL_PCD_EP_Transmit(hpcd, ep->num, ep->xfer_buff, ep->xfer_len);
 2271              		.loc 1 1846 11 is_stmt 1 view .LVU596
 2272              		.loc 1 1846 17 is_stmt 0 view .LVU597
 2273 0384 2000     		movs	r0, r4
 2274 0386 FFF7FEFF 		bl	HAL_PCD_EP_Transmit
 2275              	.LVL194:
 2276 038a D7E6     		b	.L70
 2277              	.L94:
1847:Drivers/STM32F0xx_HAL_Driver/Src/stm32f0xx_hal_pcd.c ****         }
1848:Drivers/STM32F0xx_HAL_Driver/Src/stm32f0xx_hal_pcd.c ****       }
1849:Drivers/STM32F0xx_HAL_Driver/Src/stm32f0xx_hal_pcd.c ****     }
1850:Drivers/STM32F0xx_HAL_Driver/Src/stm32f0xx_hal_pcd.c ****   }
1851:Drivers/STM32F0xx_HAL_Driver/Src/stm32f0xx_hal_pcd.c ****   return HAL_OK;
 2278              		.loc 1 1851 3 is_stmt 1 view .LVU598
1852:Drivers/STM32F0xx_HAL_Driver/Src/stm32f0xx_hal_pcd.c **** }
 2279              		.loc 1 1852 1 is_stmt 0 view .LVU599
 2280 038c 0020     		movs	r0, #0
 2281              		@ sp needed
 2282              	.LVL195:
 2283              		.loc 1 1852 1 view .LVU600
 2284 038e 80BC     		pop	{r7}
 2285 0390 B846     		mov	r8, r7
 2286 0392 F0BD     		pop	{r4, r5, r6, r7, pc}
ARM GAS  /tmp/ccd7InD5.s 			page 77


 2287              		.cfi_endproc
 2288              	.LFE72:
 2290              		.section	.text.HAL_PCD_IRQHandler,"ax",%progbits
 2291              		.align	1
 2292              		.global	HAL_PCD_IRQHandler
 2293              		.syntax unified
 2294              		.code	16
 2295              		.thumb_func
 2296              		.fpu softvfp
 2298              	HAL_PCD_IRQHandler:
 2299              	.LVL196:
 2300              	.LFB46:
 995:Drivers/STM32F0xx_HAL_Driver/Src/stm32f0xx_hal_pcd.c ****   if (__HAL_PCD_GET_FLAG(hpcd, USB_ISTR_CTR))
 2301              		.loc 1 995 1 is_stmt 1 view -0
 2302              		.cfi_startproc
 2303              		@ args = 0, pretend = 0, frame = 0
 2304              		@ frame_needed = 0, uses_anonymous_args = 0
 995:Drivers/STM32F0xx_HAL_Driver/Src/stm32f0xx_hal_pcd.c ****   if (__HAL_PCD_GET_FLAG(hpcd, USB_ISTR_CTR))
 2305              		.loc 1 995 1 is_stmt 0 view .LVU602
 2306 0000 70B5     		push	{r4, r5, r6, lr}
 2307              	.LCFI14:
 2308              		.cfi_def_cfa_offset 16
 2309              		.cfi_offset 4, -16
 2310              		.cfi_offset 5, -12
 2311              		.cfi_offset 6, -8
 2312              		.cfi_offset 14, -4
 2313 0002 0400     		movs	r4, r0
 996:Drivers/STM32F0xx_HAL_Driver/Src/stm32f0xx_hal_pcd.c ****   {
 2314              		.loc 1 996 3 is_stmt 1 view .LVU603
 996:Drivers/STM32F0xx_HAL_Driver/Src/stm32f0xx_hal_pcd.c ****   {
 2315              		.loc 1 996 7 is_stmt 0 view .LVU604
 2316 0004 0068     		ldr	r0, [r0]
 2317              	.LVL197:
 996:Drivers/STM32F0xx_HAL_Driver/Src/stm32f0xx_hal_pcd.c ****   {
 2318              		.loc 1 996 7 view .LVU605
 2319 0006 FFF7FEFF 		bl	USB_ReadInterrupts
 2320              	.LVL198:
 996:Drivers/STM32F0xx_HAL_Driver/Src/stm32f0xx_hal_pcd.c ****   {
 2321              		.loc 1 996 6 view .LVU606
 2322 000a 0004     		lsls	r0, r0, #16
 2323 000c 00D5     		bpl	.LCB2052
 2324 000e 7EE0     		b	.L122	@long jump
 2325              	.LCB2052:
 2326              	.L101:
1003:Drivers/STM32F0xx_HAL_Driver/Src/stm32f0xx_hal_pcd.c ****   {
 2327              		.loc 1 1003 3 is_stmt 1 view .LVU607
1003:Drivers/STM32F0xx_HAL_Driver/Src/stm32f0xx_hal_pcd.c ****   {
 2328              		.loc 1 1003 7 is_stmt 0 view .LVU608
 2329 0010 2068     		ldr	r0, [r4]
 2330 0012 FFF7FEFF 		bl	USB_ReadInterrupts
 2331              	.LVL199:
1003:Drivers/STM32F0xx_HAL_Driver/Src/stm32f0xx_hal_pcd.c ****   {
 2332              		.loc 1 1003 6 view .LVU609
 2333 0016 4005     		lsls	r0, r0, #21
 2334 0018 00D5     		bpl	.LCB2061
 2335 001a 7CE0     		b	.L123	@long jump
 2336              	.LCB2061:
ARM GAS  /tmp/ccd7InD5.s 			page 78


 2337              	.L102:
1016:Drivers/STM32F0xx_HAL_Driver/Src/stm32f0xx_hal_pcd.c ****   {
 2338              		.loc 1 1016 3 is_stmt 1 view .LVU610
1016:Drivers/STM32F0xx_HAL_Driver/Src/stm32f0xx_hal_pcd.c ****   {
 2339              		.loc 1 1016 7 is_stmt 0 view .LVU611
 2340 001c 2068     		ldr	r0, [r4]
 2341 001e FFF7FEFF 		bl	USB_ReadInterrupts
 2342              	.LVL200:
1016:Drivers/STM32F0xx_HAL_Driver/Src/stm32f0xx_hal_pcd.c ****   {
 2343              		.loc 1 1016 6 view .LVU612
 2344 0022 4004     		lsls	r0, r0, #17
 2345 0024 05D5     		bpl	.L103
1018:Drivers/STM32F0xx_HAL_Driver/Src/stm32f0xx_hal_pcd.c ****   }
 2346              		.loc 1 1018 5 is_stmt 1 view .LVU613
 2347 0026 2168     		ldr	r1, [r4]
 2348 0028 4422     		movs	r2, #68
 2349 002a 8B5A     		ldrh	r3, [r1, r2]
 2350 002c 5B48     		ldr	r0, .L127
 2351 002e 0340     		ands	r3, r0
 2352 0030 8B52     		strh	r3, [r1, r2]
 2353              	.L103:
1021:Drivers/STM32F0xx_HAL_Driver/Src/stm32f0xx_hal_pcd.c ****   {
 2354              		.loc 1 1021 3 view .LVU614
1021:Drivers/STM32F0xx_HAL_Driver/Src/stm32f0xx_hal_pcd.c ****   {
 2355              		.loc 1 1021 7 is_stmt 0 view .LVU615
 2356 0032 2068     		ldr	r0, [r4]
 2357 0034 FFF7FEFF 		bl	USB_ReadInterrupts
 2358              	.LVL201:
1021:Drivers/STM32F0xx_HAL_Driver/Src/stm32f0xx_hal_pcd.c ****   {
 2359              		.loc 1 1021 6 view .LVU616
 2360 0038 8004     		lsls	r0, r0, #18
 2361 003a 05D5     		bpl	.L104
1023:Drivers/STM32F0xx_HAL_Driver/Src/stm32f0xx_hal_pcd.c ****   }
 2362              		.loc 1 1023 5 is_stmt 1 view .LVU617
 2363 003c 2168     		ldr	r1, [r4]
 2364 003e 4422     		movs	r2, #68
 2365 0040 8B5A     		ldrh	r3, [r1, r2]
 2366 0042 5748     		ldr	r0, .L127+4
 2367 0044 0340     		ands	r3, r0
 2368 0046 8B52     		strh	r3, [r1, r2]
 2369              	.L104:
1026:Drivers/STM32F0xx_HAL_Driver/Src/stm32f0xx_hal_pcd.c ****   {
 2370              		.loc 1 1026 3 view .LVU618
1026:Drivers/STM32F0xx_HAL_Driver/Src/stm32f0xx_hal_pcd.c ****   {
 2371              		.loc 1 1026 7 is_stmt 0 view .LVU619
 2372 0048 2068     		ldr	r0, [r4]
 2373 004a FFF7FEFF 		bl	USB_ReadInterrupts
 2374              	.LVL202:
1026:Drivers/STM32F0xx_HAL_Driver/Src/stm32f0xx_hal_pcd.c ****   {
 2375              		.loc 1 1026 6 view .LVU620
 2376 004e C004     		lsls	r0, r0, #19
 2377 0050 18D5     		bpl	.L105
1028:Drivers/STM32F0xx_HAL_Driver/Src/stm32f0xx_hal_pcd.c ****     hpcd->Instance->CNTR &= (uint16_t) ~(USB_CNTR_FSUSP);
 2378              		.loc 1 1028 5 is_stmt 1 view .LVU621
1028:Drivers/STM32F0xx_HAL_Driver/Src/stm32f0xx_hal_pcd.c ****     hpcd->Instance->CNTR &= (uint16_t) ~(USB_CNTR_FSUSP);
 2379              		.loc 1 1028 9 is_stmt 0 view .LVU622
 2380 0052 2168     		ldr	r1, [r4]
ARM GAS  /tmp/ccd7InD5.s 			page 79


1028:Drivers/STM32F0xx_HAL_Driver/Src/stm32f0xx_hal_pcd.c ****     hpcd->Instance->CNTR &= (uint16_t) ~(USB_CNTR_FSUSP);
 2381              		.loc 1 1028 26 view .LVU623
 2382 0054 4023     		movs	r3, #64
 2383 0056 CA5A     		ldrh	r2, [r1, r3]
 2384 0058 0420     		movs	r0, #4
 2385 005a 8243     		bics	r2, r0
 2386 005c CA52     		strh	r2, [r1, r3]
1029:Drivers/STM32F0xx_HAL_Driver/Src/stm32f0xx_hal_pcd.c **** 
 2387              		.loc 1 1029 5 is_stmt 1 view .LVU624
1029:Drivers/STM32F0xx_HAL_Driver/Src/stm32f0xx_hal_pcd.c **** 
 2388              		.loc 1 1029 9 is_stmt 0 view .LVU625
 2389 005e 2168     		ldr	r1, [r4]
1029:Drivers/STM32F0xx_HAL_Driver/Src/stm32f0xx_hal_pcd.c **** 
 2390              		.loc 1 1029 26 view .LVU626
 2391 0060 CA5A     		ldrh	r2, [r1, r3]
 2392 0062 0430     		adds	r0, r0, #4
 2393 0064 8243     		bics	r2, r0
 2394 0066 CA52     		strh	r2, [r1, r3]
1031:Drivers/STM32F0xx_HAL_Driver/Src/stm32f0xx_hal_pcd.c ****     {
 2395              		.loc 1 1031 5 is_stmt 1 view .LVU627
1031:Drivers/STM32F0xx_HAL_Driver/Src/stm32f0xx_hal_pcd.c ****     {
 2396              		.loc 1 1031 13 is_stmt 0 view .LVU628
 2397 0068 9823     		movs	r3, #152
 2398 006a 9B00     		lsls	r3, r3, #2
 2399 006c E35C     		ldrb	r3, [r4, r3]
1031:Drivers/STM32F0xx_HAL_Driver/Src/stm32f0xx_hal_pcd.c ****     {
 2400              		.loc 1 1031 8 view .LVU629
 2401 006e 012B     		cmp	r3, #1
 2402 0070 5FD0     		beq	.L124
 2403              	.L106:
1044:Drivers/STM32F0xx_HAL_Driver/Src/stm32f0xx_hal_pcd.c **** #endif /* USE_HAL_PCD_REGISTER_CALLBACKS */
 2404              		.loc 1 1044 5 is_stmt 1 view .LVU630
 2405 0072 2000     		movs	r0, r4
 2406 0074 FFF7FEFF 		bl	HAL_PCD_ResumeCallback
 2407              	.LVL203:
1047:Drivers/STM32F0xx_HAL_Driver/Src/stm32f0xx_hal_pcd.c ****   }
 2408              		.loc 1 1047 5 view .LVU631
 2409 0078 2168     		ldr	r1, [r4]
 2410 007a 4422     		movs	r2, #68
 2411 007c 8B5A     		ldrh	r3, [r1, r2]
 2412 007e 4948     		ldr	r0, .L127+8
 2413 0080 0340     		ands	r3, r0
 2414 0082 8B52     		strh	r3, [r1, r2]
 2415              	.L105:
1050:Drivers/STM32F0xx_HAL_Driver/Src/stm32f0xx_hal_pcd.c ****   {
 2416              		.loc 1 1050 3 view .LVU632
1050:Drivers/STM32F0xx_HAL_Driver/Src/stm32f0xx_hal_pcd.c ****   {
 2417              		.loc 1 1050 7 is_stmt 0 view .LVU633
 2418 0084 2068     		ldr	r0, [r4]
 2419 0086 FFF7FEFF 		bl	USB_ReadInterrupts
 2420              	.LVL204:
1050:Drivers/STM32F0xx_HAL_Driver/Src/stm32f0xx_hal_pcd.c ****   {
 2421              		.loc 1 1050 6 view .LVU634
 2422 008a 0005     		lsls	r0, r0, #20
 2423 008c 5AD4     		bmi	.L125
 2424              	.L107:
1071:Drivers/STM32F0xx_HAL_Driver/Src/stm32f0xx_hal_pcd.c ****   {
ARM GAS  /tmp/ccd7InD5.s 			page 80


 2425              		.loc 1 1071 3 is_stmt 1 view .LVU635
1071:Drivers/STM32F0xx_HAL_Driver/Src/stm32f0xx_hal_pcd.c ****   {
 2426              		.loc 1 1071 7 is_stmt 0 view .LVU636
 2427 008e 2068     		ldr	r0, [r4]
 2428 0090 FFF7FEFF 		bl	USB_ReadInterrupts
 2429              	.LVL205:
1071:Drivers/STM32F0xx_HAL_Driver/Src/stm32f0xx_hal_pcd.c ****   {
 2430              		.loc 1 1071 6 view .LVU637
 2431 0094 0006     		lsls	r0, r0, #24
 2432 0096 29D5     		bpl	.L108
1073:Drivers/STM32F0xx_HAL_Driver/Src/stm32f0xx_hal_pcd.c ****     if (hpcd->LPM_State == LPM_L0)
 2433              		.loc 1 1073 5 is_stmt 1 view .LVU638
 2434 0098 2168     		ldr	r1, [r4]
 2435 009a 4422     		movs	r2, #68
 2436 009c 8B5A     		ldrh	r3, [r1, r2]
 2437 009e 8020     		movs	r0, #128
 2438 00a0 8343     		bics	r3, r0
 2439 00a2 8B52     		strh	r3, [r1, r2]
1074:Drivers/STM32F0xx_HAL_Driver/Src/stm32f0xx_hal_pcd.c ****     {
 2440              		.loc 1 1074 5 view .LVU639
1074:Drivers/STM32F0xx_HAL_Driver/Src/stm32f0xx_hal_pcd.c ****     {
 2441              		.loc 1 1074 13 is_stmt 0 view .LVU640
 2442 00a4 9823     		movs	r3, #152
 2443 00a6 9B00     		lsls	r3, r3, #2
 2444 00a8 E35C     		ldrb	r3, [r4, r3]
1074:Drivers/STM32F0xx_HAL_Driver/Src/stm32f0xx_hal_pcd.c ****     {
 2445              		.loc 1 1074 8 view .LVU641
 2446 00aa 002B     		cmp	r3, #0
 2447 00ac 00D0     		beq	.LCB2179
 2448 00ae 66E0     		b	.L109	@long jump
 2449              	.LCB2179:
1077:Drivers/STM32F0xx_HAL_Driver/Src/stm32f0xx_hal_pcd.c ****       hpcd->Instance->CNTR |= USB_CNTR_FSUSP;
 2450              		.loc 1 1077 7 is_stmt 1 view .LVU642
1077:Drivers/STM32F0xx_HAL_Driver/Src/stm32f0xx_hal_pcd.c ****       hpcd->Instance->CNTR |= USB_CNTR_FSUSP;
 2451              		.loc 1 1077 11 is_stmt 0 view .LVU643
 2452 00b0 2168     		ldr	r1, [r4]
1077:Drivers/STM32F0xx_HAL_Driver/Src/stm32f0xx_hal_pcd.c ****       hpcd->Instance->CNTR |= USB_CNTR_FSUSP;
 2453              		.loc 1 1077 28 view .LVU644
 2454 00b2 043A     		subs	r2, r2, #4
 2455 00b4 8B5A     		ldrh	r3, [r1, r2]
 2456 00b6 0420     		movs	r0, #4
 2457 00b8 0343     		orrs	r3, r0
 2458 00ba 9BB2     		uxth	r3, r3
 2459 00bc 8B52     		strh	r3, [r1, r2]
1078:Drivers/STM32F0xx_HAL_Driver/Src/stm32f0xx_hal_pcd.c **** 
 2460              		.loc 1 1078 7 is_stmt 1 view .LVU645
1078:Drivers/STM32F0xx_HAL_Driver/Src/stm32f0xx_hal_pcd.c **** 
 2461              		.loc 1 1078 11 is_stmt 0 view .LVU646
 2462 00be 2168     		ldr	r1, [r4]
1078:Drivers/STM32F0xx_HAL_Driver/Src/stm32f0xx_hal_pcd.c **** 
 2463              		.loc 1 1078 28 view .LVU647
 2464 00c0 8B5A     		ldrh	r3, [r1, r2]
 2465 00c2 0820     		movs	r0, #8
 2466 00c4 0343     		orrs	r3, r0
 2467 00c6 9BB2     		uxth	r3, r3
 2468 00c8 8B52     		strh	r3, [r1, r2]
1080:Drivers/STM32F0xx_HAL_Driver/Src/stm32f0xx_hal_pcd.c ****       hpcd->BESL = ((uint32_t)hpcd->Instance->LPMCSR & USB_LPMCSR_BESL) >> 2;
ARM GAS  /tmp/ccd7InD5.s 			page 81


 2469              		.loc 1 1080 7 is_stmt 1 view .LVU648
1080:Drivers/STM32F0xx_HAL_Driver/Src/stm32f0xx_hal_pcd.c ****       hpcd->BESL = ((uint32_t)hpcd->Instance->LPMCSR & USB_LPMCSR_BESL) >> 2;
 2470              		.loc 1 1080 23 is_stmt 0 view .LVU649
 2471 00ca 9823     		movs	r3, #152
 2472 00cc 9B00     		lsls	r3, r3, #2
 2473 00ce 3F3A     		subs	r2, r2, #63
 2474 00d0 E254     		strb	r2, [r4, r3]
1081:Drivers/STM32F0xx_HAL_Driver/Src/stm32f0xx_hal_pcd.c **** #if (USE_HAL_PCD_REGISTER_CALLBACKS == 1U)
 2475              		.loc 1 1081 7 is_stmt 1 view .LVU650
1081:Drivers/STM32F0xx_HAL_Driver/Src/stm32f0xx_hal_pcd.c **** #if (USE_HAL_PCD_REGISTER_CALLBACKS == 1U)
 2476              		.loc 1 1081 35 is_stmt 0 view .LVU651
 2477 00d2 2268     		ldr	r2, [r4]
1081:Drivers/STM32F0xx_HAL_Driver/Src/stm32f0xx_hal_pcd.c **** #if (USE_HAL_PCD_REGISTER_CALLBACKS == 1U)
 2478              		.loc 1 1081 45 view .LVU652
 2479 00d4 5423     		movs	r3, #84
 2480 00d6 D25A     		ldrh	r2, [r2, r3]
1081:Drivers/STM32F0xx_HAL_Driver/Src/stm32f0xx_hal_pcd.c **** #if (USE_HAL_PCD_REGISTER_CALLBACKS == 1U)
 2481              		.loc 1 1081 73 view .LVU653
 2482 00d8 9208     		lsrs	r2, r2, #2
 2483 00da 183B     		subs	r3, r3, #24
 2484 00dc 1340     		ands	r3, r2
1081:Drivers/STM32F0xx_HAL_Driver/Src/stm32f0xx_hal_pcd.c **** #if (USE_HAL_PCD_REGISTER_CALLBACKS == 1U)
 2485              		.loc 1 1081 18 view .LVU654
 2486 00de 9922     		movs	r2, #153
 2487 00e0 9200     		lsls	r2, r2, #2
 2488 00e2 A350     		str	r3, [r4, r2]
1085:Drivers/STM32F0xx_HAL_Driver/Src/stm32f0xx_hal_pcd.c **** #endif /* USE_HAL_PCD_REGISTER_CALLBACKS */
 2489              		.loc 1 1085 7 is_stmt 1 view .LVU655
 2490 00e4 0121     		movs	r1, #1
 2491 00e6 2000     		movs	r0, r4
 2492 00e8 FFF7FEFF 		bl	HAL_PCDEx_LPM_Callback
 2493              	.LVL206:
 2494              	.L108:
1098:Drivers/STM32F0xx_HAL_Driver/Src/stm32f0xx_hal_pcd.c ****   {
 2495              		.loc 1 1098 3 view .LVU656
1098:Drivers/STM32F0xx_HAL_Driver/Src/stm32f0xx_hal_pcd.c ****   {
 2496              		.loc 1 1098 7 is_stmt 0 view .LVU657
 2497 00ec 2068     		ldr	r0, [r4]
 2498 00ee FFF7FEFF 		bl	USB_ReadInterrupts
 2499              	.LVL207:
1098:Drivers/STM32F0xx_HAL_Driver/Src/stm32f0xx_hal_pcd.c ****   {
 2500              		.loc 1 1098 6 view .LVU658
 2501 00f2 8005     		lsls	r0, r0, #22
 2502 00f4 47D4     		bmi	.L126
 2503              	.L110:
1109:Drivers/STM32F0xx_HAL_Driver/Src/stm32f0xx_hal_pcd.c ****   {
 2504              		.loc 1 1109 3 is_stmt 1 view .LVU659
1109:Drivers/STM32F0xx_HAL_Driver/Src/stm32f0xx_hal_pcd.c ****   {
 2505              		.loc 1 1109 7 is_stmt 0 view .LVU660
 2506 00f6 2068     		ldr	r0, [r4]
 2507 00f8 FFF7FEFF 		bl	USB_ReadInterrupts
 2508              	.LVL208:
1109:Drivers/STM32F0xx_HAL_Driver/Src/stm32f0xx_hal_pcd.c ****   {
 2509              		.loc 1 1109 6 view .LVU661
 2510 00fc C005     		lsls	r0, r0, #23
 2511 00fe 05D5     		bpl	.L100
1112:Drivers/STM32F0xx_HAL_Driver/Src/stm32f0xx_hal_pcd.c ****   }
ARM GAS  /tmp/ccd7InD5.s 			page 82


 2512              		.loc 1 1112 5 is_stmt 1 view .LVU662
 2513 0100 2168     		ldr	r1, [r4]
 2514 0102 4422     		movs	r2, #68
 2515 0104 8B5A     		ldrh	r3, [r1, r2]
 2516 0106 2848     		ldr	r0, .L127+12
 2517 0108 0340     		ands	r3, r0
 2518 010a 8B52     		strh	r3, [r1, r2]
 2519              	.L100:
1114:Drivers/STM32F0xx_HAL_Driver/Src/stm32f0xx_hal_pcd.c **** 
 2520              		.loc 1 1114 1 is_stmt 0 view .LVU663
 2521              		@ sp needed
 2522              	.LVL209:
1114:Drivers/STM32F0xx_HAL_Driver/Src/stm32f0xx_hal_pcd.c **** 
 2523              		.loc 1 1114 1 view .LVU664
 2524 010c 70BD     		pop	{r4, r5, r6, pc}
 2525              	.LVL210:
 2526              	.L122:
1000:Drivers/STM32F0xx_HAL_Driver/Src/stm32f0xx_hal_pcd.c ****   }
 2527              		.loc 1 1000 5 is_stmt 1 view .LVU665
1000:Drivers/STM32F0xx_HAL_Driver/Src/stm32f0xx_hal_pcd.c ****   }
 2528              		.loc 1 1000 11 is_stmt 0 view .LVU666
 2529 010e 2000     		movs	r0, r4
 2530 0110 FFF7FEFF 		bl	PCD_EP_ISR_Handler
 2531              	.LVL211:
 2532 0114 7CE7     		b	.L101
 2533              	.L123:
1005:Drivers/STM32F0xx_HAL_Driver/Src/stm32f0xx_hal_pcd.c **** 
 2534              		.loc 1 1005 5 is_stmt 1 view .LVU667
 2535 0116 2168     		ldr	r1, [r4]
 2536 0118 4422     		movs	r2, #68
 2537 011a 8B5A     		ldrh	r3, [r1, r2]
 2538 011c 2348     		ldr	r0, .L127+16
 2539 011e 0340     		ands	r3, r0
 2540 0120 8B52     		strh	r3, [r1, r2]
1010:Drivers/STM32F0xx_HAL_Driver/Src/stm32f0xx_hal_pcd.c **** #endif /* USE_HAL_PCD_REGISTER_CALLBACKS */
 2541              		.loc 1 1010 5 view .LVU668
 2542 0122 2000     		movs	r0, r4
 2543 0124 FFF7FEFF 		bl	HAL_PCD_ResetCallback
 2544              	.LVL212:
1013:Drivers/STM32F0xx_HAL_Driver/Src/stm32f0xx_hal_pcd.c ****   }
 2545              		.loc 1 1013 5 view .LVU669
1013:Drivers/STM32F0xx_HAL_Driver/Src/stm32f0xx_hal_pcd.c ****   }
 2546              		.loc 1 1013 11 is_stmt 0 view .LVU670
 2547 0128 0021     		movs	r1, #0
 2548 012a 2000     		movs	r0, r4
 2549 012c FFF7FEFF 		bl	HAL_PCD_SetAddress
 2550              	.LVL213:
 2551 0130 74E7     		b	.L102
 2552              	.L124:
1033:Drivers/STM32F0xx_HAL_Driver/Src/stm32f0xx_hal_pcd.c **** #if (USE_HAL_PCD_REGISTER_CALLBACKS == 1U)
 2553              		.loc 1 1033 7 is_stmt 1 view .LVU671
1033:Drivers/STM32F0xx_HAL_Driver/Src/stm32f0xx_hal_pcd.c **** #if (USE_HAL_PCD_REGISTER_CALLBACKS == 1U)
 2554              		.loc 1 1033 23 is_stmt 0 view .LVU672
 2555 0132 9823     		movs	r3, #152
 2556 0134 9B00     		lsls	r3, r3, #2
 2557 0136 0022     		movs	r2, #0
 2558 0138 E254     		strb	r2, [r4, r3]
ARM GAS  /tmp/ccd7InD5.s 			page 83


1037:Drivers/STM32F0xx_HAL_Driver/Src/stm32f0xx_hal_pcd.c **** #endif /* USE_HAL_PCD_REGISTER_CALLBACKS */
 2559              		.loc 1 1037 7 is_stmt 1 view .LVU673
 2560 013a 0021     		movs	r1, #0
 2561 013c 2000     		movs	r0, r4
 2562 013e FFF7FEFF 		bl	HAL_PCDEx_LPM_Callback
 2563              	.LVL214:
 2564 0142 96E7     		b	.L106
 2565              	.L125:
1053:Drivers/STM32F0xx_HAL_Driver/Src/stm32f0xx_hal_pcd.c **** 
 2566              		.loc 1 1053 5 view .LVU674
1053:Drivers/STM32F0xx_HAL_Driver/Src/stm32f0xx_hal_pcd.c **** 
 2567              		.loc 1 1053 9 is_stmt 0 view .LVU675
 2568 0144 2168     		ldr	r1, [r4]
1053:Drivers/STM32F0xx_HAL_Driver/Src/stm32f0xx_hal_pcd.c **** 
 2569              		.loc 1 1053 26 view .LVU676
 2570 0146 4022     		movs	r2, #64
 2571 0148 8B5A     		ldrh	r3, [r1, r2]
 2572 014a 0820     		movs	r0, #8
 2573 014c 0343     		orrs	r3, r0
 2574 014e 9BB2     		uxth	r3, r3
 2575 0150 8B52     		strh	r3, [r1, r2]
1056:Drivers/STM32F0xx_HAL_Driver/Src/stm32f0xx_hal_pcd.c **** 
 2576              		.loc 1 1056 5 is_stmt 1 view .LVU677
 2577 0152 2068     		ldr	r0, [r4]
 2578 0154 4421     		movs	r1, #68
 2579 0156 435A     		ldrh	r3, [r0, r1]
 2580 0158 154D     		ldr	r5, .L127+20
 2581 015a 2B40     		ands	r3, r5
 2582 015c 4352     		strh	r3, [r0, r1]
1058:Drivers/STM32F0xx_HAL_Driver/Src/stm32f0xx_hal_pcd.c **** 
 2583              		.loc 1 1058 5 view .LVU678
1058:Drivers/STM32F0xx_HAL_Driver/Src/stm32f0xx_hal_pcd.c **** 
 2584              		.loc 1 1058 9 is_stmt 0 view .LVU679
 2585 015e 2168     		ldr	r1, [r4]
1058:Drivers/STM32F0xx_HAL_Driver/Src/stm32f0xx_hal_pcd.c **** 
 2586              		.loc 1 1058 26 view .LVU680
 2587 0160 8B5A     		ldrh	r3, [r1, r2]
 2588 0162 0420     		movs	r0, #4
 2589 0164 0343     		orrs	r3, r0
 2590 0166 9BB2     		uxth	r3, r3
 2591 0168 8B52     		strh	r3, [r1, r2]
1060:Drivers/STM32F0xx_HAL_Driver/Src/stm32f0xx_hal_pcd.c ****     {
 2592              		.loc 1 1060 5 is_stmt 1 view .LVU681
1060:Drivers/STM32F0xx_HAL_Driver/Src/stm32f0xx_hal_pcd.c ****     {
 2593              		.loc 1 1060 9 is_stmt 0 view .LVU682
 2594 016a 2068     		ldr	r0, [r4]
 2595 016c FFF7FEFF 		bl	USB_ReadInterrupts
 2596              	.LVL215:
1060:Drivers/STM32F0xx_HAL_Driver/Src/stm32f0xx_hal_pcd.c ****     {
 2597              		.loc 1 1060 8 view .LVU683
 2598 0170 C004     		lsls	r0, r0, #19
 2599 0172 00D5     		bpl	.LCB2333
 2600 0174 8BE7     		b	.L107	@long jump
 2601              	.LCB2333:
1065:Drivers/STM32F0xx_HAL_Driver/Src/stm32f0xx_hal_pcd.c **** #endif /* USE_HAL_PCD_REGISTER_CALLBACKS */
 2602              		.loc 1 1065 7 is_stmt 1 view .LVU684
 2603 0176 2000     		movs	r0, r4
ARM GAS  /tmp/ccd7InD5.s 			page 84


 2604 0178 FFF7FEFF 		bl	HAL_PCD_SuspendCallback
 2605              	.LVL216:
 2606 017c 87E7     		b	.L107
 2607              	.L109:
1093:Drivers/STM32F0xx_HAL_Driver/Src/stm32f0xx_hal_pcd.c **** #endif /* USE_HAL_PCD_REGISTER_CALLBACKS */
 2608              		.loc 1 1093 7 view .LVU685
 2609 017e 2000     		movs	r0, r4
 2610 0180 FFF7FEFF 		bl	HAL_PCD_SuspendCallback
 2611              	.LVL217:
 2612 0184 B2E7     		b	.L108
 2613              	.L126:
1100:Drivers/STM32F0xx_HAL_Driver/Src/stm32f0xx_hal_pcd.c **** 
 2614              		.loc 1 1100 5 view .LVU686
 2615 0186 2168     		ldr	r1, [r4]
 2616 0188 4422     		movs	r2, #68
 2617 018a 8B5A     		ldrh	r3, [r1, r2]
 2618 018c 0948     		ldr	r0, .L127+24
 2619 018e 0340     		ands	r3, r0
 2620 0190 8B52     		strh	r3, [r1, r2]
1105:Drivers/STM32F0xx_HAL_Driver/Src/stm32f0xx_hal_pcd.c **** #endif /* USE_HAL_PCD_REGISTER_CALLBACKS */
 2621              		.loc 1 1105 5 view .LVU687
 2622 0192 2000     		movs	r0, r4
 2623 0194 FFF7FEFF 		bl	HAL_PCD_SOFCallback
 2624              	.LVL218:
 2625 0198 ADE7     		b	.L110
 2626              	.L128:
 2627 019a C046     		.align	2
 2628              	.L127:
 2629 019c FFBFFFFF 		.word	-16385
 2630 01a0 FFDFFFFF 		.word	-8193
 2631 01a4 FFEFFFFF 		.word	-4097
 2632 01a8 FFFEFFFF 		.word	-257
 2633 01ac FFFBFFFF 		.word	-1025
 2634 01b0 FFF7FFFF 		.word	-2049
 2635 01b4 FFFDFFFF 		.word	-513
 2636              		.cfi_endproc
 2637              	.LFE46:
 2639              		.section	.text.HAL_PCD_EP_SetStall,"ax",%progbits
 2640              		.align	1
 2641              		.global	HAL_PCD_EP_SetStall
 2642              		.syntax unified
 2643              		.code	16
 2644              		.thumb_func
 2645              		.fpu softvfp
 2647              	HAL_PCD_EP_SetStall:
 2648              	.LVL219:
 2649              	.LFB66:
1506:Drivers/STM32F0xx_HAL_Driver/Src/stm32f0xx_hal_pcd.c ****   PCD_EPTypeDef *ep;
 2650              		.loc 1 1506 1 view -0
 2651              		.cfi_startproc
 2652              		@ args = 0, pretend = 0, frame = 0
 2653              		@ frame_needed = 0, uses_anonymous_args = 0
1506:Drivers/STM32F0xx_HAL_Driver/Src/stm32f0xx_hal_pcd.c ****   PCD_EPTypeDef *ep;
 2654              		.loc 1 1506 1 is_stmt 0 view .LVU689
 2655 0000 70B5     		push	{r4, r5, r6, lr}
 2656              	.LCFI15:
 2657              		.cfi_def_cfa_offset 16
ARM GAS  /tmp/ccd7InD5.s 			page 85


 2658              		.cfi_offset 4, -16
 2659              		.cfi_offset 5, -12
 2660              		.cfi_offset 6, -8
 2661              		.cfi_offset 14, -4
 2662 0002 0400     		movs	r4, r0
1507:Drivers/STM32F0xx_HAL_Driver/Src/stm32f0xx_hal_pcd.c **** 
 2663              		.loc 1 1507 3 is_stmt 1 view .LVU690
1509:Drivers/STM32F0xx_HAL_Driver/Src/stm32f0xx_hal_pcd.c ****   {
 2664              		.loc 1 1509 3 view .LVU691
 2665 0004 0725     		movs	r5, #7
 2666 0006 0D40     		ands	r5, r1
1509:Drivers/STM32F0xx_HAL_Driver/Src/stm32f0xx_hal_pcd.c ****   {
 2667              		.loc 1 1509 53 is_stmt 0 view .LVU692
 2668 0008 4368     		ldr	r3, [r0, #4]
1509:Drivers/STM32F0xx_HAL_Driver/Src/stm32f0xx_hal_pcd.c ****   {
 2669              		.loc 1 1509 6 view .LVU693
 2670 000a 9D42     		cmp	r5, r3
 2671 000c 33D8     		bhi	.L134
1514:Drivers/STM32F0xx_HAL_Driver/Src/stm32f0xx_hal_pcd.c ****   {
 2672              		.loc 1 1514 3 is_stmt 1 view .LVU694
1514:Drivers/STM32F0xx_HAL_Driver/Src/stm32f0xx_hal_pcd.c ****   {
 2673              		.loc 1 1514 25 is_stmt 0 view .LVU695
 2674 000e 4BB2     		sxtb	r3, r1
1514:Drivers/STM32F0xx_HAL_Driver/Src/stm32f0xx_hal_pcd.c ****   {
 2675              		.loc 1 1514 6 view .LVU696
 2676 0010 002B     		cmp	r3, #0
 2677 0012 20DB     		blt	.L136
1521:Drivers/STM32F0xx_HAL_Driver/Src/stm32f0xx_hal_pcd.c ****     ep->is_in = 0U;
 2678              		.loc 1 1521 5 is_stmt 1 view .LVU697
1521:Drivers/STM32F0xx_HAL_Driver/Src/stm32f0xx_hal_pcd.c ****     ep->is_in = 0U;
 2679              		.loc 1 1521 8 is_stmt 0 view .LVU698
 2680 0014 4B01     		lsls	r3, r1, #5
 2681 0016 1900     		movs	r1, r3
 2682              	.LVL220:
1521:Drivers/STM32F0xx_HAL_Driver/Src/stm32f0xx_hal_pcd.c ****     ep->is_in = 0U;
 2683              		.loc 1 1521 8 view .LVU699
 2684 0018 2931     		adds	r1, r1, #41
 2685 001a FF31     		adds	r1, r1, #255
 2686 001c 4118     		adds	r1, r0, r1
 2687              	.LVL221:
1522:Drivers/STM32F0xx_HAL_Driver/Src/stm32f0xx_hal_pcd.c ****   }
 2688              		.loc 1 1522 5 is_stmt 1 view .LVU700
1522:Drivers/STM32F0xx_HAL_Driver/Src/stm32f0xx_hal_pcd.c ****   }
 2689              		.loc 1 1522 15 is_stmt 0 view .LVU701
 2690 001e C318     		adds	r3, r0, r3
 2691 0020 2A33     		adds	r3, r3, #42
 2692 0022 FF33     		adds	r3, r3, #255
 2693 0024 0022     		movs	r2, #0
 2694 0026 1A70     		strb	r2, [r3]
 2695              	.L132:
1525:Drivers/STM32F0xx_HAL_Driver/Src/stm32f0xx_hal_pcd.c ****   ep->num = ep_addr & EP_ADDR_MSK;
 2696              		.loc 1 1525 3 is_stmt 1 view .LVU702
1525:Drivers/STM32F0xx_HAL_Driver/Src/stm32f0xx_hal_pcd.c ****   ep->num = ep_addr & EP_ADDR_MSK;
 2697              		.loc 1 1525 16 is_stmt 0 view .LVU703
 2698 0028 0123     		movs	r3, #1
 2699 002a 8B70     		strb	r3, [r1, #2]
1526:Drivers/STM32F0xx_HAL_Driver/Src/stm32f0xx_hal_pcd.c **** 
ARM GAS  /tmp/ccd7InD5.s 			page 86


 2700              		.loc 1 1526 3 is_stmt 1 view .LVU704
1526:Drivers/STM32F0xx_HAL_Driver/Src/stm32f0xx_hal_pcd.c **** 
 2701              		.loc 1 1526 11 is_stmt 0 view .LVU705
 2702 002c 0D70     		strb	r5, [r1]
1528:Drivers/STM32F0xx_HAL_Driver/Src/stm32f0xx_hal_pcd.c **** 
 2703              		.loc 1 1528 3 is_stmt 1 view .LVU706
1528:Drivers/STM32F0xx_HAL_Driver/Src/stm32f0xx_hal_pcd.c **** 
 2704              		.loc 1 1528 3 view .LVU707
 2705 002e 8A23     		movs	r3, #138
 2706 0030 9B00     		lsls	r3, r3, #2
 2707 0032 E35C     		ldrb	r3, [r4, r3]
 2708 0034 012B     		cmp	r3, #1
 2709 0036 20D0     		beq	.L135
1528:Drivers/STM32F0xx_HAL_Driver/Src/stm32f0xx_hal_pcd.c **** 
 2710              		.loc 1 1528 3 discriminator 2 view .LVU708
 2711 0038 8A23     		movs	r3, #138
 2712 003a 9B00     		lsls	r3, r3, #2
 2713 003c 0122     		movs	r2, #1
 2714 003e E254     		strb	r2, [r4, r3]
1528:Drivers/STM32F0xx_HAL_Driver/Src/stm32f0xx_hal_pcd.c **** 
 2715              		.loc 1 1528 3 discriminator 2 view .LVU709
1530:Drivers/STM32F0xx_HAL_Driver/Src/stm32f0xx_hal_pcd.c ****   if ((ep_addr & EP_ADDR_MSK) == 0U)
 2716              		.loc 1 1530 3 discriminator 2 view .LVU710
1530:Drivers/STM32F0xx_HAL_Driver/Src/stm32f0xx_hal_pcd.c ****   if ((ep_addr & EP_ADDR_MSK) == 0U)
 2717              		.loc 1 1530 28 is_stmt 0 discriminator 2 view .LVU711
 2718 0040 2068     		ldr	r0, [r4]
 2719              	.LVL222:
1530:Drivers/STM32F0xx_HAL_Driver/Src/stm32f0xx_hal_pcd.c ****   if ((ep_addr & EP_ADDR_MSK) == 0U)
 2720              		.loc 1 1530 9 discriminator 2 view .LVU712
 2721 0042 FFF7FEFF 		bl	USB_EPSetStall
 2722              	.LVL223:
1531:Drivers/STM32F0xx_HAL_Driver/Src/stm32f0xx_hal_pcd.c ****   {
 2723              		.loc 1 1531 3 is_stmt 1 discriminator 2 view .LVU713
1531:Drivers/STM32F0xx_HAL_Driver/Src/stm32f0xx_hal_pcd.c ****   {
 2724              		.loc 1 1531 6 is_stmt 0 discriminator 2 view .LVU714
 2725 0046 002D     		cmp	r5, #0
 2726 0048 0ED0     		beq	.L137
 2727              	.L133:
1535:Drivers/STM32F0xx_HAL_Driver/Src/stm32f0xx_hal_pcd.c **** 
 2728              		.loc 1 1535 3 is_stmt 1 view .LVU715
1535:Drivers/STM32F0xx_HAL_Driver/Src/stm32f0xx_hal_pcd.c **** 
 2729              		.loc 1 1535 3 view .LVU716
 2730 004a 8A23     		movs	r3, #138
 2731 004c 9B00     		lsls	r3, r3, #2
 2732 004e 0022     		movs	r2, #0
 2733 0050 E254     		strb	r2, [r4, r3]
1535:Drivers/STM32F0xx_HAL_Driver/Src/stm32f0xx_hal_pcd.c **** 
 2734              		.loc 1 1535 3 view .LVU717
1537:Drivers/STM32F0xx_HAL_Driver/Src/stm32f0xx_hal_pcd.c **** }
 2735              		.loc 1 1537 3 view .LVU718
1537:Drivers/STM32F0xx_HAL_Driver/Src/stm32f0xx_hal_pcd.c **** }
 2736              		.loc 1 1537 10 is_stmt 0 view .LVU719
 2737 0052 0020     		movs	r0, #0
 2738              	.L130:
1538:Drivers/STM32F0xx_HAL_Driver/Src/stm32f0xx_hal_pcd.c **** 
 2739              		.loc 1 1538 1 view .LVU720
 2740              		@ sp needed
ARM GAS  /tmp/ccd7InD5.s 			page 87


 2741              	.LVL224:
1538:Drivers/STM32F0xx_HAL_Driver/Src/stm32f0xx_hal_pcd.c **** 
 2742              		.loc 1 1538 1 view .LVU721
 2743 0054 70BD     		pop	{r4, r5, r6, pc}
 2744              	.LVL225:
 2745              	.L136:
1516:Drivers/STM32F0xx_HAL_Driver/Src/stm32f0xx_hal_pcd.c ****     ep->is_in = 1U;
 2746              		.loc 1 1516 5 is_stmt 1 view .LVU722
1516:Drivers/STM32F0xx_HAL_Driver/Src/stm32f0xx_hal_pcd.c ****     ep->is_in = 1U;
 2747              		.loc 1 1516 8 is_stmt 0 view .LVU723
 2748 0056 6B01     		lsls	r3, r5, #5
 2749 0058 1900     		movs	r1, r3
 2750              	.LVL226:
1516:Drivers/STM32F0xx_HAL_Driver/Src/stm32f0xx_hal_pcd.c ****     ep->is_in = 1U;
 2751              		.loc 1 1516 8 view .LVU724
 2752 005a 2831     		adds	r1, r1, #40
 2753 005c 4118     		adds	r1, r0, r1
 2754              	.LVL227:
1517:Drivers/STM32F0xx_HAL_Driver/Src/stm32f0xx_hal_pcd.c ****   }
 2755              		.loc 1 1517 5 is_stmt 1 view .LVU725
1517:Drivers/STM32F0xx_HAL_Driver/Src/stm32f0xx_hal_pcd.c ****   }
 2756              		.loc 1 1517 15 is_stmt 0 view .LVU726
 2757 005e C318     		adds	r3, r0, r3
 2758 0060 2933     		adds	r3, r3, #41
 2759 0062 0122     		movs	r2, #1
 2760 0064 1A70     		strb	r2, [r3]
 2761 0066 DFE7     		b	.L132
 2762              	.LVL228:
 2763              	.L137:
1533:Drivers/STM32F0xx_HAL_Driver/Src/stm32f0xx_hal_pcd.c ****   }
 2764              		.loc 1 1533 5 is_stmt 1 view .LVU727
1533:Drivers/STM32F0xx_HAL_Driver/Src/stm32f0xx_hal_pcd.c ****   }
 2765              		.loc 1 1533 32 is_stmt 0 view .LVU728
 2766 0068 2068     		ldr	r0, [r4]
1533:Drivers/STM32F0xx_HAL_Driver/Src/stm32f0xx_hal_pcd.c ****   }
 2767              		.loc 1 1533 55 view .LVU729
 2768 006a 8C23     		movs	r3, #140
 2769 006c 9B00     		lsls	r3, r3, #2
 2770 006e E118     		adds	r1, r4, r3
1533:Drivers/STM32F0xx_HAL_Driver/Src/stm32f0xx_hal_pcd.c ****   }
 2771              		.loc 1 1533 11 view .LVU730
 2772 0070 FFF7FEFF 		bl	USB_EP0_OutStart
 2773              	.LVL229:
 2774 0074 E9E7     		b	.L133
 2775              	.LVL230:
 2776              	.L134:
1511:Drivers/STM32F0xx_HAL_Driver/Src/stm32f0xx_hal_pcd.c ****   }
 2777              		.loc 1 1511 12 view .LVU731
 2778 0076 0120     		movs	r0, #1
 2779              	.LVL231:
1511:Drivers/STM32F0xx_HAL_Driver/Src/stm32f0xx_hal_pcd.c ****   }
 2780              		.loc 1 1511 12 view .LVU732
 2781 0078 ECE7     		b	.L130
 2782              	.LVL232:
 2783              	.L135:
1528:Drivers/STM32F0xx_HAL_Driver/Src/stm32f0xx_hal_pcd.c **** 
 2784              		.loc 1 1528 3 view .LVU733
ARM GAS  /tmp/ccd7InD5.s 			page 88


 2785 007a 0220     		movs	r0, #2
 2786              	.LVL233:
1528:Drivers/STM32F0xx_HAL_Driver/Src/stm32f0xx_hal_pcd.c **** 
 2787              		.loc 1 1528 3 view .LVU734
 2788 007c EAE7     		b	.L130
 2789              		.cfi_endproc
 2790              	.LFE66:
 2792              		.section	.text.HAL_PCD_EP_ClrStall,"ax",%progbits
 2793              		.align	1
 2794              		.global	HAL_PCD_EP_ClrStall
 2795              		.syntax unified
 2796              		.code	16
 2797              		.thumb_func
 2798              		.fpu softvfp
 2800              	HAL_PCD_EP_ClrStall:
 2801              	.LVL234:
 2802              	.LFB67:
1547:Drivers/STM32F0xx_HAL_Driver/Src/stm32f0xx_hal_pcd.c ****   PCD_EPTypeDef *ep;
 2803              		.loc 1 1547 1 is_stmt 1 view -0
 2804              		.cfi_startproc
 2805              		@ args = 0, pretend = 0, frame = 0
 2806              		@ frame_needed = 0, uses_anonymous_args = 0
1547:Drivers/STM32F0xx_HAL_Driver/Src/stm32f0xx_hal_pcd.c ****   PCD_EPTypeDef *ep;
 2807              		.loc 1 1547 1 is_stmt 0 view .LVU736
 2808 0000 70B5     		push	{r4, r5, r6, lr}
 2809              	.LCFI16:
 2810              		.cfi_def_cfa_offset 16
 2811              		.cfi_offset 4, -16
 2812              		.cfi_offset 5, -12
 2813              		.cfi_offset 6, -8
 2814              		.cfi_offset 14, -4
 2815 0002 0400     		movs	r4, r0
 2816 0004 0B00     		movs	r3, r1
1548:Drivers/STM32F0xx_HAL_Driver/Src/stm32f0xx_hal_pcd.c **** 
 2817              		.loc 1 1548 3 is_stmt 1 view .LVU737
1550:Drivers/STM32F0xx_HAL_Driver/Src/stm32f0xx_hal_pcd.c ****   {
 2818              		.loc 1 1550 3 view .LVU738
1550:Drivers/STM32F0xx_HAL_Driver/Src/stm32f0xx_hal_pcd.c ****   {
 2819              		.loc 1 1550 26 is_stmt 0 view .LVU739
 2820 0006 0F22     		movs	r2, #15
 2821 0008 0A40     		ands	r2, r1
1550:Drivers/STM32F0xx_HAL_Driver/Src/stm32f0xx_hal_pcd.c ****   {
 2822              		.loc 1 1550 47 view .LVU740
 2823 000a 4168     		ldr	r1, [r0, #4]
 2824              	.LVL235:
1550:Drivers/STM32F0xx_HAL_Driver/Src/stm32f0xx_hal_pcd.c ****   {
 2825              		.loc 1 1550 6 view .LVU741
 2826 000c 8A42     		cmp	r2, r1
 2827 000e 2ED8     		bhi	.L142
1555:Drivers/STM32F0xx_HAL_Driver/Src/stm32f0xx_hal_pcd.c ****   {
 2828              		.loc 1 1555 3 is_stmt 1 view .LVU742
1555:Drivers/STM32F0xx_HAL_Driver/Src/stm32f0xx_hal_pcd.c ****   {
 2829              		.loc 1 1555 25 is_stmt 0 view .LVU743
 2830 0010 5AB2     		sxtb	r2, r3
1555:Drivers/STM32F0xx_HAL_Driver/Src/stm32f0xx_hal_pcd.c ****   {
 2831              		.loc 1 1555 6 view .LVU744
 2832 0012 002A     		cmp	r2, #0
ARM GAS  /tmp/ccd7InD5.s 			page 89


 2833 0014 20DB     		blt	.L144
1562:Drivers/STM32F0xx_HAL_Driver/Src/stm32f0xx_hal_pcd.c ****     ep->is_in = 0U;
 2834              		.loc 1 1562 5 is_stmt 1 view .LVU745
1562:Drivers/STM32F0xx_HAL_Driver/Src/stm32f0xx_hal_pcd.c ****     ep->is_in = 0U;
 2835              		.loc 1 1562 32 is_stmt 0 view .LVU746
 2836 0016 0722     		movs	r2, #7
 2837 0018 1A40     		ands	r2, r3
1562:Drivers/STM32F0xx_HAL_Driver/Src/stm32f0xx_hal_pcd.c ****     ep->is_in = 0U;
 2838              		.loc 1 1562 8 view .LVU747
 2839 001a 5201     		lsls	r2, r2, #5
 2840 001c 1100     		movs	r1, r2
 2841 001e 2931     		adds	r1, r1, #41
 2842 0020 FF31     		adds	r1, r1, #255
 2843 0022 4118     		adds	r1, r0, r1
 2844              	.LVL236:
1563:Drivers/STM32F0xx_HAL_Driver/Src/stm32f0xx_hal_pcd.c ****   }
 2845              		.loc 1 1563 5 is_stmt 1 view .LVU748
1563:Drivers/STM32F0xx_HAL_Driver/Src/stm32f0xx_hal_pcd.c ****   }
 2846              		.loc 1 1563 15 is_stmt 0 view .LVU749
 2847 0024 8218     		adds	r2, r0, r2
 2848 0026 2A32     		adds	r2, r2, #42
 2849 0028 FF32     		adds	r2, r2, #255
 2850 002a 0020     		movs	r0, #0
 2851              	.LVL237:
1563:Drivers/STM32F0xx_HAL_Driver/Src/stm32f0xx_hal_pcd.c ****   }
 2852              		.loc 1 1563 15 view .LVU750
 2853 002c 1070     		strb	r0, [r2]
 2854              	.L141:
1566:Drivers/STM32F0xx_HAL_Driver/Src/stm32f0xx_hal_pcd.c ****   ep->num = ep_addr & EP_ADDR_MSK;
 2855              		.loc 1 1566 3 is_stmt 1 view .LVU751
1566:Drivers/STM32F0xx_HAL_Driver/Src/stm32f0xx_hal_pcd.c ****   ep->num = ep_addr & EP_ADDR_MSK;
 2856              		.loc 1 1566 16 is_stmt 0 view .LVU752
 2857 002e 0022     		movs	r2, #0
 2858 0030 8A70     		strb	r2, [r1, #2]
1567:Drivers/STM32F0xx_HAL_Driver/Src/stm32f0xx_hal_pcd.c **** 
 2859              		.loc 1 1567 3 is_stmt 1 view .LVU753
1567:Drivers/STM32F0xx_HAL_Driver/Src/stm32f0xx_hal_pcd.c **** 
 2860              		.loc 1 1567 21 is_stmt 0 view .LVU754
 2861 0032 0732     		adds	r2, r2, #7
 2862 0034 1340     		ands	r3, r2
1567:Drivers/STM32F0xx_HAL_Driver/Src/stm32f0xx_hal_pcd.c **** 
 2863              		.loc 1 1567 11 view .LVU755
 2864 0036 0B70     		strb	r3, [r1]
1569:Drivers/STM32F0xx_HAL_Driver/Src/stm32f0xx_hal_pcd.c ****   (void)USB_EPClearStall(hpcd->Instance, ep);
 2865              		.loc 1 1569 3 is_stmt 1 view .LVU756
1569:Drivers/STM32F0xx_HAL_Driver/Src/stm32f0xx_hal_pcd.c ****   (void)USB_EPClearStall(hpcd->Instance, ep);
 2866              		.loc 1 1569 3 view .LVU757
 2867 0038 8A23     		movs	r3, #138
 2868 003a 9B00     		lsls	r3, r3, #2
 2869 003c E35C     		ldrb	r3, [r4, r3]
 2870 003e 012B     		cmp	r3, #1
 2871 0040 17D0     		beq	.L143
1569:Drivers/STM32F0xx_HAL_Driver/Src/stm32f0xx_hal_pcd.c ****   (void)USB_EPClearStall(hpcd->Instance, ep);
 2872              		.loc 1 1569 3 discriminator 2 view .LVU758
 2873 0042 8A25     		movs	r5, #138
 2874 0044 AD00     		lsls	r5, r5, #2
 2875 0046 0123     		movs	r3, #1
ARM GAS  /tmp/ccd7InD5.s 			page 90


 2876 0048 6355     		strb	r3, [r4, r5]
1569:Drivers/STM32F0xx_HAL_Driver/Src/stm32f0xx_hal_pcd.c ****   (void)USB_EPClearStall(hpcd->Instance, ep);
 2877              		.loc 1 1569 3 discriminator 2 view .LVU759
1570:Drivers/STM32F0xx_HAL_Driver/Src/stm32f0xx_hal_pcd.c ****   __HAL_UNLOCK(hpcd);
 2878              		.loc 1 1570 3 discriminator 2 view .LVU760
1570:Drivers/STM32F0xx_HAL_Driver/Src/stm32f0xx_hal_pcd.c ****   __HAL_UNLOCK(hpcd);
 2879              		.loc 1 1570 30 is_stmt 0 discriminator 2 view .LVU761
 2880 004a 2068     		ldr	r0, [r4]
1570:Drivers/STM32F0xx_HAL_Driver/Src/stm32f0xx_hal_pcd.c ****   __HAL_UNLOCK(hpcd);
 2881              		.loc 1 1570 9 discriminator 2 view .LVU762
 2882 004c FFF7FEFF 		bl	USB_EPClearStall
 2883              	.LVL238:
1571:Drivers/STM32F0xx_HAL_Driver/Src/stm32f0xx_hal_pcd.c **** 
 2884              		.loc 1 1571 3 is_stmt 1 discriminator 2 view .LVU763
1571:Drivers/STM32F0xx_HAL_Driver/Src/stm32f0xx_hal_pcd.c **** 
 2885              		.loc 1 1571 3 discriminator 2 view .LVU764
 2886 0050 0023     		movs	r3, #0
 2887 0052 6355     		strb	r3, [r4, r5]
1571:Drivers/STM32F0xx_HAL_Driver/Src/stm32f0xx_hal_pcd.c **** 
 2888              		.loc 1 1571 3 discriminator 2 view .LVU765
1573:Drivers/STM32F0xx_HAL_Driver/Src/stm32f0xx_hal_pcd.c **** }
 2889              		.loc 1 1573 3 discriminator 2 view .LVU766
1573:Drivers/STM32F0xx_HAL_Driver/Src/stm32f0xx_hal_pcd.c **** }
 2890              		.loc 1 1573 10 is_stmt 0 discriminator 2 view .LVU767
 2891 0054 0020     		movs	r0, #0
 2892              	.L139:
1574:Drivers/STM32F0xx_HAL_Driver/Src/stm32f0xx_hal_pcd.c **** 
 2893              		.loc 1 1574 1 view .LVU768
 2894              		@ sp needed
 2895              	.LVL239:
1574:Drivers/STM32F0xx_HAL_Driver/Src/stm32f0xx_hal_pcd.c **** 
 2896              		.loc 1 1574 1 view .LVU769
 2897 0056 70BD     		pop	{r4, r5, r6, pc}
 2898              	.LVL240:
 2899              	.L144:
1557:Drivers/STM32F0xx_HAL_Driver/Src/stm32f0xx_hal_pcd.c ****     ep->is_in = 1U;
 2900              		.loc 1 1557 5 is_stmt 1 view .LVU770
1557:Drivers/STM32F0xx_HAL_Driver/Src/stm32f0xx_hal_pcd.c ****     ep->is_in = 1U;
 2901              		.loc 1 1557 31 is_stmt 0 view .LVU771
 2902 0058 0722     		movs	r2, #7
 2903 005a 1A40     		ands	r2, r3
1557:Drivers/STM32F0xx_HAL_Driver/Src/stm32f0xx_hal_pcd.c ****     ep->is_in = 1U;
 2904              		.loc 1 1557 8 view .LVU772
 2905 005c 5201     		lsls	r2, r2, #5
 2906 005e 1100     		movs	r1, r2
 2907 0060 2831     		adds	r1, r1, #40
 2908 0062 4118     		adds	r1, r0, r1
 2909              	.LVL241:
1558:Drivers/STM32F0xx_HAL_Driver/Src/stm32f0xx_hal_pcd.c ****   }
 2910              		.loc 1 1558 5 is_stmt 1 view .LVU773
1558:Drivers/STM32F0xx_HAL_Driver/Src/stm32f0xx_hal_pcd.c ****   }
 2911              		.loc 1 1558 15 is_stmt 0 view .LVU774
 2912 0064 8218     		adds	r2, r0, r2
 2913 0066 2932     		adds	r2, r2, #41
 2914 0068 0120     		movs	r0, #1
 2915              	.LVL242:
1558:Drivers/STM32F0xx_HAL_Driver/Src/stm32f0xx_hal_pcd.c ****   }
ARM GAS  /tmp/ccd7InD5.s 			page 91


 2916              		.loc 1 1558 15 view .LVU775
 2917 006a 1070     		strb	r0, [r2]
 2918 006c DFE7     		b	.L141
 2919              	.LVL243:
 2920              	.L142:
1552:Drivers/STM32F0xx_HAL_Driver/Src/stm32f0xx_hal_pcd.c ****   }
 2921              		.loc 1 1552 12 view .LVU776
 2922 006e 0120     		movs	r0, #1
 2923              	.LVL244:
1552:Drivers/STM32F0xx_HAL_Driver/Src/stm32f0xx_hal_pcd.c ****   }
 2924              		.loc 1 1552 12 view .LVU777
 2925 0070 F1E7     		b	.L139
 2926              	.LVL245:
 2927              	.L143:
1569:Drivers/STM32F0xx_HAL_Driver/Src/stm32f0xx_hal_pcd.c ****   (void)USB_EPClearStall(hpcd->Instance, ep);
 2928              		.loc 1 1569 3 view .LVU778
 2929 0072 0220     		movs	r0, #2
 2930 0074 EFE7     		b	.L139
 2931              		.cfi_endproc
 2932              	.LFE67:
 2934              		.section	.text.HAL_PCD_EP_Flush,"ax",%progbits
 2935              		.align	1
 2936              		.global	HAL_PCD_EP_Flush
 2937              		.syntax unified
 2938              		.code	16
 2939              		.thumb_func
 2940              		.fpu softvfp
 2942              	HAL_PCD_EP_Flush:
 2943              	.LVL246:
 2944              	.LFB68:
1583:Drivers/STM32F0xx_HAL_Driver/Src/stm32f0xx_hal_pcd.c ****   /* Prevent unused argument(s) compilation warning */
 2945              		.loc 1 1583 1 is_stmt 1 view -0
 2946              		.cfi_startproc
 2947              		@ args = 0, pretend = 0, frame = 0
 2948              		@ frame_needed = 0, uses_anonymous_args = 0
 2949              		@ link register save eliminated.
1585:Drivers/STM32F0xx_HAL_Driver/Src/stm32f0xx_hal_pcd.c ****   UNUSED(ep_addr);
 2950              		.loc 1 1585 3 view .LVU780
1586:Drivers/STM32F0xx_HAL_Driver/Src/stm32f0xx_hal_pcd.c **** 
 2951              		.loc 1 1586 3 view .LVU781
1588:Drivers/STM32F0xx_HAL_Driver/Src/stm32f0xx_hal_pcd.c **** }
 2952              		.loc 1 1588 3 view .LVU782
1589:Drivers/STM32F0xx_HAL_Driver/Src/stm32f0xx_hal_pcd.c **** 
 2953              		.loc 1 1589 1 is_stmt 0 view .LVU783
 2954 0000 0020     		movs	r0, #0
 2955              	.LVL247:
1589:Drivers/STM32F0xx_HAL_Driver/Src/stm32f0xx_hal_pcd.c **** 
 2956              		.loc 1 1589 1 view .LVU784
 2957              		@ sp needed
 2958 0002 7047     		bx	lr
 2959              		.cfi_endproc
 2960              	.LFE68:
 2962              		.section	.text.HAL_PCD_ActivateRemoteWakeup,"ax",%progbits
 2963              		.align	1
 2964              		.global	HAL_PCD_ActivateRemoteWakeup
 2965              		.syntax unified
 2966              		.code	16
ARM GAS  /tmp/ccd7InD5.s 			page 92


 2967              		.thumb_func
 2968              		.fpu softvfp
 2970              	HAL_PCD_ActivateRemoteWakeup:
 2971              	.LVL248:
 2972              	.LFB69:
1597:Drivers/STM32F0xx_HAL_Driver/Src/stm32f0xx_hal_pcd.c ****   return (USB_ActivateRemoteWakeup(hpcd->Instance));
 2973              		.loc 1 1597 1 is_stmt 1 view -0
 2974              		.cfi_startproc
 2975              		@ args = 0, pretend = 0, frame = 0
 2976              		@ frame_needed = 0, uses_anonymous_args = 0
1597:Drivers/STM32F0xx_HAL_Driver/Src/stm32f0xx_hal_pcd.c ****   return (USB_ActivateRemoteWakeup(hpcd->Instance));
 2977              		.loc 1 1597 1 is_stmt 0 view .LVU786
 2978 0000 10B5     		push	{r4, lr}
 2979              	.LCFI17:
 2980              		.cfi_def_cfa_offset 8
 2981              		.cfi_offset 4, -8
 2982              		.cfi_offset 14, -4
1598:Drivers/STM32F0xx_HAL_Driver/Src/stm32f0xx_hal_pcd.c **** }
 2983              		.loc 1 1598 3 is_stmt 1 view .LVU787
1598:Drivers/STM32F0xx_HAL_Driver/Src/stm32f0xx_hal_pcd.c **** }
 2984              		.loc 1 1598 40 is_stmt 0 view .LVU788
 2985 0002 0068     		ldr	r0, [r0]
 2986              	.LVL249:
1598:Drivers/STM32F0xx_HAL_Driver/Src/stm32f0xx_hal_pcd.c **** }
 2987              		.loc 1 1598 11 view .LVU789
 2988 0004 FFF7FEFF 		bl	USB_ActivateRemoteWakeup
 2989              	.LVL250:
1599:Drivers/STM32F0xx_HAL_Driver/Src/stm32f0xx_hal_pcd.c **** 
 2990              		.loc 1 1599 1 view .LVU790
 2991              		@ sp needed
 2992 0008 10BD     		pop	{r4, pc}
 2993              		.cfi_endproc
 2994              	.LFE69:
 2996              		.section	.text.HAL_PCD_DeActivateRemoteWakeup,"ax",%progbits
 2997              		.align	1
 2998              		.global	HAL_PCD_DeActivateRemoteWakeup
 2999              		.syntax unified
 3000              		.code	16
 3001              		.thumb_func
 3002              		.fpu softvfp
 3004              	HAL_PCD_DeActivateRemoteWakeup:
 3005              	.LVL251:
 3006              	.LFB70:
1607:Drivers/STM32F0xx_HAL_Driver/Src/stm32f0xx_hal_pcd.c ****   return (USB_DeActivateRemoteWakeup(hpcd->Instance));
 3007              		.loc 1 1607 1 is_stmt 1 view -0
 3008              		.cfi_startproc
 3009              		@ args = 0, pretend = 0, frame = 0
 3010              		@ frame_needed = 0, uses_anonymous_args = 0
1607:Drivers/STM32F0xx_HAL_Driver/Src/stm32f0xx_hal_pcd.c ****   return (USB_DeActivateRemoteWakeup(hpcd->Instance));
 3011              		.loc 1 1607 1 is_stmt 0 view .LVU792
 3012 0000 10B5     		push	{r4, lr}
 3013              	.LCFI18:
 3014              		.cfi_def_cfa_offset 8
 3015              		.cfi_offset 4, -8
 3016              		.cfi_offset 14, -4
1608:Drivers/STM32F0xx_HAL_Driver/Src/stm32f0xx_hal_pcd.c **** }
 3017              		.loc 1 1608 3 is_stmt 1 view .LVU793
ARM GAS  /tmp/ccd7InD5.s 			page 93


1608:Drivers/STM32F0xx_HAL_Driver/Src/stm32f0xx_hal_pcd.c **** }
 3018              		.loc 1 1608 42 is_stmt 0 view .LVU794
 3019 0002 0068     		ldr	r0, [r0]
 3020              	.LVL252:
1608:Drivers/STM32F0xx_HAL_Driver/Src/stm32f0xx_hal_pcd.c **** }
 3021              		.loc 1 1608 11 view .LVU795
 3022 0004 FFF7FEFF 		bl	USB_DeActivateRemoteWakeup
 3023              	.LVL253:
1609:Drivers/STM32F0xx_HAL_Driver/Src/stm32f0xx_hal_pcd.c **** 
 3024              		.loc 1 1609 1 view .LVU796
 3025              		@ sp needed
 3026 0008 10BD     		pop	{r4, pc}
 3027              		.cfi_endproc
 3028              	.LFE70:
 3030              		.section	.text.HAL_PCD_GetState,"ax",%progbits
 3031              		.align	1
 3032              		.global	HAL_PCD_GetState
 3033              		.syntax unified
 3034              		.code	16
 3035              		.thumb_func
 3036              		.fpu softvfp
 3038              	HAL_PCD_GetState:
 3039              	.LVL254:
 3040              	.LFB71:
1636:Drivers/STM32F0xx_HAL_Driver/Src/stm32f0xx_hal_pcd.c ****   return hpcd->State;
 3041              		.loc 1 1636 1 is_stmt 1 view -0
 3042              		.cfi_startproc
 3043              		@ args = 0, pretend = 0, frame = 0
 3044              		@ frame_needed = 0, uses_anonymous_args = 0
 3045              		@ link register save eliminated.
1637:Drivers/STM32F0xx_HAL_Driver/Src/stm32f0xx_hal_pcd.c **** }
 3046              		.loc 1 1637 3 view .LVU798
1637:Drivers/STM32F0xx_HAL_Driver/Src/stm32f0xx_hal_pcd.c **** }
 3047              		.loc 1 1637 14 is_stmt 0 view .LVU799
 3048 0000 014B     		ldr	r3, .L149
 3049 0002 C05C     		ldrb	r0, [r0, r3]
 3050              	.LVL255:
1637:Drivers/STM32F0xx_HAL_Driver/Src/stm32f0xx_hal_pcd.c **** }
 3051              		.loc 1 1637 14 view .LVU800
 3052 0004 C0B2     		uxtb	r0, r0
1638:Drivers/STM32F0xx_HAL_Driver/Src/stm32f0xx_hal_pcd.c **** 
 3053              		.loc 1 1638 1 view .LVU801
 3054              		@ sp needed
 3055 0006 7047     		bx	lr
 3056              	.L150:
 3057              		.align	2
 3058              	.L149:
 3059 0008 29020000 		.word	553
 3060              		.cfi_endproc
 3061              	.LFE71:
 3063              		.text
 3064              	.Letext0:
 3065              		.file 2 "/usr/arm-none-eabi/include/machine/_default_types.h"
 3066              		.file 3 "/usr/arm-none-eabi/include/sys/_stdint.h"
 3067              		.file 4 "Drivers/CMSIS/Device/ST/STM32F0xx/Include/stm32f072xb.h"
 3068              		.file 5 "Drivers/STM32F0xx_HAL_Driver/Inc/stm32f0xx_hal_def.h"
 3069              		.file 6 "Drivers/STM32F0xx_HAL_Driver/Inc/stm32f0xx_ll_usb.h"
ARM GAS  /tmp/ccd7InD5.s 			page 94


 3070              		.file 7 "Drivers/STM32F0xx_HAL_Driver/Inc/stm32f0xx_hal_pcd.h"
 3071              		.file 8 "Drivers/STM32F0xx_HAL_Driver/Inc/stm32f0xx_hal_pcd_ex.h"
ARM GAS  /tmp/ccd7InD5.s 			page 95


DEFINED SYMBOLS
                            *ABS*:0000000000000000 stm32f0xx_hal_pcd.c
     /tmp/ccd7InD5.s:16     .text.HAL_PCD_MspInit:0000000000000000 $t
     /tmp/ccd7InD5.s:24     .text.HAL_PCD_MspInit:0000000000000000 HAL_PCD_MspInit
     /tmp/ccd7InD5.s:41     .text.HAL_PCD_Init:0000000000000000 $t
     /tmp/ccd7InD5.s:48     .text.HAL_PCD_Init:0000000000000000 HAL_PCD_Init
     /tmp/ccd7InD5.s:265    .text.HAL_PCD_Init:00000000000000d0 $d
     /tmp/ccd7InD5.s:270    .text.HAL_PCD_MspDeInit:0000000000000000 $t
     /tmp/ccd7InD5.s:277    .text.HAL_PCD_MspDeInit:0000000000000000 HAL_PCD_MspDeInit
     /tmp/ccd7InD5.s:293    .text.HAL_PCD_Start:0000000000000000 $t
     /tmp/ccd7InD5.s:300    .text.HAL_PCD_Start:0000000000000000 HAL_PCD_Start
     /tmp/ccd7InD5.s:365    .text.HAL_PCD_Stop:0000000000000000 $t
     /tmp/ccd7InD5.s:372    .text.HAL_PCD_Stop:0000000000000000 HAL_PCD_Stop
     /tmp/ccd7InD5.s:438    .text.HAL_PCD_DeInit:0000000000000000 $t
     /tmp/ccd7InD5.s:445    .text.HAL_PCD_DeInit:0000000000000000 HAL_PCD_DeInit
     /tmp/ccd7InD5.s:500    .text.HAL_PCD_DeInit:0000000000000024 $d
     /tmp/ccd7InD5.s:505    .text.HAL_PCD_DataOutStageCallback:0000000000000000 $t
     /tmp/ccd7InD5.s:512    .text.HAL_PCD_DataOutStageCallback:0000000000000000 HAL_PCD_DataOutStageCallback
     /tmp/ccd7InD5.s:529    .text.HAL_PCD_DataInStageCallback:0000000000000000 $t
     /tmp/ccd7InD5.s:536    .text.HAL_PCD_DataInStageCallback:0000000000000000 HAL_PCD_DataInStageCallback
     /tmp/ccd7InD5.s:553    .text.HAL_PCD_SetupStageCallback:0000000000000000 $t
     /tmp/ccd7InD5.s:560    .text.HAL_PCD_SetupStageCallback:0000000000000000 HAL_PCD_SetupStageCallback
     /tmp/ccd7InD5.s:576    .text.HAL_PCD_SOFCallback:0000000000000000 $t
     /tmp/ccd7InD5.s:583    .text.HAL_PCD_SOFCallback:0000000000000000 HAL_PCD_SOFCallback
     /tmp/ccd7InD5.s:599    .text.HAL_PCD_ResetCallback:0000000000000000 $t
     /tmp/ccd7InD5.s:606    .text.HAL_PCD_ResetCallback:0000000000000000 HAL_PCD_ResetCallback
     /tmp/ccd7InD5.s:622    .text.HAL_PCD_SuspendCallback:0000000000000000 $t
     /tmp/ccd7InD5.s:629    .text.HAL_PCD_SuspendCallback:0000000000000000 HAL_PCD_SuspendCallback
     /tmp/ccd7InD5.s:645    .text.HAL_PCD_ResumeCallback:0000000000000000 $t
     /tmp/ccd7InD5.s:652    .text.HAL_PCD_ResumeCallback:0000000000000000 HAL_PCD_ResumeCallback
     /tmp/ccd7InD5.s:668    .text.HAL_PCD_ISOOUTIncompleteCallback:0000000000000000 $t
     /tmp/ccd7InD5.s:675    .text.HAL_PCD_ISOOUTIncompleteCallback:0000000000000000 HAL_PCD_ISOOUTIncompleteCallback
     /tmp/ccd7InD5.s:692    .text.HAL_PCD_ISOINIncompleteCallback:0000000000000000 $t
     /tmp/ccd7InD5.s:699    .text.HAL_PCD_ISOINIncompleteCallback:0000000000000000 HAL_PCD_ISOINIncompleteCallback
     /tmp/ccd7InD5.s:716    .text.HAL_PCD_ConnectCallback:0000000000000000 $t
     /tmp/ccd7InD5.s:723    .text.HAL_PCD_ConnectCallback:0000000000000000 HAL_PCD_ConnectCallback
     /tmp/ccd7InD5.s:739    .text.HAL_PCD_DisconnectCallback:0000000000000000 $t
     /tmp/ccd7InD5.s:746    .text.HAL_PCD_DisconnectCallback:0000000000000000 HAL_PCD_DisconnectCallback
     /tmp/ccd7InD5.s:762    .text.HAL_PCD_DevConnect:0000000000000000 $t
     /tmp/ccd7InD5.s:769    .text.HAL_PCD_DevConnect:0000000000000000 HAL_PCD_DevConnect
     /tmp/ccd7InD5.s:830    .text.HAL_PCD_DevDisconnect:0000000000000000 $t
     /tmp/ccd7InD5.s:837    .text.HAL_PCD_DevDisconnect:0000000000000000 HAL_PCD_DevDisconnect
     /tmp/ccd7InD5.s:898    .text.HAL_PCD_SetAddress:0000000000000000 $t
     /tmp/ccd7InD5.s:905    .text.HAL_PCD_SetAddress:0000000000000000 HAL_PCD_SetAddress
     /tmp/ccd7InD5.s:970    .text.HAL_PCD_EP_Open:0000000000000000 $t
     /tmp/ccd7InD5.s:977    .text.HAL_PCD_EP_Open:0000000000000000 HAL_PCD_EP_Open
     /tmp/ccd7InD5.s:1127   .text.HAL_PCD_EP_Close:0000000000000000 $t
     /tmp/ccd7InD5.s:1134   .text.HAL_PCD_EP_Close:0000000000000000 HAL_PCD_EP_Close
     /tmp/ccd7InD5.s:1251   .text.HAL_PCD_EP_Receive:0000000000000000 $t
     /tmp/ccd7InD5.s:1258   .text.HAL_PCD_EP_Receive:0000000000000000 HAL_PCD_EP_Receive
     /tmp/ccd7InD5.s:1357   .text.HAL_PCD_EP_GetRxCount:0000000000000000 $t
     /tmp/ccd7InD5.s:1364   .text.HAL_PCD_EP_GetRxCount:0000000000000000 HAL_PCD_EP_GetRxCount
     /tmp/ccd7InD5.s:1390   .text.HAL_PCD_EP_Transmit:0000000000000000 $t
     /tmp/ccd7InD5.s:1397   .text.HAL_PCD_EP_Transmit:0000000000000000 HAL_PCD_EP_Transmit
     /tmp/ccd7InD5.s:1490   .text.PCD_EP_ISR_Handler:0000000000000000 $t
     /tmp/ccd7InD5.s:1496   .text.PCD_EP_ISR_Handler:0000000000000000 PCD_EP_ISR_Handler
     /tmp/ccd7InD5.s:2259   .text.PCD_EP_ISR_Handler:000000000000035c $d
ARM GAS  /tmp/ccd7InD5.s 			page 96


     /tmp/ccd7InD5.s:2273   .text.PCD_EP_ISR_Handler:0000000000000384 $t
     /tmp/ccd7InD5.s:2291   .text.HAL_PCD_IRQHandler:0000000000000000 $t
     /tmp/ccd7InD5.s:2298   .text.HAL_PCD_IRQHandler:0000000000000000 HAL_PCD_IRQHandler
     /tmp/ccd7InD5.s:2629   .text.HAL_PCD_IRQHandler:000000000000019c $d
     /tmp/ccd7InD5.s:2640   .text.HAL_PCD_EP_SetStall:0000000000000000 $t
     /tmp/ccd7InD5.s:2647   .text.HAL_PCD_EP_SetStall:0000000000000000 HAL_PCD_EP_SetStall
     /tmp/ccd7InD5.s:2793   .text.HAL_PCD_EP_ClrStall:0000000000000000 $t
     /tmp/ccd7InD5.s:2800   .text.HAL_PCD_EP_ClrStall:0000000000000000 HAL_PCD_EP_ClrStall
     /tmp/ccd7InD5.s:2935   .text.HAL_PCD_EP_Flush:0000000000000000 $t
     /tmp/ccd7InD5.s:2942   .text.HAL_PCD_EP_Flush:0000000000000000 HAL_PCD_EP_Flush
     /tmp/ccd7InD5.s:2963   .text.HAL_PCD_ActivateRemoteWakeup:0000000000000000 $t
     /tmp/ccd7InD5.s:2970   .text.HAL_PCD_ActivateRemoteWakeup:0000000000000000 HAL_PCD_ActivateRemoteWakeup
     /tmp/ccd7InD5.s:2997   .text.HAL_PCD_DeActivateRemoteWakeup:0000000000000000 $t
     /tmp/ccd7InD5.s:3004   .text.HAL_PCD_DeActivateRemoteWakeup:0000000000000000 HAL_PCD_DeActivateRemoteWakeup
     /tmp/ccd7InD5.s:3031   .text.HAL_PCD_GetState:0000000000000000 $t
     /tmp/ccd7InD5.s:3038   .text.HAL_PCD_GetState:0000000000000000 HAL_PCD_GetState
     /tmp/ccd7InD5.s:3059   .text.HAL_PCD_GetState:0000000000000008 $d

UNDEFINED SYMBOLS
USB_DisableGlobalInt
USB_DevInit
HAL_PCDEx_ActivateLPM
USB_DevConnect
USB_EnableGlobalInt
USB_StopDevice
USB_DevDisconnect
USB_SetDevAddress
USB_ActivateEndpoint
USB_DeactivateEndpoint
USB_EPStartXfer
USB_ReadPMA
USB_ReadInterrupts
HAL_PCDEx_LPM_Callback
USB_EPSetStall
USB_EP0_OutStart
USB_EPClearStall
USB_ActivateRemoteWakeup
USB_DeActivateRemoteWakeup
