ARM GAS  /tmp/ccfGkWCi.s 			page 1


   1              		.cpu cortex-m0
   2              		.eabi_attribute 20, 1
   3              		.eabi_attribute 21, 1
   4              		.eabi_attribute 23, 3
   5              		.eabi_attribute 24, 1
   6              		.eabi_attribute 25, 1
   7              		.eabi_attribute 26, 1
   8              		.eabi_attribute 30, 1
   9              		.eabi_attribute 34, 0
  10              		.eabi_attribute 18, 4
  11              		.file	"stm32f0xx_it.c"
  12              		.text
  13              	.Ltext0:
  14              		.cfi_sections	.debug_frame
  15              		.section	.text.NMI_Handler,"ax",%progbits
  16              		.align	1
  17              		.global	NMI_Handler
  18              		.arch armv6s-m
  19              		.syntax unified
  20              		.code	16
  21              		.thumb_func
  22              		.fpu softvfp
  24              	NMI_Handler:
  25              	.LFB40:
  26              		.file 1 "Src/stm32f0xx_it.c"
   1:Src/stm32f0xx_it.c **** /* USER CODE BEGIN Header */
   2:Src/stm32f0xx_it.c **** /**
   3:Src/stm32f0xx_it.c ****   ******************************************************************************
   4:Src/stm32f0xx_it.c ****   * @file    stm32f0xx_it.c
   5:Src/stm32f0xx_it.c ****   * @brief   Interrupt Service Routines.
   6:Src/stm32f0xx_it.c ****   ******************************************************************************
   7:Src/stm32f0xx_it.c ****   * @attention
   8:Src/stm32f0xx_it.c ****   *
   9:Src/stm32f0xx_it.c ****   * <h2><center>&copy; Copyright (c) 2020 STMicroelectronics.
  10:Src/stm32f0xx_it.c ****   * All rights reserved.</center></h2>
  11:Src/stm32f0xx_it.c ****   *
  12:Src/stm32f0xx_it.c ****   * This software component is licensed by ST under Ultimate Liberty license
  13:Src/stm32f0xx_it.c ****   * SLA0044, the "License"; You may not use this file except in compliance with
  14:Src/stm32f0xx_it.c ****   * the License. You may obtain a copy of the License at:
  15:Src/stm32f0xx_it.c ****   *                             www.st.com/SLA0044
  16:Src/stm32f0xx_it.c ****   *
  17:Src/stm32f0xx_it.c ****   ******************************************************************************
  18:Src/stm32f0xx_it.c ****   */
  19:Src/stm32f0xx_it.c **** /* USER CODE END Header */
  20:Src/stm32f0xx_it.c **** 
  21:Src/stm32f0xx_it.c **** /* Includes ------------------------------------------------------------------*/
  22:Src/stm32f0xx_it.c **** #include "main.h"
  23:Src/stm32f0xx_it.c **** #include "stm32f0xx_it.h"
  24:Src/stm32f0xx_it.c **** /* Private includes ----------------------------------------------------------*/
  25:Src/stm32f0xx_it.c **** /* USER CODE BEGIN Includes */
  26:Src/stm32f0xx_it.c **** /* USER CODE END Includes */
  27:Src/stm32f0xx_it.c **** 
  28:Src/stm32f0xx_it.c **** /* Private typedef -----------------------------------------------------------*/
  29:Src/stm32f0xx_it.c **** /* USER CODE BEGIN TD */
  30:Src/stm32f0xx_it.c **** 
  31:Src/stm32f0xx_it.c **** /* USER CODE END TD */
  32:Src/stm32f0xx_it.c **** 
ARM GAS  /tmp/ccfGkWCi.s 			page 2


  33:Src/stm32f0xx_it.c **** /* Private define ------------------------------------------------------------*/
  34:Src/stm32f0xx_it.c **** /* USER CODE BEGIN PD */
  35:Src/stm32f0xx_it.c ****  
  36:Src/stm32f0xx_it.c **** /* USER CODE END PD */
  37:Src/stm32f0xx_it.c **** 
  38:Src/stm32f0xx_it.c **** /* Private macro -------------------------------------------------------------*/
  39:Src/stm32f0xx_it.c **** /* USER CODE BEGIN PM */
  40:Src/stm32f0xx_it.c **** 
  41:Src/stm32f0xx_it.c **** /* USER CODE END PM */
  42:Src/stm32f0xx_it.c **** 
  43:Src/stm32f0xx_it.c **** /* Private variables ---------------------------------------------------------*/
  44:Src/stm32f0xx_it.c **** /* USER CODE BEGIN PV */
  45:Src/stm32f0xx_it.c **** 
  46:Src/stm32f0xx_it.c **** /* USER CODE END PV */
  47:Src/stm32f0xx_it.c **** 
  48:Src/stm32f0xx_it.c **** /* Private function prototypes -----------------------------------------------*/
  49:Src/stm32f0xx_it.c **** /* USER CODE BEGIN PFP */
  50:Src/stm32f0xx_it.c **** 
  51:Src/stm32f0xx_it.c **** /* USER CODE END PFP */
  52:Src/stm32f0xx_it.c **** 
  53:Src/stm32f0xx_it.c **** /* Private user code ---------------------------------------------------------*/
  54:Src/stm32f0xx_it.c **** /* USER CODE BEGIN 0 */
  55:Src/stm32f0xx_it.c **** 
  56:Src/stm32f0xx_it.c **** /* USER CODE END 0 */
  57:Src/stm32f0xx_it.c **** 
  58:Src/stm32f0xx_it.c **** /* External variables --------------------------------------------------------*/
  59:Src/stm32f0xx_it.c **** extern PCD_HandleTypeDef hpcd_USB_FS;
  60:Src/stm32f0xx_it.c **** /* USER CODE BEGIN EV */
  61:Src/stm32f0xx_it.c **** 
  62:Src/stm32f0xx_it.c **** /* USER CODE END EV */
  63:Src/stm32f0xx_it.c **** 
  64:Src/stm32f0xx_it.c **** /******************************************************************************/
  65:Src/stm32f0xx_it.c **** /*           Cortex-M0 Processor Interruption and Exception Handlers          */
  66:Src/stm32f0xx_it.c **** /******************************************************************************/
  67:Src/stm32f0xx_it.c **** /**
  68:Src/stm32f0xx_it.c ****   * @brief This function handles Non maskable interrupt.
  69:Src/stm32f0xx_it.c ****   */
  70:Src/stm32f0xx_it.c **** void NMI_Handler(void)
  71:Src/stm32f0xx_it.c **** {
  27              		.loc 1 71 1 view -0
  28              		.cfi_startproc
  29              		@ args = 0, pretend = 0, frame = 0
  30              		@ frame_needed = 0, uses_anonymous_args = 0
  31              		@ link register save eliminated.
  72:Src/stm32f0xx_it.c ****   /* USER CODE BEGIN NonMaskableInt_IRQn 0 */
  73:Src/stm32f0xx_it.c **** 
  74:Src/stm32f0xx_it.c ****   /* USER CODE END NonMaskableInt_IRQn 0 */
  75:Src/stm32f0xx_it.c ****   /* USER CODE BEGIN NonMaskableInt_IRQn 1 */
  76:Src/stm32f0xx_it.c **** 
  77:Src/stm32f0xx_it.c ****   /* USER CODE END NonMaskableInt_IRQn 1 */
  78:Src/stm32f0xx_it.c **** }
  32              		.loc 1 78 1 view .LVU1
  33              		@ sp needed
  34 0000 7047     		bx	lr
  35              		.cfi_endproc
  36              	.LFE40:
  38              		.section	.text.HardFault_Handler,"ax",%progbits
ARM GAS  /tmp/ccfGkWCi.s 			page 3


  39              		.align	1
  40              		.global	HardFault_Handler
  41              		.syntax unified
  42              		.code	16
  43              		.thumb_func
  44              		.fpu softvfp
  46              	HardFault_Handler:
  47              	.LFB41:
  79:Src/stm32f0xx_it.c **** 
  80:Src/stm32f0xx_it.c **** /**
  81:Src/stm32f0xx_it.c ****   * @brief This function handles Hard fault interrupt.
  82:Src/stm32f0xx_it.c ****   */
  83:Src/stm32f0xx_it.c **** void HardFault_Handler(void)
  84:Src/stm32f0xx_it.c **** {
  48              		.loc 1 84 1 view -0
  49              		.cfi_startproc
  50              		@ Volatile: function does not return.
  51              		@ args = 0, pretend = 0, frame = 0
  52              		@ frame_needed = 0, uses_anonymous_args = 0
  53              		@ link register save eliminated.
  54              	.L3:
  85:Src/stm32f0xx_it.c ****   /* USER CODE BEGIN HardFault_IRQn 0 */
  86:Src/stm32f0xx_it.c **** 
  87:Src/stm32f0xx_it.c ****   /* USER CODE END HardFault_IRQn 0 */
  88:Src/stm32f0xx_it.c ****   while (1)
  55              		.loc 1 88 3 discriminator 1 view .LVU3
  89:Src/stm32f0xx_it.c ****   {
  90:Src/stm32f0xx_it.c ****     /* USER CODE BEGIN W1_HardFault_IRQn 0 */
  91:Src/stm32f0xx_it.c ****     /* USER CODE END W1_HardFault_IRQn 0 */
  92:Src/stm32f0xx_it.c ****   }
  56              		.loc 1 92 3 discriminator 1 view .LVU4
  88:Src/stm32f0xx_it.c ****   {
  57              		.loc 1 88 9 discriminator 1 view .LVU5
  58 0000 FEE7     		b	.L3
  59              		.cfi_endproc
  60              	.LFE41:
  62              		.section	.text.SVC_Handler,"ax",%progbits
  63              		.align	1
  64              		.global	SVC_Handler
  65              		.syntax unified
  66              		.code	16
  67              		.thumb_func
  68              		.fpu softvfp
  70              	SVC_Handler:
  71              	.LFB42:
  93:Src/stm32f0xx_it.c **** }
  94:Src/stm32f0xx_it.c **** 
  95:Src/stm32f0xx_it.c **** /**
  96:Src/stm32f0xx_it.c ****   * @brief This function handles System service call via SWI instruction.
  97:Src/stm32f0xx_it.c ****   */
  98:Src/stm32f0xx_it.c **** void SVC_Handler(void)
  99:Src/stm32f0xx_it.c **** {
  72              		.loc 1 99 1 view -0
  73              		.cfi_startproc
  74              		@ args = 0, pretend = 0, frame = 0
  75              		@ frame_needed = 0, uses_anonymous_args = 0
  76              		@ link register save eliminated.
ARM GAS  /tmp/ccfGkWCi.s 			page 4


 100:Src/stm32f0xx_it.c ****   /* USER CODE BEGIN SVC_IRQn 0 */
 101:Src/stm32f0xx_it.c **** 
 102:Src/stm32f0xx_it.c ****   /* USER CODE END SVC_IRQn 0 */
 103:Src/stm32f0xx_it.c ****   /* USER CODE BEGIN SVC_IRQn 1 */
 104:Src/stm32f0xx_it.c **** 
 105:Src/stm32f0xx_it.c ****   /* USER CODE END SVC_IRQn 1 */
 106:Src/stm32f0xx_it.c **** }
  77              		.loc 1 106 1 view .LVU7
  78              		@ sp needed
  79 0000 7047     		bx	lr
  80              		.cfi_endproc
  81              	.LFE42:
  83              		.section	.text.PendSV_Handler,"ax",%progbits
  84              		.align	1
  85              		.global	PendSV_Handler
  86              		.syntax unified
  87              		.code	16
  88              		.thumb_func
  89              		.fpu softvfp
  91              	PendSV_Handler:
  92              	.LFB43:
 107:Src/stm32f0xx_it.c **** 
 108:Src/stm32f0xx_it.c **** /**
 109:Src/stm32f0xx_it.c ****   * @brief This function handles Pendable request for system service.
 110:Src/stm32f0xx_it.c ****   */
 111:Src/stm32f0xx_it.c **** void PendSV_Handler(void)
 112:Src/stm32f0xx_it.c **** {
  93              		.loc 1 112 1 view -0
  94              		.cfi_startproc
  95              		@ args = 0, pretend = 0, frame = 0
  96              		@ frame_needed = 0, uses_anonymous_args = 0
  97              		@ link register save eliminated.
 113:Src/stm32f0xx_it.c ****   /* USER CODE BEGIN PendSV_IRQn 0 */
 114:Src/stm32f0xx_it.c **** 
 115:Src/stm32f0xx_it.c ****   /* USER CODE END PendSV_IRQn 0 */
 116:Src/stm32f0xx_it.c ****   /* USER CODE BEGIN PendSV_IRQn 1 */
 117:Src/stm32f0xx_it.c **** 
 118:Src/stm32f0xx_it.c ****   /* USER CODE END PendSV_IRQn 1 */
 119:Src/stm32f0xx_it.c **** }
  98              		.loc 1 119 1 view .LVU9
  99              		@ sp needed
 100 0000 7047     		bx	lr
 101              		.cfi_endproc
 102              	.LFE43:
 104              		.section	.text.SysTick_Handler,"ax",%progbits
 105              		.align	1
 106              		.global	SysTick_Handler
 107              		.syntax unified
 108              		.code	16
 109              		.thumb_func
 110              		.fpu softvfp
 112              	SysTick_Handler:
 113              	.LFB44:
 120:Src/stm32f0xx_it.c **** 
 121:Src/stm32f0xx_it.c **** /**
 122:Src/stm32f0xx_it.c ****   * @brief This function handles System tick timer.
 123:Src/stm32f0xx_it.c ****   */
ARM GAS  /tmp/ccfGkWCi.s 			page 5


 124:Src/stm32f0xx_it.c **** void SysTick_Handler(void)
 125:Src/stm32f0xx_it.c **** {
 114              		.loc 1 125 1 view -0
 115              		.cfi_startproc
 116              		@ args = 0, pretend = 0, frame = 0
 117              		@ frame_needed = 0, uses_anonymous_args = 0
 118 0000 10B5     		push	{r4, lr}
 119              	.LCFI0:
 120              		.cfi_def_cfa_offset 8
 121              		.cfi_offset 4, -8
 122              		.cfi_offset 14, -4
 126:Src/stm32f0xx_it.c ****   /* USER CODE BEGIN SysTick_IRQn 0 */
 127:Src/stm32f0xx_it.c **** 
 128:Src/stm32f0xx_it.c ****   /* USER CODE END SysTick_IRQn 0 */
 129:Src/stm32f0xx_it.c ****   HAL_IncTick();
 123              		.loc 1 129 3 view .LVU11
 124 0002 FFF7FEFF 		bl	HAL_IncTick
 125              	.LVL0:
 130:Src/stm32f0xx_it.c ****   /* USER CODE BEGIN SysTick_IRQn 1 */
 131:Src/stm32f0xx_it.c **** 
 132:Src/stm32f0xx_it.c ****   /* USER CODE END SysTick_IRQn 1 */
 133:Src/stm32f0xx_it.c **** }
 126              		.loc 1 133 1 is_stmt 0 view .LVU12
 127              		@ sp needed
 128 0006 10BD     		pop	{r4, pc}
 129              		.cfi_endproc
 130              	.LFE44:
 132              		.section	.text.EXTI4_15_IRQHandler,"ax",%progbits
 133              		.align	1
 134              		.global	EXTI4_15_IRQHandler
 135              		.syntax unified
 136              		.code	16
 137              		.thumb_func
 138              		.fpu softvfp
 140              	EXTI4_15_IRQHandler:
 141              	.LFB45:
 134:Src/stm32f0xx_it.c **** 
 135:Src/stm32f0xx_it.c **** /******************************************************************************/
 136:Src/stm32f0xx_it.c **** /* STM32F0xx Peripheral Interrupt Handlers                                    */
 137:Src/stm32f0xx_it.c **** /* Add here the Interrupt Handlers for the used peripherals.                  */
 138:Src/stm32f0xx_it.c **** /* For the available peripheral interrupt handler names,                      */
 139:Src/stm32f0xx_it.c **** /* please refer to the startup file (startup_stm32f0xx.s).                    */
 140:Src/stm32f0xx_it.c **** /******************************************************************************/
 141:Src/stm32f0xx_it.c **** 
 142:Src/stm32f0xx_it.c **** /**
 143:Src/stm32f0xx_it.c ****   * @brief This function handles EXTI line 4 to 15 interrupts.
 144:Src/stm32f0xx_it.c ****   */
 145:Src/stm32f0xx_it.c **** void EXTI4_15_IRQHandler(void)
 146:Src/stm32f0xx_it.c **** {
 142              		.loc 1 146 1 is_stmt 1 view -0
 143              		.cfi_startproc
 144              		@ args = 0, pretend = 0, frame = 0
 145              		@ frame_needed = 0, uses_anonymous_args = 0
 146 0000 10B5     		push	{r4, lr}
 147              	.LCFI1:
 148              		.cfi_def_cfa_offset 8
 149              		.cfi_offset 4, -8
ARM GAS  /tmp/ccfGkWCi.s 			page 6


 150              		.cfi_offset 14, -4
 147:Src/stm32f0xx_it.c ****   /* USER CODE BEGIN EXTI4_15_IRQn 0 */
 148:Src/stm32f0xx_it.c **** 
 149:Src/stm32f0xx_it.c ****   /* USER CODE END EXTI4_15_IRQn 0 */
 150:Src/stm32f0xx_it.c ****   HAL_GPIO_EXTI_IRQHandler(GPIO_PIN_9);
 151              		.loc 1 150 3 view .LVU14
 152 0002 8020     		movs	r0, #128
 153 0004 8000     		lsls	r0, r0, #2
 154 0006 FFF7FEFF 		bl	HAL_GPIO_EXTI_IRQHandler
 155              	.LVL1:
 151:Src/stm32f0xx_it.c ****   /* USER CODE BEGIN EXTI4_15_IRQn 1 */
 152:Src/stm32f0xx_it.c **** 
 153:Src/stm32f0xx_it.c ****   /* USER CODE END EXTI4_15_IRQn 1 */
 154:Src/stm32f0xx_it.c **** }
 156              		.loc 1 154 1 is_stmt 0 view .LVU15
 157              		@ sp needed
 158 000a 10BD     		pop	{r4, pc}
 159              		.cfi_endproc
 160              	.LFE45:
 162              		.section	.text.USB_IRQHandler,"ax",%progbits
 163              		.align	1
 164              		.global	USB_IRQHandler
 165              		.syntax unified
 166              		.code	16
 167              		.thumb_func
 168              		.fpu softvfp
 170              	USB_IRQHandler:
 171              	.LFB46:
 155:Src/stm32f0xx_it.c **** 
 156:Src/stm32f0xx_it.c **** /**
 157:Src/stm32f0xx_it.c ****   * @brief This function handles USB global interrupt / USB wake-up interrupt through EXTI line 18.
 158:Src/stm32f0xx_it.c ****   */
 159:Src/stm32f0xx_it.c **** void USB_IRQHandler(void)
 160:Src/stm32f0xx_it.c **** {
 172              		.loc 1 160 1 is_stmt 1 view -0
 173              		.cfi_startproc
 174              		@ args = 0, pretend = 0, frame = 0
 175              		@ frame_needed = 0, uses_anonymous_args = 0
 176 0000 10B5     		push	{r4, lr}
 177              	.LCFI2:
 178              		.cfi_def_cfa_offset 8
 179              		.cfi_offset 4, -8
 180              		.cfi_offset 14, -4
 161:Src/stm32f0xx_it.c ****   /* USER CODE BEGIN USB_IRQn 0 */
 162:Src/stm32f0xx_it.c **** 
 163:Src/stm32f0xx_it.c ****   /* USER CODE END USB_IRQn 0 */
 164:Src/stm32f0xx_it.c ****   HAL_PCD_IRQHandler(&hpcd_USB_FS);
 181              		.loc 1 164 3 view .LVU17
 182 0002 0248     		ldr	r0, .L9
 183 0004 FFF7FEFF 		bl	HAL_PCD_IRQHandler
 184              	.LVL2:
 165:Src/stm32f0xx_it.c ****   /* USER CODE BEGIN USB_IRQn 1 */
 166:Src/stm32f0xx_it.c **** 
 167:Src/stm32f0xx_it.c ****   /* USER CODE END USB_IRQn 1 */
 168:Src/stm32f0xx_it.c **** }
 185              		.loc 1 168 1 is_stmt 0 view .LVU18
 186              		@ sp needed
ARM GAS  /tmp/ccfGkWCi.s 			page 7


 187 0008 10BD     		pop	{r4, pc}
 188              	.L10:
 189 000a C046     		.align	2
 190              	.L9:
 191 000c 00000000 		.word	hpcd_USB_FS
 192              		.cfi_endproc
 193              	.LFE46:
 195              		.text
 196              	.Letext0:
 197              		.file 2 "/usr/arm-none-eabi/include/machine/_default_types.h"
 198              		.file 3 "/usr/arm-none-eabi/include/sys/_stdint.h"
 199              		.file 4 "Drivers/CMSIS/Device/ST/STM32F0xx/Include/stm32f072xb.h"
 200              		.file 5 "Drivers/STM32F0xx_HAL_Driver/Inc/stm32f0xx_hal_def.h"
 201              		.file 6 "Drivers/STM32F0xx_HAL_Driver/Inc/stm32f0xx_ll_usb.h"
 202              		.file 7 "Drivers/STM32F0xx_HAL_Driver/Inc/stm32f0xx_hal_pcd.h"
 203              		.file 8 "Drivers/STM32F0xx_HAL_Driver/Inc/stm32f0xx_hal_gpio.h"
 204              		.file 9 "Drivers/STM32F0xx_HAL_Driver/Inc/stm32f0xx_hal.h"
ARM GAS  /tmp/ccfGkWCi.s 			page 8

