ARM GAS  /tmp/cckwFVu6.s 			page 1


   1              		.cpu cortex-m0
   2              		.eabi_attribute 20, 1
   3              		.eabi_attribute 21, 1
   4              		.eabi_attribute 23, 3
   5              		.eabi_attribute 24, 1
   6              		.eabi_attribute 25, 1
   7              		.eabi_attribute 26, 1
   8              		.eabi_attribute 30, 1
   9              		.eabi_attribute 34, 0
  10              		.eabi_attribute 18, 4
  11              		.file	"stm32f0xx_hal_gpio.c"
  12              		.text
  13              	.Ltext0:
  14              		.cfi_sections	.debug_frame
  15              		.section	.text.HAL_GPIO_Init,"ax",%progbits
  16              		.align	1
  17              		.global	HAL_GPIO_Init
  18              		.arch armv6s-m
  19              		.syntax unified
  20              		.code	16
  21              		.thumb_func
  22              		.fpu softvfp
  24              	HAL_GPIO_Init:
  25              	.LVL0:
  26              	.LFB40:
  27              		.file 1 "Drivers/STM32F0xx_HAL_Driver/Src/stm32f0xx_hal_gpio.c"
   1:Drivers/STM32F0xx_HAL_Driver/Src/stm32f0xx_hal_gpio.c **** /**
   2:Drivers/STM32F0xx_HAL_Driver/Src/stm32f0xx_hal_gpio.c ****   ******************************************************************************
   3:Drivers/STM32F0xx_HAL_Driver/Src/stm32f0xx_hal_gpio.c ****   * @file    stm32f0xx_hal_gpio.c
   4:Drivers/STM32F0xx_HAL_Driver/Src/stm32f0xx_hal_gpio.c ****   * @author  MCD Application Team
   5:Drivers/STM32F0xx_HAL_Driver/Src/stm32f0xx_hal_gpio.c ****   * @brief   GPIO HAL module driver.
   6:Drivers/STM32F0xx_HAL_Driver/Src/stm32f0xx_hal_gpio.c ****   *          This file provides firmware functions to manage the following 
   7:Drivers/STM32F0xx_HAL_Driver/Src/stm32f0xx_hal_gpio.c ****   *          functionalities of the General Purpose Input/Output (GPIO) peripheral:
   8:Drivers/STM32F0xx_HAL_Driver/Src/stm32f0xx_hal_gpio.c ****   *           + Initialization and de-initialization functions
   9:Drivers/STM32F0xx_HAL_Driver/Src/stm32f0xx_hal_gpio.c ****   *           + IO operation functions
  10:Drivers/STM32F0xx_HAL_Driver/Src/stm32f0xx_hal_gpio.c ****   *         
  11:Drivers/STM32F0xx_HAL_Driver/Src/stm32f0xx_hal_gpio.c ****   @verbatim
  12:Drivers/STM32F0xx_HAL_Driver/Src/stm32f0xx_hal_gpio.c ****   ==============================================================================
  13:Drivers/STM32F0xx_HAL_Driver/Src/stm32f0xx_hal_gpio.c ****                     ##### GPIO Peripheral features #####
  14:Drivers/STM32F0xx_HAL_Driver/Src/stm32f0xx_hal_gpio.c ****   ==============================================================================         
  15:Drivers/STM32F0xx_HAL_Driver/Src/stm32f0xx_hal_gpio.c ****   [..] 
  16:Drivers/STM32F0xx_HAL_Driver/Src/stm32f0xx_hal_gpio.c ****     (+) Each port bit of the general-purpose I/O (GPIO) ports can be individually
  17:Drivers/STM32F0xx_HAL_Driver/Src/stm32f0xx_hal_gpio.c ****   configured by software in several modes:
  18:Drivers/STM32F0xx_HAL_Driver/Src/stm32f0xx_hal_gpio.c ****         (++) Input mode
  19:Drivers/STM32F0xx_HAL_Driver/Src/stm32f0xx_hal_gpio.c ****         (++) Analog mode
  20:Drivers/STM32F0xx_HAL_Driver/Src/stm32f0xx_hal_gpio.c ****         (++) Output mode
  21:Drivers/STM32F0xx_HAL_Driver/Src/stm32f0xx_hal_gpio.c ****         (++) Alternate function mode
  22:Drivers/STM32F0xx_HAL_Driver/Src/stm32f0xx_hal_gpio.c ****         (++) External interrupt/event lines
  23:Drivers/STM32F0xx_HAL_Driver/Src/stm32f0xx_hal_gpio.c ****  
  24:Drivers/STM32F0xx_HAL_Driver/Src/stm32f0xx_hal_gpio.c ****     (+) During and just after reset, the alternate functions and external interrupt
  25:Drivers/STM32F0xx_HAL_Driver/Src/stm32f0xx_hal_gpio.c ****   lines are not active and the I/O ports are configured in input floating mode.
  26:Drivers/STM32F0xx_HAL_Driver/Src/stm32f0xx_hal_gpio.c ****   
  27:Drivers/STM32F0xx_HAL_Driver/Src/stm32f0xx_hal_gpio.c ****     (+) All GPIO pins have weak internal pull-up and pull-down resistors, which can be
  28:Drivers/STM32F0xx_HAL_Driver/Src/stm32f0xx_hal_gpio.c ****   activated or not.
  29:Drivers/STM32F0xx_HAL_Driver/Src/stm32f0xx_hal_gpio.c ****            
  30:Drivers/STM32F0xx_HAL_Driver/Src/stm32f0xx_hal_gpio.c ****     (+) In Output or Alternate mode, each IO can be configured on open-drain or push-pull
  31:Drivers/STM32F0xx_HAL_Driver/Src/stm32f0xx_hal_gpio.c ****   type and the IO speed can be selected depending on the VDD value.
ARM GAS  /tmp/cckwFVu6.s 			page 2


  32:Drivers/STM32F0xx_HAL_Driver/Src/stm32f0xx_hal_gpio.c ****        
  33:Drivers/STM32F0xx_HAL_Driver/Src/stm32f0xx_hal_gpio.c ****     (+) The microcontroller IO pins are connected to onboard peripherals/modules through a
  34:Drivers/STM32F0xx_HAL_Driver/Src/stm32f0xx_hal_gpio.c ****         multiplexer that allows only one peripheral alternate function (AF) connected
  35:Drivers/STM32F0xx_HAL_Driver/Src/stm32f0xx_hal_gpio.c ****   to an IO pin at a time. In this way, there can be no conflict between peripherals 
  36:Drivers/STM32F0xx_HAL_Driver/Src/stm32f0xx_hal_gpio.c ****   sharing the same IO pin. 
  37:Drivers/STM32F0xx_HAL_Driver/Src/stm32f0xx_hal_gpio.c ****   
  38:Drivers/STM32F0xx_HAL_Driver/Src/stm32f0xx_hal_gpio.c ****     (+) All ports have external interrupt/event capability. To use external interrupt
  39:Drivers/STM32F0xx_HAL_Driver/Src/stm32f0xx_hal_gpio.c ****   lines, the port must be configured in input mode. All available GPIO pins are 
  40:Drivers/STM32F0xx_HAL_Driver/Src/stm32f0xx_hal_gpio.c ****   connected to the 16 external interrupt/event lines from EXTI0 to EXTI15.
  41:Drivers/STM32F0xx_HAL_Driver/Src/stm32f0xx_hal_gpio.c ****   
  42:Drivers/STM32F0xx_HAL_Driver/Src/stm32f0xx_hal_gpio.c ****     (+) The external interrupt/event controller consists of up to 28 edge detectors
  43:Drivers/STM32F0xx_HAL_Driver/Src/stm32f0xx_hal_gpio.c ****         (16 lines are connected to GPIO) for generating event/interrupt requests (each
  44:Drivers/STM32F0xx_HAL_Driver/Src/stm32f0xx_hal_gpio.c ****         input line can be independently configured to select the type (interrupt or event)
  45:Drivers/STM32F0xx_HAL_Driver/Src/stm32f0xx_hal_gpio.c ****         and the corresponding trigger event (rising or falling or both). Each line can
  46:Drivers/STM32F0xx_HAL_Driver/Src/stm32f0xx_hal_gpio.c ****         also be masked independently.
  47:Drivers/STM32F0xx_HAL_Driver/Src/stm32f0xx_hal_gpio.c ****    
  48:Drivers/STM32F0xx_HAL_Driver/Src/stm32f0xx_hal_gpio.c ****             ##### How to use this driver #####
  49:Drivers/STM32F0xx_HAL_Driver/Src/stm32f0xx_hal_gpio.c ****   ==============================================================================  
  50:Drivers/STM32F0xx_HAL_Driver/Src/stm32f0xx_hal_gpio.c ****   [..]
  51:Drivers/STM32F0xx_HAL_Driver/Src/stm32f0xx_hal_gpio.c ****    (#) Enable the GPIO AHB clock using the following function : __HAL_RCC_GPIOx_CLK_ENABLE(). 
  52:Drivers/STM32F0xx_HAL_Driver/Src/stm32f0xx_hal_gpio.c ****                                     
  53:Drivers/STM32F0xx_HAL_Driver/Src/stm32f0xx_hal_gpio.c ****    (#) Configure the GPIO pin(s) using HAL_GPIO_Init().
  54:Drivers/STM32F0xx_HAL_Driver/Src/stm32f0xx_hal_gpio.c ****        (++) Configure the IO mode using "Mode" member from GPIO_InitTypeDef structure
  55:Drivers/STM32F0xx_HAL_Driver/Src/stm32f0xx_hal_gpio.c ****        (++) Activate Pull-up, Pull-down resistor using "Pull" member from GPIO_InitTypeDef 
  56:Drivers/STM32F0xx_HAL_Driver/Src/stm32f0xx_hal_gpio.c ****             structure.
  57:Drivers/STM32F0xx_HAL_Driver/Src/stm32f0xx_hal_gpio.c ****        (++) In case of Output or alternate function mode selection: the speed is 
  58:Drivers/STM32F0xx_HAL_Driver/Src/stm32f0xx_hal_gpio.c ****              configured through "Speed" member from GPIO_InitTypeDef structure.
  59:Drivers/STM32F0xx_HAL_Driver/Src/stm32f0xx_hal_gpio.c ****         (++) In alternate mode is selection, the alternate function connected to the IO
  60:Drivers/STM32F0xx_HAL_Driver/Src/stm32f0xx_hal_gpio.c ****              is configured through "Alternate" member from GPIO_InitTypeDef structure.
  61:Drivers/STM32F0xx_HAL_Driver/Src/stm32f0xx_hal_gpio.c ****        (++) Analog mode is required when a pin is to be used as ADC channel 
  62:Drivers/STM32F0xx_HAL_Driver/Src/stm32f0xx_hal_gpio.c ****             or DAC output.
  63:Drivers/STM32F0xx_HAL_Driver/Src/stm32f0xx_hal_gpio.c ****        (++) In case of external interrupt/event selection the "Mode" member from 
  64:Drivers/STM32F0xx_HAL_Driver/Src/stm32f0xx_hal_gpio.c ****             GPIO_InitTypeDef structure select the type (interrupt or event) and 
  65:Drivers/STM32F0xx_HAL_Driver/Src/stm32f0xx_hal_gpio.c ****             the corresponding trigger event (rising or falling or both).
  66:Drivers/STM32F0xx_HAL_Driver/Src/stm32f0xx_hal_gpio.c ****   
  67:Drivers/STM32F0xx_HAL_Driver/Src/stm32f0xx_hal_gpio.c ****    (#) In case of external interrupt/event mode selection, configure NVIC IRQ priority 
  68:Drivers/STM32F0xx_HAL_Driver/Src/stm32f0xx_hal_gpio.c ****        mapped to the EXTI line using HAL_NVIC_SetPriority() and enable it using
  69:Drivers/STM32F0xx_HAL_Driver/Src/stm32f0xx_hal_gpio.c ****        HAL_NVIC_EnableIRQ().
  70:Drivers/STM32F0xx_HAL_Driver/Src/stm32f0xx_hal_gpio.c ****   
  71:Drivers/STM32F0xx_HAL_Driver/Src/stm32f0xx_hal_gpio.c ****    (#) HAL_GPIO_DeInit allows to set register values to their reset value. It's also 
  72:Drivers/STM32F0xx_HAL_Driver/Src/stm32f0xx_hal_gpio.c ****        recommended to use it to unconfigure pin which was used as an external interrupt 
  73:Drivers/STM32F0xx_HAL_Driver/Src/stm32f0xx_hal_gpio.c ****        or in event mode. That's the only way to reset corresponding bit in EXTI & SYSCFG 
  74:Drivers/STM32F0xx_HAL_Driver/Src/stm32f0xx_hal_gpio.c ****        registers.
  75:Drivers/STM32F0xx_HAL_Driver/Src/stm32f0xx_hal_gpio.c ****   
  76:Drivers/STM32F0xx_HAL_Driver/Src/stm32f0xx_hal_gpio.c ****    (#) To get the level of a pin configured in input mode use HAL_GPIO_ReadPin().
  77:Drivers/STM32F0xx_HAL_Driver/Src/stm32f0xx_hal_gpio.c ****   
  78:Drivers/STM32F0xx_HAL_Driver/Src/stm32f0xx_hal_gpio.c ****    (#) To set/reset the level of a pin configured in output mode use 
  79:Drivers/STM32F0xx_HAL_Driver/Src/stm32f0xx_hal_gpio.c ****        HAL_GPIO_WritePin()/HAL_GPIO_TogglePin().
  80:Drivers/STM32F0xx_HAL_Driver/Src/stm32f0xx_hal_gpio.c ****   
  81:Drivers/STM32F0xx_HAL_Driver/Src/stm32f0xx_hal_gpio.c ****    (#) To lock pin configuration until next reset use HAL_GPIO_LockPin().
  82:Drivers/STM32F0xx_HAL_Driver/Src/stm32f0xx_hal_gpio.c ****   
  83:Drivers/STM32F0xx_HAL_Driver/Src/stm32f0xx_hal_gpio.c ****    (#) During and just after reset, the alternate functions are not 
  84:Drivers/STM32F0xx_HAL_Driver/Src/stm32f0xx_hal_gpio.c ****        active and the GPIO pins are configured in input floating mode (except JTAG
  85:Drivers/STM32F0xx_HAL_Driver/Src/stm32f0xx_hal_gpio.c ****        pins).
  86:Drivers/STM32F0xx_HAL_Driver/Src/stm32f0xx_hal_gpio.c ****   
  87:Drivers/STM32F0xx_HAL_Driver/Src/stm32f0xx_hal_gpio.c ****    (#) The LSE oscillator pins OSC32_IN and OSC32_OUT can be used as general purpose 
  88:Drivers/STM32F0xx_HAL_Driver/Src/stm32f0xx_hal_gpio.c ****        (PC14 and PC15, respectively) when the LSE oscillator is off. The LSE has 
ARM GAS  /tmp/cckwFVu6.s 			page 3


  89:Drivers/STM32F0xx_HAL_Driver/Src/stm32f0xx_hal_gpio.c ****        priority over the GPIO function.
  90:Drivers/STM32F0xx_HAL_Driver/Src/stm32f0xx_hal_gpio.c ****   
  91:Drivers/STM32F0xx_HAL_Driver/Src/stm32f0xx_hal_gpio.c ****    (#) The HSE oscillator pins OSC_IN/OSC_OUT can be used as 
  92:Drivers/STM32F0xx_HAL_Driver/Src/stm32f0xx_hal_gpio.c ****         general purpose PF0 and PF1, respectively, when the HSE oscillator is off.
  93:Drivers/STM32F0xx_HAL_Driver/Src/stm32f0xx_hal_gpio.c ****        The HSE has priority over the GPIO function.
  94:Drivers/STM32F0xx_HAL_Driver/Src/stm32f0xx_hal_gpio.c ****   
  95:Drivers/STM32F0xx_HAL_Driver/Src/stm32f0xx_hal_gpio.c ****   @endverbatim
  96:Drivers/STM32F0xx_HAL_Driver/Src/stm32f0xx_hal_gpio.c ****   ******************************************************************************
  97:Drivers/STM32F0xx_HAL_Driver/Src/stm32f0xx_hal_gpio.c ****   * @attention
  98:Drivers/STM32F0xx_HAL_Driver/Src/stm32f0xx_hal_gpio.c ****   *
  99:Drivers/STM32F0xx_HAL_Driver/Src/stm32f0xx_hal_gpio.c ****   * <h2><center>&copy; Copyright (c) 2016 STMicroelectronics.
 100:Drivers/STM32F0xx_HAL_Driver/Src/stm32f0xx_hal_gpio.c ****   * All rights reserved.</center></h2>
 101:Drivers/STM32F0xx_HAL_Driver/Src/stm32f0xx_hal_gpio.c ****   *
 102:Drivers/STM32F0xx_HAL_Driver/Src/stm32f0xx_hal_gpio.c ****   * This software component is licensed by ST under BSD 3-Clause license,
 103:Drivers/STM32F0xx_HAL_Driver/Src/stm32f0xx_hal_gpio.c ****   * the "License"; You may not use this file except in compliance with the
 104:Drivers/STM32F0xx_HAL_Driver/Src/stm32f0xx_hal_gpio.c ****   * License. You may obtain a copy of the License at:
 105:Drivers/STM32F0xx_HAL_Driver/Src/stm32f0xx_hal_gpio.c ****   *                        opensource.org/licenses/BSD-3-Clause
 106:Drivers/STM32F0xx_HAL_Driver/Src/stm32f0xx_hal_gpio.c ****   *
 107:Drivers/STM32F0xx_HAL_Driver/Src/stm32f0xx_hal_gpio.c ****   ******************************************************************************
 108:Drivers/STM32F0xx_HAL_Driver/Src/stm32f0xx_hal_gpio.c ****   */
 109:Drivers/STM32F0xx_HAL_Driver/Src/stm32f0xx_hal_gpio.c **** 
 110:Drivers/STM32F0xx_HAL_Driver/Src/stm32f0xx_hal_gpio.c **** /* Includes ------------------------------------------------------------------*/
 111:Drivers/STM32F0xx_HAL_Driver/Src/stm32f0xx_hal_gpio.c **** #include "stm32f0xx_hal.h"
 112:Drivers/STM32F0xx_HAL_Driver/Src/stm32f0xx_hal_gpio.c **** 
 113:Drivers/STM32F0xx_HAL_Driver/Src/stm32f0xx_hal_gpio.c **** /** @addtogroup STM32F0xx_HAL_Driver
 114:Drivers/STM32F0xx_HAL_Driver/Src/stm32f0xx_hal_gpio.c ****   * @{
 115:Drivers/STM32F0xx_HAL_Driver/Src/stm32f0xx_hal_gpio.c ****   */
 116:Drivers/STM32F0xx_HAL_Driver/Src/stm32f0xx_hal_gpio.c **** 
 117:Drivers/STM32F0xx_HAL_Driver/Src/stm32f0xx_hal_gpio.c **** /** @defgroup GPIO GPIO
 118:Drivers/STM32F0xx_HAL_Driver/Src/stm32f0xx_hal_gpio.c ****   * @brief GPIO HAL module driver
 119:Drivers/STM32F0xx_HAL_Driver/Src/stm32f0xx_hal_gpio.c ****   * @{
 120:Drivers/STM32F0xx_HAL_Driver/Src/stm32f0xx_hal_gpio.c ****   */
 121:Drivers/STM32F0xx_HAL_Driver/Src/stm32f0xx_hal_gpio.c **** 
 122:Drivers/STM32F0xx_HAL_Driver/Src/stm32f0xx_hal_gpio.c **** /** MISRA C:2012 deviation rule has been granted for following rules:
 123:Drivers/STM32F0xx_HAL_Driver/Src/stm32f0xx_hal_gpio.c ****   * Rule-18.1_d - Medium: Array pointer `GPIOx' is accessed with index [..,..]
 124:Drivers/STM32F0xx_HAL_Driver/Src/stm32f0xx_hal_gpio.c ****   * which may be out of array bounds [..,UNKNOWN] in following APIs:
 125:Drivers/STM32F0xx_HAL_Driver/Src/stm32f0xx_hal_gpio.c ****   * HAL_GPIO_Init
 126:Drivers/STM32F0xx_HAL_Driver/Src/stm32f0xx_hal_gpio.c ****   * HAL_GPIO_DeInit
 127:Drivers/STM32F0xx_HAL_Driver/Src/stm32f0xx_hal_gpio.c ****   */
 128:Drivers/STM32F0xx_HAL_Driver/Src/stm32f0xx_hal_gpio.c **** 
 129:Drivers/STM32F0xx_HAL_Driver/Src/stm32f0xx_hal_gpio.c **** #ifdef HAL_GPIO_MODULE_ENABLED
 130:Drivers/STM32F0xx_HAL_Driver/Src/stm32f0xx_hal_gpio.c **** 
 131:Drivers/STM32F0xx_HAL_Driver/Src/stm32f0xx_hal_gpio.c **** /* Private typedef -----------------------------------------------------------*/
 132:Drivers/STM32F0xx_HAL_Driver/Src/stm32f0xx_hal_gpio.c **** /* Private defines -----------------------------------------------------------*/
 133:Drivers/STM32F0xx_HAL_Driver/Src/stm32f0xx_hal_gpio.c **** /** @defgroup GPIO_Private_Defines GPIO Private Defines
 134:Drivers/STM32F0xx_HAL_Driver/Src/stm32f0xx_hal_gpio.c ****   * @{
 135:Drivers/STM32F0xx_HAL_Driver/Src/stm32f0xx_hal_gpio.c ****   */
 136:Drivers/STM32F0xx_HAL_Driver/Src/stm32f0xx_hal_gpio.c **** #define GPIO_MODE             (0x00000003U)
 137:Drivers/STM32F0xx_HAL_Driver/Src/stm32f0xx_hal_gpio.c **** #define EXTI_MODE             (0x10000000U)
 138:Drivers/STM32F0xx_HAL_Driver/Src/stm32f0xx_hal_gpio.c **** #define GPIO_MODE_IT          (0x00010000U)
 139:Drivers/STM32F0xx_HAL_Driver/Src/stm32f0xx_hal_gpio.c **** #define GPIO_MODE_EVT         (0x00020000U)
 140:Drivers/STM32F0xx_HAL_Driver/Src/stm32f0xx_hal_gpio.c **** #define RISING_EDGE           (0x00100000U)
 141:Drivers/STM32F0xx_HAL_Driver/Src/stm32f0xx_hal_gpio.c **** #define FALLING_EDGE          (0x00200000U)
 142:Drivers/STM32F0xx_HAL_Driver/Src/stm32f0xx_hal_gpio.c **** #define GPIO_OUTPUT_TYPE      (0x00000010U)
 143:Drivers/STM32F0xx_HAL_Driver/Src/stm32f0xx_hal_gpio.c **** 
 144:Drivers/STM32F0xx_HAL_Driver/Src/stm32f0xx_hal_gpio.c **** #define GPIO_NUMBER           (16U)
 145:Drivers/STM32F0xx_HAL_Driver/Src/stm32f0xx_hal_gpio.c **** /**
ARM GAS  /tmp/cckwFVu6.s 			page 4


 146:Drivers/STM32F0xx_HAL_Driver/Src/stm32f0xx_hal_gpio.c ****   * @}
 147:Drivers/STM32F0xx_HAL_Driver/Src/stm32f0xx_hal_gpio.c ****   */
 148:Drivers/STM32F0xx_HAL_Driver/Src/stm32f0xx_hal_gpio.c **** 
 149:Drivers/STM32F0xx_HAL_Driver/Src/stm32f0xx_hal_gpio.c **** /* Private macros ------------------------------------------------------------*/
 150:Drivers/STM32F0xx_HAL_Driver/Src/stm32f0xx_hal_gpio.c **** /* Private variables ---------------------------------------------------------*/
 151:Drivers/STM32F0xx_HAL_Driver/Src/stm32f0xx_hal_gpio.c **** /* Private function prototypes -----------------------------------------------*/
 152:Drivers/STM32F0xx_HAL_Driver/Src/stm32f0xx_hal_gpio.c **** /* Exported functions --------------------------------------------------------*/
 153:Drivers/STM32F0xx_HAL_Driver/Src/stm32f0xx_hal_gpio.c **** 
 154:Drivers/STM32F0xx_HAL_Driver/Src/stm32f0xx_hal_gpio.c **** /** @defgroup GPIO_Exported_Functions GPIO Exported Functions
 155:Drivers/STM32F0xx_HAL_Driver/Src/stm32f0xx_hal_gpio.c ****   * @{
 156:Drivers/STM32F0xx_HAL_Driver/Src/stm32f0xx_hal_gpio.c ****   */
 157:Drivers/STM32F0xx_HAL_Driver/Src/stm32f0xx_hal_gpio.c **** 
 158:Drivers/STM32F0xx_HAL_Driver/Src/stm32f0xx_hal_gpio.c **** /** @defgroup GPIO_Exported_Functions_Group1 Initialization/de-initialization functions 
 159:Drivers/STM32F0xx_HAL_Driver/Src/stm32f0xx_hal_gpio.c ****  *  @brief    Initialization and Configuration functions 
 160:Drivers/STM32F0xx_HAL_Driver/Src/stm32f0xx_hal_gpio.c ****  *
 161:Drivers/STM32F0xx_HAL_Driver/Src/stm32f0xx_hal_gpio.c **** @verbatim    
 162:Drivers/STM32F0xx_HAL_Driver/Src/stm32f0xx_hal_gpio.c ****  ===============================================================================
 163:Drivers/STM32F0xx_HAL_Driver/Src/stm32f0xx_hal_gpio.c ****               ##### Initialization and de-initialization functions #####
 164:Drivers/STM32F0xx_HAL_Driver/Src/stm32f0xx_hal_gpio.c ****  ===============================================================================
 165:Drivers/STM32F0xx_HAL_Driver/Src/stm32f0xx_hal_gpio.c ****  
 166:Drivers/STM32F0xx_HAL_Driver/Src/stm32f0xx_hal_gpio.c **** @endverbatim
 167:Drivers/STM32F0xx_HAL_Driver/Src/stm32f0xx_hal_gpio.c ****   * @{
 168:Drivers/STM32F0xx_HAL_Driver/Src/stm32f0xx_hal_gpio.c ****   */
 169:Drivers/STM32F0xx_HAL_Driver/Src/stm32f0xx_hal_gpio.c **** 
 170:Drivers/STM32F0xx_HAL_Driver/Src/stm32f0xx_hal_gpio.c **** /**
 171:Drivers/STM32F0xx_HAL_Driver/Src/stm32f0xx_hal_gpio.c ****   * @brief  Initialize the GPIOx peripheral according to the specified parameters in the GPIO_Init.
 172:Drivers/STM32F0xx_HAL_Driver/Src/stm32f0xx_hal_gpio.c ****   * @param  GPIOx where x can be (A..F) to select the GPIO peripheral for STM32F0 family
 173:Drivers/STM32F0xx_HAL_Driver/Src/stm32f0xx_hal_gpio.c ****   * @param  GPIO_Init pointer to a GPIO_InitTypeDef structure that contains
 174:Drivers/STM32F0xx_HAL_Driver/Src/stm32f0xx_hal_gpio.c ****   *         the configuration information for the specified GPIO peripheral.
 175:Drivers/STM32F0xx_HAL_Driver/Src/stm32f0xx_hal_gpio.c ****   * @retval None
 176:Drivers/STM32F0xx_HAL_Driver/Src/stm32f0xx_hal_gpio.c ****   */
 177:Drivers/STM32F0xx_HAL_Driver/Src/stm32f0xx_hal_gpio.c **** void HAL_GPIO_Init(GPIO_TypeDef  *GPIOx, GPIO_InitTypeDef *GPIO_Init)
 178:Drivers/STM32F0xx_HAL_Driver/Src/stm32f0xx_hal_gpio.c **** { 
  28              		.loc 1 178 1 view -0
  29              		.cfi_startproc
  30              		@ args = 0, pretend = 0, frame = 8
  31              		@ frame_needed = 0, uses_anonymous_args = 0
  32              		.loc 1 178 1 is_stmt 0 view .LVU1
  33 0000 F0B5     		push	{r4, r5, r6, r7, lr}
  34              	.LCFI0:
  35              		.cfi_def_cfa_offset 20
  36              		.cfi_offset 4, -20
  37              		.cfi_offset 5, -16
  38              		.cfi_offset 6, -12
  39              		.cfi_offset 7, -8
  40              		.cfi_offset 14, -4
  41 0002 D646     		mov	lr, r10
  42 0004 4F46     		mov	r7, r9
  43 0006 4646     		mov	r6, r8
  44 0008 C0B5     		push	{r6, r7, lr}
  45              	.LCFI1:
  46              		.cfi_def_cfa_offset 32
  47              		.cfi_offset 8, -32
  48              		.cfi_offset 9, -28
  49              		.cfi_offset 10, -24
  50 000a 82B0     		sub	sp, sp, #8
  51              	.LCFI2:
ARM GAS  /tmp/cckwFVu6.s 			page 5


  52              		.cfi_def_cfa_offset 40
 179:Drivers/STM32F0xx_HAL_Driver/Src/stm32f0xx_hal_gpio.c ****   uint32_t position = 0x00u;
  53              		.loc 1 179 3 is_stmt 1 view .LVU2
  54              	.LVL1:
 180:Drivers/STM32F0xx_HAL_Driver/Src/stm32f0xx_hal_gpio.c ****   uint32_t iocurrent;
  55              		.loc 1 180 3 view .LVU3
 181:Drivers/STM32F0xx_HAL_Driver/Src/stm32f0xx_hal_gpio.c ****   uint32_t temp;
  56              		.loc 1 181 3 view .LVU4
 182:Drivers/STM32F0xx_HAL_Driver/Src/stm32f0xx_hal_gpio.c **** 
 183:Drivers/STM32F0xx_HAL_Driver/Src/stm32f0xx_hal_gpio.c ****   /* Check the parameters */
 184:Drivers/STM32F0xx_HAL_Driver/Src/stm32f0xx_hal_gpio.c ****   assert_param(IS_GPIO_ALL_INSTANCE(GPIOx));
  57              		.loc 1 184 3 view .LVU5
 185:Drivers/STM32F0xx_HAL_Driver/Src/stm32f0xx_hal_gpio.c ****   assert_param(IS_GPIO_PIN(GPIO_Init->Pin));
  58              		.loc 1 185 3 view .LVU6
 186:Drivers/STM32F0xx_HAL_Driver/Src/stm32f0xx_hal_gpio.c ****   assert_param(IS_GPIO_MODE(GPIO_Init->Mode));
  59              		.loc 1 186 3 view .LVU7
 187:Drivers/STM32F0xx_HAL_Driver/Src/stm32f0xx_hal_gpio.c ****   assert_param(IS_GPIO_PULL(GPIO_Init->Pull));
  60              		.loc 1 187 3 view .LVU8
 188:Drivers/STM32F0xx_HAL_Driver/Src/stm32f0xx_hal_gpio.c **** 
 189:Drivers/STM32F0xx_HAL_Driver/Src/stm32f0xx_hal_gpio.c ****   /* Configure the port pins */
 190:Drivers/STM32F0xx_HAL_Driver/Src/stm32f0xx_hal_gpio.c ****   while (((GPIO_Init->Pin) >> position) != 0x00u)
  61              		.loc 1 190 3 view .LVU9
 179:Drivers/STM32F0xx_HAL_Driver/Src/stm32f0xx_hal_gpio.c ****   uint32_t iocurrent;
  62              		.loc 1 179 12 is_stmt 0 view .LVU10
  63 000c 0023     		movs	r3, #0
  64              		.loc 1 190 9 view .LVU11
  65 000e 33E0     		b	.L2
  66              	.LVL2:
  67              	.L25:
 191:Drivers/STM32F0xx_HAL_Driver/Src/stm32f0xx_hal_gpio.c ****   {
 192:Drivers/STM32F0xx_HAL_Driver/Src/stm32f0xx_hal_gpio.c ****     /* Get current io position */
 193:Drivers/STM32F0xx_HAL_Driver/Src/stm32f0xx_hal_gpio.c ****     iocurrent = (GPIO_Init->Pin) & (1uL << position);
 194:Drivers/STM32F0xx_HAL_Driver/Src/stm32f0xx_hal_gpio.c **** 
 195:Drivers/STM32F0xx_HAL_Driver/Src/stm32f0xx_hal_gpio.c ****     if (iocurrent != 0x00u)
 196:Drivers/STM32F0xx_HAL_Driver/Src/stm32f0xx_hal_gpio.c ****     {
 197:Drivers/STM32F0xx_HAL_Driver/Src/stm32f0xx_hal_gpio.c ****       /*--------------------- GPIO Mode Configuration ------------------------*/
 198:Drivers/STM32F0xx_HAL_Driver/Src/stm32f0xx_hal_gpio.c ****       /* In case of Output or Alternate function mode selection */
 199:Drivers/STM32F0xx_HAL_Driver/Src/stm32f0xx_hal_gpio.c ****       if((GPIO_Init->Mode == GPIO_MODE_OUTPUT_PP) || (GPIO_Init->Mode == GPIO_MODE_AF_PP) ||
 200:Drivers/STM32F0xx_HAL_Driver/Src/stm32f0xx_hal_gpio.c ****          (GPIO_Init->Mode == GPIO_MODE_OUTPUT_OD) || (GPIO_Init->Mode == GPIO_MODE_AF_OD))
 201:Drivers/STM32F0xx_HAL_Driver/Src/stm32f0xx_hal_gpio.c ****       {
 202:Drivers/STM32F0xx_HAL_Driver/Src/stm32f0xx_hal_gpio.c ****         /* Check the Speed parameter */
 203:Drivers/STM32F0xx_HAL_Driver/Src/stm32f0xx_hal_gpio.c ****         assert_param(IS_GPIO_SPEED(GPIO_Init->Speed));
 204:Drivers/STM32F0xx_HAL_Driver/Src/stm32f0xx_hal_gpio.c ****         /* Configure the IO Speed */
 205:Drivers/STM32F0xx_HAL_Driver/Src/stm32f0xx_hal_gpio.c ****         temp = GPIOx->OSPEEDR;
 206:Drivers/STM32F0xx_HAL_Driver/Src/stm32f0xx_hal_gpio.c ****         temp &= ~(GPIO_OSPEEDER_OSPEEDR0 << (position * 2u));
 207:Drivers/STM32F0xx_HAL_Driver/Src/stm32f0xx_hal_gpio.c ****         temp |= (GPIO_Init->Speed << (position * 2u));
 208:Drivers/STM32F0xx_HAL_Driver/Src/stm32f0xx_hal_gpio.c ****         GPIOx->OSPEEDR = temp;
 209:Drivers/STM32F0xx_HAL_Driver/Src/stm32f0xx_hal_gpio.c **** 
 210:Drivers/STM32F0xx_HAL_Driver/Src/stm32f0xx_hal_gpio.c ****         /* Configure the IO Output Type */
 211:Drivers/STM32F0xx_HAL_Driver/Src/stm32f0xx_hal_gpio.c ****         temp = GPIOx->OTYPER;
 212:Drivers/STM32F0xx_HAL_Driver/Src/stm32f0xx_hal_gpio.c ****         temp &= ~(GPIO_OTYPER_OT_0 << position) ;
 213:Drivers/STM32F0xx_HAL_Driver/Src/stm32f0xx_hal_gpio.c ****         temp |= (((GPIO_Init->Mode & GPIO_OUTPUT_TYPE) >> 4u) << position);
 214:Drivers/STM32F0xx_HAL_Driver/Src/stm32f0xx_hal_gpio.c ****         GPIOx->OTYPER = temp;
 215:Drivers/STM32F0xx_HAL_Driver/Src/stm32f0xx_hal_gpio.c ****       }
 216:Drivers/STM32F0xx_HAL_Driver/Src/stm32f0xx_hal_gpio.c **** 
 217:Drivers/STM32F0xx_HAL_Driver/Src/stm32f0xx_hal_gpio.c ****       /* Activate the Pull-up or Pull down resistor for the current IO */
 218:Drivers/STM32F0xx_HAL_Driver/Src/stm32f0xx_hal_gpio.c ****       temp = GPIOx->PUPDR;
ARM GAS  /tmp/cckwFVu6.s 			page 6


 219:Drivers/STM32F0xx_HAL_Driver/Src/stm32f0xx_hal_gpio.c ****       temp &= ~(GPIO_PUPDR_PUPDR0 << (position * 2u));
 220:Drivers/STM32F0xx_HAL_Driver/Src/stm32f0xx_hal_gpio.c ****       temp |= ((GPIO_Init->Pull) << (position * 2u));
 221:Drivers/STM32F0xx_HAL_Driver/Src/stm32f0xx_hal_gpio.c ****       GPIOx->PUPDR = temp;
 222:Drivers/STM32F0xx_HAL_Driver/Src/stm32f0xx_hal_gpio.c **** 
 223:Drivers/STM32F0xx_HAL_Driver/Src/stm32f0xx_hal_gpio.c ****       /* In case of Alternate function mode selection */
 224:Drivers/STM32F0xx_HAL_Driver/Src/stm32f0xx_hal_gpio.c ****       if((GPIO_Init->Mode == GPIO_MODE_AF_PP) || (GPIO_Init->Mode == GPIO_MODE_AF_OD))
 225:Drivers/STM32F0xx_HAL_Driver/Src/stm32f0xx_hal_gpio.c ****       {
 226:Drivers/STM32F0xx_HAL_Driver/Src/stm32f0xx_hal_gpio.c ****         /* Check the Alternate function parameters */
 227:Drivers/STM32F0xx_HAL_Driver/Src/stm32f0xx_hal_gpio.c ****         assert_param(IS_GPIO_AF_INSTANCE(GPIOx));
 228:Drivers/STM32F0xx_HAL_Driver/Src/stm32f0xx_hal_gpio.c ****         assert_param(IS_GPIO_AF(GPIO_Init->Alternate));
 229:Drivers/STM32F0xx_HAL_Driver/Src/stm32f0xx_hal_gpio.c **** 
 230:Drivers/STM32F0xx_HAL_Driver/Src/stm32f0xx_hal_gpio.c ****         /* Configure Alternate function mapped with the current IO */
 231:Drivers/STM32F0xx_HAL_Driver/Src/stm32f0xx_hal_gpio.c ****         temp = GPIOx->AFR[position >> 3u];
 232:Drivers/STM32F0xx_HAL_Driver/Src/stm32f0xx_hal_gpio.c ****         temp &= ~(0xFu << ((position & 0x07u) * 4u));
 233:Drivers/STM32F0xx_HAL_Driver/Src/stm32f0xx_hal_gpio.c ****         temp |= ((GPIO_Init->Alternate) << ((position & 0x07u) * 4u));
 234:Drivers/STM32F0xx_HAL_Driver/Src/stm32f0xx_hal_gpio.c ****         GPIOx->AFR[position >> 3u] = temp;
 235:Drivers/STM32F0xx_HAL_Driver/Src/stm32f0xx_hal_gpio.c ****       }
 236:Drivers/STM32F0xx_HAL_Driver/Src/stm32f0xx_hal_gpio.c **** 
 237:Drivers/STM32F0xx_HAL_Driver/Src/stm32f0xx_hal_gpio.c ****       /* Configure IO Direction mode (Input, Output, Alternate or Analog) */
 238:Drivers/STM32F0xx_HAL_Driver/Src/stm32f0xx_hal_gpio.c ****       temp = GPIOx->MODER;
 239:Drivers/STM32F0xx_HAL_Driver/Src/stm32f0xx_hal_gpio.c ****       temp &= ~(GPIO_MODER_MODER0 << (position * 2u));
 240:Drivers/STM32F0xx_HAL_Driver/Src/stm32f0xx_hal_gpio.c ****       temp |= ((GPIO_Init->Mode & GPIO_MODE) << (position * 2u));
 241:Drivers/STM32F0xx_HAL_Driver/Src/stm32f0xx_hal_gpio.c ****       GPIOx->MODER = temp;
 242:Drivers/STM32F0xx_HAL_Driver/Src/stm32f0xx_hal_gpio.c **** 
 243:Drivers/STM32F0xx_HAL_Driver/Src/stm32f0xx_hal_gpio.c ****       /*--------------------- EXTI Mode Configuration ------------------------*/
 244:Drivers/STM32F0xx_HAL_Driver/Src/stm32f0xx_hal_gpio.c ****       /* Configure the External Interrupt or event for the current IO */
 245:Drivers/STM32F0xx_HAL_Driver/Src/stm32f0xx_hal_gpio.c ****       if((GPIO_Init->Mode & EXTI_MODE) == EXTI_MODE)
 246:Drivers/STM32F0xx_HAL_Driver/Src/stm32f0xx_hal_gpio.c ****       {
 247:Drivers/STM32F0xx_HAL_Driver/Src/stm32f0xx_hal_gpio.c ****         /* Enable SYSCFG Clock */
 248:Drivers/STM32F0xx_HAL_Driver/Src/stm32f0xx_hal_gpio.c ****         __HAL_RCC_SYSCFG_CLK_ENABLE();
 249:Drivers/STM32F0xx_HAL_Driver/Src/stm32f0xx_hal_gpio.c **** 
 250:Drivers/STM32F0xx_HAL_Driver/Src/stm32f0xx_hal_gpio.c ****         temp = SYSCFG->EXTICR[position >> 2u];
 251:Drivers/STM32F0xx_HAL_Driver/Src/stm32f0xx_hal_gpio.c ****         temp &= ~(0x0FuL << (4u * (position & 0x03u)));
 252:Drivers/STM32F0xx_HAL_Driver/Src/stm32f0xx_hal_gpio.c ****         temp |= (GPIO_GET_INDEX(GPIOx) << (4u * (position & 0x03u)));
  68              		.loc 1 252 18 view .LVU12
  69 0010 0426     		movs	r6, #4
  70 0012 00E0     		b	.L8
  71              	.L14:
  72 0014 0026     		movs	r6, #0
  73              	.L8:
  74              		.loc 1 252 40 discriminator 20 view .LVU13
  75 0016 A640     		lsls	r6, r6, r4
  76 0018 3400     		movs	r4, r6
  77              		.loc 1 252 14 discriminator 20 view .LVU14
  78 001a 3C43     		orrs	r4, r7
  79              	.LVL3:
 253:Drivers/STM32F0xx_HAL_Driver/Src/stm32f0xx_hal_gpio.c ****         SYSCFG->EXTICR[position >> 2u] = temp;
  80              		.loc 1 253 9 is_stmt 1 discriminator 20 view .LVU15
  81              		.loc 1 253 40 is_stmt 0 discriminator 20 view .LVU16
  82 001c 0232     		adds	r2, r2, #2
  83 001e 9200     		lsls	r2, r2, #2
  84 0020 5C4E     		ldr	r6, .L26
  85 0022 9451     		str	r4, [r2, r6]
 254:Drivers/STM32F0xx_HAL_Driver/Src/stm32f0xx_hal_gpio.c **** 
 255:Drivers/STM32F0xx_HAL_Driver/Src/stm32f0xx_hal_gpio.c ****         /* Clear EXTI line configuration */
 256:Drivers/STM32F0xx_HAL_Driver/Src/stm32f0xx_hal_gpio.c ****         temp = EXTI->IMR;
  86              		.loc 1 256 9 is_stmt 1 discriminator 20 view .LVU17
ARM GAS  /tmp/cckwFVu6.s 			page 7


  87              		.loc 1 256 14 is_stmt 0 discriminator 20 view .LVU18
  88 0024 5C4A     		ldr	r2, .L26+4
  89 0026 1768     		ldr	r7, [r2]
  90              	.LVL4:
 257:Drivers/STM32F0xx_HAL_Driver/Src/stm32f0xx_hal_gpio.c ****         temp &= ~(iocurrent);
  91              		.loc 1 257 9 is_stmt 1 discriminator 20 view .LVU19
  92              		.loc 1 257 17 is_stmt 0 discriminator 20 view .LVU20
  93 0028 EA43     		mvns	r2, r5
  94              		.loc 1 257 14 discriminator 20 view .LVU21
  95 002a 3E00     		movs	r6, r7
  96 002c AE43     		bics	r6, r5
  97              	.LVL5:
 258:Drivers/STM32F0xx_HAL_Driver/Src/stm32f0xx_hal_gpio.c ****         if((GPIO_Init->Mode & GPIO_MODE_IT) == GPIO_MODE_IT)
  98              		.loc 1 258 9 is_stmt 1 discriminator 20 view .LVU22
  99              		.loc 1 258 22 is_stmt 0 discriminator 20 view .LVU23
 100 002e 4C68     		ldr	r4, [r1, #4]
 101              		.loc 1 258 11 discriminator 20 view .LVU24
 102 0030 E403     		lsls	r4, r4, #15
 103 0032 01D5     		bpl	.L9
 259:Drivers/STM32F0xx_HAL_Driver/Src/stm32f0xx_hal_gpio.c ****         {
 260:Drivers/STM32F0xx_HAL_Driver/Src/stm32f0xx_hal_gpio.c ****           temp |= iocurrent;
 104              		.loc 1 260 11 is_stmt 1 view .LVU25
 105              		.loc 1 260 16 is_stmt 0 view .LVU26
 106 0034 3E00     		movs	r6, r7
 107              	.LVL6:
 108              		.loc 1 260 16 view .LVU27
 109 0036 2E43     		orrs	r6, r5
 110              	.LVL7:
 111              	.L9:
 261:Drivers/STM32F0xx_HAL_Driver/Src/stm32f0xx_hal_gpio.c ****         }
 262:Drivers/STM32F0xx_HAL_Driver/Src/stm32f0xx_hal_gpio.c ****         EXTI->IMR = temp;
 112              		.loc 1 262 9 is_stmt 1 view .LVU28
 113              		.loc 1 262 19 is_stmt 0 view .LVU29
 114 0038 574C     		ldr	r4, .L26+4
 115 003a 2660     		str	r6, [r4]
 263:Drivers/STM32F0xx_HAL_Driver/Src/stm32f0xx_hal_gpio.c **** 
 264:Drivers/STM32F0xx_HAL_Driver/Src/stm32f0xx_hal_gpio.c ****         temp = EXTI->EMR;
 116              		.loc 1 264 9 is_stmt 1 view .LVU30
 117              		.loc 1 264 14 is_stmt 0 view .LVU31
 118 003c 6768     		ldr	r7, [r4, #4]
 119              	.LVL8:
 265:Drivers/STM32F0xx_HAL_Driver/Src/stm32f0xx_hal_gpio.c ****         temp &= ~(iocurrent);
 120              		.loc 1 265 9 is_stmt 1 view .LVU32
 121              		.loc 1 265 14 is_stmt 0 view .LVU33
 122 003e 3E00     		movs	r6, r7
 123 0040 1640     		ands	r6, r2
 124              	.LVL9:
 266:Drivers/STM32F0xx_HAL_Driver/Src/stm32f0xx_hal_gpio.c ****         if((GPIO_Init->Mode & GPIO_MODE_EVT) == GPIO_MODE_EVT)
 125              		.loc 1 266 9 is_stmt 1 view .LVU34
 126              		.loc 1 266 22 is_stmt 0 view .LVU35
 127 0042 4C68     		ldr	r4, [r1, #4]
 128              		.loc 1 266 11 view .LVU36
 129 0044 A403     		lsls	r4, r4, #14
 130 0046 01D5     		bpl	.L10
 267:Drivers/STM32F0xx_HAL_Driver/Src/stm32f0xx_hal_gpio.c ****         {
 268:Drivers/STM32F0xx_HAL_Driver/Src/stm32f0xx_hal_gpio.c ****           temp |= iocurrent;
 131              		.loc 1 268 11 is_stmt 1 view .LVU37
ARM GAS  /tmp/cckwFVu6.s 			page 8


 132              		.loc 1 268 16 is_stmt 0 view .LVU38
 133 0048 3E00     		movs	r6, r7
 134              	.LVL10:
 135              		.loc 1 268 16 view .LVU39
 136 004a 2E43     		orrs	r6, r5
 137              	.LVL11:
 138              	.L10:
 269:Drivers/STM32F0xx_HAL_Driver/Src/stm32f0xx_hal_gpio.c ****         }
 270:Drivers/STM32F0xx_HAL_Driver/Src/stm32f0xx_hal_gpio.c ****         EXTI->EMR = temp;
 139              		.loc 1 270 9 is_stmt 1 view .LVU40
 140              		.loc 1 270 19 is_stmt 0 view .LVU41
 141 004c 524C     		ldr	r4, .L26+4
 142 004e 6660     		str	r6, [r4, #4]
 271:Drivers/STM32F0xx_HAL_Driver/Src/stm32f0xx_hal_gpio.c **** 
 272:Drivers/STM32F0xx_HAL_Driver/Src/stm32f0xx_hal_gpio.c ****         /* Clear Rising Falling edge configuration */
 273:Drivers/STM32F0xx_HAL_Driver/Src/stm32f0xx_hal_gpio.c ****         temp = EXTI->RTSR;
 143              		.loc 1 273 9 is_stmt 1 view .LVU42
 144              		.loc 1 273 14 is_stmt 0 view .LVU43
 145 0050 A768     		ldr	r7, [r4, #8]
 146              	.LVL12:
 274:Drivers/STM32F0xx_HAL_Driver/Src/stm32f0xx_hal_gpio.c ****         temp &= ~(iocurrent);
 147              		.loc 1 274 9 is_stmt 1 view .LVU44
 148              		.loc 1 274 14 is_stmt 0 view .LVU45
 149 0052 3E00     		movs	r6, r7
 150 0054 1640     		ands	r6, r2
 151              	.LVL13:
 275:Drivers/STM32F0xx_HAL_Driver/Src/stm32f0xx_hal_gpio.c ****         if((GPIO_Init->Mode & RISING_EDGE) == RISING_EDGE)
 152              		.loc 1 275 9 is_stmt 1 view .LVU46
 153              		.loc 1 275 22 is_stmt 0 view .LVU47
 154 0056 4C68     		ldr	r4, [r1, #4]
 155              		.loc 1 275 11 view .LVU48
 156 0058 E402     		lsls	r4, r4, #11
 157 005a 01D5     		bpl	.L11
 276:Drivers/STM32F0xx_HAL_Driver/Src/stm32f0xx_hal_gpio.c ****         {
 277:Drivers/STM32F0xx_HAL_Driver/Src/stm32f0xx_hal_gpio.c ****           temp |= iocurrent;
 158              		.loc 1 277 11 is_stmt 1 view .LVU49
 159              		.loc 1 277 16 is_stmt 0 view .LVU50
 160 005c 3E00     		movs	r6, r7
 161              	.LVL14:
 162              		.loc 1 277 16 view .LVU51
 163 005e 2E43     		orrs	r6, r5
 164              	.LVL15:
 165              	.L11:
 278:Drivers/STM32F0xx_HAL_Driver/Src/stm32f0xx_hal_gpio.c ****         }
 279:Drivers/STM32F0xx_HAL_Driver/Src/stm32f0xx_hal_gpio.c ****         EXTI->RTSR = temp;
 166              		.loc 1 279 9 is_stmt 1 view .LVU52
 167              		.loc 1 279 20 is_stmt 0 view .LVU53
 168 0060 4D4C     		ldr	r4, .L26+4
 169 0062 A660     		str	r6, [r4, #8]
 280:Drivers/STM32F0xx_HAL_Driver/Src/stm32f0xx_hal_gpio.c **** 
 281:Drivers/STM32F0xx_HAL_Driver/Src/stm32f0xx_hal_gpio.c ****         temp = EXTI->FTSR;
 170              		.loc 1 281 9 is_stmt 1 view .LVU54
 171              		.loc 1 281 14 is_stmt 0 view .LVU55
 172 0064 E668     		ldr	r6, [r4, #12]
 173              	.LVL16:
 282:Drivers/STM32F0xx_HAL_Driver/Src/stm32f0xx_hal_gpio.c ****         temp &= ~(iocurrent);
 174              		.loc 1 282 9 is_stmt 1 view .LVU56
ARM GAS  /tmp/cckwFVu6.s 			page 9


 175              		.loc 1 282 14 is_stmt 0 view .LVU57
 176 0066 3240     		ands	r2, r6
 177              	.LVL17:
 283:Drivers/STM32F0xx_HAL_Driver/Src/stm32f0xx_hal_gpio.c ****         if((GPIO_Init->Mode & FALLING_EDGE) == FALLING_EDGE)
 178              		.loc 1 283 9 is_stmt 1 view .LVU58
 179              		.loc 1 283 22 is_stmt 0 view .LVU59
 180 0068 4C68     		ldr	r4, [r1, #4]
 181              		.loc 1 283 11 view .LVU60
 182 006a A402     		lsls	r4, r4, #10
 183 006c 01D5     		bpl	.L12
 284:Drivers/STM32F0xx_HAL_Driver/Src/stm32f0xx_hal_gpio.c ****         {
 285:Drivers/STM32F0xx_HAL_Driver/Src/stm32f0xx_hal_gpio.c ****           temp |= iocurrent;
 184              		.loc 1 285 11 is_stmt 1 view .LVU61
 185              		.loc 1 285 16 is_stmt 0 view .LVU62
 186 006e 2A00     		movs	r2, r5
 187              	.LVL18:
 188              		.loc 1 285 16 view .LVU63
 189 0070 3243     		orrs	r2, r6
 190              	.LVL19:
 191              	.L12:
 286:Drivers/STM32F0xx_HAL_Driver/Src/stm32f0xx_hal_gpio.c ****         }
 287:Drivers/STM32F0xx_HAL_Driver/Src/stm32f0xx_hal_gpio.c ****         EXTI->FTSR = temp;
 192              		.loc 1 287 9 is_stmt 1 view .LVU64
 193              		.loc 1 287 20 is_stmt 0 view .LVU65
 194 0072 494C     		ldr	r4, .L26+4
 195 0074 E260     		str	r2, [r4, #12]
 196              	.LVL20:
 197              	.L3:
 288:Drivers/STM32F0xx_HAL_Driver/Src/stm32f0xx_hal_gpio.c ****       }
 289:Drivers/STM32F0xx_HAL_Driver/Src/stm32f0xx_hal_gpio.c ****     }
 290:Drivers/STM32F0xx_HAL_Driver/Src/stm32f0xx_hal_gpio.c **** 
 291:Drivers/STM32F0xx_HAL_Driver/Src/stm32f0xx_hal_gpio.c ****     position++;
 198              		.loc 1 291 5 is_stmt 1 view .LVU66
 199              		.loc 1 291 13 is_stmt 0 view .LVU67
 200 0076 0133     		adds	r3, r3, #1
 201              	.LVL21:
 202              	.L2:
 190:Drivers/STM32F0xx_HAL_Driver/Src/stm32f0xx_hal_gpio.c ****   {
 203              		.loc 1 190 41 is_stmt 1 view .LVU68
 190:Drivers/STM32F0xx_HAL_Driver/Src/stm32f0xx_hal_gpio.c ****   {
 204              		.loc 1 190 21 is_stmt 0 view .LVU69
 205 0078 0C68     		ldr	r4, [r1]
 190:Drivers/STM32F0xx_HAL_Driver/Src/stm32f0xx_hal_gpio.c ****   {
 206              		.loc 1 190 28 view .LVU70
 207 007a 2200     		movs	r2, r4
 208 007c DA40     		lsrs	r2, r2, r3
 190:Drivers/STM32F0xx_HAL_Driver/Src/stm32f0xx_hal_gpio.c ****   {
 209              		.loc 1 190 41 view .LVU71
 210 007e 00D1     		bne	.LCB194
 211 0080 81E0     		b	.L24	@long jump
 212              	.LCB194:
 193:Drivers/STM32F0xx_HAL_Driver/Src/stm32f0xx_hal_gpio.c **** 
 213              		.loc 1 193 5 is_stmt 1 view .LVU72
 193:Drivers/STM32F0xx_HAL_Driver/Src/stm32f0xx_hal_gpio.c **** 
 214              		.loc 1 193 41 is_stmt 0 view .LVU73
 215 0082 0122     		movs	r2, #1
 216 0084 9A40     		lsls	r2, r2, r3
ARM GAS  /tmp/cckwFVu6.s 			page 10


 193:Drivers/STM32F0xx_HAL_Driver/Src/stm32f0xx_hal_gpio.c **** 
 217              		.loc 1 193 15 view .LVU74
 218 0086 2500     		movs	r5, r4
 219 0088 1540     		ands	r5, r2
 220              	.LVL22:
 195:Drivers/STM32F0xx_HAL_Driver/Src/stm32f0xx_hal_gpio.c ****     {
 221              		.loc 1 195 5 is_stmt 1 view .LVU75
 195:Drivers/STM32F0xx_HAL_Driver/Src/stm32f0xx_hal_gpio.c ****     {
 222              		.loc 1 195 8 is_stmt 0 view .LVU76
 223 008a 1442     		tst	r4, r2
 224 008c F3D0     		beq	.L3
 199:Drivers/STM32F0xx_HAL_Driver/Src/stm32f0xx_hal_gpio.c ****          (GPIO_Init->Mode == GPIO_MODE_OUTPUT_OD) || (GPIO_Init->Mode == GPIO_MODE_AF_OD))
 225              		.loc 1 199 7 is_stmt 1 view .LVU77
 199:Drivers/STM32F0xx_HAL_Driver/Src/stm32f0xx_hal_gpio.c ****          (GPIO_Init->Mode == GPIO_MODE_OUTPUT_OD) || (GPIO_Init->Mode == GPIO_MODE_AF_OD))
 226              		.loc 1 199 20 is_stmt 0 view .LVU78
 227 008e 4C68     		ldr	r4, [r1, #4]
 199:Drivers/STM32F0xx_HAL_Driver/Src/stm32f0xx_hal_gpio.c ****          (GPIO_Init->Mode == GPIO_MODE_OUTPUT_OD) || (GPIO_Init->Mode == GPIO_MODE_AF_OD))
 228              		.loc 1 199 51 view .LVU79
 229 0090 661E     		subs	r6, r4, #1
 199:Drivers/STM32F0xx_HAL_Driver/Src/stm32f0xx_hal_gpio.c ****          (GPIO_Init->Mode == GPIO_MODE_OUTPUT_OD) || (GPIO_Init->Mode == GPIO_MODE_AF_OD))
 230              		.loc 1 199 9 view .LVU80
 231 0092 012E     		cmp	r6, #1
 232 0094 03D9     		bls	.L4
 199:Drivers/STM32F0xx_HAL_Driver/Src/stm32f0xx_hal_gpio.c ****          (GPIO_Init->Mode == GPIO_MODE_OUTPUT_OD) || (GPIO_Init->Mode == GPIO_MODE_AF_OD))
 233              		.loc 1 199 91 discriminator 1 view .LVU81
 234 0096 112C     		cmp	r4, #17
 235 0098 01D0     		beq	.L4
 200:Drivers/STM32F0xx_HAL_Driver/Src/stm32f0xx_hal_gpio.c ****       {
 236              		.loc 1 200 51 view .LVU82
 237 009a 122C     		cmp	r4, #18
 238 009c 11D1     		bne	.L5
 239              	.L4:
 203:Drivers/STM32F0xx_HAL_Driver/Src/stm32f0xx_hal_gpio.c ****         /* Configure the IO Speed */
 240              		.loc 1 203 9 is_stmt 1 view .LVU83
 205:Drivers/STM32F0xx_HAL_Driver/Src/stm32f0xx_hal_gpio.c ****         temp &= ~(GPIO_OSPEEDER_OSPEEDR0 << (position * 2u));
 241              		.loc 1 205 9 view .LVU84
 205:Drivers/STM32F0xx_HAL_Driver/Src/stm32f0xx_hal_gpio.c ****         temp &= ~(GPIO_OSPEEDER_OSPEEDR0 << (position * 2u));
 242              		.loc 1 205 14 is_stmt 0 view .LVU85
 243 009e 8668     		ldr	r6, [r0, #8]
 244              	.LVL23:
 206:Drivers/STM32F0xx_HAL_Driver/Src/stm32f0xx_hal_gpio.c ****         temp |= (GPIO_Init->Speed << (position * 2u));
 245              		.loc 1 206 9 is_stmt 1 view .LVU86
 206:Drivers/STM32F0xx_HAL_Driver/Src/stm32f0xx_hal_gpio.c ****         temp |= (GPIO_Init->Speed << (position * 2u));
 246              		.loc 1 206 55 is_stmt 0 view .LVU87
 247 00a0 5F00     		lsls	r7, r3, #1
 206:Drivers/STM32F0xx_HAL_Driver/Src/stm32f0xx_hal_gpio.c ****         temp |= (GPIO_Init->Speed << (position * 2u));
 248              		.loc 1 206 42 view .LVU88
 249 00a2 0324     		movs	r4, #3
 250 00a4 BC40     		lsls	r4, r4, r7
 206:Drivers/STM32F0xx_HAL_Driver/Src/stm32f0xx_hal_gpio.c ****         temp |= (GPIO_Init->Speed << (position * 2u));
 251              		.loc 1 206 14 view .LVU89
 252 00a6 A643     		bics	r6, r4
 253              	.LVL24:
 207:Drivers/STM32F0xx_HAL_Driver/Src/stm32f0xx_hal_gpio.c ****         GPIOx->OSPEEDR = temp;
 254              		.loc 1 207 9 is_stmt 1 view .LVU90
 207:Drivers/STM32F0xx_HAL_Driver/Src/stm32f0xx_hal_gpio.c ****         GPIOx->OSPEEDR = temp;
 255              		.loc 1 207 27 is_stmt 0 view .LVU91
ARM GAS  /tmp/cckwFVu6.s 			page 11


 256 00a8 CC68     		ldr	r4, [r1, #12]
 207:Drivers/STM32F0xx_HAL_Driver/Src/stm32f0xx_hal_gpio.c ****         GPIOx->OSPEEDR = temp;
 257              		.loc 1 207 35 view .LVU92
 258 00aa BC40     		lsls	r4, r4, r7
 207:Drivers/STM32F0xx_HAL_Driver/Src/stm32f0xx_hal_gpio.c ****         GPIOx->OSPEEDR = temp;
 259              		.loc 1 207 14 view .LVU93
 260 00ac 3443     		orrs	r4, r6
 261              	.LVL25:
 208:Drivers/STM32F0xx_HAL_Driver/Src/stm32f0xx_hal_gpio.c **** 
 262              		.loc 1 208 9 is_stmt 1 view .LVU94
 208:Drivers/STM32F0xx_HAL_Driver/Src/stm32f0xx_hal_gpio.c **** 
 263              		.loc 1 208 24 is_stmt 0 view .LVU95
 264 00ae 8460     		str	r4, [r0, #8]
 211:Drivers/STM32F0xx_HAL_Driver/Src/stm32f0xx_hal_gpio.c ****         temp &= ~(GPIO_OTYPER_OT_0 << position) ;
 265              		.loc 1 211 9 is_stmt 1 view .LVU96
 211:Drivers/STM32F0xx_HAL_Driver/Src/stm32f0xx_hal_gpio.c ****         temp &= ~(GPIO_OTYPER_OT_0 << position) ;
 266              		.loc 1 211 14 is_stmt 0 view .LVU97
 267 00b0 4468     		ldr	r4, [r0, #4]
 268              	.LVL26:
 212:Drivers/STM32F0xx_HAL_Driver/Src/stm32f0xx_hal_gpio.c ****         temp |= (((GPIO_Init->Mode & GPIO_OUTPUT_TYPE) >> 4u) << position);
 269              		.loc 1 212 9 is_stmt 1 view .LVU98
 212:Drivers/STM32F0xx_HAL_Driver/Src/stm32f0xx_hal_gpio.c ****         temp |= (((GPIO_Init->Mode & GPIO_OUTPUT_TYPE) >> 4u) << position);
 270              		.loc 1 212 14 is_stmt 0 view .LVU99
 271 00b2 9443     		bics	r4, r2
 272              	.LVL27:
 213:Drivers/STM32F0xx_HAL_Driver/Src/stm32f0xx_hal_gpio.c ****         GPIOx->OTYPER = temp;
 273              		.loc 1 213 9 is_stmt 1 view .LVU100
 213:Drivers/STM32F0xx_HAL_Driver/Src/stm32f0xx_hal_gpio.c ****         GPIOx->OTYPER = temp;
 274              		.loc 1 213 29 is_stmt 0 view .LVU101
 275 00b4 4E68     		ldr	r6, [r1, #4]
 213:Drivers/STM32F0xx_HAL_Driver/Src/stm32f0xx_hal_gpio.c ****         GPIOx->OTYPER = temp;
 276              		.loc 1 213 56 view .LVU102
 277 00b6 3609     		lsrs	r6, r6, #4
 278 00b8 0122     		movs	r2, #1
 279 00ba 3240     		ands	r2, r6
 213:Drivers/STM32F0xx_HAL_Driver/Src/stm32f0xx_hal_gpio.c ****         GPIOx->OTYPER = temp;
 280              		.loc 1 213 63 view .LVU103
 281 00bc 9A40     		lsls	r2, r2, r3
 213:Drivers/STM32F0xx_HAL_Driver/Src/stm32f0xx_hal_gpio.c ****         GPIOx->OTYPER = temp;
 282              		.loc 1 213 14 view .LVU104
 283 00be 2243     		orrs	r2, r4
 284              	.LVL28:
 214:Drivers/STM32F0xx_HAL_Driver/Src/stm32f0xx_hal_gpio.c ****       }
 285              		.loc 1 214 9 is_stmt 1 view .LVU105
 214:Drivers/STM32F0xx_HAL_Driver/Src/stm32f0xx_hal_gpio.c ****       }
 286              		.loc 1 214 23 is_stmt 0 view .LVU106
 287 00c0 4260     		str	r2, [r0, #4]
 288              	.LVL29:
 289              	.L5:
 218:Drivers/STM32F0xx_HAL_Driver/Src/stm32f0xx_hal_gpio.c ****       temp &= ~(GPIO_PUPDR_PUPDR0 << (position * 2u));
 290              		.loc 1 218 7 is_stmt 1 view .LVU107
 218:Drivers/STM32F0xx_HAL_Driver/Src/stm32f0xx_hal_gpio.c ****       temp &= ~(GPIO_PUPDR_PUPDR0 << (position * 2u));
 291              		.loc 1 218 12 is_stmt 0 view .LVU108
 292 00c2 C468     		ldr	r4, [r0, #12]
 293              	.LVL30:
 219:Drivers/STM32F0xx_HAL_Driver/Src/stm32f0xx_hal_gpio.c ****       temp |= ((GPIO_Init->Pull) << (position * 2u));
 294              		.loc 1 219 7 is_stmt 1 view .LVU109
ARM GAS  /tmp/cckwFVu6.s 			page 12


 219:Drivers/STM32F0xx_HAL_Driver/Src/stm32f0xx_hal_gpio.c ****       temp |= ((GPIO_Init->Pull) << (position * 2u));
 295              		.loc 1 219 48 is_stmt 0 view .LVU110
 296 00c4 5E00     		lsls	r6, r3, #1
 219:Drivers/STM32F0xx_HAL_Driver/Src/stm32f0xx_hal_gpio.c ****       temp |= ((GPIO_Init->Pull) << (position * 2u));
 297              		.loc 1 219 35 view .LVU111
 298 00c6 0322     		movs	r2, #3
 299 00c8 B240     		lsls	r2, r2, r6
 219:Drivers/STM32F0xx_HAL_Driver/Src/stm32f0xx_hal_gpio.c ****       temp |= ((GPIO_Init->Pull) << (position * 2u));
 300              		.loc 1 219 15 view .LVU112
 301 00ca D743     		mvns	r7, r2
 219:Drivers/STM32F0xx_HAL_Driver/Src/stm32f0xx_hal_gpio.c ****       temp |= ((GPIO_Init->Pull) << (position * 2u));
 302              		.loc 1 219 12 view .LVU113
 303 00cc 9443     		bics	r4, r2
 304              	.LVL31:
 220:Drivers/STM32F0xx_HAL_Driver/Src/stm32f0xx_hal_gpio.c ****       GPIOx->PUPDR = temp;
 305              		.loc 1 220 7 is_stmt 1 view .LVU114
 220:Drivers/STM32F0xx_HAL_Driver/Src/stm32f0xx_hal_gpio.c ****       GPIOx->PUPDR = temp;
 306              		.loc 1 220 26 is_stmt 0 view .LVU115
 307 00ce 8A68     		ldr	r2, [r1, #8]
 220:Drivers/STM32F0xx_HAL_Driver/Src/stm32f0xx_hal_gpio.c ****       GPIOx->PUPDR = temp;
 308              		.loc 1 220 34 view .LVU116
 309 00d0 B240     		lsls	r2, r2, r6
 220:Drivers/STM32F0xx_HAL_Driver/Src/stm32f0xx_hal_gpio.c ****       GPIOx->PUPDR = temp;
 310              		.loc 1 220 12 view .LVU117
 311 00d2 2243     		orrs	r2, r4
 312              	.LVL32:
 221:Drivers/STM32F0xx_HAL_Driver/Src/stm32f0xx_hal_gpio.c **** 
 313              		.loc 1 221 7 is_stmt 1 view .LVU118
 221:Drivers/STM32F0xx_HAL_Driver/Src/stm32f0xx_hal_gpio.c **** 
 314              		.loc 1 221 20 is_stmt 0 view .LVU119
 315 00d4 C260     		str	r2, [r0, #12]
 224:Drivers/STM32F0xx_HAL_Driver/Src/stm32f0xx_hal_gpio.c ****       {
 316              		.loc 1 224 7 is_stmt 1 view .LVU120
 224:Drivers/STM32F0xx_HAL_Driver/Src/stm32f0xx_hal_gpio.c ****       {
 317              		.loc 1 224 20 is_stmt 0 view .LVU121
 318 00d6 4A68     		ldr	r2, [r1, #4]
 319              	.LVL33:
 224:Drivers/STM32F0xx_HAL_Driver/Src/stm32f0xx_hal_gpio.c ****       {
 320              		.loc 1 224 9 view .LVU122
 321 00d8 022A     		cmp	r2, #2
 322 00da 01D0     		beq	.L6
 224:Drivers/STM32F0xx_HAL_Driver/Src/stm32f0xx_hal_gpio.c ****       {
 323              		.loc 1 224 47 discriminator 1 view .LVU123
 324 00dc 122A     		cmp	r2, #18
 325 00de 19D1     		bne	.L7
 326              	.L6:
 227:Drivers/STM32F0xx_HAL_Driver/Src/stm32f0xx_hal_gpio.c ****         assert_param(IS_GPIO_AF(GPIO_Init->Alternate));
 327              		.loc 1 227 9 is_stmt 1 view .LVU124
 228:Drivers/STM32F0xx_HAL_Driver/Src/stm32f0xx_hal_gpio.c **** 
 328              		.loc 1 228 9 view .LVU125
 231:Drivers/STM32F0xx_HAL_Driver/Src/stm32f0xx_hal_gpio.c ****         temp &= ~(0xFu << ((position & 0x07u) * 4u));
 329              		.loc 1 231 9 view .LVU126
 231:Drivers/STM32F0xx_HAL_Driver/Src/stm32f0xx_hal_gpio.c ****         temp &= ~(0xFu << ((position & 0x07u) * 4u));
 330              		.loc 1 231 36 is_stmt 0 view .LVU127
 331 00e0 DA08     		lsrs	r2, r3, #3
 231:Drivers/STM32F0xx_HAL_Driver/Src/stm32f0xx_hal_gpio.c ****         temp &= ~(0xFu << ((position & 0x07u) * 4u));
 332              		.loc 1 231 14 view .LVU128
ARM GAS  /tmp/cckwFVu6.s 			page 13


 333 00e2 0832     		adds	r2, r2, #8
 334 00e4 9200     		lsls	r2, r2, #2
 335 00e6 9246     		mov	r10, r2
 336 00e8 1258     		ldr	r2, [r2, r0]
 337              	.LVL34:
 231:Drivers/STM32F0xx_HAL_Driver/Src/stm32f0xx_hal_gpio.c ****         temp &= ~(0xFu << ((position & 0x07u) * 4u));
 338              		.loc 1 231 14 view .LVU129
 339 00ea 9046     		mov	r8, r2
 340              	.LVL35:
 232:Drivers/STM32F0xx_HAL_Driver/Src/stm32f0xx_hal_gpio.c ****         temp |= ((GPIO_Init->Alternate) << ((position & 0x07u) * 4u));
 341              		.loc 1 232 9 is_stmt 1 view .LVU130
 232:Drivers/STM32F0xx_HAL_Driver/Src/stm32f0xx_hal_gpio.c ****         temp |= ((GPIO_Init->Alternate) << ((position & 0x07u) * 4u));
 342              		.loc 1 232 38 is_stmt 0 view .LVU131
 343 00ec 0724     		movs	r4, #7
 344 00ee 1C40     		ands	r4, r3
 232:Drivers/STM32F0xx_HAL_Driver/Src/stm32f0xx_hal_gpio.c ****         temp |= ((GPIO_Init->Alternate) << ((position & 0x07u) * 4u));
 345              		.loc 1 232 47 view .LVU132
 346 00f0 A200     		lsls	r2, r4, #2
 347              	.LVL36:
 232:Drivers/STM32F0xx_HAL_Driver/Src/stm32f0xx_hal_gpio.c ****         temp |= ((GPIO_Init->Alternate) << ((position & 0x07u) * 4u));
 348              		.loc 1 232 47 view .LVU133
 349 00f2 9146     		mov	r9, r2
 232:Drivers/STM32F0xx_HAL_Driver/Src/stm32f0xx_hal_gpio.c ****         temp |= ((GPIO_Init->Alternate) << ((position & 0x07u) * 4u));
 350              		.loc 1 232 24 view .LVU134
 351 00f4 0F22     		movs	r2, #15
 352 00f6 4C46     		mov	r4, r9
 353 00f8 A240     		lsls	r2, r2, r4
 354 00fa 9446     		mov	ip, r2
 232:Drivers/STM32F0xx_HAL_Driver/Src/stm32f0xx_hal_gpio.c ****         temp |= ((GPIO_Init->Alternate) << ((position & 0x07u) * 4u));
 355              		.loc 1 232 14 view .LVU135
 356 00fc 4246     		mov	r2, r8
 357 00fe 6446     		mov	r4, ip
 358 0100 A243     		bics	r2, r4
 359 0102 9046     		mov	r8, r2
 360              	.LVL37:
 233:Drivers/STM32F0xx_HAL_Driver/Src/stm32f0xx_hal_gpio.c ****         GPIOx->AFR[position >> 3u] = temp;
 361              		.loc 1 233 9 is_stmt 1 view .LVU136
 233:Drivers/STM32F0xx_HAL_Driver/Src/stm32f0xx_hal_gpio.c ****         GPIOx->AFR[position >> 3u] = temp;
 362              		.loc 1 233 28 is_stmt 0 view .LVU137
 363 0104 0A69     		ldr	r2, [r1, #16]
 364              	.LVL38:
 233:Drivers/STM32F0xx_HAL_Driver/Src/stm32f0xx_hal_gpio.c ****         GPIOx->AFR[position >> 3u] = temp;
 365              		.loc 1 233 41 view .LVU138
 366 0106 4C46     		mov	r4, r9
 367 0108 A240     		lsls	r2, r2, r4
 368 010a 1400     		movs	r4, r2
 233:Drivers/STM32F0xx_HAL_Driver/Src/stm32f0xx_hal_gpio.c ****         GPIOx->AFR[position >> 3u] = temp;
 369              		.loc 1 233 14 view .LVU139
 370 010c 4246     		mov	r2, r8
 371 010e 1443     		orrs	r4, r2
 372              	.LVL39:
 234:Drivers/STM32F0xx_HAL_Driver/Src/stm32f0xx_hal_gpio.c ****       }
 373              		.loc 1 234 9 is_stmt 1 view .LVU140
 234:Drivers/STM32F0xx_HAL_Driver/Src/stm32f0xx_hal_gpio.c ****       }
 374              		.loc 1 234 36 is_stmt 0 view .LVU141
 375 0110 5246     		mov	r2, r10
 376 0112 1450     		str	r4, [r2, r0]
ARM GAS  /tmp/cckwFVu6.s 			page 14


 377              	.LVL40:
 378              	.L7:
 238:Drivers/STM32F0xx_HAL_Driver/Src/stm32f0xx_hal_gpio.c ****       temp &= ~(GPIO_MODER_MODER0 << (position * 2u));
 379              		.loc 1 238 7 is_stmt 1 view .LVU142
 238:Drivers/STM32F0xx_HAL_Driver/Src/stm32f0xx_hal_gpio.c ****       temp &= ~(GPIO_MODER_MODER0 << (position * 2u));
 380              		.loc 1 238 12 is_stmt 0 view .LVU143
 381 0114 0468     		ldr	r4, [r0]
 382              	.LVL41:
 239:Drivers/STM32F0xx_HAL_Driver/Src/stm32f0xx_hal_gpio.c ****       temp |= ((GPIO_Init->Mode & GPIO_MODE) << (position * 2u));
 383              		.loc 1 239 7 is_stmt 1 view .LVU144
 239:Drivers/STM32F0xx_HAL_Driver/Src/stm32f0xx_hal_gpio.c ****       temp |= ((GPIO_Init->Mode & GPIO_MODE) << (position * 2u));
 384              		.loc 1 239 12 is_stmt 0 view .LVU145
 385 0116 3C40     		ands	r4, r7
 386              	.LVL42:
 240:Drivers/STM32F0xx_HAL_Driver/Src/stm32f0xx_hal_gpio.c ****       GPIOx->MODER = temp;
 387              		.loc 1 240 7 is_stmt 1 view .LVU146
 240:Drivers/STM32F0xx_HAL_Driver/Src/stm32f0xx_hal_gpio.c ****       GPIOx->MODER = temp;
 388              		.loc 1 240 26 is_stmt 0 view .LVU147
 389 0118 4F68     		ldr	r7, [r1, #4]
 240:Drivers/STM32F0xx_HAL_Driver/Src/stm32f0xx_hal_gpio.c ****       GPIOx->MODER = temp;
 390              		.loc 1 240 33 view .LVU148
 391 011a 0322     		movs	r2, #3
 392 011c 3A40     		ands	r2, r7
 240:Drivers/STM32F0xx_HAL_Driver/Src/stm32f0xx_hal_gpio.c ****       GPIOx->MODER = temp;
 393              		.loc 1 240 46 view .LVU149
 394 011e B240     		lsls	r2, r2, r6
 240:Drivers/STM32F0xx_HAL_Driver/Src/stm32f0xx_hal_gpio.c ****       GPIOx->MODER = temp;
 395              		.loc 1 240 12 view .LVU150
 396 0120 2243     		orrs	r2, r4
 397              	.LVL43:
 241:Drivers/STM32F0xx_HAL_Driver/Src/stm32f0xx_hal_gpio.c **** 
 398              		.loc 1 241 7 is_stmt 1 view .LVU151
 241:Drivers/STM32F0xx_HAL_Driver/Src/stm32f0xx_hal_gpio.c **** 
 399              		.loc 1 241 20 is_stmt 0 view .LVU152
 400 0122 0260     		str	r2, [r0]
 245:Drivers/STM32F0xx_HAL_Driver/Src/stm32f0xx_hal_gpio.c ****       {
 401              		.loc 1 245 7 is_stmt 1 view .LVU153
 245:Drivers/STM32F0xx_HAL_Driver/Src/stm32f0xx_hal_gpio.c ****       {
 402              		.loc 1 245 20 is_stmt 0 view .LVU154
 403 0124 4A68     		ldr	r2, [r1, #4]
 404              	.LVL44:
 245:Drivers/STM32F0xx_HAL_Driver/Src/stm32f0xx_hal_gpio.c ****       {
 405              		.loc 1 245 9 view .LVU155
 406 0126 D200     		lsls	r2, r2, #3
 407 0128 A5D5     		bpl	.L3
 248:Drivers/STM32F0xx_HAL_Driver/Src/stm32f0xx_hal_gpio.c **** 
 408              		.loc 1 248 9 is_stmt 1 view .LVU156
 409              	.LBB2:
 248:Drivers/STM32F0xx_HAL_Driver/Src/stm32f0xx_hal_gpio.c **** 
 410              		.loc 1 248 9 view .LVU157
 248:Drivers/STM32F0xx_HAL_Driver/Src/stm32f0xx_hal_gpio.c **** 
 411              		.loc 1 248 9 view .LVU158
 412 012a 1C4C     		ldr	r4, .L26+8
 413 012c A669     		ldr	r6, [r4, #24]
 414 012e 0122     		movs	r2, #1
 415 0130 1643     		orrs	r6, r2
 416 0132 A661     		str	r6, [r4, #24]
ARM GAS  /tmp/cckwFVu6.s 			page 15


 417              	.LVL45:
 248:Drivers/STM32F0xx_HAL_Driver/Src/stm32f0xx_hal_gpio.c **** 
 418              		.loc 1 248 9 view .LVU159
 419 0134 A469     		ldr	r4, [r4, #24]
 420 0136 2240     		ands	r2, r4
 421 0138 0192     		str	r2, [sp, #4]
 248:Drivers/STM32F0xx_HAL_Driver/Src/stm32f0xx_hal_gpio.c **** 
 422              		.loc 1 248 9 view .LVU160
 423 013a 019A     		ldr	r2, [sp, #4]
 424              	.LBE2:
 248:Drivers/STM32F0xx_HAL_Driver/Src/stm32f0xx_hal_gpio.c **** 
 425              		.loc 1 248 9 view .LVU161
 250:Drivers/STM32F0xx_HAL_Driver/Src/stm32f0xx_hal_gpio.c ****         temp &= ~(0x0FuL << (4u * (position & 0x03u)));
 426              		.loc 1 250 9 view .LVU162
 250:Drivers/STM32F0xx_HAL_Driver/Src/stm32f0xx_hal_gpio.c ****         temp &= ~(0x0FuL << (4u * (position & 0x03u)));
 427              		.loc 1 250 40 is_stmt 0 view .LVU163
 428 013c 9A08     		lsrs	r2, r3, #2
 250:Drivers/STM32F0xx_HAL_Driver/Src/stm32f0xx_hal_gpio.c ****         temp &= ~(0x0FuL << (4u * (position & 0x03u)));
 429              		.loc 1 250 14 view .LVU164
 430 013e 941C     		adds	r4, r2, #2
 431 0140 A400     		lsls	r4, r4, #2
 432 0142 144E     		ldr	r6, .L26
 433 0144 A759     		ldr	r7, [r4, r6]
 434              	.LVL46:
 251:Drivers/STM32F0xx_HAL_Driver/Src/stm32f0xx_hal_gpio.c ****         temp |= (GPIO_GET_INDEX(GPIOx) << (4u * (position & 0x03u)));
 435              		.loc 1 251 9 is_stmt 1 view .LVU165
 251:Drivers/STM32F0xx_HAL_Driver/Src/stm32f0xx_hal_gpio.c ****         temp |= (GPIO_GET_INDEX(GPIOx) << (4u * (position & 0x03u)));
 436              		.loc 1 251 45 is_stmt 0 view .LVU166
 437 0146 0324     		movs	r4, #3
 438 0148 1C40     		ands	r4, r3
 251:Drivers/STM32F0xx_HAL_Driver/Src/stm32f0xx_hal_gpio.c ****         temp |= (GPIO_GET_INDEX(GPIOx) << (4u * (position & 0x03u)));
 439              		.loc 1 251 33 view .LVU167
 440 014a A400     		lsls	r4, r4, #2
 251:Drivers/STM32F0xx_HAL_Driver/Src/stm32f0xx_hal_gpio.c ****         temp |= (GPIO_GET_INDEX(GPIOx) << (4u * (position & 0x03u)));
 441              		.loc 1 251 26 view .LVU168
 442 014c 0F26     		movs	r6, #15
 443 014e A640     		lsls	r6, r6, r4
 251:Drivers/STM32F0xx_HAL_Driver/Src/stm32f0xx_hal_gpio.c ****         temp |= (GPIO_GET_INDEX(GPIOx) << (4u * (position & 0x03u)));
 444              		.loc 1 251 14 view .LVU169
 445 0150 B743     		bics	r7, r6
 446              	.LVL47:
 252:Drivers/STM32F0xx_HAL_Driver/Src/stm32f0xx_hal_gpio.c ****         SYSCFG->EXTICR[position >> 2u] = temp;
 447              		.loc 1 252 9 is_stmt 1 view .LVU170
 252:Drivers/STM32F0xx_HAL_Driver/Src/stm32f0xx_hal_gpio.c ****         SYSCFG->EXTICR[position >> 2u] = temp;
 448              		.loc 1 252 18 is_stmt 0 view .LVU171
 449 0152 9026     		movs	r6, #144
 450 0154 F605     		lsls	r6, r6, #23
 451 0156 B042     		cmp	r0, r6
 452 0158 00D1     		bne	.LCB393
 453 015a 5BE7     		b	.L14	@long jump
 454              	.LCB393:
 252:Drivers/STM32F0xx_HAL_Driver/Src/stm32f0xx_hal_gpio.c ****         SYSCFG->EXTICR[position >> 2u] = temp;
 455              		.loc 1 252 18 discriminator 1 view .LVU172
 456 015c 104E     		ldr	r6, .L26+12
 457 015e B042     		cmp	r0, r6
 458 0160 0BD0     		beq	.L15
 252:Drivers/STM32F0xx_HAL_Driver/Src/stm32f0xx_hal_gpio.c ****         SYSCFG->EXTICR[position >> 2u] = temp;
ARM GAS  /tmp/cckwFVu6.s 			page 16


 459              		.loc 1 252 18 discriminator 3 view .LVU173
 460 0162 104E     		ldr	r6, .L26+16
 461 0164 B042     		cmp	r0, r6
 462 0166 0AD0     		beq	.L16
 252:Drivers/STM32F0xx_HAL_Driver/Src/stm32f0xx_hal_gpio.c ****         SYSCFG->EXTICR[position >> 2u] = temp;
 463              		.loc 1 252 18 discriminator 5 view .LVU174
 464 0168 0F4E     		ldr	r6, .L26+20
 465 016a B042     		cmp	r0, r6
 466 016c 09D0     		beq	.L17
 252:Drivers/STM32F0xx_HAL_Driver/Src/stm32f0xx_hal_gpio.c ****         SYSCFG->EXTICR[position >> 2u] = temp;
 467              		.loc 1 252 18 discriminator 7 view .LVU175
 468 016e 0F4E     		ldr	r6, .L26+24
 469 0170 B042     		cmp	r0, r6
 470 0172 00D1     		bne	.LCB405
 471 0174 4CE7     		b	.L25	@long jump
 472              	.LCB405:
 252:Drivers/STM32F0xx_HAL_Driver/Src/stm32f0xx_hal_gpio.c ****         SYSCFG->EXTICR[position >> 2u] = temp;
 473              		.loc 1 252 18 view .LVU176
 474 0176 0526     		movs	r6, #5
 475 0178 4DE7     		b	.L8
 476              	.L15:
 477 017a 0126     		movs	r6, #1
 478 017c 4BE7     		b	.L8
 479              	.L16:
 480 017e 0226     		movs	r6, #2
 481 0180 49E7     		b	.L8
 482              	.L17:
 483 0182 0326     		movs	r6, #3
 484 0184 47E7     		b	.L8
 485              	.LVL48:
 486              	.L24:
 292:Drivers/STM32F0xx_HAL_Driver/Src/stm32f0xx_hal_gpio.c ****   } 
 293:Drivers/STM32F0xx_HAL_Driver/Src/stm32f0xx_hal_gpio.c **** }
 487              		.loc 1 293 1 view .LVU177
 488 0186 02B0     		add	sp, sp, #8
 489              		@ sp needed
 490 0188 E0BC     		pop	{r5, r6, r7}
 491 018a BA46     		mov	r10, r7
 492 018c B146     		mov	r9, r6
 493 018e A846     		mov	r8, r5
 494 0190 F0BD     		pop	{r4, r5, r6, r7, pc}
 495              	.L27:
 496 0192 C046     		.align	2
 497              	.L26:
 498 0194 00000140 		.word	1073807360
 499 0198 00040140 		.word	1073808384
 500 019c 00100240 		.word	1073876992
 501 01a0 00040048 		.word	1207960576
 502 01a4 00080048 		.word	1207961600
 503 01a8 000C0048 		.word	1207962624
 504 01ac 00100048 		.word	1207963648
 505              		.cfi_endproc
 506              	.LFE40:
 508              		.section	.text.HAL_GPIO_DeInit,"ax",%progbits
 509              		.align	1
 510              		.global	HAL_GPIO_DeInit
 511              		.syntax unified
ARM GAS  /tmp/cckwFVu6.s 			page 17


 512              		.code	16
 513              		.thumb_func
 514              		.fpu softvfp
 516              	HAL_GPIO_DeInit:
 517              	.LVL49:
 518              	.LFB41:
 294:Drivers/STM32F0xx_HAL_Driver/Src/stm32f0xx_hal_gpio.c **** 
 295:Drivers/STM32F0xx_HAL_Driver/Src/stm32f0xx_hal_gpio.c **** /**
 296:Drivers/STM32F0xx_HAL_Driver/Src/stm32f0xx_hal_gpio.c ****   * @brief  De-initialize the GPIOx peripheral registers to their default reset values.
 297:Drivers/STM32F0xx_HAL_Driver/Src/stm32f0xx_hal_gpio.c ****   * @param  GPIOx where x can be (A..F) to select the GPIO peripheral for STM32F0 family
 298:Drivers/STM32F0xx_HAL_Driver/Src/stm32f0xx_hal_gpio.c ****   * @param  GPIO_Pin specifies the port bit to be written.
 299:Drivers/STM32F0xx_HAL_Driver/Src/stm32f0xx_hal_gpio.c ****   *         This parameter can be one of GPIO_PIN_x where x can be (0..15).
 300:Drivers/STM32F0xx_HAL_Driver/Src/stm32f0xx_hal_gpio.c ****   * @retval None
 301:Drivers/STM32F0xx_HAL_Driver/Src/stm32f0xx_hal_gpio.c ****   */
 302:Drivers/STM32F0xx_HAL_Driver/Src/stm32f0xx_hal_gpio.c **** void HAL_GPIO_DeInit(GPIO_TypeDef  *GPIOx, uint32_t GPIO_Pin)
 303:Drivers/STM32F0xx_HAL_Driver/Src/stm32f0xx_hal_gpio.c **** {
 519              		.loc 1 303 1 is_stmt 1 view -0
 520              		.cfi_startproc
 521              		@ args = 0, pretend = 0, frame = 0
 522              		@ frame_needed = 0, uses_anonymous_args = 0
 523              		.loc 1 303 1 is_stmt 0 view .LVU179
 524 0000 F0B5     		push	{r4, r5, r6, r7, lr}
 525              	.LCFI3:
 526              		.cfi_def_cfa_offset 20
 527              		.cfi_offset 4, -20
 528              		.cfi_offset 5, -16
 529              		.cfi_offset 6, -12
 530              		.cfi_offset 7, -8
 531              		.cfi_offset 14, -4
 532 0002 CE46     		mov	lr, r9
 533 0004 4746     		mov	r7, r8
 534 0006 80B5     		push	{r7, lr}
 535              	.LCFI4:
 536              		.cfi_def_cfa_offset 28
 537              		.cfi_offset 8, -28
 538              		.cfi_offset 9, -24
 539 0008 8946     		mov	r9, r1
 304:Drivers/STM32F0xx_HAL_Driver/Src/stm32f0xx_hal_gpio.c ****   uint32_t position = 0x00u;
 540              		.loc 1 304 3 is_stmt 1 view .LVU180
 541              	.LVL50:
 305:Drivers/STM32F0xx_HAL_Driver/Src/stm32f0xx_hal_gpio.c ****   uint32_t iocurrent;
 542              		.loc 1 305 3 view .LVU181
 306:Drivers/STM32F0xx_HAL_Driver/Src/stm32f0xx_hal_gpio.c ****   uint32_t tmp;
 543              		.loc 1 306 3 view .LVU182
 307:Drivers/STM32F0xx_HAL_Driver/Src/stm32f0xx_hal_gpio.c **** 
 308:Drivers/STM32F0xx_HAL_Driver/Src/stm32f0xx_hal_gpio.c ****   /* Check the parameters */
 309:Drivers/STM32F0xx_HAL_Driver/Src/stm32f0xx_hal_gpio.c ****   assert_param(IS_GPIO_ALL_INSTANCE(GPIOx));
 544              		.loc 1 309 3 view .LVU183
 310:Drivers/STM32F0xx_HAL_Driver/Src/stm32f0xx_hal_gpio.c ****   assert_param(IS_GPIO_PIN(GPIO_Pin));
 545              		.loc 1 310 3 view .LVU184
 311:Drivers/STM32F0xx_HAL_Driver/Src/stm32f0xx_hal_gpio.c **** 
 312:Drivers/STM32F0xx_HAL_Driver/Src/stm32f0xx_hal_gpio.c ****   /* Configure the port pins */
 313:Drivers/STM32F0xx_HAL_Driver/Src/stm32f0xx_hal_gpio.c ****   while ((GPIO_Pin >> position) != 0x00u)
 546              		.loc 1 313 3 view .LVU185
 304:Drivers/STM32F0xx_HAL_Driver/Src/stm32f0xx_hal_gpio.c ****   uint32_t iocurrent;
 547              		.loc 1 304 12 is_stmt 0 view .LVU186
 548 000a 0023     		movs	r3, #0
ARM GAS  /tmp/cckwFVu6.s 			page 18


 549              		.loc 1 313 9 view .LVU187
 550 000c 23E0     		b	.L29
 551              	.LVL51:
 552              	.L41:
 314:Drivers/STM32F0xx_HAL_Driver/Src/stm32f0xx_hal_gpio.c ****   {
 315:Drivers/STM32F0xx_HAL_Driver/Src/stm32f0xx_hal_gpio.c ****     /* Get current io position */
 316:Drivers/STM32F0xx_HAL_Driver/Src/stm32f0xx_hal_gpio.c ****     iocurrent = (GPIO_Pin) & (1uL << position);
 317:Drivers/STM32F0xx_HAL_Driver/Src/stm32f0xx_hal_gpio.c **** 
 318:Drivers/STM32F0xx_HAL_Driver/Src/stm32f0xx_hal_gpio.c ****     if (iocurrent != 0x00u)
 319:Drivers/STM32F0xx_HAL_Driver/Src/stm32f0xx_hal_gpio.c ****     {
 320:Drivers/STM32F0xx_HAL_Driver/Src/stm32f0xx_hal_gpio.c ****       /*------------------------- EXTI Mode Configuration --------------------*/
 321:Drivers/STM32F0xx_HAL_Driver/Src/stm32f0xx_hal_gpio.c ****       /* Clear the External Interrupt or Event for the current IO */
 322:Drivers/STM32F0xx_HAL_Driver/Src/stm32f0xx_hal_gpio.c **** 
 323:Drivers/STM32F0xx_HAL_Driver/Src/stm32f0xx_hal_gpio.c ****       tmp = SYSCFG->EXTICR[position >> 2u];
 324:Drivers/STM32F0xx_HAL_Driver/Src/stm32f0xx_hal_gpio.c ****       tmp &= (0x0FuL << (4u * (position & 0x03u)));
 325:Drivers/STM32F0xx_HAL_Driver/Src/stm32f0xx_hal_gpio.c ****       if (tmp == (GPIO_GET_INDEX(GPIOx) << (4u * (position & 0x03u))))
 553              		.loc 1 325 19 view .LVU188
 554 000e 0421     		movs	r1, #4
 555 0010 8846     		mov	r8, r1
 556 0012 01E0     		b	.L31
 557              	.L34:
 558 0014 0021     		movs	r1, #0
 559 0016 8846     		mov	r8, r1
 560              	.L31:
 561              		.loc 1 325 41 discriminator 20 view .LVU189
 562 0018 4146     		mov	r1, r8
 563 001a A140     		lsls	r1, r1, r4
 564              		.loc 1 325 10 discriminator 20 view .LVU190
 565 001c A942     		cmp	r1, r5
 566 001e 4CD0     		beq	.L39
 567              	.LVL52:
 568              	.L32:
 326:Drivers/STM32F0xx_HAL_Driver/Src/stm32f0xx_hal_gpio.c ****       {
 327:Drivers/STM32F0xx_HAL_Driver/Src/stm32f0xx_hal_gpio.c ****         /* Clear EXTI line configuration */
 328:Drivers/STM32F0xx_HAL_Driver/Src/stm32f0xx_hal_gpio.c ****         EXTI->IMR &= ~((uint32_t)iocurrent);
 329:Drivers/STM32F0xx_HAL_Driver/Src/stm32f0xx_hal_gpio.c ****         EXTI->EMR &= ~((uint32_t)iocurrent);
 330:Drivers/STM32F0xx_HAL_Driver/Src/stm32f0xx_hal_gpio.c ****         
 331:Drivers/STM32F0xx_HAL_Driver/Src/stm32f0xx_hal_gpio.c ****         /* Clear Rising Falling edge configuration */
 332:Drivers/STM32F0xx_HAL_Driver/Src/stm32f0xx_hal_gpio.c ****         EXTI->RTSR &= ~((uint32_t)iocurrent);
 333:Drivers/STM32F0xx_HAL_Driver/Src/stm32f0xx_hal_gpio.c ****         EXTI->FTSR &= ~((uint32_t)iocurrent);
 334:Drivers/STM32F0xx_HAL_Driver/Src/stm32f0xx_hal_gpio.c **** 
 335:Drivers/STM32F0xx_HAL_Driver/Src/stm32f0xx_hal_gpio.c ****         /* Configure the External Interrupt or event for the current IO */
 336:Drivers/STM32F0xx_HAL_Driver/Src/stm32f0xx_hal_gpio.c ****         tmp = 0x0FuL << (4u * (position & 0x03u));
 337:Drivers/STM32F0xx_HAL_Driver/Src/stm32f0xx_hal_gpio.c ****         SYSCFG->EXTICR[position >> 2u] &= ~tmp;
 338:Drivers/STM32F0xx_HAL_Driver/Src/stm32f0xx_hal_gpio.c ****       }
 339:Drivers/STM32F0xx_HAL_Driver/Src/stm32f0xx_hal_gpio.c **** 
 340:Drivers/STM32F0xx_HAL_Driver/Src/stm32f0xx_hal_gpio.c ****       /*------------------------- GPIO Mode Configuration --------------------*/
 341:Drivers/STM32F0xx_HAL_Driver/Src/stm32f0xx_hal_gpio.c ****       /* Configure IO Direction in Input Floating Mode */
 342:Drivers/STM32F0xx_HAL_Driver/Src/stm32f0xx_hal_gpio.c ****       GPIOx->MODER &= ~(GPIO_MODER_MODER0 << (position * 2u));
 569              		.loc 1 342 7 is_stmt 1 view .LVU191
 570              		.loc 1 342 20 is_stmt 0 view .LVU192
 571 0020 0468     		ldr	r4, [r0]
 572              		.loc 1 342 56 view .LVU193
 573 0022 5E00     		lsls	r6, r3, #1
 574              		.loc 1 342 43 view .LVU194
 575 0024 0325     		movs	r5, #3
 576 0026 B540     		lsls	r5, r5, r6
ARM GAS  /tmp/cckwFVu6.s 			page 19


 577              		.loc 1 342 20 view .LVU195
 578 0028 AC43     		bics	r4, r5
 579 002a 0460     		str	r4, [r0]
 343:Drivers/STM32F0xx_HAL_Driver/Src/stm32f0xx_hal_gpio.c **** 
 344:Drivers/STM32F0xx_HAL_Driver/Src/stm32f0xx_hal_gpio.c ****       /* Configure the default Alternate Function in current IO */
 345:Drivers/STM32F0xx_HAL_Driver/Src/stm32f0xx_hal_gpio.c ****       GPIOx->AFR[position >> 3u] &= ~(0xFu << ((uint32_t)(position & 0x07u) * 4u)) ;
 580              		.loc 1 345 7 is_stmt 1 view .LVU196
 581              		.loc 1 345 34 is_stmt 0 view .LVU197
 582 002c DC08     		lsrs	r4, r3, #3
 583 002e 0834     		adds	r4, r4, #8
 584 0030 A400     		lsls	r4, r4, #2
 585 0032 2758     		ldr	r7, [r4, r0]
 586              		.loc 1 345 48 view .LVU198
 587 0034 0726     		movs	r6, #7
 588 0036 1E40     		ands	r6, r3
 589              		.loc 1 345 77 view .LVU199
 590 0038 B600     		lsls	r6, r6, #2
 591              		.loc 1 345 44 view .LVU200
 592 003a 0F21     		movs	r1, #15
 593 003c B140     		lsls	r1, r1, r6
 594              		.loc 1 345 34 view .LVU201
 595 003e 8F43     		bics	r7, r1
 596 0040 2750     		str	r7, [r4, r0]
 346:Drivers/STM32F0xx_HAL_Driver/Src/stm32f0xx_hal_gpio.c **** 
 347:Drivers/STM32F0xx_HAL_Driver/Src/stm32f0xx_hal_gpio.c ****       /* Deactivate the Pull-up and Pull-down resistor for the current IO */
 348:Drivers/STM32F0xx_HAL_Driver/Src/stm32f0xx_hal_gpio.c ****       GPIOx->PUPDR &= ~(GPIO_PUPDR_PUPDR0 << (position * 2u));
 597              		.loc 1 348 7 is_stmt 1 view .LVU202
 598              		.loc 1 348 20 is_stmt 0 view .LVU203
 599 0042 C468     		ldr	r4, [r0, #12]
 600 0044 AC43     		bics	r4, r5
 601 0046 C460     		str	r4, [r0, #12]
 349:Drivers/STM32F0xx_HAL_Driver/Src/stm32f0xx_hal_gpio.c **** 
 350:Drivers/STM32F0xx_HAL_Driver/Src/stm32f0xx_hal_gpio.c ****       /* Configure the default value IO Output Type */
 351:Drivers/STM32F0xx_HAL_Driver/Src/stm32f0xx_hal_gpio.c ****       GPIOx->OTYPER  &= ~(GPIO_OTYPER_OT_0 << position) ;
 602              		.loc 1 351 7 is_stmt 1 view .LVU204
 603              		.loc 1 351 22 is_stmt 0 view .LVU205
 604 0048 4468     		ldr	r4, [r0, #4]
 605 004a 9443     		bics	r4, r2
 606 004c 4460     		str	r4, [r0, #4]
 352:Drivers/STM32F0xx_HAL_Driver/Src/stm32f0xx_hal_gpio.c **** 
 353:Drivers/STM32F0xx_HAL_Driver/Src/stm32f0xx_hal_gpio.c ****       /* Configure the default value for IO Speed */
 354:Drivers/STM32F0xx_HAL_Driver/Src/stm32f0xx_hal_gpio.c ****       GPIOx->OSPEEDR &= ~(GPIO_OSPEEDER_OSPEEDR0 << (position * 2u));
 607              		.loc 1 354 7 is_stmt 1 view .LVU206
 608              		.loc 1 354 22 is_stmt 0 view .LVU207
 609 004e 8268     		ldr	r2, [r0, #8]
 610 0050 AA43     		bics	r2, r5
 611 0052 8260     		str	r2, [r0, #8]
 612              	.L30:
 355:Drivers/STM32F0xx_HAL_Driver/Src/stm32f0xx_hal_gpio.c **** 
 356:Drivers/STM32F0xx_HAL_Driver/Src/stm32f0xx_hal_gpio.c ****     }
 357:Drivers/STM32F0xx_HAL_Driver/Src/stm32f0xx_hal_gpio.c **** 
 358:Drivers/STM32F0xx_HAL_Driver/Src/stm32f0xx_hal_gpio.c ****     position++;
 613              		.loc 1 358 5 is_stmt 1 view .LVU208
 614              		.loc 1 358 13 is_stmt 0 view .LVU209
 615 0054 0133     		adds	r3, r3, #1
 616              	.LVL53:
 617              	.L29:
ARM GAS  /tmp/cckwFVu6.s 			page 20


 313:Drivers/STM32F0xx_HAL_Driver/Src/stm32f0xx_hal_gpio.c ****   {
 618              		.loc 1 313 33 is_stmt 1 view .LVU210
 313:Drivers/STM32F0xx_HAL_Driver/Src/stm32f0xx_hal_gpio.c ****   {
 619              		.loc 1 313 20 is_stmt 0 view .LVU211
 620 0056 4A46     		mov	r2, r9
 621 0058 DA40     		lsrs	r2, r2, r3
 313:Drivers/STM32F0xx_HAL_Driver/Src/stm32f0xx_hal_gpio.c ****   {
 622              		.loc 1 313 33 view .LVU212
 623 005a 43D0     		beq	.L40
 316:Drivers/STM32F0xx_HAL_Driver/Src/stm32f0xx_hal_gpio.c **** 
 624              		.loc 1 316 5 is_stmt 1 view .LVU213
 316:Drivers/STM32F0xx_HAL_Driver/Src/stm32f0xx_hal_gpio.c **** 
 625              		.loc 1 316 35 is_stmt 0 view .LVU214
 626 005c 0122     		movs	r2, #1
 627 005e 9A40     		lsls	r2, r2, r3
 316:Drivers/STM32F0xx_HAL_Driver/Src/stm32f0xx_hal_gpio.c **** 
 628              		.loc 1 316 15 view .LVU215
 629 0060 4C46     		mov	r4, r9
 630 0062 1440     		ands	r4, r2
 631 0064 A446     		mov	ip, r4
 632              	.LVL54:
 318:Drivers/STM32F0xx_HAL_Driver/Src/stm32f0xx_hal_gpio.c ****     {
 633              		.loc 1 318 5 is_stmt 1 view .LVU216
 318:Drivers/STM32F0xx_HAL_Driver/Src/stm32f0xx_hal_gpio.c ****     {
 634              		.loc 1 318 8 is_stmt 0 view .LVU217
 635 0066 4946     		mov	r1, r9
 636 0068 1142     		tst	r1, r2
 637 006a F3D0     		beq	.L30
 638              	.LVL55:
 323:Drivers/STM32F0xx_HAL_Driver/Src/stm32f0xx_hal_gpio.c ****       tmp &= (0x0FuL << (4u * (position & 0x03u)));
 639              		.loc 1 323 7 is_stmt 1 view .LVU218
 323:Drivers/STM32F0xx_HAL_Driver/Src/stm32f0xx_hal_gpio.c ****       tmp &= (0x0FuL << (4u * (position & 0x03u)));
 640              		.loc 1 323 37 is_stmt 0 view .LVU219
 641 006c 9F08     		lsrs	r7, r3, #2
 323:Drivers/STM32F0xx_HAL_Driver/Src/stm32f0xx_hal_gpio.c ****       tmp &= (0x0FuL << (4u * (position & 0x03u)));
 642              		.loc 1 323 11 view .LVU220
 643 006e BC1C     		adds	r4, r7, #2
 644              	.LVL56:
 323:Drivers/STM32F0xx_HAL_Driver/Src/stm32f0xx_hal_gpio.c ****       tmp &= (0x0FuL << (4u * (position & 0x03u)));
 645              		.loc 1 323 11 view .LVU221
 646 0070 A400     		lsls	r4, r4, #2
 647 0072 1E4D     		ldr	r5, .L42
 648 0074 6559     		ldr	r5, [r4, r5]
 649              	.LVL57:
 324:Drivers/STM32F0xx_HAL_Driver/Src/stm32f0xx_hal_gpio.c ****       if (tmp == (GPIO_GET_INDEX(GPIOx) << (4u * (position & 0x03u))))
 650              		.loc 1 324 7 is_stmt 1 view .LVU222
 324:Drivers/STM32F0xx_HAL_Driver/Src/stm32f0xx_hal_gpio.c ****       if (tmp == (GPIO_GET_INDEX(GPIOx) << (4u * (position & 0x03u))))
 651              		.loc 1 324 41 is_stmt 0 view .LVU223
 652 0076 0326     		movs	r6, #3
 653 0078 1E40     		ands	r6, r3
 324:Drivers/STM32F0xx_HAL_Driver/Src/stm32f0xx_hal_gpio.c ****       if (tmp == (GPIO_GET_INDEX(GPIOx) << (4u * (position & 0x03u))))
 654              		.loc 1 324 29 view .LVU224
 655 007a B400     		lsls	r4, r6, #2
 324:Drivers/STM32F0xx_HAL_Driver/Src/stm32f0xx_hal_gpio.c ****       if (tmp == (GPIO_GET_INDEX(GPIOx) << (4u * (position & 0x03u))))
 656              		.loc 1 324 22 view .LVU225
 657 007c 0F26     		movs	r6, #15
 658 007e A640     		lsls	r6, r6, r4
ARM GAS  /tmp/cckwFVu6.s 			page 21


 324:Drivers/STM32F0xx_HAL_Driver/Src/stm32f0xx_hal_gpio.c ****       if (tmp == (GPIO_GET_INDEX(GPIOx) << (4u * (position & 0x03u))))
 659              		.loc 1 324 11 view .LVU226
 660 0080 3540     		ands	r5, r6
 661              	.LVL58:
 325:Drivers/STM32F0xx_HAL_Driver/Src/stm32f0xx_hal_gpio.c ****       {
 662              		.loc 1 325 7 is_stmt 1 view .LVU227
 325:Drivers/STM32F0xx_HAL_Driver/Src/stm32f0xx_hal_gpio.c ****       {
 663              		.loc 1 325 19 is_stmt 0 view .LVU228
 664 0082 9021     		movs	r1, #144
 665              	.LVL59:
 325:Drivers/STM32F0xx_HAL_Driver/Src/stm32f0xx_hal_gpio.c ****       {
 666              		.loc 1 325 19 view .LVU229
 667 0084 C905     		lsls	r1, r1, #23
 668 0086 8842     		cmp	r0, r1
 669 0088 C4D0     		beq	.L34
 325:Drivers/STM32F0xx_HAL_Driver/Src/stm32f0xx_hal_gpio.c ****       {
 670              		.loc 1 325 19 discriminator 1 view .LVU230
 671 008a 1949     		ldr	r1, .L42+4
 672 008c 8842     		cmp	r0, r1
 673 008e 0BD0     		beq	.L35
 325:Drivers/STM32F0xx_HAL_Driver/Src/stm32f0xx_hal_gpio.c ****       {
 674              		.loc 1 325 19 discriminator 3 view .LVU231
 675 0090 1849     		ldr	r1, .L42+8
 676 0092 8842     		cmp	r0, r1
 677 0094 0BD0     		beq	.L36
 325:Drivers/STM32F0xx_HAL_Driver/Src/stm32f0xx_hal_gpio.c ****       {
 678              		.loc 1 325 19 discriminator 5 view .LVU232
 679 0096 1849     		ldr	r1, .L42+12
 680 0098 8842     		cmp	r0, r1
 681 009a 0BD0     		beq	.L37
 325:Drivers/STM32F0xx_HAL_Driver/Src/stm32f0xx_hal_gpio.c ****       {
 682              		.loc 1 325 19 discriminator 7 view .LVU233
 683 009c 1749     		ldr	r1, .L42+16
 684 009e 8842     		cmp	r0, r1
 685 00a0 B5D0     		beq	.L41
 325:Drivers/STM32F0xx_HAL_Driver/Src/stm32f0xx_hal_gpio.c ****       {
 686              		.loc 1 325 19 view .LVU234
 687 00a2 0521     		movs	r1, #5
 688 00a4 8846     		mov	r8, r1
 689 00a6 B7E7     		b	.L31
 690              	.L35:
 691 00a8 0121     		movs	r1, #1
 692 00aa 8846     		mov	r8, r1
 693 00ac B4E7     		b	.L31
 694              	.L36:
 695 00ae 0221     		movs	r1, #2
 696 00b0 8846     		mov	r8, r1
 697 00b2 B1E7     		b	.L31
 698              	.L37:
 699 00b4 0321     		movs	r1, #3
 700 00b6 8846     		mov	r8, r1
 701 00b8 AEE7     		b	.L31
 702              	.L39:
 328:Drivers/STM32F0xx_HAL_Driver/Src/stm32f0xx_hal_gpio.c ****         EXTI->EMR &= ~((uint32_t)iocurrent);
 703              		.loc 1 328 9 is_stmt 1 view .LVU235
 328:Drivers/STM32F0xx_HAL_Driver/Src/stm32f0xx_hal_gpio.c ****         EXTI->EMR &= ~((uint32_t)iocurrent);
 704              		.loc 1 328 19 is_stmt 0 view .LVU236
ARM GAS  /tmp/cckwFVu6.s 			page 22


 705 00ba 114C     		ldr	r4, .L42+20
 706 00bc 2568     		ldr	r5, [r4]
 707              	.LVL60:
 328:Drivers/STM32F0xx_HAL_Driver/Src/stm32f0xx_hal_gpio.c ****         EXTI->EMR &= ~((uint32_t)iocurrent);
 708              		.loc 1 328 19 view .LVU237
 709 00be 6146     		mov	r1, ip
 710 00c0 8D43     		bics	r5, r1
 711 00c2 2560     		str	r5, [r4]
 329:Drivers/STM32F0xx_HAL_Driver/Src/stm32f0xx_hal_gpio.c ****         
 712              		.loc 1 329 9 is_stmt 1 view .LVU238
 329:Drivers/STM32F0xx_HAL_Driver/Src/stm32f0xx_hal_gpio.c ****         
 713              		.loc 1 329 19 is_stmt 0 view .LVU239
 714 00c4 6568     		ldr	r5, [r4, #4]
 715 00c6 8D43     		bics	r5, r1
 716 00c8 6560     		str	r5, [r4, #4]
 332:Drivers/STM32F0xx_HAL_Driver/Src/stm32f0xx_hal_gpio.c ****         EXTI->FTSR &= ~((uint32_t)iocurrent);
 717              		.loc 1 332 9 is_stmt 1 view .LVU240
 332:Drivers/STM32F0xx_HAL_Driver/Src/stm32f0xx_hal_gpio.c ****         EXTI->FTSR &= ~((uint32_t)iocurrent);
 718              		.loc 1 332 20 is_stmt 0 view .LVU241
 719 00ca A568     		ldr	r5, [r4, #8]
 720 00cc 8D43     		bics	r5, r1
 721 00ce A560     		str	r5, [r4, #8]
 333:Drivers/STM32F0xx_HAL_Driver/Src/stm32f0xx_hal_gpio.c **** 
 722              		.loc 1 333 9 is_stmt 1 view .LVU242
 333:Drivers/STM32F0xx_HAL_Driver/Src/stm32f0xx_hal_gpio.c **** 
 723              		.loc 1 333 20 is_stmt 0 view .LVU243
 724 00d0 E568     		ldr	r5, [r4, #12]
 725 00d2 8D43     		bics	r5, r1
 726 00d4 E560     		str	r5, [r4, #12]
 336:Drivers/STM32F0xx_HAL_Driver/Src/stm32f0xx_hal_gpio.c ****         SYSCFG->EXTICR[position >> 2u] &= ~tmp;
 727              		.loc 1 336 9 is_stmt 1 view .LVU244
 728              	.LVL61:
 337:Drivers/STM32F0xx_HAL_Driver/Src/stm32f0xx_hal_gpio.c ****       }
 729              		.loc 1 337 9 view .LVU245
 337:Drivers/STM32F0xx_HAL_Driver/Src/stm32f0xx_hal_gpio.c ****       }
 730              		.loc 1 337 40 is_stmt 0 view .LVU246
 731 00d6 0549     		ldr	r1, .L42
 732 00d8 0237     		adds	r7, r7, #2
 733 00da BC00     		lsls	r4, r7, #2
 734 00dc 6558     		ldr	r5, [r4, r1]
 735 00de B543     		bics	r5, r6
 736 00e0 6550     		str	r5, [r4, r1]
 737 00e2 9DE7     		b	.L32
 738              	.LVL62:
 739              	.L40:
 359:Drivers/STM32F0xx_HAL_Driver/Src/stm32f0xx_hal_gpio.c ****   }
 360:Drivers/STM32F0xx_HAL_Driver/Src/stm32f0xx_hal_gpio.c **** }
 740              		.loc 1 360 1 view .LVU247
 741              		@ sp needed
 742              	.LVL63:
 743              		.loc 1 360 1 view .LVU248
 744 00e4 C0BC     		pop	{r6, r7}
 745 00e6 B946     		mov	r9, r7
 746 00e8 B046     		mov	r8, r6
 747 00ea F0BD     		pop	{r4, r5, r6, r7, pc}
 748              	.L43:
 749              		.align	2
ARM GAS  /tmp/cckwFVu6.s 			page 23


 750              	.L42:
 751 00ec 00000140 		.word	1073807360
 752 00f0 00040048 		.word	1207960576
 753 00f4 00080048 		.word	1207961600
 754 00f8 000C0048 		.word	1207962624
 755 00fc 00100048 		.word	1207963648
 756 0100 00040140 		.word	1073808384
 757              		.cfi_endproc
 758              	.LFE41:
 760              		.section	.text.HAL_GPIO_ReadPin,"ax",%progbits
 761              		.align	1
 762              		.global	HAL_GPIO_ReadPin
 763              		.syntax unified
 764              		.code	16
 765              		.thumb_func
 766              		.fpu softvfp
 768              	HAL_GPIO_ReadPin:
 769              	.LVL64:
 770              	.LFB42:
 361:Drivers/STM32F0xx_HAL_Driver/Src/stm32f0xx_hal_gpio.c **** 
 362:Drivers/STM32F0xx_HAL_Driver/Src/stm32f0xx_hal_gpio.c **** /**
 363:Drivers/STM32F0xx_HAL_Driver/Src/stm32f0xx_hal_gpio.c ****   * @}
 364:Drivers/STM32F0xx_HAL_Driver/Src/stm32f0xx_hal_gpio.c ****   */
 365:Drivers/STM32F0xx_HAL_Driver/Src/stm32f0xx_hal_gpio.c **** 
 366:Drivers/STM32F0xx_HAL_Driver/Src/stm32f0xx_hal_gpio.c **** /** @defgroup GPIO_Exported_Functions_Group2 IO operation functions 
 367:Drivers/STM32F0xx_HAL_Driver/Src/stm32f0xx_hal_gpio.c ****  *  @brief GPIO Read, Write, Toggle, Lock and EXTI management functions.
 368:Drivers/STM32F0xx_HAL_Driver/Src/stm32f0xx_hal_gpio.c ****  *
 369:Drivers/STM32F0xx_HAL_Driver/Src/stm32f0xx_hal_gpio.c **** @verbatim   
 370:Drivers/STM32F0xx_HAL_Driver/Src/stm32f0xx_hal_gpio.c ****  ===============================================================================
 371:Drivers/STM32F0xx_HAL_Driver/Src/stm32f0xx_hal_gpio.c ****                        ##### IO operation functions #####
 372:Drivers/STM32F0xx_HAL_Driver/Src/stm32f0xx_hal_gpio.c ****  ===============================================================================  
 373:Drivers/STM32F0xx_HAL_Driver/Src/stm32f0xx_hal_gpio.c **** 
 374:Drivers/STM32F0xx_HAL_Driver/Src/stm32f0xx_hal_gpio.c **** @endverbatim
 375:Drivers/STM32F0xx_HAL_Driver/Src/stm32f0xx_hal_gpio.c ****   * @{
 376:Drivers/STM32F0xx_HAL_Driver/Src/stm32f0xx_hal_gpio.c ****   */
 377:Drivers/STM32F0xx_HAL_Driver/Src/stm32f0xx_hal_gpio.c **** 
 378:Drivers/STM32F0xx_HAL_Driver/Src/stm32f0xx_hal_gpio.c **** /**
 379:Drivers/STM32F0xx_HAL_Driver/Src/stm32f0xx_hal_gpio.c ****   * @brief  Read the specified input port pin.
 380:Drivers/STM32F0xx_HAL_Driver/Src/stm32f0xx_hal_gpio.c ****   * @param  GPIOx where x can be (A..F) to select the GPIO peripheral for STM32F0 family
 381:Drivers/STM32F0xx_HAL_Driver/Src/stm32f0xx_hal_gpio.c ****   * @param  GPIO_Pin specifies the port bit to read.
 382:Drivers/STM32F0xx_HAL_Driver/Src/stm32f0xx_hal_gpio.c ****   *         This parameter can be GPIO_PIN_x where x can be (0..15).
 383:Drivers/STM32F0xx_HAL_Driver/Src/stm32f0xx_hal_gpio.c ****   * @retval The input port pin value.
 384:Drivers/STM32F0xx_HAL_Driver/Src/stm32f0xx_hal_gpio.c ****   */
 385:Drivers/STM32F0xx_HAL_Driver/Src/stm32f0xx_hal_gpio.c **** GPIO_PinState HAL_GPIO_ReadPin(GPIO_TypeDef* GPIOx, uint16_t GPIO_Pin)
 386:Drivers/STM32F0xx_HAL_Driver/Src/stm32f0xx_hal_gpio.c **** {
 771              		.loc 1 386 1 is_stmt 1 view -0
 772              		.cfi_startproc
 773              		@ args = 0, pretend = 0, frame = 0
 774              		@ frame_needed = 0, uses_anonymous_args = 0
 775              		@ link register save eliminated.
 387:Drivers/STM32F0xx_HAL_Driver/Src/stm32f0xx_hal_gpio.c ****   GPIO_PinState bitstatus;
 776              		.loc 1 387 3 view .LVU250
 388:Drivers/STM32F0xx_HAL_Driver/Src/stm32f0xx_hal_gpio.c **** 
 389:Drivers/STM32F0xx_HAL_Driver/Src/stm32f0xx_hal_gpio.c ****   /* Check the parameters */
 390:Drivers/STM32F0xx_HAL_Driver/Src/stm32f0xx_hal_gpio.c ****   assert_param(IS_GPIO_PIN(GPIO_Pin));
 777              		.loc 1 390 3 view .LVU251
 391:Drivers/STM32F0xx_HAL_Driver/Src/stm32f0xx_hal_gpio.c **** 
ARM GAS  /tmp/cckwFVu6.s 			page 24


 392:Drivers/STM32F0xx_HAL_Driver/Src/stm32f0xx_hal_gpio.c ****   if ((GPIOx->IDR & GPIO_Pin) != (uint32_t)GPIO_PIN_RESET)
 778              		.loc 1 392 3 view .LVU252
 779              		.loc 1 392 13 is_stmt 0 view .LVU253
 780 0000 0369     		ldr	r3, [r0, #16]
 781              		.loc 1 392 6 view .LVU254
 782 0002 0B42     		tst	r3, r1
 783 0004 01D0     		beq	.L46
 393:Drivers/STM32F0xx_HAL_Driver/Src/stm32f0xx_hal_gpio.c ****   {
 394:Drivers/STM32F0xx_HAL_Driver/Src/stm32f0xx_hal_gpio.c ****     bitstatus = GPIO_PIN_SET;
 784              		.loc 1 394 15 view .LVU255
 785 0006 0120     		movs	r0, #1
 786              	.LVL65:
 787              	.L45:
 395:Drivers/STM32F0xx_HAL_Driver/Src/stm32f0xx_hal_gpio.c ****   }
 396:Drivers/STM32F0xx_HAL_Driver/Src/stm32f0xx_hal_gpio.c ****   else
 397:Drivers/STM32F0xx_HAL_Driver/Src/stm32f0xx_hal_gpio.c ****   {
 398:Drivers/STM32F0xx_HAL_Driver/Src/stm32f0xx_hal_gpio.c ****     bitstatus = GPIO_PIN_RESET;
 399:Drivers/STM32F0xx_HAL_Driver/Src/stm32f0xx_hal_gpio.c ****   }
 400:Drivers/STM32F0xx_HAL_Driver/Src/stm32f0xx_hal_gpio.c ****   return bitstatus;
 788              		.loc 1 400 3 is_stmt 1 view .LVU256
 401:Drivers/STM32F0xx_HAL_Driver/Src/stm32f0xx_hal_gpio.c ****   }
 789              		.loc 1 401 3 is_stmt 0 view .LVU257
 790              		@ sp needed
 791 0008 7047     		bx	lr
 792              	.LVL66:
 793              	.L46:
 398:Drivers/STM32F0xx_HAL_Driver/Src/stm32f0xx_hal_gpio.c ****   }
 794              		.loc 1 398 15 view .LVU258
 795 000a 0020     		movs	r0, #0
 796              	.LVL67:
 398:Drivers/STM32F0xx_HAL_Driver/Src/stm32f0xx_hal_gpio.c ****   }
 797              		.loc 1 398 15 view .LVU259
 798 000c FCE7     		b	.L45
 799              		.cfi_endproc
 800              	.LFE42:
 802              		.section	.text.HAL_GPIO_WritePin,"ax",%progbits
 803              		.align	1
 804              		.global	HAL_GPIO_WritePin
 805              		.syntax unified
 806              		.code	16
 807              		.thumb_func
 808              		.fpu softvfp
 810              	HAL_GPIO_WritePin:
 811              	.LVL68:
 812              	.LFB43:
 402:Drivers/STM32F0xx_HAL_Driver/Src/stm32f0xx_hal_gpio.c **** 
 403:Drivers/STM32F0xx_HAL_Driver/Src/stm32f0xx_hal_gpio.c **** /**
 404:Drivers/STM32F0xx_HAL_Driver/Src/stm32f0xx_hal_gpio.c ****   * @brief  Set or clear the selected data port bit.
 405:Drivers/STM32F0xx_HAL_Driver/Src/stm32f0xx_hal_gpio.c ****   * @note   This function uses GPIOx_BSRR and GPIOx_BRR registers to allow atomic read/modify
 406:Drivers/STM32F0xx_HAL_Driver/Src/stm32f0xx_hal_gpio.c ****   *         accesses. In this way, there is no risk of an IRQ occurring between
 407:Drivers/STM32F0xx_HAL_Driver/Src/stm32f0xx_hal_gpio.c ****   *         the read and the modify access.
 408:Drivers/STM32F0xx_HAL_Driver/Src/stm32f0xx_hal_gpio.c ****   *
 409:Drivers/STM32F0xx_HAL_Driver/Src/stm32f0xx_hal_gpio.c ****   * @param  GPIOx where x can be (A..H) to select the GPIO peripheral for STM32F0 family
 410:Drivers/STM32F0xx_HAL_Driver/Src/stm32f0xx_hal_gpio.c ****   * @param  GPIO_Pin specifies the port bit to be written.
 411:Drivers/STM32F0xx_HAL_Driver/Src/stm32f0xx_hal_gpio.c ****   *          This parameter can be one of GPIO_PIN_x where x can be (0..15).
 412:Drivers/STM32F0xx_HAL_Driver/Src/stm32f0xx_hal_gpio.c ****   * @param  PinState specifies the value to be written to the selected bit.
 413:Drivers/STM32F0xx_HAL_Driver/Src/stm32f0xx_hal_gpio.c ****   *          This parameter can be one of the GPIO_PinState enum values:
ARM GAS  /tmp/cckwFVu6.s 			page 25


 414:Drivers/STM32F0xx_HAL_Driver/Src/stm32f0xx_hal_gpio.c ****   *            @arg GPIO_PIN_RESET: to clear the port pin
 415:Drivers/STM32F0xx_HAL_Driver/Src/stm32f0xx_hal_gpio.c ****   *            @arg GPIO_PIN_SET: to set the port pin
 416:Drivers/STM32F0xx_HAL_Driver/Src/stm32f0xx_hal_gpio.c ****   * @retval None
 417:Drivers/STM32F0xx_HAL_Driver/Src/stm32f0xx_hal_gpio.c ****   */
 418:Drivers/STM32F0xx_HAL_Driver/Src/stm32f0xx_hal_gpio.c **** void HAL_GPIO_WritePin(GPIO_TypeDef* GPIOx, uint16_t GPIO_Pin, GPIO_PinState PinState)
 419:Drivers/STM32F0xx_HAL_Driver/Src/stm32f0xx_hal_gpio.c **** {
 813              		.loc 1 419 1 is_stmt 1 view -0
 814              		.cfi_startproc
 815              		@ args = 0, pretend = 0, frame = 0
 816              		@ frame_needed = 0, uses_anonymous_args = 0
 817              		@ link register save eliminated.
 420:Drivers/STM32F0xx_HAL_Driver/Src/stm32f0xx_hal_gpio.c ****   /* Check the parameters */
 421:Drivers/STM32F0xx_HAL_Driver/Src/stm32f0xx_hal_gpio.c ****   assert_param(IS_GPIO_PIN(GPIO_Pin));
 818              		.loc 1 421 3 view .LVU261
 422:Drivers/STM32F0xx_HAL_Driver/Src/stm32f0xx_hal_gpio.c ****   assert_param(IS_GPIO_PIN_ACTION(PinState));
 819              		.loc 1 422 3 view .LVU262
 423:Drivers/STM32F0xx_HAL_Driver/Src/stm32f0xx_hal_gpio.c **** 
 424:Drivers/STM32F0xx_HAL_Driver/Src/stm32f0xx_hal_gpio.c ****   if (PinState != GPIO_PIN_RESET)
 820              		.loc 1 424 3 view .LVU263
 821              		.loc 1 424 6 is_stmt 0 view .LVU264
 822 0000 002A     		cmp	r2, #0
 823 0002 01D0     		beq	.L48
 425:Drivers/STM32F0xx_HAL_Driver/Src/stm32f0xx_hal_gpio.c ****   {
 426:Drivers/STM32F0xx_HAL_Driver/Src/stm32f0xx_hal_gpio.c ****     GPIOx->BSRR = (uint32_t)GPIO_Pin;
 824              		.loc 1 426 5 is_stmt 1 view .LVU265
 825              		.loc 1 426 17 is_stmt 0 view .LVU266
 826 0004 8161     		str	r1, [r0, #24]
 827              	.L47:
 427:Drivers/STM32F0xx_HAL_Driver/Src/stm32f0xx_hal_gpio.c ****   }
 428:Drivers/STM32F0xx_HAL_Driver/Src/stm32f0xx_hal_gpio.c ****   else
 429:Drivers/STM32F0xx_HAL_Driver/Src/stm32f0xx_hal_gpio.c ****   {
 430:Drivers/STM32F0xx_HAL_Driver/Src/stm32f0xx_hal_gpio.c ****     GPIOx->BRR = (uint32_t)GPIO_Pin;
 431:Drivers/STM32F0xx_HAL_Driver/Src/stm32f0xx_hal_gpio.c ****   }
 432:Drivers/STM32F0xx_HAL_Driver/Src/stm32f0xx_hal_gpio.c **** }
 828              		.loc 1 432 1 view .LVU267
 829              		@ sp needed
 830 0006 7047     		bx	lr
 831              	.L48:
 430:Drivers/STM32F0xx_HAL_Driver/Src/stm32f0xx_hal_gpio.c ****   }
 832              		.loc 1 430 5 is_stmt 1 view .LVU268
 430:Drivers/STM32F0xx_HAL_Driver/Src/stm32f0xx_hal_gpio.c ****   }
 833              		.loc 1 430 16 is_stmt 0 view .LVU269
 834 0008 8162     		str	r1, [r0, #40]
 835              		.loc 1 432 1 view .LVU270
 836 000a FCE7     		b	.L47
 837              		.cfi_endproc
 838              	.LFE43:
 840              		.section	.text.HAL_GPIO_TogglePin,"ax",%progbits
 841              		.align	1
 842              		.global	HAL_GPIO_TogglePin
 843              		.syntax unified
 844              		.code	16
 845              		.thumb_func
 846              		.fpu softvfp
 848              	HAL_GPIO_TogglePin:
 849              	.LVL69:
 850              	.LFB44:
ARM GAS  /tmp/cckwFVu6.s 			page 26


 433:Drivers/STM32F0xx_HAL_Driver/Src/stm32f0xx_hal_gpio.c ****   
 434:Drivers/STM32F0xx_HAL_Driver/Src/stm32f0xx_hal_gpio.c **** /**
 435:Drivers/STM32F0xx_HAL_Driver/Src/stm32f0xx_hal_gpio.c ****   * @brief  Toggle the specified GPIO pin.
 436:Drivers/STM32F0xx_HAL_Driver/Src/stm32f0xx_hal_gpio.c ****   * @param  GPIOx where x can be (A..F) to select the GPIO peripheral for STM32F0 family
 437:Drivers/STM32F0xx_HAL_Driver/Src/stm32f0xx_hal_gpio.c ****   * @param  GPIO_Pin specifies the pin to be toggled.
 438:Drivers/STM32F0xx_HAL_Driver/Src/stm32f0xx_hal_gpio.c ****   * @retval None
 439:Drivers/STM32F0xx_HAL_Driver/Src/stm32f0xx_hal_gpio.c ****   */
 440:Drivers/STM32F0xx_HAL_Driver/Src/stm32f0xx_hal_gpio.c **** void HAL_GPIO_TogglePin(GPIO_TypeDef* GPIOx, uint16_t GPIO_Pin)
 441:Drivers/STM32F0xx_HAL_Driver/Src/stm32f0xx_hal_gpio.c **** {
 851              		.loc 1 441 1 is_stmt 1 view -0
 852              		.cfi_startproc
 853              		@ args = 0, pretend = 0, frame = 0
 854              		@ frame_needed = 0, uses_anonymous_args = 0
 855              		@ link register save eliminated.
 442:Drivers/STM32F0xx_HAL_Driver/Src/stm32f0xx_hal_gpio.c ****   uint32_t odr;
 856              		.loc 1 442 3 view .LVU272
 443:Drivers/STM32F0xx_HAL_Driver/Src/stm32f0xx_hal_gpio.c **** 
 444:Drivers/STM32F0xx_HAL_Driver/Src/stm32f0xx_hal_gpio.c ****   /* Check the parameters */
 445:Drivers/STM32F0xx_HAL_Driver/Src/stm32f0xx_hal_gpio.c ****   assert_param(IS_GPIO_PIN(GPIO_Pin));
 857              		.loc 1 445 3 view .LVU273
 446:Drivers/STM32F0xx_HAL_Driver/Src/stm32f0xx_hal_gpio.c **** 
 447:Drivers/STM32F0xx_HAL_Driver/Src/stm32f0xx_hal_gpio.c ****   /* get current Ouput Data Register value */
 448:Drivers/STM32F0xx_HAL_Driver/Src/stm32f0xx_hal_gpio.c ****   odr = GPIOx->ODR;
 858              		.loc 1 448 3 view .LVU274
 859              		.loc 1 448 7 is_stmt 0 view .LVU275
 860 0000 4269     		ldr	r2, [r0, #20]
 861              	.LVL70:
 449:Drivers/STM32F0xx_HAL_Driver/Src/stm32f0xx_hal_gpio.c **** 
 450:Drivers/STM32F0xx_HAL_Driver/Src/stm32f0xx_hal_gpio.c ****   /* Set selected pins that were at low level, and reset ones that were high */
 451:Drivers/STM32F0xx_HAL_Driver/Src/stm32f0xx_hal_gpio.c ****   GPIOx->BSRR = ((odr & GPIO_Pin) << GPIO_NUMBER) | (~odr & GPIO_Pin);
 862              		.loc 1 451 3 is_stmt 1 view .LVU276
 863              		.loc 1 451 23 is_stmt 0 view .LVU277
 864 0002 1300     		movs	r3, r2
 865 0004 0B40     		ands	r3, r1
 866              		.loc 1 451 35 view .LVU278
 867 0006 1B04     		lsls	r3, r3, #16
 868              		.loc 1 451 59 view .LVU279
 869 0008 9143     		bics	r1, r2
 870              	.LVL71:
 871              		.loc 1 451 51 view .LVU280
 872 000a 0B43     		orrs	r3, r1
 873              		.loc 1 451 15 view .LVU281
 874 000c 8361     		str	r3, [r0, #24]
 452:Drivers/STM32F0xx_HAL_Driver/Src/stm32f0xx_hal_gpio.c **** }
 875              		.loc 1 452 1 view .LVU282
 876              		@ sp needed
 877 000e 7047     		bx	lr
 878              		.cfi_endproc
 879              	.LFE44:
 881              		.section	.text.HAL_GPIO_LockPin,"ax",%progbits
 882              		.align	1
 883              		.global	HAL_GPIO_LockPin
 884              		.syntax unified
 885              		.code	16
 886              		.thumb_func
 887              		.fpu softvfp
 889              	HAL_GPIO_LockPin:
ARM GAS  /tmp/cckwFVu6.s 			page 27


 890              	.LVL72:
 891              	.LFB45:
 453:Drivers/STM32F0xx_HAL_Driver/Src/stm32f0xx_hal_gpio.c **** 
 454:Drivers/STM32F0xx_HAL_Driver/Src/stm32f0xx_hal_gpio.c **** /**
 455:Drivers/STM32F0xx_HAL_Driver/Src/stm32f0xx_hal_gpio.c **** * @brief  Locks GPIO Pins configuration registers.
 456:Drivers/STM32F0xx_HAL_Driver/Src/stm32f0xx_hal_gpio.c **** * @note   The locked registers are GPIOx_MODER, GPIOx_OTYPER, GPIOx_OSPEEDR,
 457:Drivers/STM32F0xx_HAL_Driver/Src/stm32f0xx_hal_gpio.c **** *         GPIOx_PUPDR, GPIOx_AFRL and GPIOx_AFRH.
 458:Drivers/STM32F0xx_HAL_Driver/Src/stm32f0xx_hal_gpio.c **** * @note   The configuration of the locked GPIO pins can no longer be modified
 459:Drivers/STM32F0xx_HAL_Driver/Src/stm32f0xx_hal_gpio.c **** *         until the next reset.
 460:Drivers/STM32F0xx_HAL_Driver/Src/stm32f0xx_hal_gpio.c ****   * @param  GPIOx where x can be (A..F) to select the GPIO peripheral for STM32F0 family
 461:Drivers/STM32F0xx_HAL_Driver/Src/stm32f0xx_hal_gpio.c ****   * @param  GPIO_Pin specifies the port bits to be locked.
 462:Drivers/STM32F0xx_HAL_Driver/Src/stm32f0xx_hal_gpio.c **** *         This parameter can be any combination of GPIO_Pin_x where x can be (0..15).
 463:Drivers/STM32F0xx_HAL_Driver/Src/stm32f0xx_hal_gpio.c **** * @retval None
 464:Drivers/STM32F0xx_HAL_Driver/Src/stm32f0xx_hal_gpio.c **** */
 465:Drivers/STM32F0xx_HAL_Driver/Src/stm32f0xx_hal_gpio.c **** HAL_StatusTypeDef HAL_GPIO_LockPin(GPIO_TypeDef* GPIOx, uint16_t GPIO_Pin)
 466:Drivers/STM32F0xx_HAL_Driver/Src/stm32f0xx_hal_gpio.c **** {
 892              		.loc 1 466 1 is_stmt 1 view -0
 893              		.cfi_startproc
 894              		@ args = 0, pretend = 0, frame = 8
 895              		@ frame_needed = 0, uses_anonymous_args = 0
 896              		@ link register save eliminated.
 897              		.loc 1 466 1 is_stmt 0 view .LVU284
 898 0000 82B0     		sub	sp, sp, #8
 899              	.LCFI5:
 900              		.cfi_def_cfa_offset 8
 467:Drivers/STM32F0xx_HAL_Driver/Src/stm32f0xx_hal_gpio.c ****   __IO uint32_t tmp = GPIO_LCKR_LCKK;
 901              		.loc 1 467 3 is_stmt 1 view .LVU285
 902              		.loc 1 467 17 is_stmt 0 view .LVU286
 903 0002 8022     		movs	r2, #128
 904 0004 5202     		lsls	r2, r2, #9
 905 0006 0192     		str	r2, [sp, #4]
 468:Drivers/STM32F0xx_HAL_Driver/Src/stm32f0xx_hal_gpio.c **** 
 469:Drivers/STM32F0xx_HAL_Driver/Src/stm32f0xx_hal_gpio.c ****   /* Check the parameters */
 470:Drivers/STM32F0xx_HAL_Driver/Src/stm32f0xx_hal_gpio.c ****   assert_param(IS_GPIO_LOCK_INSTANCE(GPIOx));
 906              		.loc 1 470 3 is_stmt 1 view .LVU287
 471:Drivers/STM32F0xx_HAL_Driver/Src/stm32f0xx_hal_gpio.c ****   assert_param(IS_GPIO_PIN(GPIO_Pin));
 907              		.loc 1 471 3 view .LVU288
 472:Drivers/STM32F0xx_HAL_Driver/Src/stm32f0xx_hal_gpio.c **** 
 473:Drivers/STM32F0xx_HAL_Driver/Src/stm32f0xx_hal_gpio.c ****   /* Apply lock key write sequence */
 474:Drivers/STM32F0xx_HAL_Driver/Src/stm32f0xx_hal_gpio.c ****   SET_BIT(tmp, GPIO_Pin);
 908              		.loc 1 474 3 view .LVU289
 909 0008 019B     		ldr	r3, [sp, #4]
 910 000a 0B43     		orrs	r3, r1
 911 000c 0193     		str	r3, [sp, #4]
 475:Drivers/STM32F0xx_HAL_Driver/Src/stm32f0xx_hal_gpio.c ****   /* Set LCKx bit(s): LCKK='1' + LCK[15-0] */
 476:Drivers/STM32F0xx_HAL_Driver/Src/stm32f0xx_hal_gpio.c ****   GPIOx->LCKR = tmp;
 912              		.loc 1 476 3 view .LVU290
 913              		.loc 1 476 15 is_stmt 0 view .LVU291
 914 000e 019B     		ldr	r3, [sp, #4]
 915 0010 C361     		str	r3, [r0, #28]
 477:Drivers/STM32F0xx_HAL_Driver/Src/stm32f0xx_hal_gpio.c ****   /* Reset LCKx bit(s): LCKK='0' + LCK[15-0] */
 478:Drivers/STM32F0xx_HAL_Driver/Src/stm32f0xx_hal_gpio.c ****   GPIOx->LCKR = GPIO_Pin;
 916              		.loc 1 478 3 is_stmt 1 view .LVU292
 917              		.loc 1 478 15 is_stmt 0 view .LVU293
 918 0012 C161     		str	r1, [r0, #28]
 479:Drivers/STM32F0xx_HAL_Driver/Src/stm32f0xx_hal_gpio.c ****   /* Set LCKx bit(s): LCKK='1' + LCK[15-0] */
 480:Drivers/STM32F0xx_HAL_Driver/Src/stm32f0xx_hal_gpio.c ****   GPIOx->LCKR = tmp;
ARM GAS  /tmp/cckwFVu6.s 			page 28


 919              		.loc 1 480 3 is_stmt 1 view .LVU294
 920              		.loc 1 480 15 is_stmt 0 view .LVU295
 921 0014 019B     		ldr	r3, [sp, #4]
 922 0016 C361     		str	r3, [r0, #28]
 481:Drivers/STM32F0xx_HAL_Driver/Src/stm32f0xx_hal_gpio.c ****   /* Read LCKK register. This read is mandatory to complete key lock sequence */
 482:Drivers/STM32F0xx_HAL_Driver/Src/stm32f0xx_hal_gpio.c ****   tmp = GPIOx->LCKR;
 923              		.loc 1 482 3 is_stmt 1 view .LVU296
 924              		.loc 1 482 14 is_stmt 0 view .LVU297
 925 0018 C369     		ldr	r3, [r0, #28]
 926              		.loc 1 482 7 view .LVU298
 927 001a 0193     		str	r3, [sp, #4]
 483:Drivers/STM32F0xx_HAL_Driver/Src/stm32f0xx_hal_gpio.c **** 
 484:Drivers/STM32F0xx_HAL_Driver/Src/stm32f0xx_hal_gpio.c ****   /* read again in order to confirm lock is active */
 485:Drivers/STM32F0xx_HAL_Driver/Src/stm32f0xx_hal_gpio.c ****  if((GPIOx->LCKR & GPIO_LCKR_LCKK) != 0x00u)
 928              		.loc 1 485 2 is_stmt 1 view .LVU299
 929              		.loc 1 485 11 is_stmt 0 view .LVU300
 930 001c C369     		ldr	r3, [r0, #28]
 931              		.loc 1 485 4 view .LVU301
 932 001e 1342     		tst	r3, r2
 933 0020 02D0     		beq	.L53
 486:Drivers/STM32F0xx_HAL_Driver/Src/stm32f0xx_hal_gpio.c ****   {
 487:Drivers/STM32F0xx_HAL_Driver/Src/stm32f0xx_hal_gpio.c ****     return HAL_OK;
 934              		.loc 1 487 12 view .LVU302
 935 0022 0020     		movs	r0, #0
 936              	.LVL73:
 937              	.L52:
 488:Drivers/STM32F0xx_HAL_Driver/Src/stm32f0xx_hal_gpio.c ****   }
 489:Drivers/STM32F0xx_HAL_Driver/Src/stm32f0xx_hal_gpio.c ****   else
 490:Drivers/STM32F0xx_HAL_Driver/Src/stm32f0xx_hal_gpio.c ****   {
 491:Drivers/STM32F0xx_HAL_Driver/Src/stm32f0xx_hal_gpio.c ****     return HAL_ERROR;
 492:Drivers/STM32F0xx_HAL_Driver/Src/stm32f0xx_hal_gpio.c ****   }
 493:Drivers/STM32F0xx_HAL_Driver/Src/stm32f0xx_hal_gpio.c **** }
 938              		.loc 1 493 1 view .LVU303
 939 0024 02B0     		add	sp, sp, #8
 940              		@ sp needed
 941 0026 7047     		bx	lr
 942              	.LVL74:
 943              	.L53:
 491:Drivers/STM32F0xx_HAL_Driver/Src/stm32f0xx_hal_gpio.c ****   }
 944              		.loc 1 491 12 view .LVU304
 945 0028 0120     		movs	r0, #1
 946              	.LVL75:
 491:Drivers/STM32F0xx_HAL_Driver/Src/stm32f0xx_hal_gpio.c ****   }
 947              		.loc 1 491 12 view .LVU305
 948 002a FBE7     		b	.L52
 949              		.cfi_endproc
 950              	.LFE45:
 952              		.section	.text.HAL_GPIO_EXTI_Callback,"ax",%progbits
 953              		.align	1
 954              		.weak	HAL_GPIO_EXTI_Callback
 955              		.syntax unified
 956              		.code	16
 957              		.thumb_func
 958              		.fpu softvfp
 960              	HAL_GPIO_EXTI_Callback:
 961              	.LVL76:
 962              	.LFB47:
ARM GAS  /tmp/cckwFVu6.s 			page 29


 494:Drivers/STM32F0xx_HAL_Driver/Src/stm32f0xx_hal_gpio.c **** 
 495:Drivers/STM32F0xx_HAL_Driver/Src/stm32f0xx_hal_gpio.c **** /**
 496:Drivers/STM32F0xx_HAL_Driver/Src/stm32f0xx_hal_gpio.c ****   * @brief  Handle EXTI interrupt request.
 497:Drivers/STM32F0xx_HAL_Driver/Src/stm32f0xx_hal_gpio.c ****   * @param  GPIO_Pin Specifies the port pin connected to corresponding EXTI line.
 498:Drivers/STM32F0xx_HAL_Driver/Src/stm32f0xx_hal_gpio.c ****   * @retval None
 499:Drivers/STM32F0xx_HAL_Driver/Src/stm32f0xx_hal_gpio.c ****   */
 500:Drivers/STM32F0xx_HAL_Driver/Src/stm32f0xx_hal_gpio.c **** void HAL_GPIO_EXTI_IRQHandler(uint16_t GPIO_Pin)
 501:Drivers/STM32F0xx_HAL_Driver/Src/stm32f0xx_hal_gpio.c **** {
 502:Drivers/STM32F0xx_HAL_Driver/Src/stm32f0xx_hal_gpio.c ****   /* EXTI line interrupt detected */
 503:Drivers/STM32F0xx_HAL_Driver/Src/stm32f0xx_hal_gpio.c ****   if(__HAL_GPIO_EXTI_GET_IT(GPIO_Pin) != 0x00u)
 504:Drivers/STM32F0xx_HAL_Driver/Src/stm32f0xx_hal_gpio.c ****   { 
 505:Drivers/STM32F0xx_HAL_Driver/Src/stm32f0xx_hal_gpio.c ****     __HAL_GPIO_EXTI_CLEAR_IT(GPIO_Pin);
 506:Drivers/STM32F0xx_HAL_Driver/Src/stm32f0xx_hal_gpio.c ****     HAL_GPIO_EXTI_Callback(GPIO_Pin);
 507:Drivers/STM32F0xx_HAL_Driver/Src/stm32f0xx_hal_gpio.c ****   }
 508:Drivers/STM32F0xx_HAL_Driver/Src/stm32f0xx_hal_gpio.c **** }
 509:Drivers/STM32F0xx_HAL_Driver/Src/stm32f0xx_hal_gpio.c **** 
 510:Drivers/STM32F0xx_HAL_Driver/Src/stm32f0xx_hal_gpio.c **** /**
 511:Drivers/STM32F0xx_HAL_Driver/Src/stm32f0xx_hal_gpio.c ****   * @brief  EXTI line detection callback.
 512:Drivers/STM32F0xx_HAL_Driver/Src/stm32f0xx_hal_gpio.c ****   * @param  GPIO_Pin Specifies the port pin connected to corresponding EXTI line.
 513:Drivers/STM32F0xx_HAL_Driver/Src/stm32f0xx_hal_gpio.c ****   * @retval None
 514:Drivers/STM32F0xx_HAL_Driver/Src/stm32f0xx_hal_gpio.c ****   */
 515:Drivers/STM32F0xx_HAL_Driver/Src/stm32f0xx_hal_gpio.c **** __weak void HAL_GPIO_EXTI_Callback(uint16_t GPIO_Pin)
 516:Drivers/STM32F0xx_HAL_Driver/Src/stm32f0xx_hal_gpio.c **** {
 963              		.loc 1 516 1 is_stmt 1 view -0
 964              		.cfi_startproc
 965              		@ args = 0, pretend = 0, frame = 0
 966              		@ frame_needed = 0, uses_anonymous_args = 0
 967              		@ link register save eliminated.
 517:Drivers/STM32F0xx_HAL_Driver/Src/stm32f0xx_hal_gpio.c ****   /* Prevent unused argument(s) compilation warning */
 518:Drivers/STM32F0xx_HAL_Driver/Src/stm32f0xx_hal_gpio.c ****   UNUSED(GPIO_Pin);
 968              		.loc 1 518 3 view .LVU307
 519:Drivers/STM32F0xx_HAL_Driver/Src/stm32f0xx_hal_gpio.c **** 
 520:Drivers/STM32F0xx_HAL_Driver/Src/stm32f0xx_hal_gpio.c ****   /* NOTE: This function should not be modified, when the callback is needed,
 521:Drivers/STM32F0xx_HAL_Driver/Src/stm32f0xx_hal_gpio.c ****             the HAL_GPIO_EXTI_Callback could be implemented in the user file
 522:Drivers/STM32F0xx_HAL_Driver/Src/stm32f0xx_hal_gpio.c ****    */ 
 523:Drivers/STM32F0xx_HAL_Driver/Src/stm32f0xx_hal_gpio.c **** }
 969              		.loc 1 523 1 is_stmt 0 view .LVU308
 970              		@ sp needed
 971 0000 7047     		bx	lr
 972              		.cfi_endproc
 973              	.LFE47:
 975              		.section	.text.HAL_GPIO_EXTI_IRQHandler,"ax",%progbits
 976              		.align	1
 977              		.global	HAL_GPIO_EXTI_IRQHandler
 978              		.syntax unified
 979              		.code	16
 980              		.thumb_func
 981              		.fpu softvfp
 983              	HAL_GPIO_EXTI_IRQHandler:
 984              	.LVL77:
 985              	.LFB46:
 501:Drivers/STM32F0xx_HAL_Driver/Src/stm32f0xx_hal_gpio.c ****   /* EXTI line interrupt detected */
 986              		.loc 1 501 1 is_stmt 1 view -0
 987              		.cfi_startproc
 988              		@ args = 0, pretend = 0, frame = 0
 989              		@ frame_needed = 0, uses_anonymous_args = 0
 501:Drivers/STM32F0xx_HAL_Driver/Src/stm32f0xx_hal_gpio.c ****   /* EXTI line interrupt detected */
ARM GAS  /tmp/cckwFVu6.s 			page 30


 990              		.loc 1 501 1 is_stmt 0 view .LVU310
 991 0000 10B5     		push	{r4, lr}
 992              	.LCFI6:
 993              		.cfi_def_cfa_offset 8
 994              		.cfi_offset 4, -8
 995              		.cfi_offset 14, -4
 503:Drivers/STM32F0xx_HAL_Driver/Src/stm32f0xx_hal_gpio.c ****   { 
 996              		.loc 1 503 3 is_stmt 1 view .LVU311
 503:Drivers/STM32F0xx_HAL_Driver/Src/stm32f0xx_hal_gpio.c ****   { 
 997              		.loc 1 503 6 is_stmt 0 view .LVU312
 998 0002 054B     		ldr	r3, .L58
 999 0004 5B69     		ldr	r3, [r3, #20]
 503:Drivers/STM32F0xx_HAL_Driver/Src/stm32f0xx_hal_gpio.c ****   { 
 1000              		.loc 1 503 5 view .LVU313
 1001 0006 1842     		tst	r0, r3
 1002 0008 00D1     		bne	.L57
 1003              	.LVL78:
 1004              	.L55:
 508:Drivers/STM32F0xx_HAL_Driver/Src/stm32f0xx_hal_gpio.c **** 
 1005              		.loc 1 508 1 view .LVU314
 1006              		@ sp needed
 1007 000a 10BD     		pop	{r4, pc}
 1008              	.LVL79:
 1009              	.L57:
 505:Drivers/STM32F0xx_HAL_Driver/Src/stm32f0xx_hal_gpio.c ****     HAL_GPIO_EXTI_Callback(GPIO_Pin);
 1010              		.loc 1 505 5 is_stmt 1 view .LVU315
 1011 000c 024B     		ldr	r3, .L58
 1012 000e 5861     		str	r0, [r3, #20]
 506:Drivers/STM32F0xx_HAL_Driver/Src/stm32f0xx_hal_gpio.c ****   }
 1013              		.loc 1 506 5 view .LVU316
 1014 0010 FFF7FEFF 		bl	HAL_GPIO_EXTI_Callback
 1015              	.LVL80:
 508:Drivers/STM32F0xx_HAL_Driver/Src/stm32f0xx_hal_gpio.c **** 
 1016              		.loc 1 508 1 is_stmt 0 view .LVU317
 1017 0014 F9E7     		b	.L55
 1018              	.L59:
 1019 0016 C046     		.align	2
 1020              	.L58:
 1021 0018 00040140 		.word	1073808384
 1022              		.cfi_endproc
 1023              	.LFE46:
 1025              		.text
 1026              	.Letext0:
 1027              		.file 2 "/usr/arm-none-eabi/include/machine/_default_types.h"
 1028              		.file 3 "/usr/arm-none-eabi/include/sys/_stdint.h"
 1029              		.file 4 "Drivers/CMSIS/Device/ST/STM32F0xx/Include/stm32f072xb.h"
 1030              		.file 5 "Drivers/STM32F0xx_HAL_Driver/Inc/stm32f0xx_hal_def.h"
 1031              		.file 6 "Drivers/STM32F0xx_HAL_Driver/Inc/stm32f0xx_hal_gpio.h"
ARM GAS  /tmp/cckwFVu6.s 			page 31

