ARM GAS  /tmp/cc2rDdvh.s 			page 1


   1              		.cpu cortex-m0
   2              		.eabi_attribute 20, 1
   3              		.eabi_attribute 21, 1
   4              		.eabi_attribute 23, 3
   5              		.eabi_attribute 24, 1
   6              		.eabi_attribute 25, 1
   7              		.eabi_attribute 26, 1
   8              		.eabi_attribute 30, 1
   9              		.eabi_attribute 34, 0
  10              		.eabi_attribute 18, 4
  11              		.file	"usbd_ctlreq.c"
  12              		.text
  13              	.Ltext0:
  14              		.cfi_sections	.debug_frame
  15              		.section	.text.USBD_GetLen,"ax",%progbits
  16              		.align	1
  17              		.arch armv6s-m
  18              		.syntax unified
  19              		.code	16
  20              		.thumb_func
  21              		.fpu softvfp
  23              	USBD_GetLen:
  24              	.LVL0:
  25              	.LFB56:
  26              		.file 1 "Middlewares/ST/STM32_USB_Device_Library/Core/Src/usbd_ctlreq.c"
   1:Middlewares/ST/STM32_USB_Device_Library/Core/Src/usbd_ctlreq.c **** /**
   2:Middlewares/ST/STM32_USB_Device_Library/Core/Src/usbd_ctlreq.c ****   ******************************************************************************
   3:Middlewares/ST/STM32_USB_Device_Library/Core/Src/usbd_ctlreq.c ****   * @file    usbd_req.c
   4:Middlewares/ST/STM32_USB_Device_Library/Core/Src/usbd_ctlreq.c ****   * @author  MCD Application Team
   5:Middlewares/ST/STM32_USB_Device_Library/Core/Src/usbd_ctlreq.c ****   * @brief   This file provides the standard USB requests following chapter 9.
   6:Middlewares/ST/STM32_USB_Device_Library/Core/Src/usbd_ctlreq.c ****   ******************************************************************************
   7:Middlewares/ST/STM32_USB_Device_Library/Core/Src/usbd_ctlreq.c ****   * @attention
   8:Middlewares/ST/STM32_USB_Device_Library/Core/Src/usbd_ctlreq.c ****   *
   9:Middlewares/ST/STM32_USB_Device_Library/Core/Src/usbd_ctlreq.c ****   * <h2><center>&copy; Copyright (c) 2015 STMicroelectronics.
  10:Middlewares/ST/STM32_USB_Device_Library/Core/Src/usbd_ctlreq.c ****   * All rights reserved.</center></h2>
  11:Middlewares/ST/STM32_USB_Device_Library/Core/Src/usbd_ctlreq.c ****   *
  12:Middlewares/ST/STM32_USB_Device_Library/Core/Src/usbd_ctlreq.c ****   * This software component is licensed by ST under Ultimate Liberty license
  13:Middlewares/ST/STM32_USB_Device_Library/Core/Src/usbd_ctlreq.c ****   * SLA0044, the "License"; You may not use this file except in compliance with
  14:Middlewares/ST/STM32_USB_Device_Library/Core/Src/usbd_ctlreq.c ****   * the License. You may obtain a copy of the License at:
  15:Middlewares/ST/STM32_USB_Device_Library/Core/Src/usbd_ctlreq.c ****   *                      www.st.com/SLA0044
  16:Middlewares/ST/STM32_USB_Device_Library/Core/Src/usbd_ctlreq.c ****   *
  17:Middlewares/ST/STM32_USB_Device_Library/Core/Src/usbd_ctlreq.c ****   ******************************************************************************
  18:Middlewares/ST/STM32_USB_Device_Library/Core/Src/usbd_ctlreq.c ****   */
  19:Middlewares/ST/STM32_USB_Device_Library/Core/Src/usbd_ctlreq.c **** 
  20:Middlewares/ST/STM32_USB_Device_Library/Core/Src/usbd_ctlreq.c **** /* Includes ------------------------------------------------------------------*/
  21:Middlewares/ST/STM32_USB_Device_Library/Core/Src/usbd_ctlreq.c **** #include "usbd_ctlreq.h"
  22:Middlewares/ST/STM32_USB_Device_Library/Core/Src/usbd_ctlreq.c **** #include "usbd_ioreq.h"
  23:Middlewares/ST/STM32_USB_Device_Library/Core/Src/usbd_ctlreq.c **** 
  24:Middlewares/ST/STM32_USB_Device_Library/Core/Src/usbd_ctlreq.c **** 
  25:Middlewares/ST/STM32_USB_Device_Library/Core/Src/usbd_ctlreq.c **** /** @addtogroup STM32_USBD_STATE_DEVICE_LIBRARY
  26:Middlewares/ST/STM32_USB_Device_Library/Core/Src/usbd_ctlreq.c ****   * @{
  27:Middlewares/ST/STM32_USB_Device_Library/Core/Src/usbd_ctlreq.c ****   */
  28:Middlewares/ST/STM32_USB_Device_Library/Core/Src/usbd_ctlreq.c **** 
  29:Middlewares/ST/STM32_USB_Device_Library/Core/Src/usbd_ctlreq.c **** 
  30:Middlewares/ST/STM32_USB_Device_Library/Core/Src/usbd_ctlreq.c **** /** @defgroup USBD_REQ
  31:Middlewares/ST/STM32_USB_Device_Library/Core/Src/usbd_ctlreq.c ****   * @brief USB standard requests module
  32:Middlewares/ST/STM32_USB_Device_Library/Core/Src/usbd_ctlreq.c ****   * @{
ARM GAS  /tmp/cc2rDdvh.s 			page 2


  33:Middlewares/ST/STM32_USB_Device_Library/Core/Src/usbd_ctlreq.c ****   */
  34:Middlewares/ST/STM32_USB_Device_Library/Core/Src/usbd_ctlreq.c **** 
  35:Middlewares/ST/STM32_USB_Device_Library/Core/Src/usbd_ctlreq.c **** /** @defgroup USBD_REQ_Private_TypesDefinitions
  36:Middlewares/ST/STM32_USB_Device_Library/Core/Src/usbd_ctlreq.c ****   * @{
  37:Middlewares/ST/STM32_USB_Device_Library/Core/Src/usbd_ctlreq.c ****   */
  38:Middlewares/ST/STM32_USB_Device_Library/Core/Src/usbd_ctlreq.c **** 
  39:Middlewares/ST/STM32_USB_Device_Library/Core/Src/usbd_ctlreq.c **** /**
  40:Middlewares/ST/STM32_USB_Device_Library/Core/Src/usbd_ctlreq.c ****   * @}
  41:Middlewares/ST/STM32_USB_Device_Library/Core/Src/usbd_ctlreq.c ****   */
  42:Middlewares/ST/STM32_USB_Device_Library/Core/Src/usbd_ctlreq.c **** 
  43:Middlewares/ST/STM32_USB_Device_Library/Core/Src/usbd_ctlreq.c **** 
  44:Middlewares/ST/STM32_USB_Device_Library/Core/Src/usbd_ctlreq.c **** /** @defgroup USBD_REQ_Private_Defines
  45:Middlewares/ST/STM32_USB_Device_Library/Core/Src/usbd_ctlreq.c ****   * @{
  46:Middlewares/ST/STM32_USB_Device_Library/Core/Src/usbd_ctlreq.c ****   */
  47:Middlewares/ST/STM32_USB_Device_Library/Core/Src/usbd_ctlreq.c **** 
  48:Middlewares/ST/STM32_USB_Device_Library/Core/Src/usbd_ctlreq.c **** /**
  49:Middlewares/ST/STM32_USB_Device_Library/Core/Src/usbd_ctlreq.c ****   * @}
  50:Middlewares/ST/STM32_USB_Device_Library/Core/Src/usbd_ctlreq.c ****   */
  51:Middlewares/ST/STM32_USB_Device_Library/Core/Src/usbd_ctlreq.c **** 
  52:Middlewares/ST/STM32_USB_Device_Library/Core/Src/usbd_ctlreq.c **** 
  53:Middlewares/ST/STM32_USB_Device_Library/Core/Src/usbd_ctlreq.c **** /** @defgroup USBD_REQ_Private_Macros
  54:Middlewares/ST/STM32_USB_Device_Library/Core/Src/usbd_ctlreq.c ****   * @{
  55:Middlewares/ST/STM32_USB_Device_Library/Core/Src/usbd_ctlreq.c ****   */
  56:Middlewares/ST/STM32_USB_Device_Library/Core/Src/usbd_ctlreq.c **** 
  57:Middlewares/ST/STM32_USB_Device_Library/Core/Src/usbd_ctlreq.c **** /**
  58:Middlewares/ST/STM32_USB_Device_Library/Core/Src/usbd_ctlreq.c ****   * @}
  59:Middlewares/ST/STM32_USB_Device_Library/Core/Src/usbd_ctlreq.c ****   */
  60:Middlewares/ST/STM32_USB_Device_Library/Core/Src/usbd_ctlreq.c **** 
  61:Middlewares/ST/STM32_USB_Device_Library/Core/Src/usbd_ctlreq.c **** 
  62:Middlewares/ST/STM32_USB_Device_Library/Core/Src/usbd_ctlreq.c **** /** @defgroup USBD_REQ_Private_Variables
  63:Middlewares/ST/STM32_USB_Device_Library/Core/Src/usbd_ctlreq.c ****   * @{
  64:Middlewares/ST/STM32_USB_Device_Library/Core/Src/usbd_ctlreq.c ****   */
  65:Middlewares/ST/STM32_USB_Device_Library/Core/Src/usbd_ctlreq.c **** 
  66:Middlewares/ST/STM32_USB_Device_Library/Core/Src/usbd_ctlreq.c **** /**
  67:Middlewares/ST/STM32_USB_Device_Library/Core/Src/usbd_ctlreq.c ****   * @}
  68:Middlewares/ST/STM32_USB_Device_Library/Core/Src/usbd_ctlreq.c ****   */
  69:Middlewares/ST/STM32_USB_Device_Library/Core/Src/usbd_ctlreq.c **** 
  70:Middlewares/ST/STM32_USB_Device_Library/Core/Src/usbd_ctlreq.c **** 
  71:Middlewares/ST/STM32_USB_Device_Library/Core/Src/usbd_ctlreq.c **** /** @defgroup USBD_REQ_Private_FunctionPrototypes
  72:Middlewares/ST/STM32_USB_Device_Library/Core/Src/usbd_ctlreq.c ****   * @{
  73:Middlewares/ST/STM32_USB_Device_Library/Core/Src/usbd_ctlreq.c ****   */
  74:Middlewares/ST/STM32_USB_Device_Library/Core/Src/usbd_ctlreq.c **** static void USBD_GetDescriptor(USBD_HandleTypeDef *pdev,
  75:Middlewares/ST/STM32_USB_Device_Library/Core/Src/usbd_ctlreq.c ****                                USBD_SetupReqTypedef *req);
  76:Middlewares/ST/STM32_USB_Device_Library/Core/Src/usbd_ctlreq.c **** 
  77:Middlewares/ST/STM32_USB_Device_Library/Core/Src/usbd_ctlreq.c **** static void USBD_SetAddress(USBD_HandleTypeDef *pdev,
  78:Middlewares/ST/STM32_USB_Device_Library/Core/Src/usbd_ctlreq.c ****                             USBD_SetupReqTypedef *req);
  79:Middlewares/ST/STM32_USB_Device_Library/Core/Src/usbd_ctlreq.c **** 
  80:Middlewares/ST/STM32_USB_Device_Library/Core/Src/usbd_ctlreq.c **** static void USBD_SetConfig(USBD_HandleTypeDef *pdev,
  81:Middlewares/ST/STM32_USB_Device_Library/Core/Src/usbd_ctlreq.c ****                            USBD_SetupReqTypedef *req);
  82:Middlewares/ST/STM32_USB_Device_Library/Core/Src/usbd_ctlreq.c **** 
  83:Middlewares/ST/STM32_USB_Device_Library/Core/Src/usbd_ctlreq.c **** static void USBD_GetConfig(USBD_HandleTypeDef *pdev,
  84:Middlewares/ST/STM32_USB_Device_Library/Core/Src/usbd_ctlreq.c ****                            USBD_SetupReqTypedef *req);
  85:Middlewares/ST/STM32_USB_Device_Library/Core/Src/usbd_ctlreq.c **** 
  86:Middlewares/ST/STM32_USB_Device_Library/Core/Src/usbd_ctlreq.c **** static void USBD_GetStatus(USBD_HandleTypeDef *pdev,
  87:Middlewares/ST/STM32_USB_Device_Library/Core/Src/usbd_ctlreq.c ****                            USBD_SetupReqTypedef *req);
  88:Middlewares/ST/STM32_USB_Device_Library/Core/Src/usbd_ctlreq.c **** 
  89:Middlewares/ST/STM32_USB_Device_Library/Core/Src/usbd_ctlreq.c **** static void USBD_SetFeature(USBD_HandleTypeDef *pdev,
ARM GAS  /tmp/cc2rDdvh.s 			page 3


  90:Middlewares/ST/STM32_USB_Device_Library/Core/Src/usbd_ctlreq.c ****                             USBD_SetupReqTypedef *req);
  91:Middlewares/ST/STM32_USB_Device_Library/Core/Src/usbd_ctlreq.c **** 
  92:Middlewares/ST/STM32_USB_Device_Library/Core/Src/usbd_ctlreq.c **** static void USBD_ClrFeature(USBD_HandleTypeDef *pdev,
  93:Middlewares/ST/STM32_USB_Device_Library/Core/Src/usbd_ctlreq.c ****                             USBD_SetupReqTypedef *req);
  94:Middlewares/ST/STM32_USB_Device_Library/Core/Src/usbd_ctlreq.c **** 
  95:Middlewares/ST/STM32_USB_Device_Library/Core/Src/usbd_ctlreq.c **** static uint8_t USBD_GetLen(uint8_t *buf);
  96:Middlewares/ST/STM32_USB_Device_Library/Core/Src/usbd_ctlreq.c **** 
  97:Middlewares/ST/STM32_USB_Device_Library/Core/Src/usbd_ctlreq.c **** /**
  98:Middlewares/ST/STM32_USB_Device_Library/Core/Src/usbd_ctlreq.c ****   * @}
  99:Middlewares/ST/STM32_USB_Device_Library/Core/Src/usbd_ctlreq.c ****   */
 100:Middlewares/ST/STM32_USB_Device_Library/Core/Src/usbd_ctlreq.c **** 
 101:Middlewares/ST/STM32_USB_Device_Library/Core/Src/usbd_ctlreq.c **** 
 102:Middlewares/ST/STM32_USB_Device_Library/Core/Src/usbd_ctlreq.c **** /** @defgroup USBD_REQ_Private_Functions
 103:Middlewares/ST/STM32_USB_Device_Library/Core/Src/usbd_ctlreq.c ****   * @{
 104:Middlewares/ST/STM32_USB_Device_Library/Core/Src/usbd_ctlreq.c ****   */
 105:Middlewares/ST/STM32_USB_Device_Library/Core/Src/usbd_ctlreq.c **** 
 106:Middlewares/ST/STM32_USB_Device_Library/Core/Src/usbd_ctlreq.c **** 
 107:Middlewares/ST/STM32_USB_Device_Library/Core/Src/usbd_ctlreq.c **** /**
 108:Middlewares/ST/STM32_USB_Device_Library/Core/Src/usbd_ctlreq.c **** * @brief  USBD_StdDevReq
 109:Middlewares/ST/STM32_USB_Device_Library/Core/Src/usbd_ctlreq.c **** *         Handle standard usb device requests
 110:Middlewares/ST/STM32_USB_Device_Library/Core/Src/usbd_ctlreq.c **** * @param  pdev: device instance
 111:Middlewares/ST/STM32_USB_Device_Library/Core/Src/usbd_ctlreq.c **** * @param  req: usb request
 112:Middlewares/ST/STM32_USB_Device_Library/Core/Src/usbd_ctlreq.c **** * @retval status
 113:Middlewares/ST/STM32_USB_Device_Library/Core/Src/usbd_ctlreq.c **** */
 114:Middlewares/ST/STM32_USB_Device_Library/Core/Src/usbd_ctlreq.c **** USBD_StatusTypeDef  USBD_StdDevReq(USBD_HandleTypeDef *pdev,
 115:Middlewares/ST/STM32_USB_Device_Library/Core/Src/usbd_ctlreq.c ****                                    USBD_SetupReqTypedef *req)
 116:Middlewares/ST/STM32_USB_Device_Library/Core/Src/usbd_ctlreq.c **** {
 117:Middlewares/ST/STM32_USB_Device_Library/Core/Src/usbd_ctlreq.c ****   USBD_StatusTypeDef ret = USBD_OK;
 118:Middlewares/ST/STM32_USB_Device_Library/Core/Src/usbd_ctlreq.c **** 
 119:Middlewares/ST/STM32_USB_Device_Library/Core/Src/usbd_ctlreq.c ****   switch (req->bmRequest & USB_REQ_TYPE_MASK)
 120:Middlewares/ST/STM32_USB_Device_Library/Core/Src/usbd_ctlreq.c ****   {
 121:Middlewares/ST/STM32_USB_Device_Library/Core/Src/usbd_ctlreq.c ****     case USB_REQ_TYPE_CLASS:
 122:Middlewares/ST/STM32_USB_Device_Library/Core/Src/usbd_ctlreq.c ****     case USB_REQ_TYPE_VENDOR:
 123:Middlewares/ST/STM32_USB_Device_Library/Core/Src/usbd_ctlreq.c ****       pdev->pClass->Setup(pdev, req);
 124:Middlewares/ST/STM32_USB_Device_Library/Core/Src/usbd_ctlreq.c ****       break;
 125:Middlewares/ST/STM32_USB_Device_Library/Core/Src/usbd_ctlreq.c **** 
 126:Middlewares/ST/STM32_USB_Device_Library/Core/Src/usbd_ctlreq.c ****     case USB_REQ_TYPE_STANDARD:
 127:Middlewares/ST/STM32_USB_Device_Library/Core/Src/usbd_ctlreq.c ****       switch (req->bRequest)
 128:Middlewares/ST/STM32_USB_Device_Library/Core/Src/usbd_ctlreq.c ****       {
 129:Middlewares/ST/STM32_USB_Device_Library/Core/Src/usbd_ctlreq.c ****         case USB_REQ_GET_DESCRIPTOR:
 130:Middlewares/ST/STM32_USB_Device_Library/Core/Src/usbd_ctlreq.c ****           USBD_GetDescriptor(pdev, req);
 131:Middlewares/ST/STM32_USB_Device_Library/Core/Src/usbd_ctlreq.c ****           break;
 132:Middlewares/ST/STM32_USB_Device_Library/Core/Src/usbd_ctlreq.c **** 
 133:Middlewares/ST/STM32_USB_Device_Library/Core/Src/usbd_ctlreq.c ****         case USB_REQ_SET_ADDRESS:
 134:Middlewares/ST/STM32_USB_Device_Library/Core/Src/usbd_ctlreq.c ****           USBD_SetAddress(pdev, req);
 135:Middlewares/ST/STM32_USB_Device_Library/Core/Src/usbd_ctlreq.c ****           break;
 136:Middlewares/ST/STM32_USB_Device_Library/Core/Src/usbd_ctlreq.c **** 
 137:Middlewares/ST/STM32_USB_Device_Library/Core/Src/usbd_ctlreq.c ****         case USB_REQ_SET_CONFIGURATION:
 138:Middlewares/ST/STM32_USB_Device_Library/Core/Src/usbd_ctlreq.c ****           USBD_SetConfig(pdev, req);
 139:Middlewares/ST/STM32_USB_Device_Library/Core/Src/usbd_ctlreq.c ****           break;
 140:Middlewares/ST/STM32_USB_Device_Library/Core/Src/usbd_ctlreq.c **** 
 141:Middlewares/ST/STM32_USB_Device_Library/Core/Src/usbd_ctlreq.c ****         case USB_REQ_GET_CONFIGURATION:
 142:Middlewares/ST/STM32_USB_Device_Library/Core/Src/usbd_ctlreq.c ****           USBD_GetConfig(pdev, req);
 143:Middlewares/ST/STM32_USB_Device_Library/Core/Src/usbd_ctlreq.c ****           break;
 144:Middlewares/ST/STM32_USB_Device_Library/Core/Src/usbd_ctlreq.c **** 
 145:Middlewares/ST/STM32_USB_Device_Library/Core/Src/usbd_ctlreq.c ****         case USB_REQ_GET_STATUS:
 146:Middlewares/ST/STM32_USB_Device_Library/Core/Src/usbd_ctlreq.c ****           USBD_GetStatus(pdev, req);
ARM GAS  /tmp/cc2rDdvh.s 			page 4


 147:Middlewares/ST/STM32_USB_Device_Library/Core/Src/usbd_ctlreq.c ****           break;
 148:Middlewares/ST/STM32_USB_Device_Library/Core/Src/usbd_ctlreq.c **** 
 149:Middlewares/ST/STM32_USB_Device_Library/Core/Src/usbd_ctlreq.c ****         case USB_REQ_SET_FEATURE:
 150:Middlewares/ST/STM32_USB_Device_Library/Core/Src/usbd_ctlreq.c ****           USBD_SetFeature(pdev, req);
 151:Middlewares/ST/STM32_USB_Device_Library/Core/Src/usbd_ctlreq.c ****           break;
 152:Middlewares/ST/STM32_USB_Device_Library/Core/Src/usbd_ctlreq.c **** 
 153:Middlewares/ST/STM32_USB_Device_Library/Core/Src/usbd_ctlreq.c ****         case USB_REQ_CLEAR_FEATURE:
 154:Middlewares/ST/STM32_USB_Device_Library/Core/Src/usbd_ctlreq.c ****           USBD_ClrFeature(pdev, req);
 155:Middlewares/ST/STM32_USB_Device_Library/Core/Src/usbd_ctlreq.c ****           break;
 156:Middlewares/ST/STM32_USB_Device_Library/Core/Src/usbd_ctlreq.c **** 
 157:Middlewares/ST/STM32_USB_Device_Library/Core/Src/usbd_ctlreq.c ****         default:
 158:Middlewares/ST/STM32_USB_Device_Library/Core/Src/usbd_ctlreq.c ****           USBD_CtlError(pdev, req);
 159:Middlewares/ST/STM32_USB_Device_Library/Core/Src/usbd_ctlreq.c ****           break;
 160:Middlewares/ST/STM32_USB_Device_Library/Core/Src/usbd_ctlreq.c ****       }
 161:Middlewares/ST/STM32_USB_Device_Library/Core/Src/usbd_ctlreq.c ****       break;
 162:Middlewares/ST/STM32_USB_Device_Library/Core/Src/usbd_ctlreq.c **** 
 163:Middlewares/ST/STM32_USB_Device_Library/Core/Src/usbd_ctlreq.c ****     default:
 164:Middlewares/ST/STM32_USB_Device_Library/Core/Src/usbd_ctlreq.c ****       USBD_CtlError(pdev, req);
 165:Middlewares/ST/STM32_USB_Device_Library/Core/Src/usbd_ctlreq.c ****       break;
 166:Middlewares/ST/STM32_USB_Device_Library/Core/Src/usbd_ctlreq.c ****   }
 167:Middlewares/ST/STM32_USB_Device_Library/Core/Src/usbd_ctlreq.c **** 
 168:Middlewares/ST/STM32_USB_Device_Library/Core/Src/usbd_ctlreq.c ****   return ret;
 169:Middlewares/ST/STM32_USB_Device_Library/Core/Src/usbd_ctlreq.c **** }
 170:Middlewares/ST/STM32_USB_Device_Library/Core/Src/usbd_ctlreq.c **** 
 171:Middlewares/ST/STM32_USB_Device_Library/Core/Src/usbd_ctlreq.c **** /**
 172:Middlewares/ST/STM32_USB_Device_Library/Core/Src/usbd_ctlreq.c **** * @brief  USBD_StdItfReq
 173:Middlewares/ST/STM32_USB_Device_Library/Core/Src/usbd_ctlreq.c **** *         Handle standard usb interface requests
 174:Middlewares/ST/STM32_USB_Device_Library/Core/Src/usbd_ctlreq.c **** * @param  pdev: device instance
 175:Middlewares/ST/STM32_USB_Device_Library/Core/Src/usbd_ctlreq.c **** * @param  req: usb request
 176:Middlewares/ST/STM32_USB_Device_Library/Core/Src/usbd_ctlreq.c **** * @retval status
 177:Middlewares/ST/STM32_USB_Device_Library/Core/Src/usbd_ctlreq.c **** */
 178:Middlewares/ST/STM32_USB_Device_Library/Core/Src/usbd_ctlreq.c **** USBD_StatusTypeDef  USBD_StdItfReq(USBD_HandleTypeDef *pdev,
 179:Middlewares/ST/STM32_USB_Device_Library/Core/Src/usbd_ctlreq.c ****                                    USBD_SetupReqTypedef  *req)
 180:Middlewares/ST/STM32_USB_Device_Library/Core/Src/usbd_ctlreq.c **** {
 181:Middlewares/ST/STM32_USB_Device_Library/Core/Src/usbd_ctlreq.c ****   USBD_StatusTypeDef ret = USBD_OK;
 182:Middlewares/ST/STM32_USB_Device_Library/Core/Src/usbd_ctlreq.c **** 
 183:Middlewares/ST/STM32_USB_Device_Library/Core/Src/usbd_ctlreq.c ****   switch (req->bmRequest & USB_REQ_TYPE_MASK)
 184:Middlewares/ST/STM32_USB_Device_Library/Core/Src/usbd_ctlreq.c ****   {
 185:Middlewares/ST/STM32_USB_Device_Library/Core/Src/usbd_ctlreq.c ****     case USB_REQ_TYPE_CLASS:
 186:Middlewares/ST/STM32_USB_Device_Library/Core/Src/usbd_ctlreq.c ****     case USB_REQ_TYPE_VENDOR:
 187:Middlewares/ST/STM32_USB_Device_Library/Core/Src/usbd_ctlreq.c ****     case USB_REQ_TYPE_STANDARD:
 188:Middlewares/ST/STM32_USB_Device_Library/Core/Src/usbd_ctlreq.c ****       switch (pdev->dev_state)
 189:Middlewares/ST/STM32_USB_Device_Library/Core/Src/usbd_ctlreq.c ****       {
 190:Middlewares/ST/STM32_USB_Device_Library/Core/Src/usbd_ctlreq.c ****         case USBD_STATE_DEFAULT:
 191:Middlewares/ST/STM32_USB_Device_Library/Core/Src/usbd_ctlreq.c ****         case USBD_STATE_ADDRESSED:
 192:Middlewares/ST/STM32_USB_Device_Library/Core/Src/usbd_ctlreq.c ****         case USBD_STATE_CONFIGURED:
 193:Middlewares/ST/STM32_USB_Device_Library/Core/Src/usbd_ctlreq.c **** 
 194:Middlewares/ST/STM32_USB_Device_Library/Core/Src/usbd_ctlreq.c ****           if (LOBYTE(req->wIndex) <= USBD_MAX_NUM_INTERFACES)
 195:Middlewares/ST/STM32_USB_Device_Library/Core/Src/usbd_ctlreq.c ****           {
 196:Middlewares/ST/STM32_USB_Device_Library/Core/Src/usbd_ctlreq.c ****             ret = (USBD_StatusTypeDef)pdev->pClass->Setup(pdev, req);
 197:Middlewares/ST/STM32_USB_Device_Library/Core/Src/usbd_ctlreq.c **** 
 198:Middlewares/ST/STM32_USB_Device_Library/Core/Src/usbd_ctlreq.c ****             if ((req->wLength == 0U) && (ret == USBD_OK))
 199:Middlewares/ST/STM32_USB_Device_Library/Core/Src/usbd_ctlreq.c ****             {
 200:Middlewares/ST/STM32_USB_Device_Library/Core/Src/usbd_ctlreq.c ****               USBD_CtlSendStatus(pdev);
 201:Middlewares/ST/STM32_USB_Device_Library/Core/Src/usbd_ctlreq.c ****             }
 202:Middlewares/ST/STM32_USB_Device_Library/Core/Src/usbd_ctlreq.c ****           }
 203:Middlewares/ST/STM32_USB_Device_Library/Core/Src/usbd_ctlreq.c ****           else
ARM GAS  /tmp/cc2rDdvh.s 			page 5


 204:Middlewares/ST/STM32_USB_Device_Library/Core/Src/usbd_ctlreq.c ****           {
 205:Middlewares/ST/STM32_USB_Device_Library/Core/Src/usbd_ctlreq.c ****             USBD_CtlError(pdev, req);
 206:Middlewares/ST/STM32_USB_Device_Library/Core/Src/usbd_ctlreq.c ****           }
 207:Middlewares/ST/STM32_USB_Device_Library/Core/Src/usbd_ctlreq.c ****           break;
 208:Middlewares/ST/STM32_USB_Device_Library/Core/Src/usbd_ctlreq.c **** 
 209:Middlewares/ST/STM32_USB_Device_Library/Core/Src/usbd_ctlreq.c ****         default:
 210:Middlewares/ST/STM32_USB_Device_Library/Core/Src/usbd_ctlreq.c ****           USBD_CtlError(pdev, req);
 211:Middlewares/ST/STM32_USB_Device_Library/Core/Src/usbd_ctlreq.c ****           break;
 212:Middlewares/ST/STM32_USB_Device_Library/Core/Src/usbd_ctlreq.c ****       }
 213:Middlewares/ST/STM32_USB_Device_Library/Core/Src/usbd_ctlreq.c ****       break;
 214:Middlewares/ST/STM32_USB_Device_Library/Core/Src/usbd_ctlreq.c **** 
 215:Middlewares/ST/STM32_USB_Device_Library/Core/Src/usbd_ctlreq.c ****     default:
 216:Middlewares/ST/STM32_USB_Device_Library/Core/Src/usbd_ctlreq.c ****       USBD_CtlError(pdev, req);
 217:Middlewares/ST/STM32_USB_Device_Library/Core/Src/usbd_ctlreq.c ****       break;
 218:Middlewares/ST/STM32_USB_Device_Library/Core/Src/usbd_ctlreq.c ****   }
 219:Middlewares/ST/STM32_USB_Device_Library/Core/Src/usbd_ctlreq.c **** 
 220:Middlewares/ST/STM32_USB_Device_Library/Core/Src/usbd_ctlreq.c ****   return USBD_OK;
 221:Middlewares/ST/STM32_USB_Device_Library/Core/Src/usbd_ctlreq.c **** }
 222:Middlewares/ST/STM32_USB_Device_Library/Core/Src/usbd_ctlreq.c **** 
 223:Middlewares/ST/STM32_USB_Device_Library/Core/Src/usbd_ctlreq.c **** /**
 224:Middlewares/ST/STM32_USB_Device_Library/Core/Src/usbd_ctlreq.c **** * @brief  USBD_StdEPReq
 225:Middlewares/ST/STM32_USB_Device_Library/Core/Src/usbd_ctlreq.c **** *         Handle standard usb endpoint requests
 226:Middlewares/ST/STM32_USB_Device_Library/Core/Src/usbd_ctlreq.c **** * @param  pdev: device instance
 227:Middlewares/ST/STM32_USB_Device_Library/Core/Src/usbd_ctlreq.c **** * @param  req: usb request
 228:Middlewares/ST/STM32_USB_Device_Library/Core/Src/usbd_ctlreq.c **** * @retval status
 229:Middlewares/ST/STM32_USB_Device_Library/Core/Src/usbd_ctlreq.c **** */
 230:Middlewares/ST/STM32_USB_Device_Library/Core/Src/usbd_ctlreq.c **** USBD_StatusTypeDef  USBD_StdEPReq(USBD_HandleTypeDef *pdev,
 231:Middlewares/ST/STM32_USB_Device_Library/Core/Src/usbd_ctlreq.c ****                                   USBD_SetupReqTypedef  *req)
 232:Middlewares/ST/STM32_USB_Device_Library/Core/Src/usbd_ctlreq.c **** {
 233:Middlewares/ST/STM32_USB_Device_Library/Core/Src/usbd_ctlreq.c ****   USBD_EndpointTypeDef *pep;
 234:Middlewares/ST/STM32_USB_Device_Library/Core/Src/usbd_ctlreq.c ****   uint8_t   ep_addr;
 235:Middlewares/ST/STM32_USB_Device_Library/Core/Src/usbd_ctlreq.c ****   USBD_StatusTypeDef ret = USBD_OK;
 236:Middlewares/ST/STM32_USB_Device_Library/Core/Src/usbd_ctlreq.c ****   ep_addr  = LOBYTE(req->wIndex);
 237:Middlewares/ST/STM32_USB_Device_Library/Core/Src/usbd_ctlreq.c **** 
 238:Middlewares/ST/STM32_USB_Device_Library/Core/Src/usbd_ctlreq.c ****   switch (req->bmRequest & USB_REQ_TYPE_MASK)
 239:Middlewares/ST/STM32_USB_Device_Library/Core/Src/usbd_ctlreq.c ****   {
 240:Middlewares/ST/STM32_USB_Device_Library/Core/Src/usbd_ctlreq.c ****     case USB_REQ_TYPE_CLASS:
 241:Middlewares/ST/STM32_USB_Device_Library/Core/Src/usbd_ctlreq.c ****     case USB_REQ_TYPE_VENDOR:
 242:Middlewares/ST/STM32_USB_Device_Library/Core/Src/usbd_ctlreq.c ****       pdev->pClass->Setup(pdev, req);
 243:Middlewares/ST/STM32_USB_Device_Library/Core/Src/usbd_ctlreq.c ****       break;
 244:Middlewares/ST/STM32_USB_Device_Library/Core/Src/usbd_ctlreq.c **** 
 245:Middlewares/ST/STM32_USB_Device_Library/Core/Src/usbd_ctlreq.c ****     case USB_REQ_TYPE_STANDARD:
 246:Middlewares/ST/STM32_USB_Device_Library/Core/Src/usbd_ctlreq.c ****       /* Check if it is a class request */
 247:Middlewares/ST/STM32_USB_Device_Library/Core/Src/usbd_ctlreq.c ****       if ((req->bmRequest & 0x60U) == 0x20U)
 248:Middlewares/ST/STM32_USB_Device_Library/Core/Src/usbd_ctlreq.c ****       {
 249:Middlewares/ST/STM32_USB_Device_Library/Core/Src/usbd_ctlreq.c ****         ret = (USBD_StatusTypeDef)pdev->pClass->Setup(pdev, req);
 250:Middlewares/ST/STM32_USB_Device_Library/Core/Src/usbd_ctlreq.c **** 
 251:Middlewares/ST/STM32_USB_Device_Library/Core/Src/usbd_ctlreq.c ****         return ret;
 252:Middlewares/ST/STM32_USB_Device_Library/Core/Src/usbd_ctlreq.c ****       }
 253:Middlewares/ST/STM32_USB_Device_Library/Core/Src/usbd_ctlreq.c **** 
 254:Middlewares/ST/STM32_USB_Device_Library/Core/Src/usbd_ctlreq.c ****       switch (req->bRequest)
 255:Middlewares/ST/STM32_USB_Device_Library/Core/Src/usbd_ctlreq.c ****       {
 256:Middlewares/ST/STM32_USB_Device_Library/Core/Src/usbd_ctlreq.c ****         case USB_REQ_SET_FEATURE:
 257:Middlewares/ST/STM32_USB_Device_Library/Core/Src/usbd_ctlreq.c ****           switch (pdev->dev_state)
 258:Middlewares/ST/STM32_USB_Device_Library/Core/Src/usbd_ctlreq.c ****           {
 259:Middlewares/ST/STM32_USB_Device_Library/Core/Src/usbd_ctlreq.c ****             case USBD_STATE_ADDRESSED:
 260:Middlewares/ST/STM32_USB_Device_Library/Core/Src/usbd_ctlreq.c ****               if ((ep_addr != 0x00U) && (ep_addr != 0x80U))
ARM GAS  /tmp/cc2rDdvh.s 			page 6


 261:Middlewares/ST/STM32_USB_Device_Library/Core/Src/usbd_ctlreq.c ****               {
 262:Middlewares/ST/STM32_USB_Device_Library/Core/Src/usbd_ctlreq.c ****                 USBD_LL_StallEP(pdev, ep_addr);
 263:Middlewares/ST/STM32_USB_Device_Library/Core/Src/usbd_ctlreq.c ****                 USBD_LL_StallEP(pdev, 0x80U);
 264:Middlewares/ST/STM32_USB_Device_Library/Core/Src/usbd_ctlreq.c ****               }
 265:Middlewares/ST/STM32_USB_Device_Library/Core/Src/usbd_ctlreq.c ****               else
 266:Middlewares/ST/STM32_USB_Device_Library/Core/Src/usbd_ctlreq.c ****               {
 267:Middlewares/ST/STM32_USB_Device_Library/Core/Src/usbd_ctlreq.c ****                 USBD_CtlError(pdev, req);
 268:Middlewares/ST/STM32_USB_Device_Library/Core/Src/usbd_ctlreq.c ****               }
 269:Middlewares/ST/STM32_USB_Device_Library/Core/Src/usbd_ctlreq.c ****               break;
 270:Middlewares/ST/STM32_USB_Device_Library/Core/Src/usbd_ctlreq.c **** 
 271:Middlewares/ST/STM32_USB_Device_Library/Core/Src/usbd_ctlreq.c ****             case USBD_STATE_CONFIGURED:
 272:Middlewares/ST/STM32_USB_Device_Library/Core/Src/usbd_ctlreq.c ****               if (req->wValue == USB_FEATURE_EP_HALT)
 273:Middlewares/ST/STM32_USB_Device_Library/Core/Src/usbd_ctlreq.c ****               {
 274:Middlewares/ST/STM32_USB_Device_Library/Core/Src/usbd_ctlreq.c ****                 if ((ep_addr != 0x00U) &&
 275:Middlewares/ST/STM32_USB_Device_Library/Core/Src/usbd_ctlreq.c ****                     (ep_addr != 0x80U) && (req->wLength == 0x00U))
 276:Middlewares/ST/STM32_USB_Device_Library/Core/Src/usbd_ctlreq.c ****                 {
 277:Middlewares/ST/STM32_USB_Device_Library/Core/Src/usbd_ctlreq.c ****                   USBD_LL_StallEP(pdev, ep_addr);
 278:Middlewares/ST/STM32_USB_Device_Library/Core/Src/usbd_ctlreq.c ****                 }
 279:Middlewares/ST/STM32_USB_Device_Library/Core/Src/usbd_ctlreq.c ****               }
 280:Middlewares/ST/STM32_USB_Device_Library/Core/Src/usbd_ctlreq.c ****               USBD_CtlSendStatus(pdev);
 281:Middlewares/ST/STM32_USB_Device_Library/Core/Src/usbd_ctlreq.c **** 
 282:Middlewares/ST/STM32_USB_Device_Library/Core/Src/usbd_ctlreq.c ****               break;
 283:Middlewares/ST/STM32_USB_Device_Library/Core/Src/usbd_ctlreq.c **** 
 284:Middlewares/ST/STM32_USB_Device_Library/Core/Src/usbd_ctlreq.c ****             default:
 285:Middlewares/ST/STM32_USB_Device_Library/Core/Src/usbd_ctlreq.c ****               USBD_CtlError(pdev, req);
 286:Middlewares/ST/STM32_USB_Device_Library/Core/Src/usbd_ctlreq.c ****               break;
 287:Middlewares/ST/STM32_USB_Device_Library/Core/Src/usbd_ctlreq.c ****           }
 288:Middlewares/ST/STM32_USB_Device_Library/Core/Src/usbd_ctlreq.c ****           break;
 289:Middlewares/ST/STM32_USB_Device_Library/Core/Src/usbd_ctlreq.c **** 
 290:Middlewares/ST/STM32_USB_Device_Library/Core/Src/usbd_ctlreq.c ****         case USB_REQ_CLEAR_FEATURE:
 291:Middlewares/ST/STM32_USB_Device_Library/Core/Src/usbd_ctlreq.c **** 
 292:Middlewares/ST/STM32_USB_Device_Library/Core/Src/usbd_ctlreq.c ****           switch (pdev->dev_state)
 293:Middlewares/ST/STM32_USB_Device_Library/Core/Src/usbd_ctlreq.c ****           {
 294:Middlewares/ST/STM32_USB_Device_Library/Core/Src/usbd_ctlreq.c ****             case USBD_STATE_ADDRESSED:
 295:Middlewares/ST/STM32_USB_Device_Library/Core/Src/usbd_ctlreq.c ****               if ((ep_addr != 0x00U) && (ep_addr != 0x80U))
 296:Middlewares/ST/STM32_USB_Device_Library/Core/Src/usbd_ctlreq.c ****               {
 297:Middlewares/ST/STM32_USB_Device_Library/Core/Src/usbd_ctlreq.c ****                 USBD_LL_StallEP(pdev, ep_addr);
 298:Middlewares/ST/STM32_USB_Device_Library/Core/Src/usbd_ctlreq.c ****                 USBD_LL_StallEP(pdev, 0x80U);
 299:Middlewares/ST/STM32_USB_Device_Library/Core/Src/usbd_ctlreq.c ****               }
 300:Middlewares/ST/STM32_USB_Device_Library/Core/Src/usbd_ctlreq.c ****               else
 301:Middlewares/ST/STM32_USB_Device_Library/Core/Src/usbd_ctlreq.c ****               {
 302:Middlewares/ST/STM32_USB_Device_Library/Core/Src/usbd_ctlreq.c ****                 USBD_CtlError(pdev, req);
 303:Middlewares/ST/STM32_USB_Device_Library/Core/Src/usbd_ctlreq.c ****               }
 304:Middlewares/ST/STM32_USB_Device_Library/Core/Src/usbd_ctlreq.c ****               break;
 305:Middlewares/ST/STM32_USB_Device_Library/Core/Src/usbd_ctlreq.c **** 
 306:Middlewares/ST/STM32_USB_Device_Library/Core/Src/usbd_ctlreq.c ****             case USBD_STATE_CONFIGURED:
 307:Middlewares/ST/STM32_USB_Device_Library/Core/Src/usbd_ctlreq.c ****               if (req->wValue == USB_FEATURE_EP_HALT)
 308:Middlewares/ST/STM32_USB_Device_Library/Core/Src/usbd_ctlreq.c ****               {
 309:Middlewares/ST/STM32_USB_Device_Library/Core/Src/usbd_ctlreq.c ****                 if ((ep_addr & 0x7FU) != 0x00U)
 310:Middlewares/ST/STM32_USB_Device_Library/Core/Src/usbd_ctlreq.c ****                 {
 311:Middlewares/ST/STM32_USB_Device_Library/Core/Src/usbd_ctlreq.c ****                   USBD_LL_ClearStallEP(pdev, ep_addr);
 312:Middlewares/ST/STM32_USB_Device_Library/Core/Src/usbd_ctlreq.c ****                 }
 313:Middlewares/ST/STM32_USB_Device_Library/Core/Src/usbd_ctlreq.c ****                 USBD_CtlSendStatus(pdev);
 314:Middlewares/ST/STM32_USB_Device_Library/Core/Src/usbd_ctlreq.c ****               }
 315:Middlewares/ST/STM32_USB_Device_Library/Core/Src/usbd_ctlreq.c ****               break;
 316:Middlewares/ST/STM32_USB_Device_Library/Core/Src/usbd_ctlreq.c **** 
 317:Middlewares/ST/STM32_USB_Device_Library/Core/Src/usbd_ctlreq.c ****             default:
ARM GAS  /tmp/cc2rDdvh.s 			page 7


 318:Middlewares/ST/STM32_USB_Device_Library/Core/Src/usbd_ctlreq.c ****               USBD_CtlError(pdev, req);
 319:Middlewares/ST/STM32_USB_Device_Library/Core/Src/usbd_ctlreq.c ****               break;
 320:Middlewares/ST/STM32_USB_Device_Library/Core/Src/usbd_ctlreq.c ****           }
 321:Middlewares/ST/STM32_USB_Device_Library/Core/Src/usbd_ctlreq.c ****           break;
 322:Middlewares/ST/STM32_USB_Device_Library/Core/Src/usbd_ctlreq.c **** 
 323:Middlewares/ST/STM32_USB_Device_Library/Core/Src/usbd_ctlreq.c ****         case USB_REQ_GET_STATUS:
 324:Middlewares/ST/STM32_USB_Device_Library/Core/Src/usbd_ctlreq.c ****           switch (pdev->dev_state)
 325:Middlewares/ST/STM32_USB_Device_Library/Core/Src/usbd_ctlreq.c ****           {
 326:Middlewares/ST/STM32_USB_Device_Library/Core/Src/usbd_ctlreq.c ****             case USBD_STATE_ADDRESSED:
 327:Middlewares/ST/STM32_USB_Device_Library/Core/Src/usbd_ctlreq.c ****               if ((ep_addr != 0x00U) && (ep_addr != 0x80U))
 328:Middlewares/ST/STM32_USB_Device_Library/Core/Src/usbd_ctlreq.c ****               {
 329:Middlewares/ST/STM32_USB_Device_Library/Core/Src/usbd_ctlreq.c ****                 USBD_CtlError(pdev, req);
 330:Middlewares/ST/STM32_USB_Device_Library/Core/Src/usbd_ctlreq.c ****                 break;
 331:Middlewares/ST/STM32_USB_Device_Library/Core/Src/usbd_ctlreq.c ****               }
 332:Middlewares/ST/STM32_USB_Device_Library/Core/Src/usbd_ctlreq.c ****               pep = ((ep_addr & 0x80U) == 0x80U) ? &pdev->ep_in[ep_addr & 0x7FU] : \
 333:Middlewares/ST/STM32_USB_Device_Library/Core/Src/usbd_ctlreq.c ****                     &pdev->ep_out[ep_addr & 0x7FU];
 334:Middlewares/ST/STM32_USB_Device_Library/Core/Src/usbd_ctlreq.c **** 
 335:Middlewares/ST/STM32_USB_Device_Library/Core/Src/usbd_ctlreq.c ****               pep->status = 0x0000U;
 336:Middlewares/ST/STM32_USB_Device_Library/Core/Src/usbd_ctlreq.c **** 
 337:Middlewares/ST/STM32_USB_Device_Library/Core/Src/usbd_ctlreq.c ****               USBD_CtlSendData(pdev, (uint8_t *)(void *)&pep->status, 2U);
 338:Middlewares/ST/STM32_USB_Device_Library/Core/Src/usbd_ctlreq.c ****               break;
 339:Middlewares/ST/STM32_USB_Device_Library/Core/Src/usbd_ctlreq.c **** 
 340:Middlewares/ST/STM32_USB_Device_Library/Core/Src/usbd_ctlreq.c ****             case USBD_STATE_CONFIGURED:
 341:Middlewares/ST/STM32_USB_Device_Library/Core/Src/usbd_ctlreq.c ****               if ((ep_addr & 0x80U) == 0x80U)
 342:Middlewares/ST/STM32_USB_Device_Library/Core/Src/usbd_ctlreq.c ****               {
 343:Middlewares/ST/STM32_USB_Device_Library/Core/Src/usbd_ctlreq.c ****                 if (pdev->ep_in[ep_addr & 0xFU].is_used == 0U)
 344:Middlewares/ST/STM32_USB_Device_Library/Core/Src/usbd_ctlreq.c ****                 {
 345:Middlewares/ST/STM32_USB_Device_Library/Core/Src/usbd_ctlreq.c ****                   USBD_CtlError(pdev, req);
 346:Middlewares/ST/STM32_USB_Device_Library/Core/Src/usbd_ctlreq.c ****                   break;
 347:Middlewares/ST/STM32_USB_Device_Library/Core/Src/usbd_ctlreq.c ****                 }
 348:Middlewares/ST/STM32_USB_Device_Library/Core/Src/usbd_ctlreq.c ****               }
 349:Middlewares/ST/STM32_USB_Device_Library/Core/Src/usbd_ctlreq.c ****               else
 350:Middlewares/ST/STM32_USB_Device_Library/Core/Src/usbd_ctlreq.c ****               {
 351:Middlewares/ST/STM32_USB_Device_Library/Core/Src/usbd_ctlreq.c ****                 if (pdev->ep_out[ep_addr & 0xFU].is_used == 0U)
 352:Middlewares/ST/STM32_USB_Device_Library/Core/Src/usbd_ctlreq.c ****                 {
 353:Middlewares/ST/STM32_USB_Device_Library/Core/Src/usbd_ctlreq.c ****                   USBD_CtlError(pdev, req);
 354:Middlewares/ST/STM32_USB_Device_Library/Core/Src/usbd_ctlreq.c ****                   break;
 355:Middlewares/ST/STM32_USB_Device_Library/Core/Src/usbd_ctlreq.c ****                 }
 356:Middlewares/ST/STM32_USB_Device_Library/Core/Src/usbd_ctlreq.c ****               }
 357:Middlewares/ST/STM32_USB_Device_Library/Core/Src/usbd_ctlreq.c **** 
 358:Middlewares/ST/STM32_USB_Device_Library/Core/Src/usbd_ctlreq.c ****               pep = ((ep_addr & 0x80U) == 0x80U) ? &pdev->ep_in[ep_addr & 0x7FU] : \
 359:Middlewares/ST/STM32_USB_Device_Library/Core/Src/usbd_ctlreq.c ****                     &pdev->ep_out[ep_addr & 0x7FU];
 360:Middlewares/ST/STM32_USB_Device_Library/Core/Src/usbd_ctlreq.c **** 
 361:Middlewares/ST/STM32_USB_Device_Library/Core/Src/usbd_ctlreq.c ****               if ((ep_addr == 0x00U) || (ep_addr == 0x80U))
 362:Middlewares/ST/STM32_USB_Device_Library/Core/Src/usbd_ctlreq.c ****               {
 363:Middlewares/ST/STM32_USB_Device_Library/Core/Src/usbd_ctlreq.c ****                 pep->status = 0x0000U;
 364:Middlewares/ST/STM32_USB_Device_Library/Core/Src/usbd_ctlreq.c ****               }
 365:Middlewares/ST/STM32_USB_Device_Library/Core/Src/usbd_ctlreq.c ****               else if (USBD_LL_IsStallEP(pdev, ep_addr))
 366:Middlewares/ST/STM32_USB_Device_Library/Core/Src/usbd_ctlreq.c ****               {
 367:Middlewares/ST/STM32_USB_Device_Library/Core/Src/usbd_ctlreq.c ****                 pep->status = 0x0001U;
 368:Middlewares/ST/STM32_USB_Device_Library/Core/Src/usbd_ctlreq.c ****               }
 369:Middlewares/ST/STM32_USB_Device_Library/Core/Src/usbd_ctlreq.c ****               else
 370:Middlewares/ST/STM32_USB_Device_Library/Core/Src/usbd_ctlreq.c ****               {
 371:Middlewares/ST/STM32_USB_Device_Library/Core/Src/usbd_ctlreq.c ****                 pep->status = 0x0000U;
 372:Middlewares/ST/STM32_USB_Device_Library/Core/Src/usbd_ctlreq.c ****               }
 373:Middlewares/ST/STM32_USB_Device_Library/Core/Src/usbd_ctlreq.c **** 
 374:Middlewares/ST/STM32_USB_Device_Library/Core/Src/usbd_ctlreq.c ****               USBD_CtlSendData(pdev, (uint8_t *)(void *)&pep->status, 2U);
ARM GAS  /tmp/cc2rDdvh.s 			page 8


 375:Middlewares/ST/STM32_USB_Device_Library/Core/Src/usbd_ctlreq.c ****               break;
 376:Middlewares/ST/STM32_USB_Device_Library/Core/Src/usbd_ctlreq.c **** 
 377:Middlewares/ST/STM32_USB_Device_Library/Core/Src/usbd_ctlreq.c ****             default:
 378:Middlewares/ST/STM32_USB_Device_Library/Core/Src/usbd_ctlreq.c ****               USBD_CtlError(pdev, req);
 379:Middlewares/ST/STM32_USB_Device_Library/Core/Src/usbd_ctlreq.c ****               break;
 380:Middlewares/ST/STM32_USB_Device_Library/Core/Src/usbd_ctlreq.c ****           }
 381:Middlewares/ST/STM32_USB_Device_Library/Core/Src/usbd_ctlreq.c ****           break;
 382:Middlewares/ST/STM32_USB_Device_Library/Core/Src/usbd_ctlreq.c **** 
 383:Middlewares/ST/STM32_USB_Device_Library/Core/Src/usbd_ctlreq.c ****         default:
 384:Middlewares/ST/STM32_USB_Device_Library/Core/Src/usbd_ctlreq.c ****           USBD_CtlError(pdev, req);
 385:Middlewares/ST/STM32_USB_Device_Library/Core/Src/usbd_ctlreq.c ****           break;
 386:Middlewares/ST/STM32_USB_Device_Library/Core/Src/usbd_ctlreq.c ****       }
 387:Middlewares/ST/STM32_USB_Device_Library/Core/Src/usbd_ctlreq.c ****       break;
 388:Middlewares/ST/STM32_USB_Device_Library/Core/Src/usbd_ctlreq.c **** 
 389:Middlewares/ST/STM32_USB_Device_Library/Core/Src/usbd_ctlreq.c ****     default:
 390:Middlewares/ST/STM32_USB_Device_Library/Core/Src/usbd_ctlreq.c ****       USBD_CtlError(pdev, req);
 391:Middlewares/ST/STM32_USB_Device_Library/Core/Src/usbd_ctlreq.c ****       break;
 392:Middlewares/ST/STM32_USB_Device_Library/Core/Src/usbd_ctlreq.c ****   }
 393:Middlewares/ST/STM32_USB_Device_Library/Core/Src/usbd_ctlreq.c **** 
 394:Middlewares/ST/STM32_USB_Device_Library/Core/Src/usbd_ctlreq.c ****   return ret;
 395:Middlewares/ST/STM32_USB_Device_Library/Core/Src/usbd_ctlreq.c **** }
 396:Middlewares/ST/STM32_USB_Device_Library/Core/Src/usbd_ctlreq.c **** 
 397:Middlewares/ST/STM32_USB_Device_Library/Core/Src/usbd_ctlreq.c **** 
 398:Middlewares/ST/STM32_USB_Device_Library/Core/Src/usbd_ctlreq.c **** /**
 399:Middlewares/ST/STM32_USB_Device_Library/Core/Src/usbd_ctlreq.c **** * @brief  USBD_GetDescriptor
 400:Middlewares/ST/STM32_USB_Device_Library/Core/Src/usbd_ctlreq.c **** *         Handle Get Descriptor requests
 401:Middlewares/ST/STM32_USB_Device_Library/Core/Src/usbd_ctlreq.c **** * @param  pdev: device instance
 402:Middlewares/ST/STM32_USB_Device_Library/Core/Src/usbd_ctlreq.c **** * @param  req: usb request
 403:Middlewares/ST/STM32_USB_Device_Library/Core/Src/usbd_ctlreq.c **** * @retval status
 404:Middlewares/ST/STM32_USB_Device_Library/Core/Src/usbd_ctlreq.c **** */
 405:Middlewares/ST/STM32_USB_Device_Library/Core/Src/usbd_ctlreq.c **** static void USBD_GetDescriptor(USBD_HandleTypeDef *pdev,
 406:Middlewares/ST/STM32_USB_Device_Library/Core/Src/usbd_ctlreq.c ****                                USBD_SetupReqTypedef *req)
 407:Middlewares/ST/STM32_USB_Device_Library/Core/Src/usbd_ctlreq.c **** {
 408:Middlewares/ST/STM32_USB_Device_Library/Core/Src/usbd_ctlreq.c ****   uint16_t len = 0U;
 409:Middlewares/ST/STM32_USB_Device_Library/Core/Src/usbd_ctlreq.c ****   uint8_t *pbuf = NULL;
 410:Middlewares/ST/STM32_USB_Device_Library/Core/Src/usbd_ctlreq.c ****   uint8_t err = 0U;
 411:Middlewares/ST/STM32_USB_Device_Library/Core/Src/usbd_ctlreq.c **** 
 412:Middlewares/ST/STM32_USB_Device_Library/Core/Src/usbd_ctlreq.c ****   switch (req->wValue >> 8)
 413:Middlewares/ST/STM32_USB_Device_Library/Core/Src/usbd_ctlreq.c ****   {
 414:Middlewares/ST/STM32_USB_Device_Library/Core/Src/usbd_ctlreq.c **** #if (USBD_LPM_ENABLED == 1U)
 415:Middlewares/ST/STM32_USB_Device_Library/Core/Src/usbd_ctlreq.c ****     case USB_DESC_TYPE_BOS:
 416:Middlewares/ST/STM32_USB_Device_Library/Core/Src/usbd_ctlreq.c ****       if (pdev->pDesc->GetBOSDescriptor != NULL)
 417:Middlewares/ST/STM32_USB_Device_Library/Core/Src/usbd_ctlreq.c ****       {
 418:Middlewares/ST/STM32_USB_Device_Library/Core/Src/usbd_ctlreq.c ****         pbuf = pdev->pDesc->GetBOSDescriptor(pdev->dev_speed, &len);
 419:Middlewares/ST/STM32_USB_Device_Library/Core/Src/usbd_ctlreq.c ****       }
 420:Middlewares/ST/STM32_USB_Device_Library/Core/Src/usbd_ctlreq.c ****       else
 421:Middlewares/ST/STM32_USB_Device_Library/Core/Src/usbd_ctlreq.c ****       {
 422:Middlewares/ST/STM32_USB_Device_Library/Core/Src/usbd_ctlreq.c ****         USBD_CtlError(pdev, req);
 423:Middlewares/ST/STM32_USB_Device_Library/Core/Src/usbd_ctlreq.c ****         err++;
 424:Middlewares/ST/STM32_USB_Device_Library/Core/Src/usbd_ctlreq.c ****       }
 425:Middlewares/ST/STM32_USB_Device_Library/Core/Src/usbd_ctlreq.c ****       break;
 426:Middlewares/ST/STM32_USB_Device_Library/Core/Src/usbd_ctlreq.c **** #endif
 427:Middlewares/ST/STM32_USB_Device_Library/Core/Src/usbd_ctlreq.c ****     case USB_DESC_TYPE_DEVICE:
 428:Middlewares/ST/STM32_USB_Device_Library/Core/Src/usbd_ctlreq.c ****       pbuf = pdev->pDesc->GetDeviceDescriptor(pdev->dev_speed, &len);
 429:Middlewares/ST/STM32_USB_Device_Library/Core/Src/usbd_ctlreq.c ****       break;
 430:Middlewares/ST/STM32_USB_Device_Library/Core/Src/usbd_ctlreq.c **** 
 431:Middlewares/ST/STM32_USB_Device_Library/Core/Src/usbd_ctlreq.c ****     case USB_DESC_TYPE_CONFIGURATION:
ARM GAS  /tmp/cc2rDdvh.s 			page 9


 432:Middlewares/ST/STM32_USB_Device_Library/Core/Src/usbd_ctlreq.c ****       if (pdev->dev_speed == USBD_SPEED_HIGH)
 433:Middlewares/ST/STM32_USB_Device_Library/Core/Src/usbd_ctlreq.c ****       {
 434:Middlewares/ST/STM32_USB_Device_Library/Core/Src/usbd_ctlreq.c ****         pbuf = pdev->pClass->GetHSConfigDescriptor(&len);
 435:Middlewares/ST/STM32_USB_Device_Library/Core/Src/usbd_ctlreq.c ****         pbuf[1] = USB_DESC_TYPE_CONFIGURATION;
 436:Middlewares/ST/STM32_USB_Device_Library/Core/Src/usbd_ctlreq.c ****       }
 437:Middlewares/ST/STM32_USB_Device_Library/Core/Src/usbd_ctlreq.c ****       else
 438:Middlewares/ST/STM32_USB_Device_Library/Core/Src/usbd_ctlreq.c ****       {
 439:Middlewares/ST/STM32_USB_Device_Library/Core/Src/usbd_ctlreq.c ****         pbuf = pdev->pClass->GetFSConfigDescriptor(&len);
 440:Middlewares/ST/STM32_USB_Device_Library/Core/Src/usbd_ctlreq.c ****         pbuf[1] = USB_DESC_TYPE_CONFIGURATION;
 441:Middlewares/ST/STM32_USB_Device_Library/Core/Src/usbd_ctlreq.c ****       }
 442:Middlewares/ST/STM32_USB_Device_Library/Core/Src/usbd_ctlreq.c ****       break;
 443:Middlewares/ST/STM32_USB_Device_Library/Core/Src/usbd_ctlreq.c **** 
 444:Middlewares/ST/STM32_USB_Device_Library/Core/Src/usbd_ctlreq.c ****     case USB_DESC_TYPE_STRING:
 445:Middlewares/ST/STM32_USB_Device_Library/Core/Src/usbd_ctlreq.c ****       switch ((uint8_t)(req->wValue))
 446:Middlewares/ST/STM32_USB_Device_Library/Core/Src/usbd_ctlreq.c ****       {
 447:Middlewares/ST/STM32_USB_Device_Library/Core/Src/usbd_ctlreq.c ****         case USBD_IDX_LANGID_STR:
 448:Middlewares/ST/STM32_USB_Device_Library/Core/Src/usbd_ctlreq.c ****           if (pdev->pDesc->GetLangIDStrDescriptor != NULL)
 449:Middlewares/ST/STM32_USB_Device_Library/Core/Src/usbd_ctlreq.c ****           {
 450:Middlewares/ST/STM32_USB_Device_Library/Core/Src/usbd_ctlreq.c ****             pbuf = pdev->pDesc->GetLangIDStrDescriptor(pdev->dev_speed, &len);
 451:Middlewares/ST/STM32_USB_Device_Library/Core/Src/usbd_ctlreq.c ****           }
 452:Middlewares/ST/STM32_USB_Device_Library/Core/Src/usbd_ctlreq.c ****           else
 453:Middlewares/ST/STM32_USB_Device_Library/Core/Src/usbd_ctlreq.c ****           {
 454:Middlewares/ST/STM32_USB_Device_Library/Core/Src/usbd_ctlreq.c ****             USBD_CtlError(pdev, req);
 455:Middlewares/ST/STM32_USB_Device_Library/Core/Src/usbd_ctlreq.c ****             err++;
 456:Middlewares/ST/STM32_USB_Device_Library/Core/Src/usbd_ctlreq.c ****           }
 457:Middlewares/ST/STM32_USB_Device_Library/Core/Src/usbd_ctlreq.c ****           break;
 458:Middlewares/ST/STM32_USB_Device_Library/Core/Src/usbd_ctlreq.c **** 
 459:Middlewares/ST/STM32_USB_Device_Library/Core/Src/usbd_ctlreq.c ****         case USBD_IDX_MFC_STR:
 460:Middlewares/ST/STM32_USB_Device_Library/Core/Src/usbd_ctlreq.c ****           if (pdev->pDesc->GetManufacturerStrDescriptor != NULL)
 461:Middlewares/ST/STM32_USB_Device_Library/Core/Src/usbd_ctlreq.c ****           {
 462:Middlewares/ST/STM32_USB_Device_Library/Core/Src/usbd_ctlreq.c ****             pbuf = pdev->pDesc->GetManufacturerStrDescriptor(pdev->dev_speed, &len);
 463:Middlewares/ST/STM32_USB_Device_Library/Core/Src/usbd_ctlreq.c ****           }
 464:Middlewares/ST/STM32_USB_Device_Library/Core/Src/usbd_ctlreq.c ****           else
 465:Middlewares/ST/STM32_USB_Device_Library/Core/Src/usbd_ctlreq.c ****           {
 466:Middlewares/ST/STM32_USB_Device_Library/Core/Src/usbd_ctlreq.c ****             USBD_CtlError(pdev, req);
 467:Middlewares/ST/STM32_USB_Device_Library/Core/Src/usbd_ctlreq.c ****             err++;
 468:Middlewares/ST/STM32_USB_Device_Library/Core/Src/usbd_ctlreq.c ****           }
 469:Middlewares/ST/STM32_USB_Device_Library/Core/Src/usbd_ctlreq.c ****           break;
 470:Middlewares/ST/STM32_USB_Device_Library/Core/Src/usbd_ctlreq.c **** 
 471:Middlewares/ST/STM32_USB_Device_Library/Core/Src/usbd_ctlreq.c ****         case USBD_IDX_PRODUCT_STR:
 472:Middlewares/ST/STM32_USB_Device_Library/Core/Src/usbd_ctlreq.c ****           if (pdev->pDesc->GetProductStrDescriptor != NULL)
 473:Middlewares/ST/STM32_USB_Device_Library/Core/Src/usbd_ctlreq.c ****           {
 474:Middlewares/ST/STM32_USB_Device_Library/Core/Src/usbd_ctlreq.c ****             pbuf = pdev->pDesc->GetProductStrDescriptor(pdev->dev_speed, &len);
 475:Middlewares/ST/STM32_USB_Device_Library/Core/Src/usbd_ctlreq.c ****           }
 476:Middlewares/ST/STM32_USB_Device_Library/Core/Src/usbd_ctlreq.c ****           else
 477:Middlewares/ST/STM32_USB_Device_Library/Core/Src/usbd_ctlreq.c ****           {
 478:Middlewares/ST/STM32_USB_Device_Library/Core/Src/usbd_ctlreq.c ****             USBD_CtlError(pdev, req);
 479:Middlewares/ST/STM32_USB_Device_Library/Core/Src/usbd_ctlreq.c ****             err++;
 480:Middlewares/ST/STM32_USB_Device_Library/Core/Src/usbd_ctlreq.c ****           }
 481:Middlewares/ST/STM32_USB_Device_Library/Core/Src/usbd_ctlreq.c ****           break;
 482:Middlewares/ST/STM32_USB_Device_Library/Core/Src/usbd_ctlreq.c **** 
 483:Middlewares/ST/STM32_USB_Device_Library/Core/Src/usbd_ctlreq.c ****         case USBD_IDX_SERIAL_STR:
 484:Middlewares/ST/STM32_USB_Device_Library/Core/Src/usbd_ctlreq.c ****           if (pdev->pDesc->GetSerialStrDescriptor != NULL)
 485:Middlewares/ST/STM32_USB_Device_Library/Core/Src/usbd_ctlreq.c ****           {
 486:Middlewares/ST/STM32_USB_Device_Library/Core/Src/usbd_ctlreq.c ****             pbuf = pdev->pDesc->GetSerialStrDescriptor(pdev->dev_speed, &len);
 487:Middlewares/ST/STM32_USB_Device_Library/Core/Src/usbd_ctlreq.c ****           }
 488:Middlewares/ST/STM32_USB_Device_Library/Core/Src/usbd_ctlreq.c ****           else
ARM GAS  /tmp/cc2rDdvh.s 			page 10


 489:Middlewares/ST/STM32_USB_Device_Library/Core/Src/usbd_ctlreq.c ****           {
 490:Middlewares/ST/STM32_USB_Device_Library/Core/Src/usbd_ctlreq.c ****             USBD_CtlError(pdev, req);
 491:Middlewares/ST/STM32_USB_Device_Library/Core/Src/usbd_ctlreq.c ****             err++;
 492:Middlewares/ST/STM32_USB_Device_Library/Core/Src/usbd_ctlreq.c ****           }
 493:Middlewares/ST/STM32_USB_Device_Library/Core/Src/usbd_ctlreq.c ****           break;
 494:Middlewares/ST/STM32_USB_Device_Library/Core/Src/usbd_ctlreq.c **** 
 495:Middlewares/ST/STM32_USB_Device_Library/Core/Src/usbd_ctlreq.c ****         case USBD_IDX_CONFIG_STR:
 496:Middlewares/ST/STM32_USB_Device_Library/Core/Src/usbd_ctlreq.c ****           if (pdev->pDesc->GetConfigurationStrDescriptor != NULL)
 497:Middlewares/ST/STM32_USB_Device_Library/Core/Src/usbd_ctlreq.c ****           {
 498:Middlewares/ST/STM32_USB_Device_Library/Core/Src/usbd_ctlreq.c ****             pbuf = pdev->pDesc->GetConfigurationStrDescriptor(pdev->dev_speed, &len);
 499:Middlewares/ST/STM32_USB_Device_Library/Core/Src/usbd_ctlreq.c ****           }
 500:Middlewares/ST/STM32_USB_Device_Library/Core/Src/usbd_ctlreq.c ****           else
 501:Middlewares/ST/STM32_USB_Device_Library/Core/Src/usbd_ctlreq.c ****           {
 502:Middlewares/ST/STM32_USB_Device_Library/Core/Src/usbd_ctlreq.c ****             USBD_CtlError(pdev, req);
 503:Middlewares/ST/STM32_USB_Device_Library/Core/Src/usbd_ctlreq.c ****             err++;
 504:Middlewares/ST/STM32_USB_Device_Library/Core/Src/usbd_ctlreq.c ****           }
 505:Middlewares/ST/STM32_USB_Device_Library/Core/Src/usbd_ctlreq.c ****           break;
 506:Middlewares/ST/STM32_USB_Device_Library/Core/Src/usbd_ctlreq.c **** 
 507:Middlewares/ST/STM32_USB_Device_Library/Core/Src/usbd_ctlreq.c ****         case USBD_IDX_INTERFACE_STR:
 508:Middlewares/ST/STM32_USB_Device_Library/Core/Src/usbd_ctlreq.c ****           if (pdev->pDesc->GetInterfaceStrDescriptor != NULL)
 509:Middlewares/ST/STM32_USB_Device_Library/Core/Src/usbd_ctlreq.c ****           {
 510:Middlewares/ST/STM32_USB_Device_Library/Core/Src/usbd_ctlreq.c ****             pbuf = pdev->pDesc->GetInterfaceStrDescriptor(pdev->dev_speed, &len);
 511:Middlewares/ST/STM32_USB_Device_Library/Core/Src/usbd_ctlreq.c ****           }
 512:Middlewares/ST/STM32_USB_Device_Library/Core/Src/usbd_ctlreq.c ****           else
 513:Middlewares/ST/STM32_USB_Device_Library/Core/Src/usbd_ctlreq.c ****           {
 514:Middlewares/ST/STM32_USB_Device_Library/Core/Src/usbd_ctlreq.c ****             USBD_CtlError(pdev, req);
 515:Middlewares/ST/STM32_USB_Device_Library/Core/Src/usbd_ctlreq.c ****             err++;
 516:Middlewares/ST/STM32_USB_Device_Library/Core/Src/usbd_ctlreq.c ****           }
 517:Middlewares/ST/STM32_USB_Device_Library/Core/Src/usbd_ctlreq.c ****           break;
 518:Middlewares/ST/STM32_USB_Device_Library/Core/Src/usbd_ctlreq.c **** 
 519:Middlewares/ST/STM32_USB_Device_Library/Core/Src/usbd_ctlreq.c ****         default:
 520:Middlewares/ST/STM32_USB_Device_Library/Core/Src/usbd_ctlreq.c **** #if (USBD_SUPPORT_USER_STRING_DESC == 1U)
 521:Middlewares/ST/STM32_USB_Device_Library/Core/Src/usbd_ctlreq.c ****           if (pdev->pClass->GetUsrStrDescriptor != NULL)
 522:Middlewares/ST/STM32_USB_Device_Library/Core/Src/usbd_ctlreq.c ****           {
 523:Middlewares/ST/STM32_USB_Device_Library/Core/Src/usbd_ctlreq.c ****             pbuf = pdev->pClass->GetUsrStrDescriptor(pdev, (req->wValue), &len);
 524:Middlewares/ST/STM32_USB_Device_Library/Core/Src/usbd_ctlreq.c ****           }
 525:Middlewares/ST/STM32_USB_Device_Library/Core/Src/usbd_ctlreq.c ****           else
 526:Middlewares/ST/STM32_USB_Device_Library/Core/Src/usbd_ctlreq.c ****           {
 527:Middlewares/ST/STM32_USB_Device_Library/Core/Src/usbd_ctlreq.c ****             USBD_CtlError(pdev, req);
 528:Middlewares/ST/STM32_USB_Device_Library/Core/Src/usbd_ctlreq.c ****             err++;
 529:Middlewares/ST/STM32_USB_Device_Library/Core/Src/usbd_ctlreq.c ****           }
 530:Middlewares/ST/STM32_USB_Device_Library/Core/Src/usbd_ctlreq.c ****           break;
 531:Middlewares/ST/STM32_USB_Device_Library/Core/Src/usbd_ctlreq.c **** #else
 532:Middlewares/ST/STM32_USB_Device_Library/Core/Src/usbd_ctlreq.c ****           USBD_CtlError(pdev, req);
 533:Middlewares/ST/STM32_USB_Device_Library/Core/Src/usbd_ctlreq.c ****           err++;
 534:Middlewares/ST/STM32_USB_Device_Library/Core/Src/usbd_ctlreq.c **** #endif
 535:Middlewares/ST/STM32_USB_Device_Library/Core/Src/usbd_ctlreq.c ****       }
 536:Middlewares/ST/STM32_USB_Device_Library/Core/Src/usbd_ctlreq.c ****       break;
 537:Middlewares/ST/STM32_USB_Device_Library/Core/Src/usbd_ctlreq.c **** 
 538:Middlewares/ST/STM32_USB_Device_Library/Core/Src/usbd_ctlreq.c ****     case USB_DESC_TYPE_DEVICE_QUALIFIER:
 539:Middlewares/ST/STM32_USB_Device_Library/Core/Src/usbd_ctlreq.c ****       if (pdev->dev_speed == USBD_SPEED_HIGH)
 540:Middlewares/ST/STM32_USB_Device_Library/Core/Src/usbd_ctlreq.c ****       {
 541:Middlewares/ST/STM32_USB_Device_Library/Core/Src/usbd_ctlreq.c ****         pbuf = pdev->pClass->GetDeviceQualifierDescriptor(&len);
 542:Middlewares/ST/STM32_USB_Device_Library/Core/Src/usbd_ctlreq.c ****       }
 543:Middlewares/ST/STM32_USB_Device_Library/Core/Src/usbd_ctlreq.c ****       else
 544:Middlewares/ST/STM32_USB_Device_Library/Core/Src/usbd_ctlreq.c ****       {
 545:Middlewares/ST/STM32_USB_Device_Library/Core/Src/usbd_ctlreq.c ****         USBD_CtlError(pdev, req);
ARM GAS  /tmp/cc2rDdvh.s 			page 11


 546:Middlewares/ST/STM32_USB_Device_Library/Core/Src/usbd_ctlreq.c ****         err++;
 547:Middlewares/ST/STM32_USB_Device_Library/Core/Src/usbd_ctlreq.c ****       }
 548:Middlewares/ST/STM32_USB_Device_Library/Core/Src/usbd_ctlreq.c ****       break;
 549:Middlewares/ST/STM32_USB_Device_Library/Core/Src/usbd_ctlreq.c **** 
 550:Middlewares/ST/STM32_USB_Device_Library/Core/Src/usbd_ctlreq.c ****     case USB_DESC_TYPE_OTHER_SPEED_CONFIGURATION:
 551:Middlewares/ST/STM32_USB_Device_Library/Core/Src/usbd_ctlreq.c ****       if (pdev->dev_speed == USBD_SPEED_HIGH)
 552:Middlewares/ST/STM32_USB_Device_Library/Core/Src/usbd_ctlreq.c ****       {
 553:Middlewares/ST/STM32_USB_Device_Library/Core/Src/usbd_ctlreq.c ****         pbuf = pdev->pClass->GetOtherSpeedConfigDescriptor(&len);
 554:Middlewares/ST/STM32_USB_Device_Library/Core/Src/usbd_ctlreq.c ****         pbuf[1] = USB_DESC_TYPE_OTHER_SPEED_CONFIGURATION;
 555:Middlewares/ST/STM32_USB_Device_Library/Core/Src/usbd_ctlreq.c ****       }
 556:Middlewares/ST/STM32_USB_Device_Library/Core/Src/usbd_ctlreq.c ****       else
 557:Middlewares/ST/STM32_USB_Device_Library/Core/Src/usbd_ctlreq.c ****       {
 558:Middlewares/ST/STM32_USB_Device_Library/Core/Src/usbd_ctlreq.c ****         USBD_CtlError(pdev, req);
 559:Middlewares/ST/STM32_USB_Device_Library/Core/Src/usbd_ctlreq.c ****         err++;
 560:Middlewares/ST/STM32_USB_Device_Library/Core/Src/usbd_ctlreq.c ****       }
 561:Middlewares/ST/STM32_USB_Device_Library/Core/Src/usbd_ctlreq.c ****       break;
 562:Middlewares/ST/STM32_USB_Device_Library/Core/Src/usbd_ctlreq.c **** 
 563:Middlewares/ST/STM32_USB_Device_Library/Core/Src/usbd_ctlreq.c ****     default:
 564:Middlewares/ST/STM32_USB_Device_Library/Core/Src/usbd_ctlreq.c ****       USBD_CtlError(pdev, req);
 565:Middlewares/ST/STM32_USB_Device_Library/Core/Src/usbd_ctlreq.c ****       err++;
 566:Middlewares/ST/STM32_USB_Device_Library/Core/Src/usbd_ctlreq.c ****       break;
 567:Middlewares/ST/STM32_USB_Device_Library/Core/Src/usbd_ctlreq.c ****   }
 568:Middlewares/ST/STM32_USB_Device_Library/Core/Src/usbd_ctlreq.c **** 
 569:Middlewares/ST/STM32_USB_Device_Library/Core/Src/usbd_ctlreq.c ****   if (err != 0U)
 570:Middlewares/ST/STM32_USB_Device_Library/Core/Src/usbd_ctlreq.c ****   {
 571:Middlewares/ST/STM32_USB_Device_Library/Core/Src/usbd_ctlreq.c ****     return;
 572:Middlewares/ST/STM32_USB_Device_Library/Core/Src/usbd_ctlreq.c ****   }
 573:Middlewares/ST/STM32_USB_Device_Library/Core/Src/usbd_ctlreq.c ****   else
 574:Middlewares/ST/STM32_USB_Device_Library/Core/Src/usbd_ctlreq.c ****   {
 575:Middlewares/ST/STM32_USB_Device_Library/Core/Src/usbd_ctlreq.c ****     if ((len != 0U) && (req->wLength != 0U))
 576:Middlewares/ST/STM32_USB_Device_Library/Core/Src/usbd_ctlreq.c ****     {
 577:Middlewares/ST/STM32_USB_Device_Library/Core/Src/usbd_ctlreq.c ****       len = MIN(len, req->wLength);
 578:Middlewares/ST/STM32_USB_Device_Library/Core/Src/usbd_ctlreq.c ****       (void)USBD_CtlSendData(pdev, pbuf, len);
 579:Middlewares/ST/STM32_USB_Device_Library/Core/Src/usbd_ctlreq.c ****     }
 580:Middlewares/ST/STM32_USB_Device_Library/Core/Src/usbd_ctlreq.c **** 
 581:Middlewares/ST/STM32_USB_Device_Library/Core/Src/usbd_ctlreq.c ****     if (req->wLength == 0U)
 582:Middlewares/ST/STM32_USB_Device_Library/Core/Src/usbd_ctlreq.c ****     {
 583:Middlewares/ST/STM32_USB_Device_Library/Core/Src/usbd_ctlreq.c ****       (void)USBD_CtlSendStatus(pdev);
 584:Middlewares/ST/STM32_USB_Device_Library/Core/Src/usbd_ctlreq.c ****     }
 585:Middlewares/ST/STM32_USB_Device_Library/Core/Src/usbd_ctlreq.c ****   }
 586:Middlewares/ST/STM32_USB_Device_Library/Core/Src/usbd_ctlreq.c **** }
 587:Middlewares/ST/STM32_USB_Device_Library/Core/Src/usbd_ctlreq.c **** 
 588:Middlewares/ST/STM32_USB_Device_Library/Core/Src/usbd_ctlreq.c **** /**
 589:Middlewares/ST/STM32_USB_Device_Library/Core/Src/usbd_ctlreq.c **** * @brief  USBD_SetAddress
 590:Middlewares/ST/STM32_USB_Device_Library/Core/Src/usbd_ctlreq.c **** *         Set device address
 591:Middlewares/ST/STM32_USB_Device_Library/Core/Src/usbd_ctlreq.c **** * @param  pdev: device instance
 592:Middlewares/ST/STM32_USB_Device_Library/Core/Src/usbd_ctlreq.c **** * @param  req: usb request
 593:Middlewares/ST/STM32_USB_Device_Library/Core/Src/usbd_ctlreq.c **** * @retval status
 594:Middlewares/ST/STM32_USB_Device_Library/Core/Src/usbd_ctlreq.c **** */
 595:Middlewares/ST/STM32_USB_Device_Library/Core/Src/usbd_ctlreq.c **** static void USBD_SetAddress(USBD_HandleTypeDef *pdev,
 596:Middlewares/ST/STM32_USB_Device_Library/Core/Src/usbd_ctlreq.c ****                             USBD_SetupReqTypedef *req)
 597:Middlewares/ST/STM32_USB_Device_Library/Core/Src/usbd_ctlreq.c **** {
 598:Middlewares/ST/STM32_USB_Device_Library/Core/Src/usbd_ctlreq.c ****   uint8_t  dev_addr;
 599:Middlewares/ST/STM32_USB_Device_Library/Core/Src/usbd_ctlreq.c **** 
 600:Middlewares/ST/STM32_USB_Device_Library/Core/Src/usbd_ctlreq.c ****   if ((req->wIndex == 0U) && (req->wLength == 0U) && (req->wValue < 128U))
 601:Middlewares/ST/STM32_USB_Device_Library/Core/Src/usbd_ctlreq.c ****   {
 602:Middlewares/ST/STM32_USB_Device_Library/Core/Src/usbd_ctlreq.c ****     dev_addr = (uint8_t)(req->wValue) & 0x7FU;
ARM GAS  /tmp/cc2rDdvh.s 			page 12


 603:Middlewares/ST/STM32_USB_Device_Library/Core/Src/usbd_ctlreq.c **** 
 604:Middlewares/ST/STM32_USB_Device_Library/Core/Src/usbd_ctlreq.c ****     if (pdev->dev_state == USBD_STATE_CONFIGURED)
 605:Middlewares/ST/STM32_USB_Device_Library/Core/Src/usbd_ctlreq.c ****     {
 606:Middlewares/ST/STM32_USB_Device_Library/Core/Src/usbd_ctlreq.c ****       USBD_CtlError(pdev, req);
 607:Middlewares/ST/STM32_USB_Device_Library/Core/Src/usbd_ctlreq.c ****     }
 608:Middlewares/ST/STM32_USB_Device_Library/Core/Src/usbd_ctlreq.c ****     else
 609:Middlewares/ST/STM32_USB_Device_Library/Core/Src/usbd_ctlreq.c ****     {
 610:Middlewares/ST/STM32_USB_Device_Library/Core/Src/usbd_ctlreq.c ****       pdev->dev_address = dev_addr;
 611:Middlewares/ST/STM32_USB_Device_Library/Core/Src/usbd_ctlreq.c ****       USBD_LL_SetUSBAddress(pdev, dev_addr);
 612:Middlewares/ST/STM32_USB_Device_Library/Core/Src/usbd_ctlreq.c ****       USBD_CtlSendStatus(pdev);
 613:Middlewares/ST/STM32_USB_Device_Library/Core/Src/usbd_ctlreq.c **** 
 614:Middlewares/ST/STM32_USB_Device_Library/Core/Src/usbd_ctlreq.c ****       if (dev_addr != 0U)
 615:Middlewares/ST/STM32_USB_Device_Library/Core/Src/usbd_ctlreq.c ****       {
 616:Middlewares/ST/STM32_USB_Device_Library/Core/Src/usbd_ctlreq.c ****         pdev->dev_state = USBD_STATE_ADDRESSED;
 617:Middlewares/ST/STM32_USB_Device_Library/Core/Src/usbd_ctlreq.c ****       }
 618:Middlewares/ST/STM32_USB_Device_Library/Core/Src/usbd_ctlreq.c ****       else
 619:Middlewares/ST/STM32_USB_Device_Library/Core/Src/usbd_ctlreq.c ****       {
 620:Middlewares/ST/STM32_USB_Device_Library/Core/Src/usbd_ctlreq.c ****         pdev->dev_state = USBD_STATE_DEFAULT;
 621:Middlewares/ST/STM32_USB_Device_Library/Core/Src/usbd_ctlreq.c ****       }
 622:Middlewares/ST/STM32_USB_Device_Library/Core/Src/usbd_ctlreq.c ****     }
 623:Middlewares/ST/STM32_USB_Device_Library/Core/Src/usbd_ctlreq.c ****   }
 624:Middlewares/ST/STM32_USB_Device_Library/Core/Src/usbd_ctlreq.c ****   else
 625:Middlewares/ST/STM32_USB_Device_Library/Core/Src/usbd_ctlreq.c ****   {
 626:Middlewares/ST/STM32_USB_Device_Library/Core/Src/usbd_ctlreq.c ****     USBD_CtlError(pdev, req);
 627:Middlewares/ST/STM32_USB_Device_Library/Core/Src/usbd_ctlreq.c ****   }
 628:Middlewares/ST/STM32_USB_Device_Library/Core/Src/usbd_ctlreq.c **** }
 629:Middlewares/ST/STM32_USB_Device_Library/Core/Src/usbd_ctlreq.c **** 
 630:Middlewares/ST/STM32_USB_Device_Library/Core/Src/usbd_ctlreq.c **** /**
 631:Middlewares/ST/STM32_USB_Device_Library/Core/Src/usbd_ctlreq.c **** * @brief  USBD_SetConfig
 632:Middlewares/ST/STM32_USB_Device_Library/Core/Src/usbd_ctlreq.c **** *         Handle Set device configuration request
 633:Middlewares/ST/STM32_USB_Device_Library/Core/Src/usbd_ctlreq.c **** * @param  pdev: device instance
 634:Middlewares/ST/STM32_USB_Device_Library/Core/Src/usbd_ctlreq.c **** * @param  req: usb request
 635:Middlewares/ST/STM32_USB_Device_Library/Core/Src/usbd_ctlreq.c **** * @retval status
 636:Middlewares/ST/STM32_USB_Device_Library/Core/Src/usbd_ctlreq.c **** */
 637:Middlewares/ST/STM32_USB_Device_Library/Core/Src/usbd_ctlreq.c **** static void USBD_SetConfig(USBD_HandleTypeDef *pdev, USBD_SetupReqTypedef *req)
 638:Middlewares/ST/STM32_USB_Device_Library/Core/Src/usbd_ctlreq.c **** {
 639:Middlewares/ST/STM32_USB_Device_Library/Core/Src/usbd_ctlreq.c ****   static uint8_t cfgidx;
 640:Middlewares/ST/STM32_USB_Device_Library/Core/Src/usbd_ctlreq.c **** 
 641:Middlewares/ST/STM32_USB_Device_Library/Core/Src/usbd_ctlreq.c ****   cfgidx = (uint8_t)(req->wValue);
 642:Middlewares/ST/STM32_USB_Device_Library/Core/Src/usbd_ctlreq.c **** 
 643:Middlewares/ST/STM32_USB_Device_Library/Core/Src/usbd_ctlreq.c ****   if (cfgidx > USBD_MAX_NUM_CONFIGURATION)
 644:Middlewares/ST/STM32_USB_Device_Library/Core/Src/usbd_ctlreq.c ****   {
 645:Middlewares/ST/STM32_USB_Device_Library/Core/Src/usbd_ctlreq.c ****     USBD_CtlError(pdev, req);
 646:Middlewares/ST/STM32_USB_Device_Library/Core/Src/usbd_ctlreq.c ****   }
 647:Middlewares/ST/STM32_USB_Device_Library/Core/Src/usbd_ctlreq.c ****   else
 648:Middlewares/ST/STM32_USB_Device_Library/Core/Src/usbd_ctlreq.c ****   {
 649:Middlewares/ST/STM32_USB_Device_Library/Core/Src/usbd_ctlreq.c ****     switch (pdev->dev_state)
 650:Middlewares/ST/STM32_USB_Device_Library/Core/Src/usbd_ctlreq.c ****     {
 651:Middlewares/ST/STM32_USB_Device_Library/Core/Src/usbd_ctlreq.c ****       case USBD_STATE_ADDRESSED:
 652:Middlewares/ST/STM32_USB_Device_Library/Core/Src/usbd_ctlreq.c ****         if (cfgidx)
 653:Middlewares/ST/STM32_USB_Device_Library/Core/Src/usbd_ctlreq.c ****         {
 654:Middlewares/ST/STM32_USB_Device_Library/Core/Src/usbd_ctlreq.c ****           pdev->dev_config = cfgidx;
 655:Middlewares/ST/STM32_USB_Device_Library/Core/Src/usbd_ctlreq.c ****           pdev->dev_state = USBD_STATE_CONFIGURED;
 656:Middlewares/ST/STM32_USB_Device_Library/Core/Src/usbd_ctlreq.c ****           if (USBD_SetClassConfig(pdev, cfgidx) == USBD_FAIL)
 657:Middlewares/ST/STM32_USB_Device_Library/Core/Src/usbd_ctlreq.c ****           {
 658:Middlewares/ST/STM32_USB_Device_Library/Core/Src/usbd_ctlreq.c ****             USBD_CtlError(pdev, req);
 659:Middlewares/ST/STM32_USB_Device_Library/Core/Src/usbd_ctlreq.c ****             return;
ARM GAS  /tmp/cc2rDdvh.s 			page 13


 660:Middlewares/ST/STM32_USB_Device_Library/Core/Src/usbd_ctlreq.c ****           }
 661:Middlewares/ST/STM32_USB_Device_Library/Core/Src/usbd_ctlreq.c ****           USBD_CtlSendStatus(pdev);
 662:Middlewares/ST/STM32_USB_Device_Library/Core/Src/usbd_ctlreq.c ****         }
 663:Middlewares/ST/STM32_USB_Device_Library/Core/Src/usbd_ctlreq.c ****         else
 664:Middlewares/ST/STM32_USB_Device_Library/Core/Src/usbd_ctlreq.c ****         {
 665:Middlewares/ST/STM32_USB_Device_Library/Core/Src/usbd_ctlreq.c ****           USBD_CtlSendStatus(pdev);
 666:Middlewares/ST/STM32_USB_Device_Library/Core/Src/usbd_ctlreq.c ****         }
 667:Middlewares/ST/STM32_USB_Device_Library/Core/Src/usbd_ctlreq.c ****         break;
 668:Middlewares/ST/STM32_USB_Device_Library/Core/Src/usbd_ctlreq.c **** 
 669:Middlewares/ST/STM32_USB_Device_Library/Core/Src/usbd_ctlreq.c ****       case USBD_STATE_CONFIGURED:
 670:Middlewares/ST/STM32_USB_Device_Library/Core/Src/usbd_ctlreq.c ****         if (cfgidx == 0U)
 671:Middlewares/ST/STM32_USB_Device_Library/Core/Src/usbd_ctlreq.c ****         {
 672:Middlewares/ST/STM32_USB_Device_Library/Core/Src/usbd_ctlreq.c ****           pdev->dev_state = USBD_STATE_ADDRESSED;
 673:Middlewares/ST/STM32_USB_Device_Library/Core/Src/usbd_ctlreq.c ****           pdev->dev_config = cfgidx;
 674:Middlewares/ST/STM32_USB_Device_Library/Core/Src/usbd_ctlreq.c ****           USBD_ClrClassConfig(pdev, cfgidx);
 675:Middlewares/ST/STM32_USB_Device_Library/Core/Src/usbd_ctlreq.c ****           USBD_CtlSendStatus(pdev);
 676:Middlewares/ST/STM32_USB_Device_Library/Core/Src/usbd_ctlreq.c ****         }
 677:Middlewares/ST/STM32_USB_Device_Library/Core/Src/usbd_ctlreq.c ****         else if (cfgidx != pdev->dev_config)
 678:Middlewares/ST/STM32_USB_Device_Library/Core/Src/usbd_ctlreq.c ****         {
 679:Middlewares/ST/STM32_USB_Device_Library/Core/Src/usbd_ctlreq.c ****           /* Clear old configuration */
 680:Middlewares/ST/STM32_USB_Device_Library/Core/Src/usbd_ctlreq.c ****           USBD_ClrClassConfig(pdev, (uint8_t)pdev->dev_config);
 681:Middlewares/ST/STM32_USB_Device_Library/Core/Src/usbd_ctlreq.c **** 
 682:Middlewares/ST/STM32_USB_Device_Library/Core/Src/usbd_ctlreq.c ****           /* set new configuration */
 683:Middlewares/ST/STM32_USB_Device_Library/Core/Src/usbd_ctlreq.c ****           pdev->dev_config = cfgidx;
 684:Middlewares/ST/STM32_USB_Device_Library/Core/Src/usbd_ctlreq.c ****           if (USBD_SetClassConfig(pdev, cfgidx) == USBD_FAIL)
 685:Middlewares/ST/STM32_USB_Device_Library/Core/Src/usbd_ctlreq.c ****           {
 686:Middlewares/ST/STM32_USB_Device_Library/Core/Src/usbd_ctlreq.c ****             USBD_CtlError(pdev, req);
 687:Middlewares/ST/STM32_USB_Device_Library/Core/Src/usbd_ctlreq.c ****             return;
 688:Middlewares/ST/STM32_USB_Device_Library/Core/Src/usbd_ctlreq.c ****           }
 689:Middlewares/ST/STM32_USB_Device_Library/Core/Src/usbd_ctlreq.c ****           USBD_CtlSendStatus(pdev);
 690:Middlewares/ST/STM32_USB_Device_Library/Core/Src/usbd_ctlreq.c ****         }
 691:Middlewares/ST/STM32_USB_Device_Library/Core/Src/usbd_ctlreq.c ****         else
 692:Middlewares/ST/STM32_USB_Device_Library/Core/Src/usbd_ctlreq.c ****         {
 693:Middlewares/ST/STM32_USB_Device_Library/Core/Src/usbd_ctlreq.c ****           USBD_CtlSendStatus(pdev);
 694:Middlewares/ST/STM32_USB_Device_Library/Core/Src/usbd_ctlreq.c ****         }
 695:Middlewares/ST/STM32_USB_Device_Library/Core/Src/usbd_ctlreq.c ****         break;
 696:Middlewares/ST/STM32_USB_Device_Library/Core/Src/usbd_ctlreq.c **** 
 697:Middlewares/ST/STM32_USB_Device_Library/Core/Src/usbd_ctlreq.c ****       default:
 698:Middlewares/ST/STM32_USB_Device_Library/Core/Src/usbd_ctlreq.c ****         USBD_CtlError(pdev, req);
 699:Middlewares/ST/STM32_USB_Device_Library/Core/Src/usbd_ctlreq.c ****         USBD_ClrClassConfig(pdev, cfgidx);
 700:Middlewares/ST/STM32_USB_Device_Library/Core/Src/usbd_ctlreq.c ****         break;
 701:Middlewares/ST/STM32_USB_Device_Library/Core/Src/usbd_ctlreq.c ****     }
 702:Middlewares/ST/STM32_USB_Device_Library/Core/Src/usbd_ctlreq.c ****   }
 703:Middlewares/ST/STM32_USB_Device_Library/Core/Src/usbd_ctlreq.c **** }
 704:Middlewares/ST/STM32_USB_Device_Library/Core/Src/usbd_ctlreq.c **** 
 705:Middlewares/ST/STM32_USB_Device_Library/Core/Src/usbd_ctlreq.c **** /**
 706:Middlewares/ST/STM32_USB_Device_Library/Core/Src/usbd_ctlreq.c **** * @brief  USBD_GetConfig
 707:Middlewares/ST/STM32_USB_Device_Library/Core/Src/usbd_ctlreq.c **** *         Handle Get device configuration request
 708:Middlewares/ST/STM32_USB_Device_Library/Core/Src/usbd_ctlreq.c **** * @param  pdev: device instance
 709:Middlewares/ST/STM32_USB_Device_Library/Core/Src/usbd_ctlreq.c **** * @param  req: usb request
 710:Middlewares/ST/STM32_USB_Device_Library/Core/Src/usbd_ctlreq.c **** * @retval status
 711:Middlewares/ST/STM32_USB_Device_Library/Core/Src/usbd_ctlreq.c **** */
 712:Middlewares/ST/STM32_USB_Device_Library/Core/Src/usbd_ctlreq.c **** static void USBD_GetConfig(USBD_HandleTypeDef *pdev, USBD_SetupReqTypedef *req)
 713:Middlewares/ST/STM32_USB_Device_Library/Core/Src/usbd_ctlreq.c **** {
 714:Middlewares/ST/STM32_USB_Device_Library/Core/Src/usbd_ctlreq.c ****   if (req->wLength != 1U)
 715:Middlewares/ST/STM32_USB_Device_Library/Core/Src/usbd_ctlreq.c ****   {
 716:Middlewares/ST/STM32_USB_Device_Library/Core/Src/usbd_ctlreq.c ****     USBD_CtlError(pdev, req);
ARM GAS  /tmp/cc2rDdvh.s 			page 14


 717:Middlewares/ST/STM32_USB_Device_Library/Core/Src/usbd_ctlreq.c ****   }
 718:Middlewares/ST/STM32_USB_Device_Library/Core/Src/usbd_ctlreq.c ****   else
 719:Middlewares/ST/STM32_USB_Device_Library/Core/Src/usbd_ctlreq.c ****   {
 720:Middlewares/ST/STM32_USB_Device_Library/Core/Src/usbd_ctlreq.c ****     switch (pdev->dev_state)
 721:Middlewares/ST/STM32_USB_Device_Library/Core/Src/usbd_ctlreq.c ****     {
 722:Middlewares/ST/STM32_USB_Device_Library/Core/Src/usbd_ctlreq.c ****       case USBD_STATE_DEFAULT:
 723:Middlewares/ST/STM32_USB_Device_Library/Core/Src/usbd_ctlreq.c ****       case USBD_STATE_ADDRESSED:
 724:Middlewares/ST/STM32_USB_Device_Library/Core/Src/usbd_ctlreq.c ****         pdev->dev_default_config = 0U;
 725:Middlewares/ST/STM32_USB_Device_Library/Core/Src/usbd_ctlreq.c ****         USBD_CtlSendData(pdev, (uint8_t *)(void *)&pdev->dev_default_config, 1U);
 726:Middlewares/ST/STM32_USB_Device_Library/Core/Src/usbd_ctlreq.c ****         break;
 727:Middlewares/ST/STM32_USB_Device_Library/Core/Src/usbd_ctlreq.c **** 
 728:Middlewares/ST/STM32_USB_Device_Library/Core/Src/usbd_ctlreq.c ****       case USBD_STATE_CONFIGURED:
 729:Middlewares/ST/STM32_USB_Device_Library/Core/Src/usbd_ctlreq.c ****         USBD_CtlSendData(pdev, (uint8_t *)(void *)&pdev->dev_config, 1U);
 730:Middlewares/ST/STM32_USB_Device_Library/Core/Src/usbd_ctlreq.c ****         break;
 731:Middlewares/ST/STM32_USB_Device_Library/Core/Src/usbd_ctlreq.c **** 
 732:Middlewares/ST/STM32_USB_Device_Library/Core/Src/usbd_ctlreq.c ****       default:
 733:Middlewares/ST/STM32_USB_Device_Library/Core/Src/usbd_ctlreq.c ****         USBD_CtlError(pdev, req);
 734:Middlewares/ST/STM32_USB_Device_Library/Core/Src/usbd_ctlreq.c ****         break;
 735:Middlewares/ST/STM32_USB_Device_Library/Core/Src/usbd_ctlreq.c ****     }
 736:Middlewares/ST/STM32_USB_Device_Library/Core/Src/usbd_ctlreq.c ****   }
 737:Middlewares/ST/STM32_USB_Device_Library/Core/Src/usbd_ctlreq.c **** }
 738:Middlewares/ST/STM32_USB_Device_Library/Core/Src/usbd_ctlreq.c **** 
 739:Middlewares/ST/STM32_USB_Device_Library/Core/Src/usbd_ctlreq.c **** /**
 740:Middlewares/ST/STM32_USB_Device_Library/Core/Src/usbd_ctlreq.c **** * @brief  USBD_GetStatus
 741:Middlewares/ST/STM32_USB_Device_Library/Core/Src/usbd_ctlreq.c **** *         Handle Get Status request
 742:Middlewares/ST/STM32_USB_Device_Library/Core/Src/usbd_ctlreq.c **** * @param  pdev: device instance
 743:Middlewares/ST/STM32_USB_Device_Library/Core/Src/usbd_ctlreq.c **** * @param  req: usb request
 744:Middlewares/ST/STM32_USB_Device_Library/Core/Src/usbd_ctlreq.c **** * @retval status
 745:Middlewares/ST/STM32_USB_Device_Library/Core/Src/usbd_ctlreq.c **** */
 746:Middlewares/ST/STM32_USB_Device_Library/Core/Src/usbd_ctlreq.c **** static void USBD_GetStatus(USBD_HandleTypeDef *pdev, USBD_SetupReqTypedef *req)
 747:Middlewares/ST/STM32_USB_Device_Library/Core/Src/usbd_ctlreq.c **** {
 748:Middlewares/ST/STM32_USB_Device_Library/Core/Src/usbd_ctlreq.c ****   switch (pdev->dev_state)
 749:Middlewares/ST/STM32_USB_Device_Library/Core/Src/usbd_ctlreq.c ****   {
 750:Middlewares/ST/STM32_USB_Device_Library/Core/Src/usbd_ctlreq.c ****     case USBD_STATE_DEFAULT:
 751:Middlewares/ST/STM32_USB_Device_Library/Core/Src/usbd_ctlreq.c ****     case USBD_STATE_ADDRESSED:
 752:Middlewares/ST/STM32_USB_Device_Library/Core/Src/usbd_ctlreq.c ****     case USBD_STATE_CONFIGURED:
 753:Middlewares/ST/STM32_USB_Device_Library/Core/Src/usbd_ctlreq.c ****       if (req->wLength != 0x2U)
 754:Middlewares/ST/STM32_USB_Device_Library/Core/Src/usbd_ctlreq.c ****       {
 755:Middlewares/ST/STM32_USB_Device_Library/Core/Src/usbd_ctlreq.c ****         USBD_CtlError(pdev, req);
 756:Middlewares/ST/STM32_USB_Device_Library/Core/Src/usbd_ctlreq.c ****         break;
 757:Middlewares/ST/STM32_USB_Device_Library/Core/Src/usbd_ctlreq.c ****       }
 758:Middlewares/ST/STM32_USB_Device_Library/Core/Src/usbd_ctlreq.c **** 
 759:Middlewares/ST/STM32_USB_Device_Library/Core/Src/usbd_ctlreq.c **** #if (USBD_SELF_POWERED == 1U)
 760:Middlewares/ST/STM32_USB_Device_Library/Core/Src/usbd_ctlreq.c ****       pdev->dev_config_status = USB_CONFIG_SELF_POWERED;
 761:Middlewares/ST/STM32_USB_Device_Library/Core/Src/usbd_ctlreq.c **** #else
 762:Middlewares/ST/STM32_USB_Device_Library/Core/Src/usbd_ctlreq.c ****       pdev->dev_config_status = 0U;
 763:Middlewares/ST/STM32_USB_Device_Library/Core/Src/usbd_ctlreq.c **** #endif
 764:Middlewares/ST/STM32_USB_Device_Library/Core/Src/usbd_ctlreq.c **** 
 765:Middlewares/ST/STM32_USB_Device_Library/Core/Src/usbd_ctlreq.c ****       if (pdev->dev_remote_wakeup)
 766:Middlewares/ST/STM32_USB_Device_Library/Core/Src/usbd_ctlreq.c ****       {
 767:Middlewares/ST/STM32_USB_Device_Library/Core/Src/usbd_ctlreq.c ****         pdev->dev_config_status |= USB_CONFIG_REMOTE_WAKEUP;
 768:Middlewares/ST/STM32_USB_Device_Library/Core/Src/usbd_ctlreq.c ****       }
 769:Middlewares/ST/STM32_USB_Device_Library/Core/Src/usbd_ctlreq.c **** 
 770:Middlewares/ST/STM32_USB_Device_Library/Core/Src/usbd_ctlreq.c ****       USBD_CtlSendData(pdev, (uint8_t *)(void *)&pdev->dev_config_status, 2U);
 771:Middlewares/ST/STM32_USB_Device_Library/Core/Src/usbd_ctlreq.c ****       break;
 772:Middlewares/ST/STM32_USB_Device_Library/Core/Src/usbd_ctlreq.c **** 
 773:Middlewares/ST/STM32_USB_Device_Library/Core/Src/usbd_ctlreq.c ****     default:
ARM GAS  /tmp/cc2rDdvh.s 			page 15


 774:Middlewares/ST/STM32_USB_Device_Library/Core/Src/usbd_ctlreq.c ****       USBD_CtlError(pdev, req);
 775:Middlewares/ST/STM32_USB_Device_Library/Core/Src/usbd_ctlreq.c ****       break;
 776:Middlewares/ST/STM32_USB_Device_Library/Core/Src/usbd_ctlreq.c ****   }
 777:Middlewares/ST/STM32_USB_Device_Library/Core/Src/usbd_ctlreq.c **** }
 778:Middlewares/ST/STM32_USB_Device_Library/Core/Src/usbd_ctlreq.c **** 
 779:Middlewares/ST/STM32_USB_Device_Library/Core/Src/usbd_ctlreq.c **** 
 780:Middlewares/ST/STM32_USB_Device_Library/Core/Src/usbd_ctlreq.c **** /**
 781:Middlewares/ST/STM32_USB_Device_Library/Core/Src/usbd_ctlreq.c **** * @brief  USBD_SetFeature
 782:Middlewares/ST/STM32_USB_Device_Library/Core/Src/usbd_ctlreq.c **** *         Handle Set device feature request
 783:Middlewares/ST/STM32_USB_Device_Library/Core/Src/usbd_ctlreq.c **** * @param  pdev: device instance
 784:Middlewares/ST/STM32_USB_Device_Library/Core/Src/usbd_ctlreq.c **** * @param  req: usb request
 785:Middlewares/ST/STM32_USB_Device_Library/Core/Src/usbd_ctlreq.c **** * @retval status
 786:Middlewares/ST/STM32_USB_Device_Library/Core/Src/usbd_ctlreq.c **** */
 787:Middlewares/ST/STM32_USB_Device_Library/Core/Src/usbd_ctlreq.c **** static void USBD_SetFeature(USBD_HandleTypeDef *pdev,
 788:Middlewares/ST/STM32_USB_Device_Library/Core/Src/usbd_ctlreq.c ****                             USBD_SetupReqTypedef *req)
 789:Middlewares/ST/STM32_USB_Device_Library/Core/Src/usbd_ctlreq.c **** {
 790:Middlewares/ST/STM32_USB_Device_Library/Core/Src/usbd_ctlreq.c ****   if (req->wValue == USB_FEATURE_REMOTE_WAKEUP)
 791:Middlewares/ST/STM32_USB_Device_Library/Core/Src/usbd_ctlreq.c ****   {
 792:Middlewares/ST/STM32_USB_Device_Library/Core/Src/usbd_ctlreq.c ****     pdev->dev_remote_wakeup = 1U;
 793:Middlewares/ST/STM32_USB_Device_Library/Core/Src/usbd_ctlreq.c ****     USBD_CtlSendStatus(pdev);
 794:Middlewares/ST/STM32_USB_Device_Library/Core/Src/usbd_ctlreq.c ****   }
 795:Middlewares/ST/STM32_USB_Device_Library/Core/Src/usbd_ctlreq.c **** }
 796:Middlewares/ST/STM32_USB_Device_Library/Core/Src/usbd_ctlreq.c **** 
 797:Middlewares/ST/STM32_USB_Device_Library/Core/Src/usbd_ctlreq.c **** 
 798:Middlewares/ST/STM32_USB_Device_Library/Core/Src/usbd_ctlreq.c **** /**
 799:Middlewares/ST/STM32_USB_Device_Library/Core/Src/usbd_ctlreq.c **** * @brief  USBD_ClrFeature
 800:Middlewares/ST/STM32_USB_Device_Library/Core/Src/usbd_ctlreq.c **** *         Handle clear device feature request
 801:Middlewares/ST/STM32_USB_Device_Library/Core/Src/usbd_ctlreq.c **** * @param  pdev: device instance
 802:Middlewares/ST/STM32_USB_Device_Library/Core/Src/usbd_ctlreq.c **** * @param  req: usb request
 803:Middlewares/ST/STM32_USB_Device_Library/Core/Src/usbd_ctlreq.c **** * @retval status
 804:Middlewares/ST/STM32_USB_Device_Library/Core/Src/usbd_ctlreq.c **** */
 805:Middlewares/ST/STM32_USB_Device_Library/Core/Src/usbd_ctlreq.c **** static void USBD_ClrFeature(USBD_HandleTypeDef *pdev,
 806:Middlewares/ST/STM32_USB_Device_Library/Core/Src/usbd_ctlreq.c ****                             USBD_SetupReqTypedef *req)
 807:Middlewares/ST/STM32_USB_Device_Library/Core/Src/usbd_ctlreq.c **** {
 808:Middlewares/ST/STM32_USB_Device_Library/Core/Src/usbd_ctlreq.c ****   switch (pdev->dev_state)
 809:Middlewares/ST/STM32_USB_Device_Library/Core/Src/usbd_ctlreq.c ****   {
 810:Middlewares/ST/STM32_USB_Device_Library/Core/Src/usbd_ctlreq.c ****     case USBD_STATE_DEFAULT:
 811:Middlewares/ST/STM32_USB_Device_Library/Core/Src/usbd_ctlreq.c ****     case USBD_STATE_ADDRESSED:
 812:Middlewares/ST/STM32_USB_Device_Library/Core/Src/usbd_ctlreq.c ****     case USBD_STATE_CONFIGURED:
 813:Middlewares/ST/STM32_USB_Device_Library/Core/Src/usbd_ctlreq.c ****       if (req->wValue == USB_FEATURE_REMOTE_WAKEUP)
 814:Middlewares/ST/STM32_USB_Device_Library/Core/Src/usbd_ctlreq.c ****       {
 815:Middlewares/ST/STM32_USB_Device_Library/Core/Src/usbd_ctlreq.c ****         pdev->dev_remote_wakeup = 0U;
 816:Middlewares/ST/STM32_USB_Device_Library/Core/Src/usbd_ctlreq.c ****         USBD_CtlSendStatus(pdev);
 817:Middlewares/ST/STM32_USB_Device_Library/Core/Src/usbd_ctlreq.c ****       }
 818:Middlewares/ST/STM32_USB_Device_Library/Core/Src/usbd_ctlreq.c ****       break;
 819:Middlewares/ST/STM32_USB_Device_Library/Core/Src/usbd_ctlreq.c **** 
 820:Middlewares/ST/STM32_USB_Device_Library/Core/Src/usbd_ctlreq.c ****     default:
 821:Middlewares/ST/STM32_USB_Device_Library/Core/Src/usbd_ctlreq.c ****       USBD_CtlError(pdev, req);
 822:Middlewares/ST/STM32_USB_Device_Library/Core/Src/usbd_ctlreq.c ****       break;
 823:Middlewares/ST/STM32_USB_Device_Library/Core/Src/usbd_ctlreq.c ****   }
 824:Middlewares/ST/STM32_USB_Device_Library/Core/Src/usbd_ctlreq.c **** }
 825:Middlewares/ST/STM32_USB_Device_Library/Core/Src/usbd_ctlreq.c **** 
 826:Middlewares/ST/STM32_USB_Device_Library/Core/Src/usbd_ctlreq.c **** /**
 827:Middlewares/ST/STM32_USB_Device_Library/Core/Src/usbd_ctlreq.c **** * @brief  USBD_ParseSetupRequest
 828:Middlewares/ST/STM32_USB_Device_Library/Core/Src/usbd_ctlreq.c **** *         Copy buffer into setup structure
 829:Middlewares/ST/STM32_USB_Device_Library/Core/Src/usbd_ctlreq.c **** * @param  pdev: device instance
 830:Middlewares/ST/STM32_USB_Device_Library/Core/Src/usbd_ctlreq.c **** * @param  req: usb request
ARM GAS  /tmp/cc2rDdvh.s 			page 16


 831:Middlewares/ST/STM32_USB_Device_Library/Core/Src/usbd_ctlreq.c **** * @retval None
 832:Middlewares/ST/STM32_USB_Device_Library/Core/Src/usbd_ctlreq.c **** */
 833:Middlewares/ST/STM32_USB_Device_Library/Core/Src/usbd_ctlreq.c **** 
 834:Middlewares/ST/STM32_USB_Device_Library/Core/Src/usbd_ctlreq.c **** void USBD_ParseSetupRequest(USBD_SetupReqTypedef *req, uint8_t *pdata)
 835:Middlewares/ST/STM32_USB_Device_Library/Core/Src/usbd_ctlreq.c **** {
 836:Middlewares/ST/STM32_USB_Device_Library/Core/Src/usbd_ctlreq.c ****   req->bmRequest = *(uint8_t *)(pdata);
 837:Middlewares/ST/STM32_USB_Device_Library/Core/Src/usbd_ctlreq.c ****   req->bRequest = *(uint8_t *)(pdata + 1U);
 838:Middlewares/ST/STM32_USB_Device_Library/Core/Src/usbd_ctlreq.c ****   req->wValue = SWAPBYTE(pdata + 2U);
 839:Middlewares/ST/STM32_USB_Device_Library/Core/Src/usbd_ctlreq.c ****   req->wIndex = SWAPBYTE(pdata + 4U);
 840:Middlewares/ST/STM32_USB_Device_Library/Core/Src/usbd_ctlreq.c ****   req->wLength = SWAPBYTE(pdata + 6U);
 841:Middlewares/ST/STM32_USB_Device_Library/Core/Src/usbd_ctlreq.c **** 
 842:Middlewares/ST/STM32_USB_Device_Library/Core/Src/usbd_ctlreq.c **** }
 843:Middlewares/ST/STM32_USB_Device_Library/Core/Src/usbd_ctlreq.c **** 
 844:Middlewares/ST/STM32_USB_Device_Library/Core/Src/usbd_ctlreq.c **** /**
 845:Middlewares/ST/STM32_USB_Device_Library/Core/Src/usbd_ctlreq.c **** * @brief  USBD_CtlError
 846:Middlewares/ST/STM32_USB_Device_Library/Core/Src/usbd_ctlreq.c **** *         Handle USB low level Error
 847:Middlewares/ST/STM32_USB_Device_Library/Core/Src/usbd_ctlreq.c **** * @param  pdev: device instance
 848:Middlewares/ST/STM32_USB_Device_Library/Core/Src/usbd_ctlreq.c **** * @param  req: usb request
 849:Middlewares/ST/STM32_USB_Device_Library/Core/Src/usbd_ctlreq.c **** * @retval None
 850:Middlewares/ST/STM32_USB_Device_Library/Core/Src/usbd_ctlreq.c **** */
 851:Middlewares/ST/STM32_USB_Device_Library/Core/Src/usbd_ctlreq.c **** 
 852:Middlewares/ST/STM32_USB_Device_Library/Core/Src/usbd_ctlreq.c **** void USBD_CtlError(USBD_HandleTypeDef *pdev,
 853:Middlewares/ST/STM32_USB_Device_Library/Core/Src/usbd_ctlreq.c ****                    USBD_SetupReqTypedef *req)
 854:Middlewares/ST/STM32_USB_Device_Library/Core/Src/usbd_ctlreq.c **** {
 855:Middlewares/ST/STM32_USB_Device_Library/Core/Src/usbd_ctlreq.c ****   USBD_LL_StallEP(pdev, 0x80U);
 856:Middlewares/ST/STM32_USB_Device_Library/Core/Src/usbd_ctlreq.c ****   USBD_LL_StallEP(pdev, 0U);
 857:Middlewares/ST/STM32_USB_Device_Library/Core/Src/usbd_ctlreq.c **** }
 858:Middlewares/ST/STM32_USB_Device_Library/Core/Src/usbd_ctlreq.c **** 
 859:Middlewares/ST/STM32_USB_Device_Library/Core/Src/usbd_ctlreq.c **** 
 860:Middlewares/ST/STM32_USB_Device_Library/Core/Src/usbd_ctlreq.c **** /**
 861:Middlewares/ST/STM32_USB_Device_Library/Core/Src/usbd_ctlreq.c ****   * @brief  USBD_GetString
 862:Middlewares/ST/STM32_USB_Device_Library/Core/Src/usbd_ctlreq.c ****   *         Convert Ascii string into unicode one
 863:Middlewares/ST/STM32_USB_Device_Library/Core/Src/usbd_ctlreq.c ****   * @param  desc : descriptor buffer
 864:Middlewares/ST/STM32_USB_Device_Library/Core/Src/usbd_ctlreq.c ****   * @param  unicode : Formatted string buffer (unicode)
 865:Middlewares/ST/STM32_USB_Device_Library/Core/Src/usbd_ctlreq.c ****   * @param  len : descriptor length
 866:Middlewares/ST/STM32_USB_Device_Library/Core/Src/usbd_ctlreq.c ****   * @retval None
 867:Middlewares/ST/STM32_USB_Device_Library/Core/Src/usbd_ctlreq.c ****   */
 868:Middlewares/ST/STM32_USB_Device_Library/Core/Src/usbd_ctlreq.c **** void USBD_GetString(uint8_t *desc, uint8_t *unicode, uint16_t *len)
 869:Middlewares/ST/STM32_USB_Device_Library/Core/Src/usbd_ctlreq.c **** {
 870:Middlewares/ST/STM32_USB_Device_Library/Core/Src/usbd_ctlreq.c ****   uint8_t idx = 0U;
 871:Middlewares/ST/STM32_USB_Device_Library/Core/Src/usbd_ctlreq.c **** 
 872:Middlewares/ST/STM32_USB_Device_Library/Core/Src/usbd_ctlreq.c ****   if (desc != NULL)
 873:Middlewares/ST/STM32_USB_Device_Library/Core/Src/usbd_ctlreq.c ****   {
 874:Middlewares/ST/STM32_USB_Device_Library/Core/Src/usbd_ctlreq.c ****     *len = (uint16_t)USBD_GetLen(desc) * 2U + 2U;
 875:Middlewares/ST/STM32_USB_Device_Library/Core/Src/usbd_ctlreq.c ****     unicode[idx++] = *(uint8_t *)(void *)len;
 876:Middlewares/ST/STM32_USB_Device_Library/Core/Src/usbd_ctlreq.c ****     unicode[idx++] = USB_DESC_TYPE_STRING;
 877:Middlewares/ST/STM32_USB_Device_Library/Core/Src/usbd_ctlreq.c **** 
 878:Middlewares/ST/STM32_USB_Device_Library/Core/Src/usbd_ctlreq.c ****     while (*desc != '\0')
 879:Middlewares/ST/STM32_USB_Device_Library/Core/Src/usbd_ctlreq.c ****     {
 880:Middlewares/ST/STM32_USB_Device_Library/Core/Src/usbd_ctlreq.c ****       unicode[idx++] = *desc++;
 881:Middlewares/ST/STM32_USB_Device_Library/Core/Src/usbd_ctlreq.c ****       unicode[idx++] =  0U;
 882:Middlewares/ST/STM32_USB_Device_Library/Core/Src/usbd_ctlreq.c ****     }
 883:Middlewares/ST/STM32_USB_Device_Library/Core/Src/usbd_ctlreq.c ****   }
 884:Middlewares/ST/STM32_USB_Device_Library/Core/Src/usbd_ctlreq.c **** }
 885:Middlewares/ST/STM32_USB_Device_Library/Core/Src/usbd_ctlreq.c **** 
 886:Middlewares/ST/STM32_USB_Device_Library/Core/Src/usbd_ctlreq.c **** /**
 887:Middlewares/ST/STM32_USB_Device_Library/Core/Src/usbd_ctlreq.c ****   * @brief  USBD_GetLen
ARM GAS  /tmp/cc2rDdvh.s 			page 17


 888:Middlewares/ST/STM32_USB_Device_Library/Core/Src/usbd_ctlreq.c ****   *         return the string length
 889:Middlewares/ST/STM32_USB_Device_Library/Core/Src/usbd_ctlreq.c ****    * @param  buf : pointer to the ascii string buffer
 890:Middlewares/ST/STM32_USB_Device_Library/Core/Src/usbd_ctlreq.c ****   * @retval string length
 891:Middlewares/ST/STM32_USB_Device_Library/Core/Src/usbd_ctlreq.c ****   */
 892:Middlewares/ST/STM32_USB_Device_Library/Core/Src/usbd_ctlreq.c **** static uint8_t USBD_GetLen(uint8_t *buf)
 893:Middlewares/ST/STM32_USB_Device_Library/Core/Src/usbd_ctlreq.c **** {
  27              		.loc 1 893 1 view -0
  28              		.cfi_startproc
  29              		@ args = 0, pretend = 0, frame = 0
  30              		@ frame_needed = 0, uses_anonymous_args = 0
  31              		@ link register save eliminated.
  32              		.loc 1 893 1 is_stmt 0 view .LVU1
  33 0000 0300     		movs	r3, r0
 894:Middlewares/ST/STM32_USB_Device_Library/Core/Src/usbd_ctlreq.c ****   uint8_t  len = 0U;
  34              		.loc 1 894 3 is_stmt 1 view .LVU2
  35              	.LVL1:
 895:Middlewares/ST/STM32_USB_Device_Library/Core/Src/usbd_ctlreq.c **** 
 896:Middlewares/ST/STM32_USB_Device_Library/Core/Src/usbd_ctlreq.c ****   while (*buf != '\0')
  36              		.loc 1 896 3 view .LVU3
 894:Middlewares/ST/STM32_USB_Device_Library/Core/Src/usbd_ctlreq.c ****   uint8_t  len = 0U;
  37              		.loc 1 894 12 is_stmt 0 view .LVU4
  38 0002 0020     		movs	r0, #0
  39              	.LVL2:
  40              	.L2:
  41              		.loc 1 896 9 is_stmt 1 view .LVU5
  42              		.loc 1 896 10 is_stmt 0 view .LVU6
  43 0004 1A78     		ldrb	r2, [r3]
  44              		.loc 1 896 9 view .LVU7
  45 0006 002A     		cmp	r2, #0
  46 0008 03D0     		beq	.L4
 897:Middlewares/ST/STM32_USB_Device_Library/Core/Src/usbd_ctlreq.c ****   {
 898:Middlewares/ST/STM32_USB_Device_Library/Core/Src/usbd_ctlreq.c ****     len++;
  47              		.loc 1 898 5 is_stmt 1 view .LVU8
  48              		.loc 1 898 8 is_stmt 0 view .LVU9
  49 000a 0130     		adds	r0, r0, #1
  50              	.LVL3:
  51              		.loc 1 898 8 view .LVU10
  52 000c C0B2     		uxtb	r0, r0
  53              	.LVL4:
 899:Middlewares/ST/STM32_USB_Device_Library/Core/Src/usbd_ctlreq.c ****     buf++;
  54              		.loc 1 899 5 is_stmt 1 view .LVU11
  55              		.loc 1 899 8 is_stmt 0 view .LVU12
  56 000e 0133     		adds	r3, r3, #1
  57              	.LVL5:
  58              		.loc 1 899 8 view .LVU13
  59 0010 F8E7     		b	.L2
  60              	.L4:
 900:Middlewares/ST/STM32_USB_Device_Library/Core/Src/usbd_ctlreq.c ****   }
 901:Middlewares/ST/STM32_USB_Device_Library/Core/Src/usbd_ctlreq.c **** 
 902:Middlewares/ST/STM32_USB_Device_Library/Core/Src/usbd_ctlreq.c ****   return len;
 903:Middlewares/ST/STM32_USB_Device_Library/Core/Src/usbd_ctlreq.c **** }
  61              		.loc 1 903 1 view .LVU14
  62              		@ sp needed
  63 0012 7047     		bx	lr
  64              		.cfi_endproc
  65              	.LFE56:
  67              		.section	.text.USBD_SetFeature,"ax",%progbits
ARM GAS  /tmp/cc2rDdvh.s 			page 18


  68              		.align	1
  69              		.syntax unified
  70              		.code	16
  71              		.thumb_func
  72              		.fpu softvfp
  74              	USBD_SetFeature:
  75              	.LVL6:
  76              	.LFB51:
 789:Middlewares/ST/STM32_USB_Device_Library/Core/Src/usbd_ctlreq.c ****   if (req->wValue == USB_FEATURE_REMOTE_WAKEUP)
  77              		.loc 1 789 1 is_stmt 1 view -0
  78              		.cfi_startproc
  79              		@ args = 0, pretend = 0, frame = 0
  80              		@ frame_needed = 0, uses_anonymous_args = 0
 789:Middlewares/ST/STM32_USB_Device_Library/Core/Src/usbd_ctlreq.c ****   if (req->wValue == USB_FEATURE_REMOTE_WAKEUP)
  81              		.loc 1 789 1 is_stmt 0 view .LVU16
  82 0000 10B5     		push	{r4, lr}
  83              	.LCFI0:
  84              		.cfi_def_cfa_offset 8
  85              		.cfi_offset 4, -8
  86              		.cfi_offset 14, -4
 790:Middlewares/ST/STM32_USB_Device_Library/Core/Src/usbd_ctlreq.c ****   {
  87              		.loc 1 790 3 is_stmt 1 view .LVU17
 790:Middlewares/ST/STM32_USB_Device_Library/Core/Src/usbd_ctlreq.c ****   {
  88              		.loc 1 790 10 is_stmt 0 view .LVU18
  89 0002 4B88     		ldrh	r3, [r1, #2]
 790:Middlewares/ST/STM32_USB_Device_Library/Core/Src/usbd_ctlreq.c ****   {
  90              		.loc 1 790 6 view .LVU19
  91 0004 012B     		cmp	r3, #1
  92 0006 00D0     		beq	.L7
  93              	.LVL7:
  94              	.L5:
 795:Middlewares/ST/STM32_USB_Device_Library/Core/Src/usbd_ctlreq.c **** 
  95              		.loc 1 795 1 view .LVU20
  96              		@ sp needed
  97 0008 10BD     		pop	{r4, pc}
  98              	.LVL8:
  99              	.L7:
 792:Middlewares/ST/STM32_USB_Device_Library/Core/Src/usbd_ctlreq.c ****     USBD_CtlSendStatus(pdev);
 100              		.loc 1 792 5 is_stmt 1 view .LVU21
 792:Middlewares/ST/STM32_USB_Device_Library/Core/Src/usbd_ctlreq.c ****     USBD_CtlSendStatus(pdev);
 101              		.loc 1 792 29 is_stmt 0 view .LVU22
 102 000a A923     		movs	r3, #169
 103 000c 9B00     		lsls	r3, r3, #2
 104 000e 0122     		movs	r2, #1
 105 0010 C250     		str	r2, [r0, r3]
 793:Middlewares/ST/STM32_USB_Device_Library/Core/Src/usbd_ctlreq.c ****   }
 106              		.loc 1 793 5 is_stmt 1 view .LVU23
 107 0012 FFF7FEFF 		bl	USBD_CtlSendStatus
 108              	.LVL9:
 795:Middlewares/ST/STM32_USB_Device_Library/Core/Src/usbd_ctlreq.c **** 
 109              		.loc 1 795 1 is_stmt 0 view .LVU24
 110 0016 F7E7     		b	.L5
 111              		.cfi_endproc
 112              	.LFE51:
 114              		.section	.text.USBD_ParseSetupRequest,"ax",%progbits
 115              		.align	1
 116              		.global	USBD_ParseSetupRequest
ARM GAS  /tmp/cc2rDdvh.s 			page 19


 117              		.syntax unified
 118              		.code	16
 119              		.thumb_func
 120              		.fpu softvfp
 122              	USBD_ParseSetupRequest:
 123              	.LVL10:
 124              	.LFB53:
 835:Middlewares/ST/STM32_USB_Device_Library/Core/Src/usbd_ctlreq.c ****   req->bmRequest = *(uint8_t *)(pdata);
 125              		.loc 1 835 1 is_stmt 1 view -0
 126              		.cfi_startproc
 127              		@ args = 0, pretend = 0, frame = 0
 128              		@ frame_needed = 0, uses_anonymous_args = 0
 129              		@ link register save eliminated.
 836:Middlewares/ST/STM32_USB_Device_Library/Core/Src/usbd_ctlreq.c ****   req->bRequest = *(uint8_t *)(pdata + 1U);
 130              		.loc 1 836 3 view .LVU26
 836:Middlewares/ST/STM32_USB_Device_Library/Core/Src/usbd_ctlreq.c ****   req->bRequest = *(uint8_t *)(pdata + 1U);
 131              		.loc 1 836 20 is_stmt 0 view .LVU27
 132 0000 0B78     		ldrb	r3, [r1]
 836:Middlewares/ST/STM32_USB_Device_Library/Core/Src/usbd_ctlreq.c ****   req->bRequest = *(uint8_t *)(pdata + 1U);
 133              		.loc 1 836 18 view .LVU28
 134 0002 0370     		strb	r3, [r0]
 837:Middlewares/ST/STM32_USB_Device_Library/Core/Src/usbd_ctlreq.c ****   req->wValue = SWAPBYTE(pdata + 2U);
 135              		.loc 1 837 3 is_stmt 1 view .LVU29
 837:Middlewares/ST/STM32_USB_Device_Library/Core/Src/usbd_ctlreq.c ****   req->wValue = SWAPBYTE(pdata + 2U);
 136              		.loc 1 837 17 is_stmt 0 view .LVU30
 137 0004 4B78     		ldrb	r3, [r1, #1]
 138 0006 4370     		strb	r3, [r0, #1]
 838:Middlewares/ST/STM32_USB_Device_Library/Core/Src/usbd_ctlreq.c ****   req->wIndex = SWAPBYTE(pdata + 4U);
 139              		.loc 1 838 3 is_stmt 1 view .LVU31
 838:Middlewares/ST/STM32_USB_Device_Library/Core/Src/usbd_ctlreq.c ****   req->wIndex = SWAPBYTE(pdata + 4U);
 140              		.loc 1 838 17 is_stmt 0 view .LVU32
 141 0008 8B78     		ldrb	r3, [r1, #2]
 142 000a CA78     		ldrb	r2, [r1, #3]
 143 000c 1202     		lsls	r2, r2, #8
 144 000e 9B18     		adds	r3, r3, r2
 838:Middlewares/ST/STM32_USB_Device_Library/Core/Src/usbd_ctlreq.c ****   req->wIndex = SWAPBYTE(pdata + 4U);
 145              		.loc 1 838 15 view .LVU33
 146 0010 4380     		strh	r3, [r0, #2]
 839:Middlewares/ST/STM32_USB_Device_Library/Core/Src/usbd_ctlreq.c ****   req->wLength = SWAPBYTE(pdata + 6U);
 147              		.loc 1 839 3 is_stmt 1 view .LVU34
 839:Middlewares/ST/STM32_USB_Device_Library/Core/Src/usbd_ctlreq.c ****   req->wLength = SWAPBYTE(pdata + 6U);
 148              		.loc 1 839 17 is_stmt 0 view .LVU35
 149 0012 0B79     		ldrb	r3, [r1, #4]
 150 0014 4A79     		ldrb	r2, [r1, #5]
 151 0016 1202     		lsls	r2, r2, #8
 152 0018 9B18     		adds	r3, r3, r2
 839:Middlewares/ST/STM32_USB_Device_Library/Core/Src/usbd_ctlreq.c ****   req->wLength = SWAPBYTE(pdata + 6U);
 153              		.loc 1 839 15 view .LVU36
 154 001a 8380     		strh	r3, [r0, #4]
 840:Middlewares/ST/STM32_USB_Device_Library/Core/Src/usbd_ctlreq.c **** 
 155              		.loc 1 840 3 is_stmt 1 view .LVU37
 840:Middlewares/ST/STM32_USB_Device_Library/Core/Src/usbd_ctlreq.c **** 
 156              		.loc 1 840 18 is_stmt 0 view .LVU38
 157 001c 8B79     		ldrb	r3, [r1, #6]
 158 001e CA79     		ldrb	r2, [r1, #7]
 159 0020 1202     		lsls	r2, r2, #8
 160 0022 9B18     		adds	r3, r3, r2
ARM GAS  /tmp/cc2rDdvh.s 			page 20


 840:Middlewares/ST/STM32_USB_Device_Library/Core/Src/usbd_ctlreq.c **** 
 161              		.loc 1 840 16 view .LVU39
 162 0024 C380     		strh	r3, [r0, #6]
 842:Middlewares/ST/STM32_USB_Device_Library/Core/Src/usbd_ctlreq.c **** 
 163              		.loc 1 842 1 view .LVU40
 164              		@ sp needed
 165 0026 7047     		bx	lr
 166              		.cfi_endproc
 167              	.LFE53:
 169              		.section	.text.USBD_CtlError,"ax",%progbits
 170              		.align	1
 171              		.global	USBD_CtlError
 172              		.syntax unified
 173              		.code	16
 174              		.thumb_func
 175              		.fpu softvfp
 177              	USBD_CtlError:
 178              	.LVL11:
 179              	.LFB54:
 854:Middlewares/ST/STM32_USB_Device_Library/Core/Src/usbd_ctlreq.c ****   USBD_LL_StallEP(pdev, 0x80U);
 180              		.loc 1 854 1 is_stmt 1 view -0
 181              		.cfi_startproc
 182              		@ args = 0, pretend = 0, frame = 0
 183              		@ frame_needed = 0, uses_anonymous_args = 0
 854:Middlewares/ST/STM32_USB_Device_Library/Core/Src/usbd_ctlreq.c ****   USBD_LL_StallEP(pdev, 0x80U);
 184              		.loc 1 854 1 is_stmt 0 view .LVU42
 185 0000 10B5     		push	{r4, lr}
 186              	.LCFI1:
 187              		.cfi_def_cfa_offset 8
 188              		.cfi_offset 4, -8
 189              		.cfi_offset 14, -4
 190 0002 0400     		movs	r4, r0
 855:Middlewares/ST/STM32_USB_Device_Library/Core/Src/usbd_ctlreq.c ****   USBD_LL_StallEP(pdev, 0U);
 191              		.loc 1 855 3 is_stmt 1 view .LVU43
 192 0004 8021     		movs	r1, #128
 193              	.LVL12:
 855:Middlewares/ST/STM32_USB_Device_Library/Core/Src/usbd_ctlreq.c ****   USBD_LL_StallEP(pdev, 0U);
 194              		.loc 1 855 3 is_stmt 0 view .LVU44
 195 0006 FFF7FEFF 		bl	USBD_LL_StallEP
 196              	.LVL13:
 856:Middlewares/ST/STM32_USB_Device_Library/Core/Src/usbd_ctlreq.c **** }
 197              		.loc 1 856 3 is_stmt 1 view .LVU45
 198 000a 0021     		movs	r1, #0
 199 000c 2000     		movs	r0, r4
 200 000e FFF7FEFF 		bl	USBD_LL_StallEP
 201              	.LVL14:
 857:Middlewares/ST/STM32_USB_Device_Library/Core/Src/usbd_ctlreq.c **** 
 202              		.loc 1 857 1 is_stmt 0 view .LVU46
 203              		@ sp needed
 204              	.LVL15:
 857:Middlewares/ST/STM32_USB_Device_Library/Core/Src/usbd_ctlreq.c **** 
 205              		.loc 1 857 1 view .LVU47
 206 0012 10BD     		pop	{r4, pc}
 207              		.cfi_endproc
 208              	.LFE54:
 210              		.section	.text.USBD_GetDescriptor,"ax",%progbits
 211              		.align	1
ARM GAS  /tmp/cc2rDdvh.s 			page 21


 212              		.syntax unified
 213              		.code	16
 214              		.thumb_func
 215              		.fpu softvfp
 217              	USBD_GetDescriptor:
 218              	.LVL16:
 219              	.LFB46:
 407:Middlewares/ST/STM32_USB_Device_Library/Core/Src/usbd_ctlreq.c ****   uint16_t len = 0U;
 220              		.loc 1 407 1 is_stmt 1 view -0
 221              		.cfi_startproc
 222              		@ args = 0, pretend = 0, frame = 8
 223              		@ frame_needed = 0, uses_anonymous_args = 0
 407:Middlewares/ST/STM32_USB_Device_Library/Core/Src/usbd_ctlreq.c ****   uint16_t len = 0U;
 224              		.loc 1 407 1 is_stmt 0 view .LVU49
 225 0000 30B5     		push	{r4, r5, lr}
 226              	.LCFI2:
 227              		.cfi_def_cfa_offset 12
 228              		.cfi_offset 4, -12
 229              		.cfi_offset 5, -8
 230              		.cfi_offset 14, -4
 231 0002 83B0     		sub	sp, sp, #12
 232              	.LCFI3:
 233              		.cfi_def_cfa_offset 24
 234 0004 0500     		movs	r5, r0
 235 0006 0C00     		movs	r4, r1
 408:Middlewares/ST/STM32_USB_Device_Library/Core/Src/usbd_ctlreq.c ****   uint8_t *pbuf = NULL;
 236              		.loc 1 408 3 is_stmt 1 view .LVU50
 408:Middlewares/ST/STM32_USB_Device_Library/Core/Src/usbd_ctlreq.c ****   uint8_t *pbuf = NULL;
 237              		.loc 1 408 12 is_stmt 0 view .LVU51
 238 0008 6B46     		mov	r3, sp
 239 000a 0022     		movs	r2, #0
 240 000c DA80     		strh	r2, [r3, #6]
 409:Middlewares/ST/STM32_USB_Device_Library/Core/Src/usbd_ctlreq.c ****   uint8_t err = 0U;
 241              		.loc 1 409 3 is_stmt 1 view .LVU52
 242              	.LVL17:
 410:Middlewares/ST/STM32_USB_Device_Library/Core/Src/usbd_ctlreq.c **** 
 243              		.loc 1 410 3 view .LVU53
 412:Middlewares/ST/STM32_USB_Device_Library/Core/Src/usbd_ctlreq.c ****   {
 244              		.loc 1 412 3 view .LVU54
 412:Middlewares/ST/STM32_USB_Device_Library/Core/Src/usbd_ctlreq.c ****   {
 245              		.loc 1 412 14 is_stmt 0 view .LVU55
 246 000e 4988     		ldrh	r1, [r1, #2]
 247              	.LVL18:
 412:Middlewares/ST/STM32_USB_Device_Library/Core/Src/usbd_ctlreq.c ****   {
 248              		.loc 1 412 23 view .LVU56
 249 0010 0B0A     		lsrs	r3, r1, #8
 250 0012 072B     		cmp	r3, #7
 251 0014 00D9     		bls	.LCB189
 252 0016 C0E0     		b	.L11	@long jump
 253              	.LCB189:
 254 0018 9B00     		lsls	r3, r3, #2
 255 001a 6A4A     		ldr	r2, .L44
 256 001c D358     		ldr	r3, [r2, r3]
 257 001e 9F46     		mov	pc, r3
 258              		.section	.rodata.USBD_GetDescriptor,"a",%progbits
 259              		.align	2
 260              	.L13:
ARM GAS  /tmp/cc2rDdvh.s 			page 22


 261 0000 9A010000 		.word	.L11
 262 0004 20000000 		.word	.L17
 263 0008 4E000000 		.word	.L16
 264 000c 7C000000 		.word	.L15
 265 0010 9A010000 		.word	.L11
 266 0014 9A010000 		.word	.L11
 267 0018 5A010000 		.word	.L14
 268 001c 78010000 		.word	.L12
 269              		.section	.text.USBD_GetDescriptor
 270              	.L17:
 428:Middlewares/ST/STM32_USB_Device_Library/Core/Src/usbd_ctlreq.c ****       break;
 271              		.loc 1 428 7 is_stmt 1 view .LVU57
 428:Middlewares/ST/STM32_USB_Device_Library/Core/Src/usbd_ctlreq.c ****       break;
 272              		.loc 1 428 18 is_stmt 0 view .LVU58
 273 0020 AC23     		movs	r3, #172
 274 0022 9B00     		lsls	r3, r3, #2
 275 0024 C358     		ldr	r3, [r0, r3]
 428:Middlewares/ST/STM32_USB_Device_Library/Core/Src/usbd_ctlreq.c ****       break;
 276              		.loc 1 428 25 view .LVU59
 277 0026 1B68     		ldr	r3, [r3]
 428:Middlewares/ST/STM32_USB_Device_Library/Core/Src/usbd_ctlreq.c ****       break;
 278              		.loc 1 428 14 view .LVU60
 279 0028 007C     		ldrb	r0, [r0, #16]
 280              	.LVL19:
 428:Middlewares/ST/STM32_USB_Device_Library/Core/Src/usbd_ctlreq.c ****       break;
 281              		.loc 1 428 14 view .LVU61
 282 002a 6A46     		mov	r2, sp
 283 002c 911D     		adds	r1, r2, #6
 284 002e 9847     		blx	r3
 285              	.LVL20:
 429:Middlewares/ST/STM32_USB_Device_Library/Core/Src/usbd_ctlreq.c **** 
 286              		.loc 1 429 7 is_stmt 1 view .LVU62
 569:Middlewares/ST/STM32_USB_Device_Library/Core/Src/usbd_ctlreq.c ****   {
 287              		.loc 1 569 3 view .LVU63
 288              	.L18:
 575:Middlewares/ST/STM32_USB_Device_Library/Core/Src/usbd_ctlreq.c ****     {
 289              		.loc 1 575 5 view .LVU64
 575:Middlewares/ST/STM32_USB_Device_Library/Core/Src/usbd_ctlreq.c ****     {
 290              		.loc 1 575 14 is_stmt 0 view .LVU65
 291 0030 6B46     		mov	r3, sp
 292 0032 0633     		adds	r3, r3, #6
 293 0034 1B88     		ldrh	r3, [r3]
 575:Middlewares/ST/STM32_USB_Device_Library/Core/Src/usbd_ctlreq.c ****     {
 294              		.loc 1 575 8 view .LVU66
 295 0036 002B     		cmp	r3, #0
 296 0038 03D0     		beq	.L39
 575:Middlewares/ST/STM32_USB_Device_Library/Core/Src/usbd_ctlreq.c ****     {
 297              		.loc 1 575 28 discriminator 1 view .LVU67
 298 003a E288     		ldrh	r2, [r4, #6]
 575:Middlewares/ST/STM32_USB_Device_Library/Core/Src/usbd_ctlreq.c ****     {
 299              		.loc 1 575 21 discriminator 1 view .LVU68
 300 003c 002A     		cmp	r2, #0
 301 003e 00D0     		beq	.LCB228
 302 0040 B0E0     		b	.L42	@long jump
 303              	.LCB228:
 304              	.LVL21:
 305              	.L39:
ARM GAS  /tmp/cc2rDdvh.s 			page 23


 581:Middlewares/ST/STM32_USB_Device_Library/Core/Src/usbd_ctlreq.c ****     {
 306              		.loc 1 581 5 is_stmt 1 view .LVU69
 581:Middlewares/ST/STM32_USB_Device_Library/Core/Src/usbd_ctlreq.c ****     {
 307              		.loc 1 581 12 is_stmt 0 view .LVU70
 308 0042 E388     		ldrh	r3, [r4, #6]
 581:Middlewares/ST/STM32_USB_Device_Library/Core/Src/usbd_ctlreq.c ****     {
 309              		.loc 1 581 8 view .LVU71
 310 0044 002B     		cmp	r3, #0
 311 0046 00D1     		bne	.LCB235
 312 0048 B8E0     		b	.L43	@long jump
 313              	.LCB235:
 314              	.LVL22:
 315              	.L10:
 586:Middlewares/ST/STM32_USB_Device_Library/Core/Src/usbd_ctlreq.c **** 
 316              		.loc 1 586 1 view .LVU72
 317 004a 03B0     		add	sp, sp, #12
 318              		@ sp needed
 319              	.LVL23:
 320              	.LVL24:
 586:Middlewares/ST/STM32_USB_Device_Library/Core/Src/usbd_ctlreq.c **** 
 321              		.loc 1 586 1 view .LVU73
 322 004c 30BD     		pop	{r4, r5, pc}
 323              	.LVL25:
 324              	.L16:
 432:Middlewares/ST/STM32_USB_Device_Library/Core/Src/usbd_ctlreq.c ****       {
 325              		.loc 1 432 7 is_stmt 1 view .LVU74
 432:Middlewares/ST/STM32_USB_Device_Library/Core/Src/usbd_ctlreq.c ****       {
 326              		.loc 1 432 15 is_stmt 0 view .LVU75
 327 004e 037C     		ldrb	r3, [r0, #16]
 432:Middlewares/ST/STM32_USB_Device_Library/Core/Src/usbd_ctlreq.c ****       {
 328              		.loc 1 432 10 view .LVU76
 329 0050 002B     		cmp	r3, #0
 330 0052 09D1     		bne	.L19
 434:Middlewares/ST/STM32_USB_Device_Library/Core/Src/usbd_ctlreq.c ****         pbuf[1] = USB_DESC_TYPE_CONFIGURATION;
 331              		.loc 1 434 9 is_stmt 1 view .LVU77
 434:Middlewares/ST/STM32_USB_Device_Library/Core/Src/usbd_ctlreq.c ****         pbuf[1] = USB_DESC_TYPE_CONFIGURATION;
 332              		.loc 1 434 20 is_stmt 0 view .LVU78
 333 0054 AD23     		movs	r3, #173
 334 0056 9B00     		lsls	r3, r3, #2
 335 0058 C358     		ldr	r3, [r0, r3]
 434:Middlewares/ST/STM32_USB_Device_Library/Core/Src/usbd_ctlreq.c ****         pbuf[1] = USB_DESC_TYPE_CONFIGURATION;
 336              		.loc 1 434 28 view .LVU79
 337 005a 9B6A     		ldr	r3, [r3, #40]
 434:Middlewares/ST/STM32_USB_Device_Library/Core/Src/usbd_ctlreq.c ****         pbuf[1] = USB_DESC_TYPE_CONFIGURATION;
 338              		.loc 1 434 16 view .LVU80
 339 005c 6A46     		mov	r2, sp
 340 005e 901D     		adds	r0, r2, #6
 341              	.LVL26:
 434:Middlewares/ST/STM32_USB_Device_Library/Core/Src/usbd_ctlreq.c ****         pbuf[1] = USB_DESC_TYPE_CONFIGURATION;
 342              		.loc 1 434 16 view .LVU81
 343 0060 9847     		blx	r3
 344              	.LVL27:
 435:Middlewares/ST/STM32_USB_Device_Library/Core/Src/usbd_ctlreq.c ****       }
 345              		.loc 1 435 9 is_stmt 1 view .LVU82
 435:Middlewares/ST/STM32_USB_Device_Library/Core/Src/usbd_ctlreq.c ****       }
 346              		.loc 1 435 17 is_stmt 0 view .LVU83
 347 0062 0223     		movs	r3, #2
ARM GAS  /tmp/cc2rDdvh.s 			page 24


 348 0064 4370     		strb	r3, [r0, #1]
 569:Middlewares/ST/STM32_USB_Device_Library/Core/Src/usbd_ctlreq.c ****   {
 349              		.loc 1 569 3 is_stmt 1 view .LVU84
 350 0066 E3E7     		b	.L18
 351              	.LVL28:
 352              	.L19:
 439:Middlewares/ST/STM32_USB_Device_Library/Core/Src/usbd_ctlreq.c ****         pbuf[1] = USB_DESC_TYPE_CONFIGURATION;
 353              		.loc 1 439 9 view .LVU85
 439:Middlewares/ST/STM32_USB_Device_Library/Core/Src/usbd_ctlreq.c ****         pbuf[1] = USB_DESC_TYPE_CONFIGURATION;
 354              		.loc 1 439 20 is_stmt 0 view .LVU86
 355 0068 AD23     		movs	r3, #173
 356 006a 9B00     		lsls	r3, r3, #2
 357 006c C358     		ldr	r3, [r0, r3]
 439:Middlewares/ST/STM32_USB_Device_Library/Core/Src/usbd_ctlreq.c ****         pbuf[1] = USB_DESC_TYPE_CONFIGURATION;
 358              		.loc 1 439 28 view .LVU87
 359 006e DB6A     		ldr	r3, [r3, #44]
 439:Middlewares/ST/STM32_USB_Device_Library/Core/Src/usbd_ctlreq.c ****         pbuf[1] = USB_DESC_TYPE_CONFIGURATION;
 360              		.loc 1 439 16 view .LVU88
 361 0070 6A46     		mov	r2, sp
 362 0072 901D     		adds	r0, r2, #6
 363              	.LVL29:
 439:Middlewares/ST/STM32_USB_Device_Library/Core/Src/usbd_ctlreq.c ****         pbuf[1] = USB_DESC_TYPE_CONFIGURATION;
 364              		.loc 1 439 16 view .LVU89
 365 0074 9847     		blx	r3
 366              	.LVL30:
 440:Middlewares/ST/STM32_USB_Device_Library/Core/Src/usbd_ctlreq.c ****       }
 367              		.loc 1 440 9 is_stmt 1 view .LVU90
 440:Middlewares/ST/STM32_USB_Device_Library/Core/Src/usbd_ctlreq.c ****       }
 368              		.loc 1 440 17 is_stmt 0 view .LVU91
 369 0076 0223     		movs	r3, #2
 370 0078 4370     		strb	r3, [r0, #1]
 569:Middlewares/ST/STM32_USB_Device_Library/Core/Src/usbd_ctlreq.c ****   {
 371              		.loc 1 569 3 is_stmt 1 view .LVU92
 372 007a D9E7     		b	.L18
 373              	.LVL31:
 374              	.L15:
 445:Middlewares/ST/STM32_USB_Device_Library/Core/Src/usbd_ctlreq.c ****       {
 375              		.loc 1 445 7 view .LVU93
 445:Middlewares/ST/STM32_USB_Device_Library/Core/Src/usbd_ctlreq.c ****       {
 376              		.loc 1 445 15 is_stmt 0 view .LVU94
 377 007c C9B2     		uxtb	r1, r1
 378 007e 0529     		cmp	r1, #5
 379 0080 5DD8     		bhi	.L20
 380 0082 8900     		lsls	r1, r1, #2
 381 0084 504B     		ldr	r3, .L44+4
 382 0086 5B58     		ldr	r3, [r3, r1]
 383 0088 9F46     		mov	pc, r3
 384              		.section	.rodata.USBD_GetDescriptor
 385              		.align	2
 386              	.L22:
 387 0020 8A000000 		.word	.L27
 388 0024 A8000000 		.word	.L26
 389 0028 C6000000 		.word	.L25
 390 002c E4000000 		.word	.L24
 391 0030 02010000 		.word	.L23
 392 0034 20010000 		.word	.L21
 393              		.section	.text.USBD_GetDescriptor
ARM GAS  /tmp/cc2rDdvh.s 			page 25


 394              	.L27:
 448:Middlewares/ST/STM32_USB_Device_Library/Core/Src/usbd_ctlreq.c ****           {
 395              		.loc 1 448 11 is_stmt 1 view .LVU95
 448:Middlewares/ST/STM32_USB_Device_Library/Core/Src/usbd_ctlreq.c ****           {
 396              		.loc 1 448 19 is_stmt 0 view .LVU96
 397 008a AC23     		movs	r3, #172
 398 008c 9B00     		lsls	r3, r3, #2
 399 008e C358     		ldr	r3, [r0, r3]
 448:Middlewares/ST/STM32_USB_Device_Library/Core/Src/usbd_ctlreq.c ****           {
 400              		.loc 1 448 26 view .LVU97
 401 0090 5B68     		ldr	r3, [r3, #4]
 448:Middlewares/ST/STM32_USB_Device_Library/Core/Src/usbd_ctlreq.c ****           {
 402              		.loc 1 448 14 view .LVU98
 403 0092 002B     		cmp	r3, #0
 404 0094 04D0     		beq	.L28
 450:Middlewares/ST/STM32_USB_Device_Library/Core/Src/usbd_ctlreq.c ****           }
 405              		.loc 1 450 13 is_stmt 1 view .LVU99
 450:Middlewares/ST/STM32_USB_Device_Library/Core/Src/usbd_ctlreq.c ****           }
 406              		.loc 1 450 20 is_stmt 0 view .LVU100
 407 0096 007C     		ldrb	r0, [r0, #16]
 408              	.LVL32:
 450:Middlewares/ST/STM32_USB_Device_Library/Core/Src/usbd_ctlreq.c ****           }
 409              		.loc 1 450 20 view .LVU101
 410 0098 6A46     		mov	r2, sp
 411 009a 911D     		adds	r1, r2, #6
 412 009c 9847     		blx	r3
 413              	.LVL33:
 569:Middlewares/ST/STM32_USB_Device_Library/Core/Src/usbd_ctlreq.c ****   {
 414              		.loc 1 569 3 is_stmt 1 view .LVU102
 415 009e C7E7     		b	.L18
 416              	.LVL34:
 417              	.L28:
 454:Middlewares/ST/STM32_USB_Device_Library/Core/Src/usbd_ctlreq.c ****             err++;
 418              		.loc 1 454 13 view .LVU103
 419 00a0 2100     		movs	r1, r4
 420 00a2 FFF7FEFF 		bl	USBD_CtlError
 421              	.LVL35:
 455:Middlewares/ST/STM32_USB_Device_Library/Core/Src/usbd_ctlreq.c ****           }
 422              		.loc 1 455 13 view .LVU104
 569:Middlewares/ST/STM32_USB_Device_Library/Core/Src/usbd_ctlreq.c ****   {
 423              		.loc 1 569 3 view .LVU105
 424 00a6 D0E7     		b	.L10
 425              	.LVL36:
 426              	.L26:
 460:Middlewares/ST/STM32_USB_Device_Library/Core/Src/usbd_ctlreq.c ****           {
 427              		.loc 1 460 11 view .LVU106
 460:Middlewares/ST/STM32_USB_Device_Library/Core/Src/usbd_ctlreq.c ****           {
 428              		.loc 1 460 19 is_stmt 0 view .LVU107
 429 00a8 AC23     		movs	r3, #172
 430 00aa 9B00     		lsls	r3, r3, #2
 431 00ac C358     		ldr	r3, [r0, r3]
 460:Middlewares/ST/STM32_USB_Device_Library/Core/Src/usbd_ctlreq.c ****           {
 432              		.loc 1 460 26 view .LVU108
 433 00ae 9B68     		ldr	r3, [r3, #8]
 460:Middlewares/ST/STM32_USB_Device_Library/Core/Src/usbd_ctlreq.c ****           {
 434              		.loc 1 460 14 view .LVU109
 435 00b0 002B     		cmp	r3, #0
ARM GAS  /tmp/cc2rDdvh.s 			page 26


 436 00b2 04D0     		beq	.L30
 462:Middlewares/ST/STM32_USB_Device_Library/Core/Src/usbd_ctlreq.c ****           }
 437              		.loc 1 462 13 is_stmt 1 view .LVU110
 462:Middlewares/ST/STM32_USB_Device_Library/Core/Src/usbd_ctlreq.c ****           }
 438              		.loc 1 462 20 is_stmt 0 view .LVU111
 439 00b4 007C     		ldrb	r0, [r0, #16]
 440              	.LVL37:
 462:Middlewares/ST/STM32_USB_Device_Library/Core/Src/usbd_ctlreq.c ****           }
 441              		.loc 1 462 20 view .LVU112
 442 00b6 6A46     		mov	r2, sp
 443 00b8 911D     		adds	r1, r2, #6
 444 00ba 9847     		blx	r3
 445              	.LVL38:
 569:Middlewares/ST/STM32_USB_Device_Library/Core/Src/usbd_ctlreq.c ****   {
 446              		.loc 1 569 3 is_stmt 1 view .LVU113
 447 00bc B8E7     		b	.L18
 448              	.LVL39:
 449              	.L30:
 466:Middlewares/ST/STM32_USB_Device_Library/Core/Src/usbd_ctlreq.c ****             err++;
 450              		.loc 1 466 13 view .LVU114
 451 00be 2100     		movs	r1, r4
 452 00c0 FFF7FEFF 		bl	USBD_CtlError
 453              	.LVL40:
 467:Middlewares/ST/STM32_USB_Device_Library/Core/Src/usbd_ctlreq.c ****           }
 454              		.loc 1 467 13 view .LVU115
 569:Middlewares/ST/STM32_USB_Device_Library/Core/Src/usbd_ctlreq.c ****   {
 455              		.loc 1 569 3 view .LVU116
 456 00c4 C1E7     		b	.L10
 457              	.LVL41:
 458              	.L25:
 472:Middlewares/ST/STM32_USB_Device_Library/Core/Src/usbd_ctlreq.c ****           {
 459              		.loc 1 472 11 view .LVU117
 472:Middlewares/ST/STM32_USB_Device_Library/Core/Src/usbd_ctlreq.c ****           {
 460              		.loc 1 472 19 is_stmt 0 view .LVU118
 461 00c6 AC23     		movs	r3, #172
 462 00c8 9B00     		lsls	r3, r3, #2
 463 00ca C358     		ldr	r3, [r0, r3]
 472:Middlewares/ST/STM32_USB_Device_Library/Core/Src/usbd_ctlreq.c ****           {
 464              		.loc 1 472 26 view .LVU119
 465 00cc DB68     		ldr	r3, [r3, #12]
 472:Middlewares/ST/STM32_USB_Device_Library/Core/Src/usbd_ctlreq.c ****           {
 466              		.loc 1 472 14 view .LVU120
 467 00ce 002B     		cmp	r3, #0
 468 00d0 04D0     		beq	.L31
 474:Middlewares/ST/STM32_USB_Device_Library/Core/Src/usbd_ctlreq.c ****           }
 469              		.loc 1 474 13 is_stmt 1 view .LVU121
 474:Middlewares/ST/STM32_USB_Device_Library/Core/Src/usbd_ctlreq.c ****           }
 470              		.loc 1 474 20 is_stmt 0 view .LVU122
 471 00d2 007C     		ldrb	r0, [r0, #16]
 472              	.LVL42:
 474:Middlewares/ST/STM32_USB_Device_Library/Core/Src/usbd_ctlreq.c ****           }
 473              		.loc 1 474 20 view .LVU123
 474 00d4 6A46     		mov	r2, sp
 475 00d6 911D     		adds	r1, r2, #6
 476 00d8 9847     		blx	r3
 477              	.LVL43:
 569:Middlewares/ST/STM32_USB_Device_Library/Core/Src/usbd_ctlreq.c ****   {
ARM GAS  /tmp/cc2rDdvh.s 			page 27


 478              		.loc 1 569 3 is_stmt 1 view .LVU124
 479 00da A9E7     		b	.L18
 480              	.LVL44:
 481              	.L31:
 478:Middlewares/ST/STM32_USB_Device_Library/Core/Src/usbd_ctlreq.c ****             err++;
 482              		.loc 1 478 13 view .LVU125
 483 00dc 2100     		movs	r1, r4
 484 00de FFF7FEFF 		bl	USBD_CtlError
 485              	.LVL45:
 479:Middlewares/ST/STM32_USB_Device_Library/Core/Src/usbd_ctlreq.c ****           }
 486              		.loc 1 479 13 view .LVU126
 569:Middlewares/ST/STM32_USB_Device_Library/Core/Src/usbd_ctlreq.c ****   {
 487              		.loc 1 569 3 view .LVU127
 488 00e2 B2E7     		b	.L10
 489              	.LVL46:
 490              	.L24:
 484:Middlewares/ST/STM32_USB_Device_Library/Core/Src/usbd_ctlreq.c ****           {
 491              		.loc 1 484 11 view .LVU128
 484:Middlewares/ST/STM32_USB_Device_Library/Core/Src/usbd_ctlreq.c ****           {
 492              		.loc 1 484 19 is_stmt 0 view .LVU129
 493 00e4 AC23     		movs	r3, #172
 494 00e6 9B00     		lsls	r3, r3, #2
 495 00e8 C358     		ldr	r3, [r0, r3]
 484:Middlewares/ST/STM32_USB_Device_Library/Core/Src/usbd_ctlreq.c ****           {
 496              		.loc 1 484 26 view .LVU130
 497 00ea 1B69     		ldr	r3, [r3, #16]
 484:Middlewares/ST/STM32_USB_Device_Library/Core/Src/usbd_ctlreq.c ****           {
 498              		.loc 1 484 14 view .LVU131
 499 00ec 002B     		cmp	r3, #0
 500 00ee 04D0     		beq	.L32
 486:Middlewares/ST/STM32_USB_Device_Library/Core/Src/usbd_ctlreq.c ****           }
 501              		.loc 1 486 13 is_stmt 1 view .LVU132
 486:Middlewares/ST/STM32_USB_Device_Library/Core/Src/usbd_ctlreq.c ****           }
 502              		.loc 1 486 20 is_stmt 0 view .LVU133
 503 00f0 007C     		ldrb	r0, [r0, #16]
 504              	.LVL47:
 486:Middlewares/ST/STM32_USB_Device_Library/Core/Src/usbd_ctlreq.c ****           }
 505              		.loc 1 486 20 view .LVU134
 506 00f2 6A46     		mov	r2, sp
 507 00f4 911D     		adds	r1, r2, #6
 508 00f6 9847     		blx	r3
 509              	.LVL48:
 569:Middlewares/ST/STM32_USB_Device_Library/Core/Src/usbd_ctlreq.c ****   {
 510              		.loc 1 569 3 is_stmt 1 view .LVU135
 511 00f8 9AE7     		b	.L18
 512              	.LVL49:
 513              	.L32:
 490:Middlewares/ST/STM32_USB_Device_Library/Core/Src/usbd_ctlreq.c ****             err++;
 514              		.loc 1 490 13 view .LVU136
 515 00fa 2100     		movs	r1, r4
 516 00fc FFF7FEFF 		bl	USBD_CtlError
 517              	.LVL50:
 491:Middlewares/ST/STM32_USB_Device_Library/Core/Src/usbd_ctlreq.c ****           }
 518              		.loc 1 491 13 view .LVU137
 569:Middlewares/ST/STM32_USB_Device_Library/Core/Src/usbd_ctlreq.c ****   {
 519              		.loc 1 569 3 view .LVU138
 520 0100 A3E7     		b	.L10
ARM GAS  /tmp/cc2rDdvh.s 			page 28


 521              	.LVL51:
 522              	.L23:
 496:Middlewares/ST/STM32_USB_Device_Library/Core/Src/usbd_ctlreq.c ****           {
 523              		.loc 1 496 11 view .LVU139
 496:Middlewares/ST/STM32_USB_Device_Library/Core/Src/usbd_ctlreq.c ****           {
 524              		.loc 1 496 19 is_stmt 0 view .LVU140
 525 0102 AC23     		movs	r3, #172
 526 0104 9B00     		lsls	r3, r3, #2
 527 0106 C358     		ldr	r3, [r0, r3]
 496:Middlewares/ST/STM32_USB_Device_Library/Core/Src/usbd_ctlreq.c ****           {
 528              		.loc 1 496 26 view .LVU141
 529 0108 5B69     		ldr	r3, [r3, #20]
 496:Middlewares/ST/STM32_USB_Device_Library/Core/Src/usbd_ctlreq.c ****           {
 530              		.loc 1 496 14 view .LVU142
 531 010a 002B     		cmp	r3, #0
 532 010c 04D0     		beq	.L33
 498:Middlewares/ST/STM32_USB_Device_Library/Core/Src/usbd_ctlreq.c ****           }
 533              		.loc 1 498 13 is_stmt 1 view .LVU143
 498:Middlewares/ST/STM32_USB_Device_Library/Core/Src/usbd_ctlreq.c ****           }
 534              		.loc 1 498 20 is_stmt 0 view .LVU144
 535 010e 007C     		ldrb	r0, [r0, #16]
 536              	.LVL52:
 498:Middlewares/ST/STM32_USB_Device_Library/Core/Src/usbd_ctlreq.c ****           }
 537              		.loc 1 498 20 view .LVU145
 538 0110 6A46     		mov	r2, sp
 539 0112 911D     		adds	r1, r2, #6
 540 0114 9847     		blx	r3
 541              	.LVL53:
 569:Middlewares/ST/STM32_USB_Device_Library/Core/Src/usbd_ctlreq.c ****   {
 542              		.loc 1 569 3 is_stmt 1 view .LVU146
 543 0116 8BE7     		b	.L18
 544              	.LVL54:
 545              	.L33:
 502:Middlewares/ST/STM32_USB_Device_Library/Core/Src/usbd_ctlreq.c ****             err++;
 546              		.loc 1 502 13 view .LVU147
 547 0118 2100     		movs	r1, r4
 548 011a FFF7FEFF 		bl	USBD_CtlError
 549              	.LVL55:
 503:Middlewares/ST/STM32_USB_Device_Library/Core/Src/usbd_ctlreq.c ****           }
 550              		.loc 1 503 13 view .LVU148
 569:Middlewares/ST/STM32_USB_Device_Library/Core/Src/usbd_ctlreq.c ****   {
 551              		.loc 1 569 3 view .LVU149
 552 011e 94E7     		b	.L10
 553              	.LVL56:
 554              	.L21:
 508:Middlewares/ST/STM32_USB_Device_Library/Core/Src/usbd_ctlreq.c ****           {
 555              		.loc 1 508 11 view .LVU150
 508:Middlewares/ST/STM32_USB_Device_Library/Core/Src/usbd_ctlreq.c ****           {
 556              		.loc 1 508 19 is_stmt 0 view .LVU151
 557 0120 AC23     		movs	r3, #172
 558 0122 9B00     		lsls	r3, r3, #2
 559 0124 C358     		ldr	r3, [r0, r3]
 508:Middlewares/ST/STM32_USB_Device_Library/Core/Src/usbd_ctlreq.c ****           {
 560              		.loc 1 508 26 view .LVU152
 561 0126 9B69     		ldr	r3, [r3, #24]
 508:Middlewares/ST/STM32_USB_Device_Library/Core/Src/usbd_ctlreq.c ****           {
 562              		.loc 1 508 14 view .LVU153
ARM GAS  /tmp/cc2rDdvh.s 			page 29


 563 0128 002B     		cmp	r3, #0
 564 012a 04D0     		beq	.L34
 510:Middlewares/ST/STM32_USB_Device_Library/Core/Src/usbd_ctlreq.c ****           }
 565              		.loc 1 510 13 is_stmt 1 view .LVU154
 510:Middlewares/ST/STM32_USB_Device_Library/Core/Src/usbd_ctlreq.c ****           }
 566              		.loc 1 510 20 is_stmt 0 view .LVU155
 567 012c 007C     		ldrb	r0, [r0, #16]
 568              	.LVL57:
 510:Middlewares/ST/STM32_USB_Device_Library/Core/Src/usbd_ctlreq.c ****           }
 569              		.loc 1 510 20 view .LVU156
 570 012e 6A46     		mov	r2, sp
 571 0130 911D     		adds	r1, r2, #6
 572 0132 9847     		blx	r3
 573              	.LVL58:
 569:Middlewares/ST/STM32_USB_Device_Library/Core/Src/usbd_ctlreq.c ****   {
 574              		.loc 1 569 3 is_stmt 1 view .LVU157
 575 0134 7CE7     		b	.L18
 576              	.LVL59:
 577              	.L34:
 514:Middlewares/ST/STM32_USB_Device_Library/Core/Src/usbd_ctlreq.c ****             err++;
 578              		.loc 1 514 13 view .LVU158
 579 0136 2100     		movs	r1, r4
 580 0138 FFF7FEFF 		bl	USBD_CtlError
 581              	.LVL60:
 515:Middlewares/ST/STM32_USB_Device_Library/Core/Src/usbd_ctlreq.c ****           }
 582              		.loc 1 515 13 view .LVU159
 569:Middlewares/ST/STM32_USB_Device_Library/Core/Src/usbd_ctlreq.c ****   {
 583              		.loc 1 569 3 view .LVU160
 584 013c 85E7     		b	.L10
 585              	.LVL61:
 586              	.L20:
 521:Middlewares/ST/STM32_USB_Device_Library/Core/Src/usbd_ctlreq.c ****           {
 587              		.loc 1 521 11 view .LVU161
 521:Middlewares/ST/STM32_USB_Device_Library/Core/Src/usbd_ctlreq.c ****           {
 588              		.loc 1 521 19 is_stmt 0 view .LVU162
 589 013e AD23     		movs	r3, #173
 590 0140 9B00     		lsls	r3, r3, #2
 591 0142 C358     		ldr	r3, [r0, r3]
 521:Middlewares/ST/STM32_USB_Device_Library/Core/Src/usbd_ctlreq.c ****           {
 592              		.loc 1 521 27 view .LVU163
 593 0144 9B6B     		ldr	r3, [r3, #56]
 521:Middlewares/ST/STM32_USB_Device_Library/Core/Src/usbd_ctlreq.c ****           {
 594              		.loc 1 521 14 view .LVU164
 595 0146 002B     		cmp	r3, #0
 596 0148 03D0     		beq	.L35
 523:Middlewares/ST/STM32_USB_Device_Library/Core/Src/usbd_ctlreq.c ****           }
 597              		.loc 1 523 13 is_stmt 1 view .LVU165
 523:Middlewares/ST/STM32_USB_Device_Library/Core/Src/usbd_ctlreq.c ****           }
 598              		.loc 1 523 20 is_stmt 0 view .LVU166
 599 014a 6A46     		mov	r2, sp
 600 014c 0632     		adds	r2, r2, #6
 601 014e 9847     		blx	r3
 602              	.LVL62:
 569:Middlewares/ST/STM32_USB_Device_Library/Core/Src/usbd_ctlreq.c ****   {
 603              		.loc 1 569 3 is_stmt 1 view .LVU167
 604 0150 6EE7     		b	.L18
 605              	.LVL63:
ARM GAS  /tmp/cc2rDdvh.s 			page 30


 606              	.L35:
 527:Middlewares/ST/STM32_USB_Device_Library/Core/Src/usbd_ctlreq.c ****             err++;
 607              		.loc 1 527 13 view .LVU168
 608 0152 2100     		movs	r1, r4
 609 0154 FFF7FEFF 		bl	USBD_CtlError
 610              	.LVL64:
 528:Middlewares/ST/STM32_USB_Device_Library/Core/Src/usbd_ctlreq.c ****           }
 611              		.loc 1 528 13 view .LVU169
 569:Middlewares/ST/STM32_USB_Device_Library/Core/Src/usbd_ctlreq.c ****   {
 612              		.loc 1 569 3 view .LVU170
 613 0158 77E7     		b	.L10
 614              	.LVL65:
 615              	.L14:
 539:Middlewares/ST/STM32_USB_Device_Library/Core/Src/usbd_ctlreq.c ****       {
 616              		.loc 1 539 7 view .LVU171
 539:Middlewares/ST/STM32_USB_Device_Library/Core/Src/usbd_ctlreq.c ****       {
 617              		.loc 1 539 15 is_stmt 0 view .LVU172
 618 015a 037C     		ldrb	r3, [r0, #16]
 539:Middlewares/ST/STM32_USB_Device_Library/Core/Src/usbd_ctlreq.c ****       {
 619              		.loc 1 539 10 view .LVU173
 620 015c 002B     		cmp	r3, #0
 621 015e 07D1     		bne	.L36
 541:Middlewares/ST/STM32_USB_Device_Library/Core/Src/usbd_ctlreq.c ****       }
 622              		.loc 1 541 9 is_stmt 1 view .LVU174
 541:Middlewares/ST/STM32_USB_Device_Library/Core/Src/usbd_ctlreq.c ****       }
 623              		.loc 1 541 20 is_stmt 0 view .LVU175
 624 0160 AD23     		movs	r3, #173
 625 0162 9B00     		lsls	r3, r3, #2
 626 0164 C358     		ldr	r3, [r0, r3]
 541:Middlewares/ST/STM32_USB_Device_Library/Core/Src/usbd_ctlreq.c ****       }
 627              		.loc 1 541 28 view .LVU176
 628 0166 5B6B     		ldr	r3, [r3, #52]
 541:Middlewares/ST/STM32_USB_Device_Library/Core/Src/usbd_ctlreq.c ****       }
 629              		.loc 1 541 16 view .LVU177
 630 0168 6A46     		mov	r2, sp
 631 016a 901D     		adds	r0, r2, #6
 632              	.LVL66:
 541:Middlewares/ST/STM32_USB_Device_Library/Core/Src/usbd_ctlreq.c ****       }
 633              		.loc 1 541 16 view .LVU178
 634 016c 9847     		blx	r3
 635              	.LVL67:
 569:Middlewares/ST/STM32_USB_Device_Library/Core/Src/usbd_ctlreq.c ****   {
 636              		.loc 1 569 3 is_stmt 1 view .LVU179
 637 016e 5FE7     		b	.L18
 638              	.LVL68:
 639              	.L36:
 545:Middlewares/ST/STM32_USB_Device_Library/Core/Src/usbd_ctlreq.c ****         err++;
 640              		.loc 1 545 9 view .LVU180
 641 0170 2100     		movs	r1, r4
 642 0172 FFF7FEFF 		bl	USBD_CtlError
 643              	.LVL69:
 546:Middlewares/ST/STM32_USB_Device_Library/Core/Src/usbd_ctlreq.c ****       }
 644              		.loc 1 546 9 view .LVU181
 569:Middlewares/ST/STM32_USB_Device_Library/Core/Src/usbd_ctlreq.c ****   {
 645              		.loc 1 569 3 view .LVU182
 646 0176 68E7     		b	.L10
 647              	.LVL70:
ARM GAS  /tmp/cc2rDdvh.s 			page 31


 648              	.L12:
 551:Middlewares/ST/STM32_USB_Device_Library/Core/Src/usbd_ctlreq.c ****       {
 649              		.loc 1 551 7 view .LVU183
 551:Middlewares/ST/STM32_USB_Device_Library/Core/Src/usbd_ctlreq.c ****       {
 650              		.loc 1 551 15 is_stmt 0 view .LVU184
 651 0178 037C     		ldrb	r3, [r0, #16]
 551:Middlewares/ST/STM32_USB_Device_Library/Core/Src/usbd_ctlreq.c ****       {
 652              		.loc 1 551 10 view .LVU185
 653 017a 002B     		cmp	r3, #0
 654 017c 09D1     		bne	.L37
 553:Middlewares/ST/STM32_USB_Device_Library/Core/Src/usbd_ctlreq.c ****         pbuf[1] = USB_DESC_TYPE_OTHER_SPEED_CONFIGURATION;
 655              		.loc 1 553 9 is_stmt 1 view .LVU186
 553:Middlewares/ST/STM32_USB_Device_Library/Core/Src/usbd_ctlreq.c ****         pbuf[1] = USB_DESC_TYPE_OTHER_SPEED_CONFIGURATION;
 656              		.loc 1 553 20 is_stmt 0 view .LVU187
 657 017e AD23     		movs	r3, #173
 658 0180 9B00     		lsls	r3, r3, #2
 659 0182 C358     		ldr	r3, [r0, r3]
 553:Middlewares/ST/STM32_USB_Device_Library/Core/Src/usbd_ctlreq.c ****         pbuf[1] = USB_DESC_TYPE_OTHER_SPEED_CONFIGURATION;
 660              		.loc 1 553 28 view .LVU188
 661 0184 1B6B     		ldr	r3, [r3, #48]
 553:Middlewares/ST/STM32_USB_Device_Library/Core/Src/usbd_ctlreq.c ****         pbuf[1] = USB_DESC_TYPE_OTHER_SPEED_CONFIGURATION;
 662              		.loc 1 553 16 view .LVU189
 663 0186 6A46     		mov	r2, sp
 664 0188 901D     		adds	r0, r2, #6
 665              	.LVL71:
 553:Middlewares/ST/STM32_USB_Device_Library/Core/Src/usbd_ctlreq.c ****         pbuf[1] = USB_DESC_TYPE_OTHER_SPEED_CONFIGURATION;
 666              		.loc 1 553 16 view .LVU190
 667 018a 9847     		blx	r3
 668              	.LVL72:
 554:Middlewares/ST/STM32_USB_Device_Library/Core/Src/usbd_ctlreq.c ****       }
 669              		.loc 1 554 9 is_stmt 1 view .LVU191
 554:Middlewares/ST/STM32_USB_Device_Library/Core/Src/usbd_ctlreq.c ****       }
 670              		.loc 1 554 17 is_stmt 0 view .LVU192
 671 018c 0723     		movs	r3, #7
 672 018e 4370     		strb	r3, [r0, #1]
 569:Middlewares/ST/STM32_USB_Device_Library/Core/Src/usbd_ctlreq.c ****   {
 673              		.loc 1 569 3 is_stmt 1 view .LVU193
 674 0190 4EE7     		b	.L18
 675              	.LVL73:
 676              	.L37:
 558:Middlewares/ST/STM32_USB_Device_Library/Core/Src/usbd_ctlreq.c ****         err++;
 677              		.loc 1 558 9 view .LVU194
 678 0192 2100     		movs	r1, r4
 679 0194 FFF7FEFF 		bl	USBD_CtlError
 680              	.LVL74:
 559:Middlewares/ST/STM32_USB_Device_Library/Core/Src/usbd_ctlreq.c ****       }
 681              		.loc 1 559 9 view .LVU195
 569:Middlewares/ST/STM32_USB_Device_Library/Core/Src/usbd_ctlreq.c ****   {
 682              		.loc 1 569 3 view .LVU196
 683 0198 57E7     		b	.L10
 684              	.LVL75:
 685              	.L11:
 564:Middlewares/ST/STM32_USB_Device_Library/Core/Src/usbd_ctlreq.c ****       err++;
 686              		.loc 1 564 7 view .LVU197
 687 019a 2100     		movs	r1, r4
 688 019c 2800     		movs	r0, r5
 689              	.LVL76:
ARM GAS  /tmp/cc2rDdvh.s 			page 32


 564:Middlewares/ST/STM32_USB_Device_Library/Core/Src/usbd_ctlreq.c ****       err++;
 690              		.loc 1 564 7 is_stmt 0 view .LVU198
 691 019e FFF7FEFF 		bl	USBD_CtlError
 692              	.LVL77:
 565:Middlewares/ST/STM32_USB_Device_Library/Core/Src/usbd_ctlreq.c ****       break;
 693              		.loc 1 565 7 is_stmt 1 view .LVU199
 566:Middlewares/ST/STM32_USB_Device_Library/Core/Src/usbd_ctlreq.c ****   }
 694              		.loc 1 566 7 view .LVU200
 569:Middlewares/ST/STM32_USB_Device_Library/Core/Src/usbd_ctlreq.c ****   {
 695              		.loc 1 569 3 view .LVU201
 571:Middlewares/ST/STM32_USB_Device_Library/Core/Src/usbd_ctlreq.c ****   }
 696              		.loc 1 571 5 view .LVU202
 697 01a2 52E7     		b	.L10
 698              	.LVL78:
 699              	.L42:
 577:Middlewares/ST/STM32_USB_Device_Library/Core/Src/usbd_ctlreq.c ****       (void)USBD_CtlSendData(pdev, pbuf, len);
 700              		.loc 1 577 7 view .LVU203
 577:Middlewares/ST/STM32_USB_Device_Library/Core/Src/usbd_ctlreq.c ****       (void)USBD_CtlSendData(pdev, pbuf, len);
 701              		.loc 1 577 13 is_stmt 0 view .LVU204
 702 01a4 191C     		adds	r1, r3, #0
 703 01a6 9342     		cmp	r3, r2
 704 01a8 00D9     		bls	.L40
 705 01aa 111C     		adds	r1, r2, #0
 706              	.L40:
 707 01ac 8AB2     		uxth	r2, r1
 577:Middlewares/ST/STM32_USB_Device_Library/Core/Src/usbd_ctlreq.c ****       (void)USBD_CtlSendData(pdev, pbuf, len);
 708              		.loc 1 577 11 view .LVU205
 709 01ae 6B46     		mov	r3, sp
 710 01b0 D980     		strh	r1, [r3, #6]
 578:Middlewares/ST/STM32_USB_Device_Library/Core/Src/usbd_ctlreq.c ****     }
 711              		.loc 1 578 7 is_stmt 1 view .LVU206
 578:Middlewares/ST/STM32_USB_Device_Library/Core/Src/usbd_ctlreq.c ****     }
 712              		.loc 1 578 13 is_stmt 0 view .LVU207
 713 01b2 0100     		movs	r1, r0
 714 01b4 2800     		movs	r0, r5
 715              	.LVL79:
 578:Middlewares/ST/STM32_USB_Device_Library/Core/Src/usbd_ctlreq.c ****     }
 716              		.loc 1 578 13 view .LVU208
 717 01b6 FFF7FEFF 		bl	USBD_CtlSendData
 718              	.LVL80:
 578:Middlewares/ST/STM32_USB_Device_Library/Core/Src/usbd_ctlreq.c ****     }
 719              		.loc 1 578 13 view .LVU209
 720 01ba 42E7     		b	.L39
 721              	.L43:
 583:Middlewares/ST/STM32_USB_Device_Library/Core/Src/usbd_ctlreq.c ****     }
 722              		.loc 1 583 7 is_stmt 1 view .LVU210
 583:Middlewares/ST/STM32_USB_Device_Library/Core/Src/usbd_ctlreq.c ****     }
 723              		.loc 1 583 13 is_stmt 0 view .LVU211
 724 01bc 2800     		movs	r0, r5
 725 01be FFF7FEFF 		bl	USBD_CtlSendStatus
 726              	.LVL81:
 727 01c2 42E7     		b	.L10
 728              	.L45:
 729              		.align	2
 730              	.L44:
 731 01c4 00000000 		.word	.L13
 732 01c8 20000000 		.word	.L22
ARM GAS  /tmp/cc2rDdvh.s 			page 33


 733              		.cfi_endproc
 734              	.LFE46:
 736              		.section	.text.USBD_SetAddress,"ax",%progbits
 737              		.align	1
 738              		.syntax unified
 739              		.code	16
 740              		.thumb_func
 741              		.fpu softvfp
 743              	USBD_SetAddress:
 744              	.LVL82:
 745              	.LFB47:
 597:Middlewares/ST/STM32_USB_Device_Library/Core/Src/usbd_ctlreq.c ****   uint8_t  dev_addr;
 746              		.loc 1 597 1 is_stmt 1 view -0
 747              		.cfi_startproc
 748              		@ args = 0, pretend = 0, frame = 0
 749              		@ frame_needed = 0, uses_anonymous_args = 0
 597:Middlewares/ST/STM32_USB_Device_Library/Core/Src/usbd_ctlreq.c ****   uint8_t  dev_addr;
 750              		.loc 1 597 1 is_stmt 0 view .LVU213
 751 0000 70B5     		push	{r4, r5, r6, lr}
 752              	.LCFI4:
 753              		.cfi_def_cfa_offset 16
 754              		.cfi_offset 4, -16
 755              		.cfi_offset 5, -12
 756              		.cfi_offset 6, -8
 757              		.cfi_offset 14, -4
 758 0002 0400     		movs	r4, r0
 598:Middlewares/ST/STM32_USB_Device_Library/Core/Src/usbd_ctlreq.c **** 
 759              		.loc 1 598 3 is_stmt 1 view .LVU214
 600:Middlewares/ST/STM32_USB_Device_Library/Core/Src/usbd_ctlreq.c ****   {
 760              		.loc 1 600 3 view .LVU215
 600:Middlewares/ST/STM32_USB_Device_Library/Core/Src/usbd_ctlreq.c ****   {
 761              		.loc 1 600 11 is_stmt 0 view .LVU216
 762 0004 8B88     		ldrh	r3, [r1, #4]
 600:Middlewares/ST/STM32_USB_Device_Library/Core/Src/usbd_ctlreq.c ****   {
 763              		.loc 1 600 6 view .LVU217
 764 0006 002B     		cmp	r3, #0
 765 0008 23D1     		bne	.L47
 600:Middlewares/ST/STM32_USB_Device_Library/Core/Src/usbd_ctlreq.c ****   {
 766              		.loc 1 600 34 discriminator 1 view .LVU218
 767 000a CB88     		ldrh	r3, [r1, #6]
 600:Middlewares/ST/STM32_USB_Device_Library/Core/Src/usbd_ctlreq.c ****   {
 768              		.loc 1 600 27 discriminator 1 view .LVU219
 769 000c 002B     		cmp	r3, #0
 770 000e 20D1     		bne	.L47
 600:Middlewares/ST/STM32_USB_Device_Library/Core/Src/usbd_ctlreq.c ****   {
 771              		.loc 1 600 58 discriminator 2 view .LVU220
 772 0010 4B88     		ldrh	r3, [r1, #2]
 600:Middlewares/ST/STM32_USB_Device_Library/Core/Src/usbd_ctlreq.c ****   {
 773              		.loc 1 600 51 discriminator 2 view .LVU221
 774 0012 7F2B     		cmp	r3, #127
 775 0014 1DD8     		bhi	.L47
 602:Middlewares/ST/STM32_USB_Device_Library/Core/Src/usbd_ctlreq.c **** 
 776              		.loc 1 602 5 is_stmt 1 view .LVU222
 602:Middlewares/ST/STM32_USB_Device_Library/Core/Src/usbd_ctlreq.c **** 
 777              		.loc 1 602 14 is_stmt 0 view .LVU223
 778 0016 7F25     		movs	r5, #127
 779 0018 1D40     		ands	r5, r3
ARM GAS  /tmp/cc2rDdvh.s 			page 34


 780              	.LVL83:
 604:Middlewares/ST/STM32_USB_Device_Library/Core/Src/usbd_ctlreq.c ****     {
 781              		.loc 1 604 5 is_stmt 1 view .LVU224
 604:Middlewares/ST/STM32_USB_Device_Library/Core/Src/usbd_ctlreq.c ****     {
 782              		.loc 1 604 13 is_stmt 0 view .LVU225
 783 001a A723     		movs	r3, #167
 784 001c 9B00     		lsls	r3, r3, #2
 785 001e C35C     		ldrb	r3, [r0, r3]
 604:Middlewares/ST/STM32_USB_Device_Library/Core/Src/usbd_ctlreq.c ****     {
 786              		.loc 1 604 8 view .LVU226
 787 0020 032B     		cmp	r3, #3
 788 0022 0ED0     		beq	.L51
 610:Middlewares/ST/STM32_USB_Device_Library/Core/Src/usbd_ctlreq.c ****       USBD_LL_SetUSBAddress(pdev, dev_addr);
 789              		.loc 1 610 7 is_stmt 1 view .LVU227
 610:Middlewares/ST/STM32_USB_Device_Library/Core/Src/usbd_ctlreq.c ****       USBD_LL_SetUSBAddress(pdev, dev_addr);
 790              		.loc 1 610 25 is_stmt 0 view .LVU228
 791 0024 0D4B     		ldr	r3, .L52
 792 0026 C554     		strb	r5, [r0, r3]
 611:Middlewares/ST/STM32_USB_Device_Library/Core/Src/usbd_ctlreq.c ****       USBD_CtlSendStatus(pdev);
 793              		.loc 1 611 7 is_stmt 1 view .LVU229
 794 0028 2900     		movs	r1, r5
 795              	.LVL84:
 611:Middlewares/ST/STM32_USB_Device_Library/Core/Src/usbd_ctlreq.c ****       USBD_CtlSendStatus(pdev);
 796              		.loc 1 611 7 is_stmt 0 view .LVU230
 797 002a FFF7FEFF 		bl	USBD_LL_SetUSBAddress
 798              	.LVL85:
 612:Middlewares/ST/STM32_USB_Device_Library/Core/Src/usbd_ctlreq.c **** 
 799              		.loc 1 612 7 is_stmt 1 view .LVU231
 800 002e 2000     		movs	r0, r4
 801 0030 FFF7FEFF 		bl	USBD_CtlSendStatus
 802              	.LVL86:
 614:Middlewares/ST/STM32_USB_Device_Library/Core/Src/usbd_ctlreq.c ****       {
 803              		.loc 1 614 7 view .LVU232
 614:Middlewares/ST/STM32_USB_Device_Library/Core/Src/usbd_ctlreq.c ****       {
 804              		.loc 1 614 10 is_stmt 0 view .LVU233
 805 0034 002D     		cmp	r5, #0
 806 0036 07D0     		beq	.L50
 616:Middlewares/ST/STM32_USB_Device_Library/Core/Src/usbd_ctlreq.c ****       }
 807              		.loc 1 616 9 is_stmt 1 view .LVU234
 616:Middlewares/ST/STM32_USB_Device_Library/Core/Src/usbd_ctlreq.c ****       }
 808              		.loc 1 616 25 is_stmt 0 view .LVU235
 809 0038 A723     		movs	r3, #167
 810 003a 9B00     		lsls	r3, r3, #2
 811 003c 0222     		movs	r2, #2
 812 003e E254     		strb	r2, [r4, r3]
 813 0040 0AE0     		b	.L46
 814              	.LVL87:
 815              	.L51:
 606:Middlewares/ST/STM32_USB_Device_Library/Core/Src/usbd_ctlreq.c ****     }
 816              		.loc 1 606 7 is_stmt 1 view .LVU236
 817 0042 FFF7FEFF 		bl	USBD_CtlError
 818              	.LVL88:
 606:Middlewares/ST/STM32_USB_Device_Library/Core/Src/usbd_ctlreq.c ****     }
 819              		.loc 1 606 7 is_stmt 0 view .LVU237
 820 0046 07E0     		b	.L46
 821              	.L50:
 620:Middlewares/ST/STM32_USB_Device_Library/Core/Src/usbd_ctlreq.c ****       }
ARM GAS  /tmp/cc2rDdvh.s 			page 35


 822              		.loc 1 620 9 is_stmt 1 view .LVU238
 620:Middlewares/ST/STM32_USB_Device_Library/Core/Src/usbd_ctlreq.c ****       }
 823              		.loc 1 620 25 is_stmt 0 view .LVU239
 824 0048 A723     		movs	r3, #167
 825 004a 9B00     		lsls	r3, r3, #2
 826 004c 0122     		movs	r2, #1
 827 004e E254     		strb	r2, [r4, r3]
 828 0050 02E0     		b	.L46
 829              	.LVL89:
 830              	.L47:
 626:Middlewares/ST/STM32_USB_Device_Library/Core/Src/usbd_ctlreq.c ****   }
 831              		.loc 1 626 5 is_stmt 1 view .LVU240
 832 0052 2000     		movs	r0, r4
 833              	.LVL90:
 626:Middlewares/ST/STM32_USB_Device_Library/Core/Src/usbd_ctlreq.c ****   }
 834              		.loc 1 626 5 is_stmt 0 view .LVU241
 835 0054 FFF7FEFF 		bl	USBD_CtlError
 836              	.LVL91:
 837              	.L46:
 628:Middlewares/ST/STM32_USB_Device_Library/Core/Src/usbd_ctlreq.c **** 
 838              		.loc 1 628 1 view .LVU242
 839              		@ sp needed
 840              	.LVL92:
 628:Middlewares/ST/STM32_USB_Device_Library/Core/Src/usbd_ctlreq.c **** 
 841              		.loc 1 628 1 view .LVU243
 842 0058 70BD     		pop	{r4, r5, r6, pc}
 843              	.L53:
 844 005a C046     		.align	2
 845              	.L52:
 846 005c 9E020000 		.word	670
 847              		.cfi_endproc
 848              	.LFE47:
 850              		.section	.text.USBD_SetConfig,"ax",%progbits
 851              		.align	1
 852              		.syntax unified
 853              		.code	16
 854              		.thumb_func
 855              		.fpu softvfp
 857              	USBD_SetConfig:
 858              	.LVL93:
 859              	.LFB48:
 638:Middlewares/ST/STM32_USB_Device_Library/Core/Src/usbd_ctlreq.c ****   static uint8_t cfgidx;
 860              		.loc 1 638 1 is_stmt 1 view -0
 861              		.cfi_startproc
 862              		@ args = 0, pretend = 0, frame = 0
 863              		@ frame_needed = 0, uses_anonymous_args = 0
 638:Middlewares/ST/STM32_USB_Device_Library/Core/Src/usbd_ctlreq.c ****   static uint8_t cfgidx;
 864              		.loc 1 638 1 is_stmt 0 view .LVU245
 865 0000 70B5     		push	{r4, r5, r6, lr}
 866              	.LCFI5:
 867              		.cfi_def_cfa_offset 16
 868              		.cfi_offset 4, -16
 869              		.cfi_offset 5, -12
 870              		.cfi_offset 6, -8
 871              		.cfi_offset 14, -4
 872 0002 0400     		movs	r4, r0
 873 0004 0D00     		movs	r5, r1
ARM GAS  /tmp/cc2rDdvh.s 			page 36


 639:Middlewares/ST/STM32_USB_Device_Library/Core/Src/usbd_ctlreq.c **** 
 874              		.loc 1 639 3 is_stmt 1 view .LVU246
 641:Middlewares/ST/STM32_USB_Device_Library/Core/Src/usbd_ctlreq.c **** 
 875              		.loc 1 641 3 view .LVU247
 641:Middlewares/ST/STM32_USB_Device_Library/Core/Src/usbd_ctlreq.c **** 
 876              		.loc 1 641 12 is_stmt 0 view .LVU248
 877 0006 8978     		ldrb	r1, [r1, #2]
 878              	.LVL94:
 641:Middlewares/ST/STM32_USB_Device_Library/Core/Src/usbd_ctlreq.c **** 
 879              		.loc 1 641 10 view .LVU249
 880 0008 2A4B     		ldr	r3, .L70
 881 000a 1970     		strb	r1, [r3]
 643:Middlewares/ST/STM32_USB_Device_Library/Core/Src/usbd_ctlreq.c ****   {
 882              		.loc 1 643 3 is_stmt 1 view .LVU250
 643:Middlewares/ST/STM32_USB_Device_Library/Core/Src/usbd_ctlreq.c ****   {
 883              		.loc 1 643 6 is_stmt 0 view .LVU251
 884 000c 0129     		cmp	r1, #1
 885 000e 0FD8     		bhi	.L66
 649:Middlewares/ST/STM32_USB_Device_Library/Core/Src/usbd_ctlreq.c ****     {
 886              		.loc 1 649 5 is_stmt 1 view .LVU252
 649:Middlewares/ST/STM32_USB_Device_Library/Core/Src/usbd_ctlreq.c ****     {
 887              		.loc 1 649 17 is_stmt 0 view .LVU253
 888 0010 A723     		movs	r3, #167
 889 0012 9B00     		lsls	r3, r3, #2
 890 0014 C35C     		ldrb	r3, [r0, r3]
 649:Middlewares/ST/STM32_USB_Device_Library/Core/Src/usbd_ctlreq.c ****     {
 891              		.loc 1 649 5 view .LVU254
 892 0016 022B     		cmp	r3, #2
 893 0018 0ED0     		beq	.L57
 894 001a 032B     		cmp	r3, #3
 895 001c 23D0     		beq	.L58
 698:Middlewares/ST/STM32_USB_Device_Library/Core/Src/usbd_ctlreq.c ****         USBD_ClrClassConfig(pdev, cfgidx);
 896              		.loc 1 698 9 is_stmt 1 view .LVU255
 897 001e 2900     		movs	r1, r5
 898 0020 FFF7FEFF 		bl	USBD_CtlError
 899              	.LVL95:
 699:Middlewares/ST/STM32_USB_Device_Library/Core/Src/usbd_ctlreq.c ****         break;
 900              		.loc 1 699 9 view .LVU256
 901 0024 234B     		ldr	r3, .L70
 902 0026 1978     		ldrb	r1, [r3]
 903 0028 2000     		movs	r0, r4
 904 002a FFF7FEFF 		bl	USBD_ClrClassConfig
 905              	.LVL96:
 700:Middlewares/ST/STM32_USB_Device_Library/Core/Src/usbd_ctlreq.c ****     }
 906              		.loc 1 700 9 view .LVU257
 907 002e 02E0     		b	.L54
 908              	.LVL97:
 909              	.L66:
 645:Middlewares/ST/STM32_USB_Device_Library/Core/Src/usbd_ctlreq.c ****   }
 910              		.loc 1 645 5 view .LVU258
 911 0030 2900     		movs	r1, r5
 912 0032 FFF7FEFF 		bl	USBD_CtlError
 913              	.LVL98:
 914              	.L54:
 703:Middlewares/ST/STM32_USB_Device_Library/Core/Src/usbd_ctlreq.c **** 
 915              		.loc 1 703 1 is_stmt 0 view .LVU259
 916              		@ sp needed
ARM GAS  /tmp/cc2rDdvh.s 			page 37


 917              	.LVL99:
 918              	.LVL100:
 703:Middlewares/ST/STM32_USB_Device_Library/Core/Src/usbd_ctlreq.c **** 
 919              		.loc 1 703 1 view .LVU260
 920 0036 70BD     		pop	{r4, r5, r6, pc}
 921              	.LVL101:
 922              	.L57:
 652:Middlewares/ST/STM32_USB_Device_Library/Core/Src/usbd_ctlreq.c ****         {
 923              		.loc 1 652 9 is_stmt 1 view .LVU261
 652:Middlewares/ST/STM32_USB_Device_Library/Core/Src/usbd_ctlreq.c ****         {
 924              		.loc 1 652 12 is_stmt 0 view .LVU262
 925 0038 0029     		cmp	r1, #0
 926 003a 11D0     		beq	.L60
 654:Middlewares/ST/STM32_USB_Device_Library/Core/Src/usbd_ctlreq.c ****           pdev->dev_state = USBD_STATE_CONFIGURED;
 927              		.loc 1 654 11 is_stmt 1 view .LVU263
 654:Middlewares/ST/STM32_USB_Device_Library/Core/Src/usbd_ctlreq.c ****           pdev->dev_state = USBD_STATE_CONFIGURED;
 928              		.loc 1 654 28 is_stmt 0 view .LVU264
 929 003c 4160     		str	r1, [r0, #4]
 655:Middlewares/ST/STM32_USB_Device_Library/Core/Src/usbd_ctlreq.c ****           if (USBD_SetClassConfig(pdev, cfgidx) == USBD_FAIL)
 930              		.loc 1 655 11 is_stmt 1 view .LVU265
 655:Middlewares/ST/STM32_USB_Device_Library/Core/Src/usbd_ctlreq.c ****           if (USBD_SetClassConfig(pdev, cfgidx) == USBD_FAIL)
 931              		.loc 1 655 27 is_stmt 0 view .LVU266
 932 003e A723     		movs	r3, #167
 933 0040 9B00     		lsls	r3, r3, #2
 934 0042 0322     		movs	r2, #3
 935 0044 C254     		strb	r2, [r0, r3]
 656:Middlewares/ST/STM32_USB_Device_Library/Core/Src/usbd_ctlreq.c ****           {
 936              		.loc 1 656 11 is_stmt 1 view .LVU267
 656:Middlewares/ST/STM32_USB_Device_Library/Core/Src/usbd_ctlreq.c ****           {
 937              		.loc 1 656 15 is_stmt 0 view .LVU268
 938 0046 FFF7FEFF 		bl	USBD_SetClassConfig
 939              	.LVL102:
 656:Middlewares/ST/STM32_USB_Device_Library/Core/Src/usbd_ctlreq.c ****           {
 940              		.loc 1 656 14 view .LVU269
 941 004a 0228     		cmp	r0, #2
 942 004c 03D0     		beq	.L67
 661:Middlewares/ST/STM32_USB_Device_Library/Core/Src/usbd_ctlreq.c ****         }
 943              		.loc 1 661 11 is_stmt 1 view .LVU270
 944 004e 2000     		movs	r0, r4
 945 0050 FFF7FEFF 		bl	USBD_CtlSendStatus
 946              	.LVL103:
 947 0054 EFE7     		b	.L54
 948              	.L67:
 658:Middlewares/ST/STM32_USB_Device_Library/Core/Src/usbd_ctlreq.c ****             return;
 949              		.loc 1 658 13 view .LVU271
 950 0056 2900     		movs	r1, r5
 951 0058 2000     		movs	r0, r4
 952 005a FFF7FEFF 		bl	USBD_CtlError
 953              	.LVL104:
 659:Middlewares/ST/STM32_USB_Device_Library/Core/Src/usbd_ctlreq.c ****           }
 954              		.loc 1 659 13 view .LVU272
 955 005e EAE7     		b	.L54
 956              	.LVL105:
 957              	.L60:
 665:Middlewares/ST/STM32_USB_Device_Library/Core/Src/usbd_ctlreq.c ****         }
 958              		.loc 1 665 11 view .LVU273
 959 0060 FFF7FEFF 		bl	USBD_CtlSendStatus
ARM GAS  /tmp/cc2rDdvh.s 			page 38


 960              	.LVL106:
 665:Middlewares/ST/STM32_USB_Device_Library/Core/Src/usbd_ctlreq.c ****         }
 961              		.loc 1 665 11 is_stmt 0 view .LVU274
 962 0064 E7E7     		b	.L54
 963              	.LVL107:
 964              	.L58:
 670:Middlewares/ST/STM32_USB_Device_Library/Core/Src/usbd_ctlreq.c ****         {
 965              		.loc 1 670 9 is_stmt 1 view .LVU275
 670:Middlewares/ST/STM32_USB_Device_Library/Core/Src/usbd_ctlreq.c ****         {
 966              		.loc 1 670 12 is_stmt 0 view .LVU276
 967 0066 0029     		cmp	r1, #0
 968 0068 11D0     		beq	.L68
 677:Middlewares/ST/STM32_USB_Device_Library/Core/Src/usbd_ctlreq.c ****         {
 969              		.loc 1 677 14 is_stmt 1 view .LVU277
 677:Middlewares/ST/STM32_USB_Device_Library/Core/Src/usbd_ctlreq.c ****         {
 970              		.loc 1 677 32 is_stmt 0 view .LVU278
 971 006a 4368     		ldr	r3, [r0, #4]
 677:Middlewares/ST/STM32_USB_Device_Library/Core/Src/usbd_ctlreq.c ****         {
 972              		.loc 1 677 17 view .LVU279
 973 006c 9942     		cmp	r1, r3
 974 006e 1ED0     		beq	.L63
 680:Middlewares/ST/STM32_USB_Device_Library/Core/Src/usbd_ctlreq.c **** 
 975              		.loc 1 680 11 is_stmt 1 view .LVU280
 976 0070 D9B2     		uxtb	r1, r3
 977 0072 FFF7FEFF 		bl	USBD_ClrClassConfig
 978              	.LVL108:
 683:Middlewares/ST/STM32_USB_Device_Library/Core/Src/usbd_ctlreq.c ****           if (USBD_SetClassConfig(pdev, cfgidx) == USBD_FAIL)
 979              		.loc 1 683 11 view .LVU281
 683:Middlewares/ST/STM32_USB_Device_Library/Core/Src/usbd_ctlreq.c ****           if (USBD_SetClassConfig(pdev, cfgidx) == USBD_FAIL)
 980              		.loc 1 683 28 is_stmt 0 view .LVU282
 981 0076 0F4B     		ldr	r3, .L70
 982 0078 1978     		ldrb	r1, [r3]
 983 007a 6160     		str	r1, [r4, #4]
 684:Middlewares/ST/STM32_USB_Device_Library/Core/Src/usbd_ctlreq.c ****           {
 984              		.loc 1 684 11 is_stmt 1 view .LVU283
 684:Middlewares/ST/STM32_USB_Device_Library/Core/Src/usbd_ctlreq.c ****           {
 985              		.loc 1 684 15 is_stmt 0 view .LVU284
 986 007c 2000     		movs	r0, r4
 987 007e FFF7FEFF 		bl	USBD_SetClassConfig
 988              	.LVL109:
 684:Middlewares/ST/STM32_USB_Device_Library/Core/Src/usbd_ctlreq.c ****           {
 989              		.loc 1 684 14 view .LVU285
 990 0082 0228     		cmp	r0, #2
 991 0084 0ED0     		beq	.L69
 689:Middlewares/ST/STM32_USB_Device_Library/Core/Src/usbd_ctlreq.c ****         }
 992              		.loc 1 689 11 is_stmt 1 view .LVU286
 993 0086 2000     		movs	r0, r4
 994 0088 FFF7FEFF 		bl	USBD_CtlSendStatus
 995              	.LVL110:
 996 008c D3E7     		b	.L54
 997              	.LVL111:
 998              	.L68:
 672:Middlewares/ST/STM32_USB_Device_Library/Core/Src/usbd_ctlreq.c ****           pdev->dev_config = cfgidx;
 999              		.loc 1 672 11 view .LVU287
 672:Middlewares/ST/STM32_USB_Device_Library/Core/Src/usbd_ctlreq.c ****           pdev->dev_config = cfgidx;
 1000              		.loc 1 672 27 is_stmt 0 view .LVU288
 1001 008e A723     		movs	r3, #167
ARM GAS  /tmp/cc2rDdvh.s 			page 39


 1002 0090 9B00     		lsls	r3, r3, #2
 1003 0092 0222     		movs	r2, #2
 1004 0094 C254     		strb	r2, [r0, r3]
 673:Middlewares/ST/STM32_USB_Device_Library/Core/Src/usbd_ctlreq.c ****           USBD_ClrClassConfig(pdev, cfgidx);
 1005              		.loc 1 673 11 is_stmt 1 view .LVU289
 673:Middlewares/ST/STM32_USB_Device_Library/Core/Src/usbd_ctlreq.c ****           USBD_ClrClassConfig(pdev, cfgidx);
 1006              		.loc 1 673 28 is_stmt 0 view .LVU290
 1007 0096 4160     		str	r1, [r0, #4]
 674:Middlewares/ST/STM32_USB_Device_Library/Core/Src/usbd_ctlreq.c ****           USBD_CtlSendStatus(pdev);
 1008              		.loc 1 674 11 is_stmt 1 view .LVU291
 1009 0098 FFF7FEFF 		bl	USBD_ClrClassConfig
 1010              	.LVL112:
 675:Middlewares/ST/STM32_USB_Device_Library/Core/Src/usbd_ctlreq.c ****         }
 1011              		.loc 1 675 11 view .LVU292
 1012 009c 2000     		movs	r0, r4
 1013 009e FFF7FEFF 		bl	USBD_CtlSendStatus
 1014              	.LVL113:
 1015 00a2 C8E7     		b	.L54
 1016              	.L69:
 686:Middlewares/ST/STM32_USB_Device_Library/Core/Src/usbd_ctlreq.c ****             return;
 1017              		.loc 1 686 13 view .LVU293
 1018 00a4 2900     		movs	r1, r5
 1019 00a6 2000     		movs	r0, r4
 1020 00a8 FFF7FEFF 		bl	USBD_CtlError
 1021              	.LVL114:
 687:Middlewares/ST/STM32_USB_Device_Library/Core/Src/usbd_ctlreq.c ****           }
 1022              		.loc 1 687 13 view .LVU294
 1023 00ac C3E7     		b	.L54
 1024              	.LVL115:
 1025              	.L63:
 693:Middlewares/ST/STM32_USB_Device_Library/Core/Src/usbd_ctlreq.c ****         }
 1026              		.loc 1 693 11 view .LVU295
 1027 00ae FFF7FEFF 		bl	USBD_CtlSendStatus
 1028              	.LVL116:
 693:Middlewares/ST/STM32_USB_Device_Library/Core/Src/usbd_ctlreq.c ****         }
 1029              		.loc 1 693 11 is_stmt 0 view .LVU296
 1030 00b2 C0E7     		b	.L54
 1031              	.L71:
 1032              		.align	2
 1033              	.L70:
 1034 00b4 00000000 		.word	.LANCHOR0
 1035              		.cfi_endproc
 1036              	.LFE48:
 1038              		.section	.text.USBD_GetConfig,"ax",%progbits
 1039              		.align	1
 1040              		.syntax unified
 1041              		.code	16
 1042              		.thumb_func
 1043              		.fpu softvfp
 1045              	USBD_GetConfig:
 1046              	.LVL117:
 1047              	.LFB49:
 713:Middlewares/ST/STM32_USB_Device_Library/Core/Src/usbd_ctlreq.c ****   if (req->wLength != 1U)
 1048              		.loc 1 713 1 is_stmt 1 view -0
 1049              		.cfi_startproc
 1050              		@ args = 0, pretend = 0, frame = 0
 1051              		@ frame_needed = 0, uses_anonymous_args = 0
ARM GAS  /tmp/cc2rDdvh.s 			page 40


 713:Middlewares/ST/STM32_USB_Device_Library/Core/Src/usbd_ctlreq.c ****   if (req->wLength != 1U)
 1052              		.loc 1 713 1 is_stmt 0 view .LVU298
 1053 0000 10B5     		push	{r4, lr}
 1054              	.LCFI6:
 1055              		.cfi_def_cfa_offset 8
 1056              		.cfi_offset 4, -8
 1057              		.cfi_offset 14, -4
 714:Middlewares/ST/STM32_USB_Device_Library/Core/Src/usbd_ctlreq.c ****   {
 1058              		.loc 1 714 3 is_stmt 1 view .LVU299
 714:Middlewares/ST/STM32_USB_Device_Library/Core/Src/usbd_ctlreq.c ****   {
 1059              		.loc 1 714 10 is_stmt 0 view .LVU300
 1060 0002 CB88     		ldrh	r3, [r1, #6]
 714:Middlewares/ST/STM32_USB_Device_Library/Core/Src/usbd_ctlreq.c ****   {
 1061              		.loc 1 714 6 view .LVU301
 1062 0004 012B     		cmp	r3, #1
 1063 0006 0BD1     		bne	.L79
 720:Middlewares/ST/STM32_USB_Device_Library/Core/Src/usbd_ctlreq.c ****     {
 1064              		.loc 1 720 5 is_stmt 1 view .LVU302
 720:Middlewares/ST/STM32_USB_Device_Library/Core/Src/usbd_ctlreq.c ****     {
 1065              		.loc 1 720 17 is_stmt 0 view .LVU303
 1066 0008 A723     		movs	r3, #167
 1067 000a 9B00     		lsls	r3, r3, #2
 1068 000c C35C     		ldrb	r3, [r0, r3]
 720:Middlewares/ST/STM32_USB_Device_Library/Core/Src/usbd_ctlreq.c ****     {
 1069              		.loc 1 720 5 view .LVU304
 1070 000e 022B     		cmp	r3, #2
 1071 0010 09D9     		bls	.L80
 1072 0012 032B     		cmp	r3, #3
 1073 0014 09D1     		bne	.L77
 729:Middlewares/ST/STM32_USB_Device_Library/Core/Src/usbd_ctlreq.c ****         break;
 1074              		.loc 1 729 9 is_stmt 1 view .LVU305
 729:Middlewares/ST/STM32_USB_Device_Library/Core/Src/usbd_ctlreq.c ****         break;
 1075              		.loc 1 729 51 is_stmt 0 view .LVU306
 1076 0016 011D     		adds	r1, r0, #4
 1077              	.LVL118:
 729:Middlewares/ST/STM32_USB_Device_Library/Core/Src/usbd_ctlreq.c ****         break;
 1078              		.loc 1 729 9 view .LVU307
 1079 0018 0122     		movs	r2, #1
 1080 001a FFF7FEFF 		bl	USBD_CtlSendData
 1081              	.LVL119:
 730:Middlewares/ST/STM32_USB_Device_Library/Core/Src/usbd_ctlreq.c **** 
 1082              		.loc 1 730 9 is_stmt 1 view .LVU308
 1083 001e 01E0     		b	.L72
 1084              	.LVL120:
 1085              	.L79:
 716:Middlewares/ST/STM32_USB_Device_Library/Core/Src/usbd_ctlreq.c ****   }
 1086              		.loc 1 716 5 view .LVU309
 1087 0020 FFF7FEFF 		bl	USBD_CtlError
 1088              	.LVL121:
 1089              	.L72:
 737:Middlewares/ST/STM32_USB_Device_Library/Core/Src/usbd_ctlreq.c **** 
 1090              		.loc 1 737 1 is_stmt 0 view .LVU310
 1091              		@ sp needed
 1092 0024 10BD     		pop	{r4, pc}
 1093              	.LVL122:
 1094              	.L80:
 720:Middlewares/ST/STM32_USB_Device_Library/Core/Src/usbd_ctlreq.c ****     {
ARM GAS  /tmp/cc2rDdvh.s 			page 41


 1095              		.loc 1 720 5 view .LVU311
 1096 0026 002B     		cmp	r3, #0
 1097 0028 02D1     		bne	.L81
 1098              	.L77:
 733:Middlewares/ST/STM32_USB_Device_Library/Core/Src/usbd_ctlreq.c ****         break;
 1099              		.loc 1 733 9 is_stmt 1 view .LVU312
 1100 002a FFF7FEFF 		bl	USBD_CtlError
 1101              	.LVL123:
 734:Middlewares/ST/STM32_USB_Device_Library/Core/Src/usbd_ctlreq.c ****     }
 1102              		.loc 1 734 9 view .LVU313
 737:Middlewares/ST/STM32_USB_Device_Library/Core/Src/usbd_ctlreq.c **** 
 1103              		.loc 1 737 1 is_stmt 0 view .LVU314
 1104 002e F9E7     		b	.L72
 1105              	.LVL124:
 1106              	.L81:
 724:Middlewares/ST/STM32_USB_Device_Library/Core/Src/usbd_ctlreq.c ****         USBD_CtlSendData(pdev, (uint8_t *)(void *)&pdev->dev_default_config, 1U);
 1107              		.loc 1 724 9 is_stmt 1 view .LVU315
 724:Middlewares/ST/STM32_USB_Device_Library/Core/Src/usbd_ctlreq.c ****         USBD_CtlSendData(pdev, (uint8_t *)(void *)&pdev->dev_default_config, 1U);
 1108              		.loc 1 724 34 is_stmt 0 view .LVU316
 1109 0030 0023     		movs	r3, #0
 1110 0032 8360     		str	r3, [r0, #8]
 725:Middlewares/ST/STM32_USB_Device_Library/Core/Src/usbd_ctlreq.c ****         break;
 1111              		.loc 1 725 9 is_stmt 1 view .LVU317
 725:Middlewares/ST/STM32_USB_Device_Library/Core/Src/usbd_ctlreq.c ****         break;
 1112              		.loc 1 725 51 is_stmt 0 view .LVU318
 1113 0034 0100     		movs	r1, r0
 1114              	.LVL125:
 725:Middlewares/ST/STM32_USB_Device_Library/Core/Src/usbd_ctlreq.c ****         break;
 1115              		.loc 1 725 51 view .LVU319
 1116 0036 0831     		adds	r1, r1, #8
 725:Middlewares/ST/STM32_USB_Device_Library/Core/Src/usbd_ctlreq.c ****         break;
 1117              		.loc 1 725 9 view .LVU320
 1118 0038 0122     		movs	r2, #1
 1119 003a FFF7FEFF 		bl	USBD_CtlSendData
 1120              	.LVL126:
 726:Middlewares/ST/STM32_USB_Device_Library/Core/Src/usbd_ctlreq.c **** 
 1121              		.loc 1 726 9 is_stmt 1 view .LVU321
 1122 003e F1E7     		b	.L72
 1123              		.cfi_endproc
 1124              	.LFE49:
 1126              		.section	.text.USBD_GetStatus,"ax",%progbits
 1127              		.align	1
 1128              		.syntax unified
 1129              		.code	16
 1130              		.thumb_func
 1131              		.fpu softvfp
 1133              	USBD_GetStatus:
 1134              	.LVL127:
 1135              	.LFB50:
 747:Middlewares/ST/STM32_USB_Device_Library/Core/Src/usbd_ctlreq.c ****   switch (pdev->dev_state)
 1136              		.loc 1 747 1 view -0
 1137              		.cfi_startproc
 1138              		@ args = 0, pretend = 0, frame = 0
 1139              		@ frame_needed = 0, uses_anonymous_args = 0
 747:Middlewares/ST/STM32_USB_Device_Library/Core/Src/usbd_ctlreq.c ****   switch (pdev->dev_state)
 1140              		.loc 1 747 1 is_stmt 0 view .LVU323
 1141 0000 10B5     		push	{r4, lr}
ARM GAS  /tmp/cc2rDdvh.s 			page 42


 1142              	.LCFI7:
 1143              		.cfi_def_cfa_offset 8
 1144              		.cfi_offset 4, -8
 1145              		.cfi_offset 14, -4
 748:Middlewares/ST/STM32_USB_Device_Library/Core/Src/usbd_ctlreq.c ****   {
 1146              		.loc 1 748 3 is_stmt 1 view .LVU324
 748:Middlewares/ST/STM32_USB_Device_Library/Core/Src/usbd_ctlreq.c ****   {
 1147              		.loc 1 748 15 is_stmt 0 view .LVU325
 1148 0002 A723     		movs	r3, #167
 1149 0004 9B00     		lsls	r3, r3, #2
 1150 0006 C35C     		ldrb	r3, [r0, r3]
 748:Middlewares/ST/STM32_USB_Device_Library/Core/Src/usbd_ctlreq.c ****   {
 1151              		.loc 1 748 3 view .LVU326
 1152 0008 013B     		subs	r3, r3, #1
 1153 000a 022B     		cmp	r3, #2
 1154 000c 14D8     		bhi	.L83
 753:Middlewares/ST/STM32_USB_Device_Library/Core/Src/usbd_ctlreq.c ****       {
 1155              		.loc 1 753 7 is_stmt 1 view .LVU327
 753:Middlewares/ST/STM32_USB_Device_Library/Core/Src/usbd_ctlreq.c ****       {
 1156              		.loc 1 753 14 is_stmt 0 view .LVU328
 1157 000e CB88     		ldrh	r3, [r1, #6]
 753:Middlewares/ST/STM32_USB_Device_Library/Core/Src/usbd_ctlreq.c ****       {
 1158              		.loc 1 753 10 view .LVU329
 1159 0010 022B     		cmp	r3, #2
 1160 0012 0ED1     		bne	.L87
 760:Middlewares/ST/STM32_USB_Device_Library/Core/Src/usbd_ctlreq.c **** #else
 1161              		.loc 1 760 7 is_stmt 1 view .LVU330
 760:Middlewares/ST/STM32_USB_Device_Library/Core/Src/usbd_ctlreq.c **** #else
 1162              		.loc 1 760 31 is_stmt 0 view .LVU331
 1163 0014 0123     		movs	r3, #1
 1164 0016 C360     		str	r3, [r0, #12]
 765:Middlewares/ST/STM32_USB_Device_Library/Core/Src/usbd_ctlreq.c ****       {
 1165              		.loc 1 765 7 is_stmt 1 view .LVU332
 765:Middlewares/ST/STM32_USB_Device_Library/Core/Src/usbd_ctlreq.c ****       {
 1166              		.loc 1 765 15 is_stmt 0 view .LVU333
 1167 0018 A923     		movs	r3, #169
 1168 001a 9B00     		lsls	r3, r3, #2
 1169 001c C358     		ldr	r3, [r0, r3]
 765:Middlewares/ST/STM32_USB_Device_Library/Core/Src/usbd_ctlreq.c ****       {
 1170              		.loc 1 765 10 view .LVU334
 1171 001e 002B     		cmp	r3, #0
 1172 0020 01D0     		beq	.L86
 767:Middlewares/ST/STM32_USB_Device_Library/Core/Src/usbd_ctlreq.c ****       }
 1173              		.loc 1 767 9 is_stmt 1 view .LVU335
 767:Middlewares/ST/STM32_USB_Device_Library/Core/Src/usbd_ctlreq.c ****       }
 1174              		.loc 1 767 33 is_stmt 0 view .LVU336
 1175 0022 0323     		movs	r3, #3
 1176 0024 C360     		str	r3, [r0, #12]
 1177              	.L86:
 770:Middlewares/ST/STM32_USB_Device_Library/Core/Src/usbd_ctlreq.c ****       break;
 1178              		.loc 1 770 7 is_stmt 1 view .LVU337
 770:Middlewares/ST/STM32_USB_Device_Library/Core/Src/usbd_ctlreq.c ****       break;
 1179              		.loc 1 770 49 is_stmt 0 view .LVU338
 1180 0026 0100     		movs	r1, r0
 1181              	.LVL128:
 770:Middlewares/ST/STM32_USB_Device_Library/Core/Src/usbd_ctlreq.c ****       break;
 1182              		.loc 1 770 49 view .LVU339
ARM GAS  /tmp/cc2rDdvh.s 			page 43


 1183 0028 0C31     		adds	r1, r1, #12
 770:Middlewares/ST/STM32_USB_Device_Library/Core/Src/usbd_ctlreq.c ****       break;
 1184              		.loc 1 770 7 view .LVU340
 1185 002a 0222     		movs	r2, #2
 1186 002c FFF7FEFF 		bl	USBD_CtlSendData
 1187              	.LVL129:
 771:Middlewares/ST/STM32_USB_Device_Library/Core/Src/usbd_ctlreq.c **** 
 1188              		.loc 1 771 7 is_stmt 1 view .LVU341
 1189              	.L82:
 777:Middlewares/ST/STM32_USB_Device_Library/Core/Src/usbd_ctlreq.c **** 
 1190              		.loc 1 777 1 is_stmt 0 view .LVU342
 1191              		@ sp needed
 1192 0030 10BD     		pop	{r4, pc}
 1193              	.LVL130:
 1194              	.L87:
 755:Middlewares/ST/STM32_USB_Device_Library/Core/Src/usbd_ctlreq.c ****         break;
 1195              		.loc 1 755 9 is_stmt 1 view .LVU343
 1196 0032 FFF7FEFF 		bl	USBD_CtlError
 1197              	.LVL131:
 756:Middlewares/ST/STM32_USB_Device_Library/Core/Src/usbd_ctlreq.c ****       }
 1198              		.loc 1 756 9 view .LVU344
 1199 0036 FBE7     		b	.L82
 1200              	.LVL132:
 1201              	.L83:
 774:Middlewares/ST/STM32_USB_Device_Library/Core/Src/usbd_ctlreq.c ****       break;
 1202              		.loc 1 774 7 view .LVU345
 1203 0038 FFF7FEFF 		bl	USBD_CtlError
 1204              	.LVL133:
 775:Middlewares/ST/STM32_USB_Device_Library/Core/Src/usbd_ctlreq.c ****   }
 1205              		.loc 1 775 7 view .LVU346
 777:Middlewares/ST/STM32_USB_Device_Library/Core/Src/usbd_ctlreq.c **** 
 1206              		.loc 1 777 1 is_stmt 0 view .LVU347
 1207 003c F8E7     		b	.L82
 1208              		.cfi_endproc
 1209              	.LFE50:
 1211              		.section	.text.USBD_ClrFeature,"ax",%progbits
 1212              		.align	1
 1213              		.syntax unified
 1214              		.code	16
 1215              		.thumb_func
 1216              		.fpu softvfp
 1218              	USBD_ClrFeature:
 1219              	.LVL134:
 1220              	.LFB52:
 807:Middlewares/ST/STM32_USB_Device_Library/Core/Src/usbd_ctlreq.c ****   switch (pdev->dev_state)
 1221              		.loc 1 807 1 is_stmt 1 view -0
 1222              		.cfi_startproc
 1223              		@ args = 0, pretend = 0, frame = 0
 1224              		@ frame_needed = 0, uses_anonymous_args = 0
 807:Middlewares/ST/STM32_USB_Device_Library/Core/Src/usbd_ctlreq.c ****   switch (pdev->dev_state)
 1225              		.loc 1 807 1 is_stmt 0 view .LVU349
 1226 0000 10B5     		push	{r4, lr}
 1227              	.LCFI8:
 1228              		.cfi_def_cfa_offset 8
 1229              		.cfi_offset 4, -8
 1230              		.cfi_offset 14, -4
 808:Middlewares/ST/STM32_USB_Device_Library/Core/Src/usbd_ctlreq.c ****   {
ARM GAS  /tmp/cc2rDdvh.s 			page 44


 1231              		.loc 1 808 3 is_stmt 1 view .LVU350
 808:Middlewares/ST/STM32_USB_Device_Library/Core/Src/usbd_ctlreq.c ****   {
 1232              		.loc 1 808 15 is_stmt 0 view .LVU351
 1233 0002 A723     		movs	r3, #167
 1234 0004 9B00     		lsls	r3, r3, #2
 1235 0006 C35C     		ldrb	r3, [r0, r3]
 808:Middlewares/ST/STM32_USB_Device_Library/Core/Src/usbd_ctlreq.c ****   {
 1236              		.loc 1 808 3 view .LVU352
 1237 0008 013B     		subs	r3, r3, #1
 1238 000a 022B     		cmp	r3, #2
 1239 000c 0AD8     		bhi	.L89
 813:Middlewares/ST/STM32_USB_Device_Library/Core/Src/usbd_ctlreq.c ****       {
 1240              		.loc 1 813 7 is_stmt 1 view .LVU353
 813:Middlewares/ST/STM32_USB_Device_Library/Core/Src/usbd_ctlreq.c ****       {
 1241              		.loc 1 813 14 is_stmt 0 view .LVU354
 1242 000e 4B88     		ldrh	r3, [r1, #2]
 813:Middlewares/ST/STM32_USB_Device_Library/Core/Src/usbd_ctlreq.c ****       {
 1243              		.loc 1 813 10 view .LVU355
 1244 0010 012B     		cmp	r3, #1
 1245 0012 00D0     		beq	.L91
 1246              	.LVL135:
 1247              	.L88:
 824:Middlewares/ST/STM32_USB_Device_Library/Core/Src/usbd_ctlreq.c **** 
 1248              		.loc 1 824 1 view .LVU356
 1249              		@ sp needed
 1250 0014 10BD     		pop	{r4, pc}
 1251              	.LVL136:
 1252              	.L91:
 815:Middlewares/ST/STM32_USB_Device_Library/Core/Src/usbd_ctlreq.c ****         USBD_CtlSendStatus(pdev);
 1253              		.loc 1 815 9 is_stmt 1 view .LVU357
 815:Middlewares/ST/STM32_USB_Device_Library/Core/Src/usbd_ctlreq.c ****         USBD_CtlSendStatus(pdev);
 1254              		.loc 1 815 33 is_stmt 0 view .LVU358
 1255 0016 A923     		movs	r3, #169
 1256 0018 9B00     		lsls	r3, r3, #2
 1257 001a 0022     		movs	r2, #0
 1258 001c C250     		str	r2, [r0, r3]
 816:Middlewares/ST/STM32_USB_Device_Library/Core/Src/usbd_ctlreq.c ****       }
 1259              		.loc 1 816 9 is_stmt 1 view .LVU359
 1260 001e FFF7FEFF 		bl	USBD_CtlSendStatus
 1261              	.LVL137:
 816:Middlewares/ST/STM32_USB_Device_Library/Core/Src/usbd_ctlreq.c ****       }
 1262              		.loc 1 816 9 is_stmt 0 view .LVU360
 1263 0022 F7E7     		b	.L88
 1264              	.LVL138:
 1265              	.L89:
 821:Middlewares/ST/STM32_USB_Device_Library/Core/Src/usbd_ctlreq.c ****       break;
 1266              		.loc 1 821 7 is_stmt 1 view .LVU361
 1267 0024 FFF7FEFF 		bl	USBD_CtlError
 1268              	.LVL139:
 822:Middlewares/ST/STM32_USB_Device_Library/Core/Src/usbd_ctlreq.c ****   }
 1269              		.loc 1 822 7 view .LVU362
 824:Middlewares/ST/STM32_USB_Device_Library/Core/Src/usbd_ctlreq.c **** 
 1270              		.loc 1 824 1 is_stmt 0 view .LVU363
 1271 0028 F4E7     		b	.L88
 1272              		.cfi_endproc
 1273              	.LFE52:
 1275              		.section	.text.USBD_StdDevReq,"ax",%progbits
ARM GAS  /tmp/cc2rDdvh.s 			page 45


 1276              		.align	1
 1277              		.global	USBD_StdDevReq
 1278              		.syntax unified
 1279              		.code	16
 1280              		.thumb_func
 1281              		.fpu softvfp
 1283              	USBD_StdDevReq:
 1284              	.LVL140:
 1285              	.LFB43:
 116:Middlewares/ST/STM32_USB_Device_Library/Core/Src/usbd_ctlreq.c ****   USBD_StatusTypeDef ret = USBD_OK;
 1286              		.loc 1 116 1 is_stmt 1 view -0
 1287              		.cfi_startproc
 1288              		@ args = 0, pretend = 0, frame = 0
 1289              		@ frame_needed = 0, uses_anonymous_args = 0
 116:Middlewares/ST/STM32_USB_Device_Library/Core/Src/usbd_ctlreq.c ****   USBD_StatusTypeDef ret = USBD_OK;
 1290              		.loc 1 116 1 is_stmt 0 view .LVU365
 1291 0000 10B5     		push	{r4, lr}
 1292              	.LCFI9:
 1293              		.cfi_def_cfa_offset 8
 1294              		.cfi_offset 4, -8
 1295              		.cfi_offset 14, -4
 117:Middlewares/ST/STM32_USB_Device_Library/Core/Src/usbd_ctlreq.c **** 
 1296              		.loc 1 117 3 is_stmt 1 view .LVU366
 1297              	.LVL141:
 119:Middlewares/ST/STM32_USB_Device_Library/Core/Src/usbd_ctlreq.c ****   {
 1298              		.loc 1 119 3 view .LVU367
 119:Middlewares/ST/STM32_USB_Device_Library/Core/Src/usbd_ctlreq.c ****   {
 1299              		.loc 1 119 14 is_stmt 0 view .LVU368
 1300 0002 0A78     		ldrb	r2, [r1]
 1301 0004 6023     		movs	r3, #96
 1302 0006 1340     		ands	r3, r2
 119:Middlewares/ST/STM32_USB_Device_Library/Core/Src/usbd_ctlreq.c ****   {
 1303              		.loc 1 119 3 view .LVU369
 1304 0008 202B     		cmp	r3, #32
 1305 000a 06D0     		beq	.L93
 1306 000c 402B     		cmp	r3, #64
 1307 000e 04D0     		beq	.L93
 1308 0010 002B     		cmp	r3, #0
 1309 0012 09D0     		beq	.L107
 164:Middlewares/ST/STM32_USB_Device_Library/Core/Src/usbd_ctlreq.c ****       break;
 1310              		.loc 1 164 7 is_stmt 1 view .LVU370
 1311 0014 FFF7FEFF 		bl	USBD_CtlError
 1312              	.LVL142:
 165:Middlewares/ST/STM32_USB_Device_Library/Core/Src/usbd_ctlreq.c ****   }
 1313              		.loc 1 165 7 view .LVU371
 1314 0018 04E0     		b	.L96
 1315              	.LVL143:
 1316              	.L93:
 123:Middlewares/ST/STM32_USB_Device_Library/Core/Src/usbd_ctlreq.c ****       break;
 1317              		.loc 1 123 7 view .LVU372
 123:Middlewares/ST/STM32_USB_Device_Library/Core/Src/usbd_ctlreq.c ****       break;
 1318              		.loc 1 123 11 is_stmt 0 view .LVU373
 1319 001a AD23     		movs	r3, #173
 1320 001c 9B00     		lsls	r3, r3, #2
 1321 001e C358     		ldr	r3, [r0, r3]
 123:Middlewares/ST/STM32_USB_Device_Library/Core/Src/usbd_ctlreq.c ****       break;
 1322              		.loc 1 123 19 view .LVU374
ARM GAS  /tmp/cc2rDdvh.s 			page 46


 1323 0020 9B68     		ldr	r3, [r3, #8]
 123:Middlewares/ST/STM32_USB_Device_Library/Core/Src/usbd_ctlreq.c ****       break;
 1324              		.loc 1 123 7 view .LVU375
 1325 0022 9847     		blx	r3
 1326              	.LVL144:
 124:Middlewares/ST/STM32_USB_Device_Library/Core/Src/usbd_ctlreq.c **** 
 1327              		.loc 1 124 7 is_stmt 1 view .LVU376
 1328              	.L96:
 168:Middlewares/ST/STM32_USB_Device_Library/Core/Src/usbd_ctlreq.c **** }
 1329              		.loc 1 168 3 view .LVU377
 169:Middlewares/ST/STM32_USB_Device_Library/Core/Src/usbd_ctlreq.c **** 
 1330              		.loc 1 169 1 is_stmt 0 view .LVU378
 1331 0024 0020     		movs	r0, #0
 1332              		@ sp needed
 1333 0026 10BD     		pop	{r4, pc}
 1334              	.LVL145:
 1335              	.L107:
 127:Middlewares/ST/STM32_USB_Device_Library/Core/Src/usbd_ctlreq.c ****       {
 1336              		.loc 1 127 7 is_stmt 1 view .LVU379
 127:Middlewares/ST/STM32_USB_Device_Library/Core/Src/usbd_ctlreq.c ****       {
 1337              		.loc 1 127 18 is_stmt 0 view .LVU380
 1338 0028 4B78     		ldrb	r3, [r1, #1]
 1339 002a 092B     		cmp	r3, #9
 1340 002c 18D8     		bhi	.L97
 1341 002e 9B00     		lsls	r3, r3, #2
 1342 0030 0D4A     		ldr	r2, .L108
 1343 0032 D358     		ldr	r3, [r2, r3]
 1344 0034 9F46     		mov	pc, r3
 1345              		.section	.rodata.USBD_StdDevReq,"a",%progbits
 1346              		.align	2
 1347              	.L99:
 1348 0000 4E000000 		.word	.L105
 1349 0004 5A000000 		.word	.L104
 1350 0008 60000000 		.word	.L97
 1351 000c 54000000 		.word	.L103
 1352 0010 60000000 		.word	.L97
 1353 0014 3C000000 		.word	.L102
 1354 0018 36000000 		.word	.L101
 1355 001c 60000000 		.word	.L97
 1356 0020 48000000 		.word	.L100
 1357 0024 42000000 		.word	.L98
 1358              		.section	.text.USBD_StdDevReq
 1359              	.L101:
 130:Middlewares/ST/STM32_USB_Device_Library/Core/Src/usbd_ctlreq.c ****           break;
 1360              		.loc 1 130 11 is_stmt 1 view .LVU381
 1361 0036 FFF7FEFF 		bl	USBD_GetDescriptor
 1362              	.LVL146:
 131:Middlewares/ST/STM32_USB_Device_Library/Core/Src/usbd_ctlreq.c **** 
 1363              		.loc 1 131 11 view .LVU382
 1364 003a F3E7     		b	.L96
 1365              	.LVL147:
 1366              	.L102:
 134:Middlewares/ST/STM32_USB_Device_Library/Core/Src/usbd_ctlreq.c ****           break;
 1367              		.loc 1 134 11 view .LVU383
 1368 003c FFF7FEFF 		bl	USBD_SetAddress
 1369              	.LVL148:
 135:Middlewares/ST/STM32_USB_Device_Library/Core/Src/usbd_ctlreq.c **** 
ARM GAS  /tmp/cc2rDdvh.s 			page 47


 1370              		.loc 1 135 11 view .LVU384
 1371 0040 F0E7     		b	.L96
 1372              	.LVL149:
 1373              	.L98:
 138:Middlewares/ST/STM32_USB_Device_Library/Core/Src/usbd_ctlreq.c ****           break;
 1374              		.loc 1 138 11 view .LVU385
 1375 0042 FFF7FEFF 		bl	USBD_SetConfig
 1376              	.LVL150:
 139:Middlewares/ST/STM32_USB_Device_Library/Core/Src/usbd_ctlreq.c **** 
 1377              		.loc 1 139 11 view .LVU386
 1378 0046 EDE7     		b	.L96
 1379              	.LVL151:
 1380              	.L100:
 142:Middlewares/ST/STM32_USB_Device_Library/Core/Src/usbd_ctlreq.c ****           break;
 1381              		.loc 1 142 11 view .LVU387
 1382 0048 FFF7FEFF 		bl	USBD_GetConfig
 1383              	.LVL152:
 143:Middlewares/ST/STM32_USB_Device_Library/Core/Src/usbd_ctlreq.c **** 
 1384              		.loc 1 143 11 view .LVU388
 1385 004c EAE7     		b	.L96
 1386              	.LVL153:
 1387              	.L105:
 146:Middlewares/ST/STM32_USB_Device_Library/Core/Src/usbd_ctlreq.c ****           break;
 1388              		.loc 1 146 11 view .LVU389
 1389 004e FFF7FEFF 		bl	USBD_GetStatus
 1390              	.LVL154:
 147:Middlewares/ST/STM32_USB_Device_Library/Core/Src/usbd_ctlreq.c **** 
 1391              		.loc 1 147 11 view .LVU390
 1392 0052 E7E7     		b	.L96
 1393              	.LVL155:
 1394              	.L103:
 150:Middlewares/ST/STM32_USB_Device_Library/Core/Src/usbd_ctlreq.c ****           break;
 1395              		.loc 1 150 11 view .LVU391
 1396 0054 FFF7FEFF 		bl	USBD_SetFeature
 1397              	.LVL156:
 151:Middlewares/ST/STM32_USB_Device_Library/Core/Src/usbd_ctlreq.c **** 
 1398              		.loc 1 151 11 view .LVU392
 1399 0058 E4E7     		b	.L96
 1400              	.LVL157:
 1401              	.L104:
 154:Middlewares/ST/STM32_USB_Device_Library/Core/Src/usbd_ctlreq.c ****           break;
 1402              		.loc 1 154 11 view .LVU393
 1403 005a FFF7FEFF 		bl	USBD_ClrFeature
 1404              	.LVL158:
 155:Middlewares/ST/STM32_USB_Device_Library/Core/Src/usbd_ctlreq.c **** 
 1405              		.loc 1 155 11 view .LVU394
 1406 005e E1E7     		b	.L96
 1407              	.LVL159:
 1408              	.L97:
 158:Middlewares/ST/STM32_USB_Device_Library/Core/Src/usbd_ctlreq.c ****           break;
 1409              		.loc 1 158 11 view .LVU395
 1410 0060 FFF7FEFF 		bl	USBD_CtlError
 1411              	.LVL160:
 159:Middlewares/ST/STM32_USB_Device_Library/Core/Src/usbd_ctlreq.c ****       }
 1412              		.loc 1 159 11 view .LVU396
 1413 0064 DEE7     		b	.L96
 1414              	.L109:
ARM GAS  /tmp/cc2rDdvh.s 			page 48


 1415 0066 C046     		.align	2
 1416              	.L108:
 1417 0068 00000000 		.word	.L99
 1418              		.cfi_endproc
 1419              	.LFE43:
 1421              		.section	.text.USBD_StdItfReq,"ax",%progbits
 1422              		.align	1
 1423              		.global	USBD_StdItfReq
 1424              		.syntax unified
 1425              		.code	16
 1426              		.thumb_func
 1427              		.fpu softvfp
 1429              	USBD_StdItfReq:
 1430              	.LVL161:
 1431              	.LFB44:
 180:Middlewares/ST/STM32_USB_Device_Library/Core/Src/usbd_ctlreq.c ****   USBD_StatusTypeDef ret = USBD_OK;
 1432              		.loc 1 180 1 view -0
 1433              		.cfi_startproc
 1434              		@ args = 0, pretend = 0, frame = 0
 1435              		@ frame_needed = 0, uses_anonymous_args = 0
 180:Middlewares/ST/STM32_USB_Device_Library/Core/Src/usbd_ctlreq.c ****   USBD_StatusTypeDef ret = USBD_OK;
 1436              		.loc 1 180 1 is_stmt 0 view .LVU398
 1437 0000 70B5     		push	{r4, r5, r6, lr}
 1438              	.LCFI10:
 1439              		.cfi_def_cfa_offset 16
 1440              		.cfi_offset 4, -16
 1441              		.cfi_offset 5, -12
 1442              		.cfi_offset 6, -8
 1443              		.cfi_offset 14, -4
 1444 0002 0500     		movs	r5, r0
 1445 0004 0C00     		movs	r4, r1
 181:Middlewares/ST/STM32_USB_Device_Library/Core/Src/usbd_ctlreq.c **** 
 1446              		.loc 1 181 3 is_stmt 1 view .LVU399
 1447              	.LVL162:
 183:Middlewares/ST/STM32_USB_Device_Library/Core/Src/usbd_ctlreq.c ****   {
 1448              		.loc 1 183 3 view .LVU400
 183:Middlewares/ST/STM32_USB_Device_Library/Core/Src/usbd_ctlreq.c ****   {
 1449              		.loc 1 183 14 is_stmt 0 view .LVU401
 1450 0006 0A78     		ldrb	r2, [r1]
 1451 0008 6023     		movs	r3, #96
 1452 000a 1340     		ands	r3, r2
 183:Middlewares/ST/STM32_USB_Device_Library/Core/Src/usbd_ctlreq.c ****   {
 1453              		.loc 1 183 3 view .LVU402
 1454 000c 202B     		cmp	r3, #32
 1455 000e 07D0     		beq	.L111
 1456 0010 402B     		cmp	r3, #64
 1457 0012 05D0     		beq	.L111
 1458 0014 002B     		cmp	r3, #0
 1459 0016 03D0     		beq	.L111
 216:Middlewares/ST/STM32_USB_Device_Library/Core/Src/usbd_ctlreq.c ****       break;
 1460              		.loc 1 216 7 is_stmt 1 view .LVU403
 1461 0018 FFF7FEFF 		bl	USBD_CtlError
 1462              	.LVL163:
 217:Middlewares/ST/STM32_USB_Device_Library/Core/Src/usbd_ctlreq.c ****   }
 1463              		.loc 1 217 7 view .LVU404
 1464              	.L115:
 220:Middlewares/ST/STM32_USB_Device_Library/Core/Src/usbd_ctlreq.c **** }
ARM GAS  /tmp/cc2rDdvh.s 			page 49


 1465              		.loc 1 220 3 view .LVU405
 221:Middlewares/ST/STM32_USB_Device_Library/Core/Src/usbd_ctlreq.c **** 
 1466              		.loc 1 221 1 is_stmt 0 view .LVU406
 1467 001c 0020     		movs	r0, #0
 1468              		@ sp needed
 1469              	.LVL164:
 1470              	.LVL165:
 221:Middlewares/ST/STM32_USB_Device_Library/Core/Src/usbd_ctlreq.c **** 
 1471              		.loc 1 221 1 view .LVU407
 1472 001e 70BD     		pop	{r4, r5, r6, pc}
 1473              	.LVL166:
 1474              	.L111:
 188:Middlewares/ST/STM32_USB_Device_Library/Core/Src/usbd_ctlreq.c ****       {
 1475              		.loc 1 188 7 is_stmt 1 view .LVU408
 188:Middlewares/ST/STM32_USB_Device_Library/Core/Src/usbd_ctlreq.c ****       {
 1476              		.loc 1 188 19 is_stmt 0 view .LVU409
 1477 0020 A723     		movs	r3, #167
 1478 0022 9B00     		lsls	r3, r3, #2
 1479 0024 EB5C     		ldrb	r3, [r5, r3]
 1480 0026 013B     		subs	r3, r3, #1
 1481 0028 022B     		cmp	r3, #2
 1482 002a 17D8     		bhi	.L113
 194:Middlewares/ST/STM32_USB_Device_Library/Core/Src/usbd_ctlreq.c ****           {
 1483              		.loc 1 194 11 is_stmt 1 view .LVU410
 194:Middlewares/ST/STM32_USB_Device_Library/Core/Src/usbd_ctlreq.c ****           {
 1484              		.loc 1 194 15 is_stmt 0 view .LVU411
 1485 002c 2379     		ldrb	r3, [r4, #4]
 194:Middlewares/ST/STM32_USB_Device_Library/Core/Src/usbd_ctlreq.c ****           {
 1486              		.loc 1 194 14 view .LVU412
 1487 002e 012B     		cmp	r3, #1
 1488 0030 0FD8     		bhi	.L114
 196:Middlewares/ST/STM32_USB_Device_Library/Core/Src/usbd_ctlreq.c **** 
 1489              		.loc 1 196 13 is_stmt 1 view .LVU413
 196:Middlewares/ST/STM32_USB_Device_Library/Core/Src/usbd_ctlreq.c **** 
 1490              		.loc 1 196 43 is_stmt 0 view .LVU414
 1491 0032 AD23     		movs	r3, #173
 1492 0034 9B00     		lsls	r3, r3, #2
 1493 0036 EB58     		ldr	r3, [r5, r3]
 196:Middlewares/ST/STM32_USB_Device_Library/Core/Src/usbd_ctlreq.c **** 
 1494              		.loc 1 196 51 view .LVU415
 1495 0038 9B68     		ldr	r3, [r3, #8]
 196:Middlewares/ST/STM32_USB_Device_Library/Core/Src/usbd_ctlreq.c **** 
 1496              		.loc 1 196 39 view .LVU416
 1497 003a 2100     		movs	r1, r4
 1498              	.LVL167:
 196:Middlewares/ST/STM32_USB_Device_Library/Core/Src/usbd_ctlreq.c **** 
 1499              		.loc 1 196 39 view .LVU417
 1500 003c 2800     		movs	r0, r5
 1501              	.LVL168:
 196:Middlewares/ST/STM32_USB_Device_Library/Core/Src/usbd_ctlreq.c **** 
 1502              		.loc 1 196 39 view .LVU418
 1503 003e 9847     		blx	r3
 1504              	.LVL169:
 198:Middlewares/ST/STM32_USB_Device_Library/Core/Src/usbd_ctlreq.c ****             {
 1505              		.loc 1 198 13 is_stmt 1 view .LVU419
 198:Middlewares/ST/STM32_USB_Device_Library/Core/Src/usbd_ctlreq.c ****             {
 1506              		.loc 1 198 21 is_stmt 0 view .LVU420
ARM GAS  /tmp/cc2rDdvh.s 			page 50


 1507 0040 E388     		ldrh	r3, [r4, #6]
 198:Middlewares/ST/STM32_USB_Device_Library/Core/Src/usbd_ctlreq.c ****             {
 1508              		.loc 1 198 16 view .LVU421
 1509 0042 002B     		cmp	r3, #0
 1510 0044 EAD1     		bne	.L115
 198:Middlewares/ST/STM32_USB_Device_Library/Core/Src/usbd_ctlreq.c ****             {
 1511              		.loc 1 198 38 discriminator 1 view .LVU422
 1512 0046 0028     		cmp	r0, #0
 1513 0048 E8D1     		bne	.L115
 200:Middlewares/ST/STM32_USB_Device_Library/Core/Src/usbd_ctlreq.c ****             }
 1514              		.loc 1 200 15 is_stmt 1 view .LVU423
 1515 004a 2800     		movs	r0, r5
 1516              	.LVL170:
 200:Middlewares/ST/STM32_USB_Device_Library/Core/Src/usbd_ctlreq.c ****             }
 1517              		.loc 1 200 15 is_stmt 0 view .LVU424
 1518 004c FFF7FEFF 		bl	USBD_CtlSendStatus
 1519              	.LVL171:
 1520 0050 E4E7     		b	.L115
 1521              	.LVL172:
 1522              	.L114:
 205:Middlewares/ST/STM32_USB_Device_Library/Core/Src/usbd_ctlreq.c ****           }
 1523              		.loc 1 205 13 is_stmt 1 view .LVU425
 1524 0052 2100     		movs	r1, r4
 1525              	.LVL173:
 205:Middlewares/ST/STM32_USB_Device_Library/Core/Src/usbd_ctlreq.c ****           }
 1526              		.loc 1 205 13 is_stmt 0 view .LVU426
 1527 0054 2800     		movs	r0, r5
 1528              	.LVL174:
 205:Middlewares/ST/STM32_USB_Device_Library/Core/Src/usbd_ctlreq.c ****           }
 1529              		.loc 1 205 13 view .LVU427
 1530 0056 FFF7FEFF 		bl	USBD_CtlError
 1531              	.LVL175:
 1532 005a DFE7     		b	.L115
 1533              	.LVL176:
 1534              	.L113:
 210:Middlewares/ST/STM32_USB_Device_Library/Core/Src/usbd_ctlreq.c ****           break;
 1535              		.loc 1 210 11 is_stmt 1 view .LVU428
 1536 005c 2100     		movs	r1, r4
 1537              	.LVL177:
 210:Middlewares/ST/STM32_USB_Device_Library/Core/Src/usbd_ctlreq.c ****           break;
 1538              		.loc 1 210 11 is_stmt 0 view .LVU429
 1539 005e 2800     		movs	r0, r5
 1540              	.LVL178:
 210:Middlewares/ST/STM32_USB_Device_Library/Core/Src/usbd_ctlreq.c ****           break;
 1541              		.loc 1 210 11 view .LVU430
 1542 0060 FFF7FEFF 		bl	USBD_CtlError
 1543              	.LVL179:
 211:Middlewares/ST/STM32_USB_Device_Library/Core/Src/usbd_ctlreq.c ****       }
 1544              		.loc 1 211 11 is_stmt 1 view .LVU431
 1545 0064 DAE7     		b	.L115
 1546              		.cfi_endproc
 1547              	.LFE44:
 1549              		.section	.text.USBD_StdEPReq,"ax",%progbits
 1550              		.align	1
 1551              		.global	USBD_StdEPReq
 1552              		.syntax unified
 1553              		.code	16
ARM GAS  /tmp/cc2rDdvh.s 			page 51


 1554              		.thumb_func
 1555              		.fpu softvfp
 1557              	USBD_StdEPReq:
 1558              	.LVL180:
 1559              	.LFB45:
 232:Middlewares/ST/STM32_USB_Device_Library/Core/Src/usbd_ctlreq.c ****   USBD_EndpointTypeDef *pep;
 1560              		.loc 1 232 1 view -0
 1561              		.cfi_startproc
 1562              		@ args = 0, pretend = 0, frame = 0
 1563              		@ frame_needed = 0, uses_anonymous_args = 0
 232:Middlewares/ST/STM32_USB_Device_Library/Core/Src/usbd_ctlreq.c ****   USBD_EndpointTypeDef *pep;
 1564              		.loc 1 232 1 is_stmt 0 view .LVU433
 1565 0000 70B5     		push	{r4, r5, r6, lr}
 1566              	.LCFI11:
 1567              		.cfi_def_cfa_offset 16
 1568              		.cfi_offset 4, -16
 1569              		.cfi_offset 5, -12
 1570              		.cfi_offset 6, -8
 1571              		.cfi_offset 14, -4
 1572 0002 0500     		movs	r5, r0
 233:Middlewares/ST/STM32_USB_Device_Library/Core/Src/usbd_ctlreq.c ****   uint8_t   ep_addr;
 1573              		.loc 1 233 3 is_stmt 1 view .LVU434
 234:Middlewares/ST/STM32_USB_Device_Library/Core/Src/usbd_ctlreq.c ****   USBD_StatusTypeDef ret = USBD_OK;
 1574              		.loc 1 234 3 view .LVU435
 235:Middlewares/ST/STM32_USB_Device_Library/Core/Src/usbd_ctlreq.c ****   ep_addr  = LOBYTE(req->wIndex);
 1575              		.loc 1 235 3 view .LVU436
 1576              	.LVL181:
 236:Middlewares/ST/STM32_USB_Device_Library/Core/Src/usbd_ctlreq.c **** 
 1577              		.loc 1 236 3 view .LVU437
 236:Middlewares/ST/STM32_USB_Device_Library/Core/Src/usbd_ctlreq.c **** 
 1578              		.loc 1 236 14 is_stmt 0 view .LVU438
 1579 0004 8888     		ldrh	r0, [r1, #4]
 1580              	.LVL182:
 236:Middlewares/ST/STM32_USB_Device_Library/Core/Src/usbd_ctlreq.c **** 
 1581              		.loc 1 236 12 view .LVU439
 1582 0006 0A79     		ldrb	r2, [r1, #4]
 1583              	.LVL183:
 238:Middlewares/ST/STM32_USB_Device_Library/Core/Src/usbd_ctlreq.c ****   {
 1584              		.loc 1 238 3 is_stmt 1 view .LVU440
 238:Middlewares/ST/STM32_USB_Device_Library/Core/Src/usbd_ctlreq.c ****   {
 1585              		.loc 1 238 14 is_stmt 0 view .LVU441
 1586 0008 0B78     		ldrb	r3, [r1]
 1587 000a 6024     		movs	r4, #96
 1588 000c 1C40     		ands	r4, r3
 238:Middlewares/ST/STM32_USB_Device_Library/Core/Src/usbd_ctlreq.c ****   {
 1589              		.loc 1 238 3 view .LVU442
 1590 000e 202C     		cmp	r4, #32
 1591 0010 08D0     		beq	.L117
 1592 0012 402C     		cmp	r4, #64
 1593 0014 06D0     		beq	.L117
 1594 0016 002C     		cmp	r4, #0
 1595 0018 0DD0     		beq	.L155
 390:Middlewares/ST/STM32_USB_Device_Library/Core/Src/usbd_ctlreq.c ****       break;
 1596              		.loc 1 390 7 is_stmt 1 view .LVU443
 1597 001a 2800     		movs	r0, r5
 1598 001c FFF7FEFF 		bl	USBD_CtlError
 1599              	.LVL184:
ARM GAS  /tmp/cc2rDdvh.s 			page 52


 391:Middlewares/ST/STM32_USB_Device_Library/Core/Src/usbd_ctlreq.c ****   }
 1600              		.loc 1 391 7 view .LVU444
 394:Middlewares/ST/STM32_USB_Device_Library/Core/Src/usbd_ctlreq.c **** }
 1601              		.loc 1 394 10 is_stmt 0 view .LVU445
 1602 0020 0024     		movs	r4, #0
 391:Middlewares/ST/STM32_USB_Device_Library/Core/Src/usbd_ctlreq.c ****   }
 1603              		.loc 1 391 7 view .LVU446
 1604 0022 06E0     		b	.L120
 1605              	.LVL185:
 1606              	.L117:
 242:Middlewares/ST/STM32_USB_Device_Library/Core/Src/usbd_ctlreq.c ****       break;
 1607              		.loc 1 242 7 is_stmt 1 view .LVU447
 242:Middlewares/ST/STM32_USB_Device_Library/Core/Src/usbd_ctlreq.c ****       break;
 1608              		.loc 1 242 11 is_stmt 0 view .LVU448
 1609 0024 AD23     		movs	r3, #173
 1610 0026 9B00     		lsls	r3, r3, #2
 1611 0028 EB58     		ldr	r3, [r5, r3]
 242:Middlewares/ST/STM32_USB_Device_Library/Core/Src/usbd_ctlreq.c ****       break;
 1612              		.loc 1 242 19 view .LVU449
 1613 002a 9B68     		ldr	r3, [r3, #8]
 242:Middlewares/ST/STM32_USB_Device_Library/Core/Src/usbd_ctlreq.c ****       break;
 1614              		.loc 1 242 7 view .LVU450
 1615 002c 2800     		movs	r0, r5
 1616 002e 9847     		blx	r3
 1617              	.LVL186:
 243:Middlewares/ST/STM32_USB_Device_Library/Core/Src/usbd_ctlreq.c **** 
 1618              		.loc 1 243 7 is_stmt 1 view .LVU451
 394:Middlewares/ST/STM32_USB_Device_Library/Core/Src/usbd_ctlreq.c **** }
 1619              		.loc 1 394 10 is_stmt 0 view .LVU452
 1620 0030 0024     		movs	r4, #0
 1621              	.LVL187:
 1622              	.L120:
 395:Middlewares/ST/STM32_USB_Device_Library/Core/Src/usbd_ctlreq.c **** 
 1623              		.loc 1 395 1 view .LVU453
 1624 0032 2000     		movs	r0, r4
 1625              		@ sp needed
 1626              	.LVL188:
 395:Middlewares/ST/STM32_USB_Device_Library/Core/Src/usbd_ctlreq.c **** 
 1627              		.loc 1 395 1 view .LVU454
 1628 0034 70BD     		pop	{r4, r5, r6, pc}
 1629              	.LVL189:
 1630              	.L155:
 247:Middlewares/ST/STM32_USB_Device_Library/Core/Src/usbd_ctlreq.c ****       {
 1631              		.loc 1 247 7 is_stmt 1 view .LVU455
 247:Middlewares/ST/STM32_USB_Device_Library/Core/Src/usbd_ctlreq.c ****       {
 1632              		.loc 1 247 10 is_stmt 0 view .LVU456
 1633 0036 202C     		cmp	r4, #32
 1634 0038 0AD0     		beq	.L156
 254:Middlewares/ST/STM32_USB_Device_Library/Core/Src/usbd_ctlreq.c ****       {
 1635              		.loc 1 254 7 is_stmt 1 view .LVU457
 254:Middlewares/ST/STM32_USB_Device_Library/Core/Src/usbd_ctlreq.c ****       {
 1636              		.loc 1 254 18 is_stmt 0 view .LVU458
 1637 003a 4E78     		ldrb	r6, [r1, #1]
 1638 003c 012E     		cmp	r6, #1
 1639 003e 3ED0     		beq	.L122
 1640 0040 032E     		cmp	r6, #3
 1641 0042 0DD0     		beq	.L123
ARM GAS  /tmp/cc2rDdvh.s 			page 53


 1642 0044 002E     		cmp	r6, #0
 1643 0046 64D0     		beq	.L157
 384:Middlewares/ST/STM32_USB_Device_Library/Core/Src/usbd_ctlreq.c ****           break;
 1644              		.loc 1 384 11 is_stmt 1 view .LVU459
 1645 0048 2800     		movs	r0, r5
 1646 004a FFF7FEFF 		bl	USBD_CtlError
 1647              	.LVL190:
 385:Middlewares/ST/STM32_USB_Device_Library/Core/Src/usbd_ctlreq.c ****       }
 1648              		.loc 1 385 11 view .LVU460
 1649 004e F0E7     		b	.L120
 1650              	.LVL191:
 1651              	.L156:
 249:Middlewares/ST/STM32_USB_Device_Library/Core/Src/usbd_ctlreq.c **** 
 1652              		.loc 1 249 9 view .LVU461
 249:Middlewares/ST/STM32_USB_Device_Library/Core/Src/usbd_ctlreq.c **** 
 1653              		.loc 1 249 39 is_stmt 0 view .LVU462
 1654 0050 AD23     		movs	r3, #173
 1655 0052 9B00     		lsls	r3, r3, #2
 1656 0054 EB58     		ldr	r3, [r5, r3]
 249:Middlewares/ST/STM32_USB_Device_Library/Core/Src/usbd_ctlreq.c **** 
 1657              		.loc 1 249 47 view .LVU463
 1658 0056 9B68     		ldr	r3, [r3, #8]
 249:Middlewares/ST/STM32_USB_Device_Library/Core/Src/usbd_ctlreq.c **** 
 1659              		.loc 1 249 35 view .LVU464
 1660 0058 2800     		movs	r0, r5
 1661 005a 9847     		blx	r3
 1662              	.LVL192:
 249:Middlewares/ST/STM32_USB_Device_Library/Core/Src/usbd_ctlreq.c **** 
 1663              		.loc 1 249 35 view .LVU465
 1664 005c 0400     		movs	r4, r0
 1665              	.LVL193:
 251:Middlewares/ST/STM32_USB_Device_Library/Core/Src/usbd_ctlreq.c ****       }
 1666              		.loc 1 251 9 is_stmt 1 view .LVU466
 251:Middlewares/ST/STM32_USB_Device_Library/Core/Src/usbd_ctlreq.c ****       }
 1667              		.loc 1 251 16 is_stmt 0 view .LVU467
 1668 005e E8E7     		b	.L120
 1669              	.LVL194:
 1670              	.L123:
 257:Middlewares/ST/STM32_USB_Device_Library/Core/Src/usbd_ctlreq.c ****           {
 1671              		.loc 1 257 11 is_stmt 1 discriminator 3 view .LVU468
 257:Middlewares/ST/STM32_USB_Device_Library/Core/Src/usbd_ctlreq.c ****           {
 1672              		.loc 1 257 23 is_stmt 0 discriminator 3 view .LVU469
 1673 0060 A723     		movs	r3, #167
 1674 0062 9B00     		lsls	r3, r3, #2
 1675 0064 EB5C     		ldrb	r3, [r5, r3]
 1676 0066 022B     		cmp	r3, #2
 1677 0068 05D0     		beq	.L126
 1678 006a 032B     		cmp	r3, #3
 1679 006c 14D0     		beq	.L127
 285:Middlewares/ST/STM32_USB_Device_Library/Core/Src/usbd_ctlreq.c ****               break;
 1680              		.loc 1 285 15 is_stmt 1 view .LVU470
 1681 006e 2800     		movs	r0, r5
 1682 0070 FFF7FEFF 		bl	USBD_CtlError
 1683              	.LVL195:
 286:Middlewares/ST/STM32_USB_Device_Library/Core/Src/usbd_ctlreq.c ****           }
 1684              		.loc 1 286 15 view .LVU471
 1685 0074 DDE7     		b	.L120
ARM GAS  /tmp/cc2rDdvh.s 			page 54


 1686              	.LVL196:
 1687              	.L126:
 260:Middlewares/ST/STM32_USB_Device_Library/Core/Src/usbd_ctlreq.c ****               {
 1688              		.loc 1 260 15 view .LVU472
 260:Middlewares/ST/STM32_USB_Device_Library/Core/Src/usbd_ctlreq.c ****               {
 1689              		.loc 1 260 18 is_stmt 0 view .LVU473
 1690 0076 002A     		cmp	r2, #0
 1691 0078 01D0     		beq	.L129
 260:Middlewares/ST/STM32_USB_Device_Library/Core/Src/usbd_ctlreq.c ****               {
 1692              		.loc 1 260 38 discriminator 1 view .LVU474
 1693 007a 802A     		cmp	r2, #128
 1694 007c 03D1     		bne	.L158
 1695              	.L129:
 267:Middlewares/ST/STM32_USB_Device_Library/Core/Src/usbd_ctlreq.c ****               }
 1696              		.loc 1 267 17 is_stmt 1 view .LVU475
 1697 007e 2800     		movs	r0, r5
 1698 0080 FFF7FEFF 		bl	USBD_CtlError
 1699              	.LVL197:
 267:Middlewares/ST/STM32_USB_Device_Library/Core/Src/usbd_ctlreq.c ****               }
 1700              		.loc 1 267 17 is_stmt 0 view .LVU476
 1701 0084 D5E7     		b	.L120
 1702              	.LVL198:
 1703              	.L158:
 262:Middlewares/ST/STM32_USB_Device_Library/Core/Src/usbd_ctlreq.c ****                 USBD_LL_StallEP(pdev, 0x80U);
 1704              		.loc 1 262 17 is_stmt 1 view .LVU477
 1705 0086 1100     		movs	r1, r2
 1706              	.LVL199:
 262:Middlewares/ST/STM32_USB_Device_Library/Core/Src/usbd_ctlreq.c ****                 USBD_LL_StallEP(pdev, 0x80U);
 1707              		.loc 1 262 17 is_stmt 0 view .LVU478
 1708 0088 2800     		movs	r0, r5
 1709 008a FFF7FEFF 		bl	USBD_LL_StallEP
 1710              	.LVL200:
 263:Middlewares/ST/STM32_USB_Device_Library/Core/Src/usbd_ctlreq.c ****               }
 1711              		.loc 1 263 17 is_stmt 1 view .LVU479
 1712 008e 8021     		movs	r1, #128
 1713 0090 2800     		movs	r0, r5
 1714 0092 FFF7FEFF 		bl	USBD_LL_StallEP
 1715              	.LVL201:
 1716 0096 CCE7     		b	.L120
 1717              	.LVL202:
 1718              	.L127:
 272:Middlewares/ST/STM32_USB_Device_Library/Core/Src/usbd_ctlreq.c ****               {
 1719              		.loc 1 272 15 view .LVU480
 272:Middlewares/ST/STM32_USB_Device_Library/Core/Src/usbd_ctlreq.c ****               {
 1720              		.loc 1 272 22 is_stmt 0 view .LVU481
 1721 0098 4B88     		ldrh	r3, [r1, #2]
 272:Middlewares/ST/STM32_USB_Device_Library/Core/Src/usbd_ctlreq.c ****               {
 1722              		.loc 1 272 18 view .LVU482
 1723 009a 002B     		cmp	r3, #0
 1724 009c 06D1     		bne	.L130
 274:Middlewares/ST/STM32_USB_Device_Library/Core/Src/usbd_ctlreq.c ****                     (ep_addr != 0x80U) && (req->wLength == 0x00U))
 1725              		.loc 1 274 17 is_stmt 1 view .LVU483
 274:Middlewares/ST/STM32_USB_Device_Library/Core/Src/usbd_ctlreq.c ****                     (ep_addr != 0x80U) && (req->wLength == 0x00U))
 1726              		.loc 1 274 20 is_stmt 0 view .LVU484
 1727 009e 002A     		cmp	r2, #0
 1728 00a0 04D0     		beq	.L130
 274:Middlewares/ST/STM32_USB_Device_Library/Core/Src/usbd_ctlreq.c ****                     (ep_addr != 0x80U) && (req->wLength == 0x00U))
ARM GAS  /tmp/cc2rDdvh.s 			page 55


 1729              		.loc 1 274 40 discriminator 1 view .LVU485
 1730 00a2 802A     		cmp	r2, #128
 1731 00a4 02D0     		beq	.L130
 275:Middlewares/ST/STM32_USB_Device_Library/Core/Src/usbd_ctlreq.c ****                 {
 1732              		.loc 1 275 47 view .LVU486
 1733 00a6 CB88     		ldrh	r3, [r1, #6]
 275:Middlewares/ST/STM32_USB_Device_Library/Core/Src/usbd_ctlreq.c ****                 {
 1734              		.loc 1 275 40 view .LVU487
 1735 00a8 002B     		cmp	r3, #0
 1736 00aa 03D0     		beq	.L159
 1737              	.LVL203:
 1738              	.L130:
 280:Middlewares/ST/STM32_USB_Device_Library/Core/Src/usbd_ctlreq.c **** 
 1739              		.loc 1 280 15 is_stmt 1 view .LVU488
 1740 00ac 2800     		movs	r0, r5
 1741 00ae FFF7FEFF 		bl	USBD_CtlSendStatus
 1742              	.LVL204:
 282:Middlewares/ST/STM32_USB_Device_Library/Core/Src/usbd_ctlreq.c **** 
 1743              		.loc 1 282 15 view .LVU489
 1744 00b2 BEE7     		b	.L120
 1745              	.LVL205:
 1746              	.L159:
 277:Middlewares/ST/STM32_USB_Device_Library/Core/Src/usbd_ctlreq.c ****                 }
 1747              		.loc 1 277 19 view .LVU490
 1748 00b4 1100     		movs	r1, r2
 1749              	.LVL206:
 277:Middlewares/ST/STM32_USB_Device_Library/Core/Src/usbd_ctlreq.c ****                 }
 1750              		.loc 1 277 19 is_stmt 0 view .LVU491
 1751 00b6 2800     		movs	r0, r5
 1752 00b8 FFF7FEFF 		bl	USBD_LL_StallEP
 1753              	.LVL207:
 277:Middlewares/ST/STM32_USB_Device_Library/Core/Src/usbd_ctlreq.c ****                 }
 1754              		.loc 1 277 19 view .LVU492
 1755 00bc F6E7     		b	.L130
 1756              	.LVL208:
 1757              	.L122:
 292:Middlewares/ST/STM32_USB_Device_Library/Core/Src/usbd_ctlreq.c ****           {
 1758              		.loc 1 292 11 is_stmt 1 discriminator 2 view .LVU493
 292:Middlewares/ST/STM32_USB_Device_Library/Core/Src/usbd_ctlreq.c ****           {
 1759              		.loc 1 292 23 is_stmt 0 discriminator 2 view .LVU494
 1760 00be A723     		movs	r3, #167
 1761 00c0 9B00     		lsls	r3, r3, #2
 1762 00c2 EB5C     		ldrb	r3, [r5, r3]
 1763 00c4 022B     		cmp	r3, #2
 1764 00c6 05D0     		beq	.L131
 1765 00c8 032B     		cmp	r3, #3
 1766 00ca 14D0     		beq	.L132
 318:Middlewares/ST/STM32_USB_Device_Library/Core/Src/usbd_ctlreq.c ****               break;
 1767              		.loc 1 318 15 is_stmt 1 view .LVU495
 1768 00cc 2800     		movs	r0, r5
 1769 00ce FFF7FEFF 		bl	USBD_CtlError
 1770              	.LVL209:
 319:Middlewares/ST/STM32_USB_Device_Library/Core/Src/usbd_ctlreq.c ****           }
 1771              		.loc 1 319 15 view .LVU496
 1772 00d2 AEE7     		b	.L120
 1773              	.LVL210:
 1774              	.L131:
ARM GAS  /tmp/cc2rDdvh.s 			page 56


 295:Middlewares/ST/STM32_USB_Device_Library/Core/Src/usbd_ctlreq.c ****               {
 1775              		.loc 1 295 15 view .LVU497
 295:Middlewares/ST/STM32_USB_Device_Library/Core/Src/usbd_ctlreq.c ****               {
 1776              		.loc 1 295 18 is_stmt 0 view .LVU498
 1777 00d4 002A     		cmp	r2, #0
 1778 00d6 01D0     		beq	.L134
 295:Middlewares/ST/STM32_USB_Device_Library/Core/Src/usbd_ctlreq.c ****               {
 1779              		.loc 1 295 38 discriminator 1 view .LVU499
 1780 00d8 802A     		cmp	r2, #128
 1781 00da 03D1     		bne	.L160
 1782              	.L134:
 302:Middlewares/ST/STM32_USB_Device_Library/Core/Src/usbd_ctlreq.c ****               }
 1783              		.loc 1 302 17 is_stmt 1 view .LVU500
 1784 00dc 2800     		movs	r0, r5
 1785 00de FFF7FEFF 		bl	USBD_CtlError
 1786              	.LVL211:
 302:Middlewares/ST/STM32_USB_Device_Library/Core/Src/usbd_ctlreq.c ****               }
 1787              		.loc 1 302 17 is_stmt 0 view .LVU501
 1788 00e2 A6E7     		b	.L120
 1789              	.LVL212:
 1790              	.L160:
 297:Middlewares/ST/STM32_USB_Device_Library/Core/Src/usbd_ctlreq.c ****                 USBD_LL_StallEP(pdev, 0x80U);
 1791              		.loc 1 297 17 is_stmt 1 view .LVU502
 1792 00e4 1100     		movs	r1, r2
 1793              	.LVL213:
 297:Middlewares/ST/STM32_USB_Device_Library/Core/Src/usbd_ctlreq.c ****                 USBD_LL_StallEP(pdev, 0x80U);
 1794              		.loc 1 297 17 is_stmt 0 view .LVU503
 1795 00e6 2800     		movs	r0, r5
 1796 00e8 FFF7FEFF 		bl	USBD_LL_StallEP
 1797              	.LVL214:
 298:Middlewares/ST/STM32_USB_Device_Library/Core/Src/usbd_ctlreq.c ****               }
 1798              		.loc 1 298 17 is_stmt 1 view .LVU504
 1799 00ec 8021     		movs	r1, #128
 1800 00ee 2800     		movs	r0, r5
 1801 00f0 FFF7FEFF 		bl	USBD_LL_StallEP
 1802              	.LVL215:
 1803 00f4 9DE7     		b	.L120
 1804              	.LVL216:
 1805              	.L132:
 307:Middlewares/ST/STM32_USB_Device_Library/Core/Src/usbd_ctlreq.c ****               {
 1806              		.loc 1 307 15 view .LVU505
 307:Middlewares/ST/STM32_USB_Device_Library/Core/Src/usbd_ctlreq.c ****               {
 1807              		.loc 1 307 22 is_stmt 0 view .LVU506
 1808 00f6 4B88     		ldrh	r3, [r1, #2]
 307:Middlewares/ST/STM32_USB_Device_Library/Core/Src/usbd_ctlreq.c ****               {
 1809              		.loc 1 307 18 view .LVU507
 1810 00f8 002B     		cmp	r3, #0
 1811 00fa 9AD1     		bne	.L120
 309:Middlewares/ST/STM32_USB_Device_Library/Core/Src/usbd_ctlreq.c ****                 {
 1812              		.loc 1 309 17 is_stmt 1 view .LVU508
 309:Middlewares/ST/STM32_USB_Device_Library/Core/Src/usbd_ctlreq.c ****                 {
 1813              		.loc 1 309 20 is_stmt 0 view .LVU509
 1814 00fc 5306     		lsls	r3, r2, #25
 1815 00fe 03D1     		bne	.L161
 1816              	.LVL217:
 1817              	.L135:
 313:Middlewares/ST/STM32_USB_Device_Library/Core/Src/usbd_ctlreq.c ****               }
ARM GAS  /tmp/cc2rDdvh.s 			page 57


 1818              		.loc 1 313 17 is_stmt 1 view .LVU510
 1819 0100 2800     		movs	r0, r5
 1820 0102 FFF7FEFF 		bl	USBD_CtlSendStatus
 1821              	.LVL218:
 1822 0106 94E7     		b	.L120
 1823              	.LVL219:
 1824              	.L161:
 311:Middlewares/ST/STM32_USB_Device_Library/Core/Src/usbd_ctlreq.c ****                 }
 1825              		.loc 1 311 19 view .LVU511
 1826 0108 1100     		movs	r1, r2
 1827              	.LVL220:
 311:Middlewares/ST/STM32_USB_Device_Library/Core/Src/usbd_ctlreq.c ****                 }
 1828              		.loc 1 311 19 is_stmt 0 view .LVU512
 1829 010a 2800     		movs	r0, r5
 1830 010c FFF7FEFF 		bl	USBD_LL_ClearStallEP
 1831              	.LVL221:
 311:Middlewares/ST/STM32_USB_Device_Library/Core/Src/usbd_ctlreq.c ****                 }
 1832              		.loc 1 311 19 view .LVU513
 1833 0110 F6E7     		b	.L135
 1834              	.LVL222:
 1835              	.L157:
 324:Middlewares/ST/STM32_USB_Device_Library/Core/Src/usbd_ctlreq.c ****           {
 1836              		.loc 1 324 11 is_stmt 1 discriminator 1 view .LVU514
 324:Middlewares/ST/STM32_USB_Device_Library/Core/Src/usbd_ctlreq.c ****           {
 1837              		.loc 1 324 23 is_stmt 0 discriminator 1 view .LVU515
 1838 0112 A723     		movs	r3, #167
 1839 0114 9B00     		lsls	r3, r3, #2
 1840 0116 EB5C     		ldrb	r3, [r5, r3]
 1841 0118 022B     		cmp	r3, #2
 1842 011a 06D0     		beq	.L136
 1843 011c 032B     		cmp	r3, #3
 1844 011e 29D0     		beq	.L137
 378:Middlewares/ST/STM32_USB_Device_Library/Core/Src/usbd_ctlreq.c ****               break;
 1845              		.loc 1 378 15 is_stmt 1 view .LVU516
 1846 0120 2800     		movs	r0, r5
 1847 0122 FFF7FEFF 		bl	USBD_CtlError
 1848              	.LVL223:
 379:Middlewares/ST/STM32_USB_Device_Library/Core/Src/usbd_ctlreq.c ****           }
 1849              		.loc 1 379 15 view .LVU517
 394:Middlewares/ST/STM32_USB_Device_Library/Core/Src/usbd_ctlreq.c **** }
 1850              		.loc 1 394 10 is_stmt 0 view .LVU518
 1851 0126 3400     		movs	r4, r6
 379:Middlewares/ST/STM32_USB_Device_Library/Core/Src/usbd_ctlreq.c ****           }
 1852              		.loc 1 379 15 view .LVU519
 1853 0128 83E7     		b	.L120
 1854              	.LVL224:
 1855              	.L136:
 327:Middlewares/ST/STM32_USB_Device_Library/Core/Src/usbd_ctlreq.c ****               {
 1856              		.loc 1 327 15 is_stmt 1 view .LVU520
 327:Middlewares/ST/STM32_USB_Device_Library/Core/Src/usbd_ctlreq.c ****               {
 1857              		.loc 1 327 18 is_stmt 0 view .LVU521
 1858 012a 002A     		cmp	r2, #0
 1859 012c 01D0     		beq	.L139
 327:Middlewares/ST/STM32_USB_Device_Library/Core/Src/usbd_ctlreq.c ****               {
 1860              		.loc 1 327 38 discriminator 1 view .LVU522
 1861 012e 802A     		cmp	r2, #128
 1862 0130 12D1     		bne	.L162
ARM GAS  /tmp/cc2rDdvh.s 			page 58


 1863              	.L139:
 332:Middlewares/ST/STM32_USB_Device_Library/Core/Src/usbd_ctlreq.c ****                     &pdev->ep_out[ep_addr & 0x7FU];
 1864              		.loc 1 332 15 is_stmt 1 view .LVU523
 332:Middlewares/ST/STM32_USB_Device_Library/Core/Src/usbd_ctlreq.c ****                     &pdev->ep_out[ep_addr & 0x7FU];
 1865              		.loc 1 332 82 is_stmt 0 view .LVU524
 1866 0132 0306     		lsls	r3, r0, #24
 1867 0134 15D4     		bmi	.L163
 333:Middlewares/ST/STM32_USB_Device_Library/Core/Src/usbd_ctlreq.c **** 
 1868              		.loc 1 333 43 discriminator 2 view .LVU525
 1869 0136 7F21     		movs	r1, #127
 1870              	.LVL225:
 333:Middlewares/ST/STM32_USB_Device_Library/Core/Src/usbd_ctlreq.c **** 
 1871              		.loc 1 333 43 discriminator 2 view .LVU526
 1872 0138 0A40     		ands	r2, r1
 1873              	.LVL226:
 332:Middlewares/ST/STM32_USB_Device_Library/Core/Src/usbd_ctlreq.c ****                     &pdev->ep_out[ep_addr & 0x7FU];
 1874              		.loc 1 332 82 discriminator 2 view .LVU527
 1875 013a 9100     		lsls	r1, r2, #2
 1876 013c 8918     		adds	r1, r1, r2
 1877 013e 8900     		lsls	r1, r1, #2
 1878 0140 5131     		adds	r1, r1, #81
 1879 0142 FF31     		adds	r1, r1, #255
 1880 0144 6918     		adds	r1, r5, r1
 1881 0146 0431     		adds	r1, r1, #4
 1882              	.L141:
 1883              	.LVL227:
 335:Middlewares/ST/STM32_USB_Device_Library/Core/Src/usbd_ctlreq.c **** 
 1884              		.loc 1 335 15 is_stmt 1 discriminator 4 view .LVU528
 335:Middlewares/ST/STM32_USB_Device_Library/Core/Src/usbd_ctlreq.c **** 
 1885              		.loc 1 335 27 is_stmt 0 discriminator 4 view .LVU529
 1886 0148 0023     		movs	r3, #0
 1887 014a 0B60     		str	r3, [r1]
 1888              	.LVL228:
 337:Middlewares/ST/STM32_USB_Device_Library/Core/Src/usbd_ctlreq.c ****               break;
 1889              		.loc 1 337 15 is_stmt 1 discriminator 4 view .LVU530
 1890 014c 0222     		movs	r2, #2
 1891 014e 2800     		movs	r0, r5
 1892 0150 FFF7FEFF 		bl	USBD_CtlSendData
 1893              	.LVL229:
 338:Middlewares/ST/STM32_USB_Device_Library/Core/Src/usbd_ctlreq.c **** 
 1894              		.loc 1 338 15 discriminator 4 view .LVU531
 394:Middlewares/ST/STM32_USB_Device_Library/Core/Src/usbd_ctlreq.c **** }
 1895              		.loc 1 394 10 is_stmt 0 discriminator 4 view .LVU532
 1896 0154 3400     		movs	r4, r6
 338:Middlewares/ST/STM32_USB_Device_Library/Core/Src/usbd_ctlreq.c **** 
 1897              		.loc 1 338 15 discriminator 4 view .LVU533
 1898 0156 6CE7     		b	.L120
 1899              	.LVL230:
 1900              	.L162:
 329:Middlewares/ST/STM32_USB_Device_Library/Core/Src/usbd_ctlreq.c ****                 break;
 1901              		.loc 1 329 17 is_stmt 1 view .LVU534
 1902 0158 2800     		movs	r0, r5
 1903 015a FFF7FEFF 		bl	USBD_CtlError
 1904              	.LVL231:
 330:Middlewares/ST/STM32_USB_Device_Library/Core/Src/usbd_ctlreq.c ****               }
 1905              		.loc 1 330 17 view .LVU535
 394:Middlewares/ST/STM32_USB_Device_Library/Core/Src/usbd_ctlreq.c **** }
ARM GAS  /tmp/cc2rDdvh.s 			page 59


 1906              		.loc 1 394 10 is_stmt 0 view .LVU536
 1907 015e 3400     		movs	r4, r6
 330:Middlewares/ST/STM32_USB_Device_Library/Core/Src/usbd_ctlreq.c ****               }
 1908              		.loc 1 330 17 view .LVU537
 1909 0160 67E7     		b	.L120
 1910              	.LVL232:
 1911              	.L163:
 332:Middlewares/ST/STM32_USB_Device_Library/Core/Src/usbd_ctlreq.c ****                     &pdev->ep_out[ep_addr & 0x7FU];
 1912              		.loc 1 332 73 discriminator 1 view .LVU538
 1913 0162 7F21     		movs	r1, #127
 1914              	.LVL233:
 332:Middlewares/ST/STM32_USB_Device_Library/Core/Src/usbd_ctlreq.c ****                     &pdev->ep_out[ep_addr & 0x7FU];
 1915              		.loc 1 332 73 discriminator 1 view .LVU539
 1916 0164 0A40     		ands	r2, r1
 1917              	.LVL234:
 332:Middlewares/ST/STM32_USB_Device_Library/Core/Src/usbd_ctlreq.c ****                     &pdev->ep_out[ep_addr & 0x7FU];
 1918              		.loc 1 332 82 discriminator 1 view .LVU540
 1919 0166 9100     		lsls	r1, r2, #2
 1920 0168 8918     		adds	r1, r1, r2
 1921 016a 8900     		lsls	r1, r1, #2
 1922 016c 1031     		adds	r1, r1, #16
 1923 016e 6918     		adds	r1, r5, r1
 1924 0170 0431     		adds	r1, r1, #4
 1925 0172 E9E7     		b	.L141
 1926              	.LVL235:
 1927              	.L137:
 341:Middlewares/ST/STM32_USB_Device_Library/Core/Src/usbd_ctlreq.c ****               {
 1928              		.loc 1 341 15 is_stmt 1 view .LVU541
 341:Middlewares/ST/STM32_USB_Device_Library/Core/Src/usbd_ctlreq.c ****               {
 1929              		.loc 1 341 37 is_stmt 0 view .LVU542
 1930 0174 44B2     		sxtb	r4, r0
 341:Middlewares/ST/STM32_USB_Device_Library/Core/Src/usbd_ctlreq.c ****               {
 1931              		.loc 1 341 18 view .LVU543
 1932 0176 0306     		lsls	r3, r0, #24
 1933 0178 22D4     		bmi	.L164
 351:Middlewares/ST/STM32_USB_Device_Library/Core/Src/usbd_ctlreq.c ****                 {
 1934              		.loc 1 351 17 is_stmt 1 view .LVU544
 351:Middlewares/ST/STM32_USB_Device_Library/Core/Src/usbd_ctlreq.c ****                 {
 1935              		.loc 1 351 42 is_stmt 0 view .LVU545
 1936 017a 0F20     		movs	r0, #15
 1937 017c 1040     		ands	r0, r2
 351:Middlewares/ST/STM32_USB_Device_Library/Core/Src/usbd_ctlreq.c ****                 {
 1938              		.loc 1 351 49 view .LVU546
 1939 017e 8300     		lsls	r3, r0, #2
 1940 0180 1B18     		adds	r3, r3, r0
 1941 0182 9B00     		lsls	r3, r3, #2
 1942 0184 EB18     		adds	r3, r5, r3
 1943 0186 5933     		adds	r3, r3, #89
 1944 0188 FF33     		adds	r3, r3, #255
 1945 018a 1B68     		ldr	r3, [r3]
 351:Middlewares/ST/STM32_USB_Device_Library/Core/Src/usbd_ctlreq.c ****                 {
 1946              		.loc 1 351 20 view .LVU547
 1947 018c 002B     		cmp	r3, #0
 1948 018e 25D0     		beq	.L165
 1949              	.L143:
 358:Middlewares/ST/STM32_USB_Device_Library/Core/Src/usbd_ctlreq.c ****                     &pdev->ep_out[ep_addr & 0x7FU];
 1950              		.loc 1 358 15 is_stmt 1 view .LVU548
ARM GAS  /tmp/cc2rDdvh.s 			page 60


 358:Middlewares/ST/STM32_USB_Device_Library/Core/Src/usbd_ctlreq.c ****                     &pdev->ep_out[ep_addr & 0x7FU];
 1951              		.loc 1 358 82 is_stmt 0 view .LVU549
 1952 0190 002C     		cmp	r4, #0
 1953 0192 28DB     		blt	.L166
 359:Middlewares/ST/STM32_USB_Device_Library/Core/Src/usbd_ctlreq.c **** 
 1954              		.loc 1 359 43 discriminator 2 view .LVU550
 1955 0194 7F23     		movs	r3, #127
 1956 0196 1340     		ands	r3, r2
 358:Middlewares/ST/STM32_USB_Device_Library/Core/Src/usbd_ctlreq.c ****                     &pdev->ep_out[ep_addr & 0x7FU];
 1957              		.loc 1 358 82 discriminator 2 view .LVU551
 1958 0198 9C00     		lsls	r4, r3, #2
 1959 019a E418     		adds	r4, r4, r3
 1960 019c A400     		lsls	r4, r4, #2
 1961 019e 5134     		adds	r4, r4, #81
 1962 01a0 FF34     		adds	r4, r4, #255
 1963 01a2 2C19     		adds	r4, r5, r4
 1964 01a4 0434     		adds	r4, r4, #4
 1965              	.L145:
 1966              	.LVL236:
 361:Middlewares/ST/STM32_USB_Device_Library/Core/Src/usbd_ctlreq.c ****               {
 1967              		.loc 1 361 15 is_stmt 1 discriminator 4 view .LVU552
 361:Middlewares/ST/STM32_USB_Device_Library/Core/Src/usbd_ctlreq.c ****               {
 1968              		.loc 1 361 18 is_stmt 0 discriminator 4 view .LVU553
 1969 01a6 002A     		cmp	r2, #0
 1970 01a8 01D0     		beq	.L146
 361:Middlewares/ST/STM32_USB_Device_Library/Core/Src/usbd_ctlreq.c ****               {
 1971              		.loc 1 361 38 discriminator 1 view .LVU554
 1972 01aa 802A     		cmp	r2, #128
 1973 01ac 24D1     		bne	.L147
 1974              	.L146:
 363:Middlewares/ST/STM32_USB_Device_Library/Core/Src/usbd_ctlreq.c ****               }
 1975              		.loc 1 363 17 is_stmt 1 view .LVU555
 363:Middlewares/ST/STM32_USB_Device_Library/Core/Src/usbd_ctlreq.c ****               }
 1976              		.loc 1 363 29 is_stmt 0 view .LVU556
 1977 01ae 0023     		movs	r3, #0
 1978 01b0 2360     		str	r3, [r4]
 1979              	.LVL237:
 1980              	.L148:
 374:Middlewares/ST/STM32_USB_Device_Library/Core/Src/usbd_ctlreq.c ****               break;
 1981              		.loc 1 374 15 is_stmt 1 view .LVU557
 1982 01b2 0222     		movs	r2, #2
 1983 01b4 2100     		movs	r1, r4
 1984 01b6 2800     		movs	r0, r5
 1985 01b8 FFF7FEFF 		bl	USBD_CtlSendData
 1986              	.LVL238:
 375:Middlewares/ST/STM32_USB_Device_Library/Core/Src/usbd_ctlreq.c **** 
 1987              		.loc 1 375 15 view .LVU558
 394:Middlewares/ST/STM32_USB_Device_Library/Core/Src/usbd_ctlreq.c **** }
 1988              		.loc 1 394 10 is_stmt 0 view .LVU559
 1989 01bc 3400     		movs	r4, r6
 1990              	.LVL239:
 375:Middlewares/ST/STM32_USB_Device_Library/Core/Src/usbd_ctlreq.c **** 
 1991              		.loc 1 375 15 view .LVU560
 1992 01be 38E7     		b	.L120
 1993              	.LVL240:
 1994              	.L164:
 343:Middlewares/ST/STM32_USB_Device_Library/Core/Src/usbd_ctlreq.c ****                 {
ARM GAS  /tmp/cc2rDdvh.s 			page 61


 1995              		.loc 1 343 17 is_stmt 1 view .LVU561
 343:Middlewares/ST/STM32_USB_Device_Library/Core/Src/usbd_ctlreq.c ****                 {
 1996              		.loc 1 343 41 is_stmt 0 view .LVU562
 1997 01c0 0F20     		movs	r0, #15
 1998 01c2 1040     		ands	r0, r2
 343:Middlewares/ST/STM32_USB_Device_Library/Core/Src/usbd_ctlreq.c ****                 {
 1999              		.loc 1 343 48 view .LVU563
 2000 01c4 8300     		lsls	r3, r0, #2
 2001 01c6 1B18     		adds	r3, r3, r0
 2002 01c8 9B00     		lsls	r3, r3, #2
 2003 01ca EB18     		adds	r3, r5, r3
 2004 01cc 9B69     		ldr	r3, [r3, #24]
 343:Middlewares/ST/STM32_USB_Device_Library/Core/Src/usbd_ctlreq.c ****                 {
 2005              		.loc 1 343 20 view .LVU564
 2006 01ce 002B     		cmp	r3, #0
 2007 01d0 DED1     		bne	.L143
 345:Middlewares/ST/STM32_USB_Device_Library/Core/Src/usbd_ctlreq.c ****                   break;
 2008              		.loc 1 345 19 is_stmt 1 view .LVU565
 2009 01d2 2800     		movs	r0, r5
 2010 01d4 FFF7FEFF 		bl	USBD_CtlError
 2011              	.LVL241:
 346:Middlewares/ST/STM32_USB_Device_Library/Core/Src/usbd_ctlreq.c ****                 }
 2012              		.loc 1 346 19 view .LVU566
 394:Middlewares/ST/STM32_USB_Device_Library/Core/Src/usbd_ctlreq.c **** }
 2013              		.loc 1 394 10 is_stmt 0 view .LVU567
 2014 01d8 3400     		movs	r4, r6
 346:Middlewares/ST/STM32_USB_Device_Library/Core/Src/usbd_ctlreq.c ****                 }
 2015              		.loc 1 346 19 view .LVU568
 2016 01da 2AE7     		b	.L120
 2017              	.LVL242:
 2018              	.L165:
 353:Middlewares/ST/STM32_USB_Device_Library/Core/Src/usbd_ctlreq.c ****                   break;
 2019              		.loc 1 353 19 is_stmt 1 view .LVU569
 2020 01dc 2800     		movs	r0, r5
 2021 01de FFF7FEFF 		bl	USBD_CtlError
 2022              	.LVL243:
 354:Middlewares/ST/STM32_USB_Device_Library/Core/Src/usbd_ctlreq.c ****                 }
 2023              		.loc 1 354 19 view .LVU570
 394:Middlewares/ST/STM32_USB_Device_Library/Core/Src/usbd_ctlreq.c **** }
 2024              		.loc 1 394 10 is_stmt 0 view .LVU571
 2025 01e2 3400     		movs	r4, r6
 354:Middlewares/ST/STM32_USB_Device_Library/Core/Src/usbd_ctlreq.c ****                 }
 2026              		.loc 1 354 19 view .LVU572
 2027 01e4 25E7     		b	.L120
 2028              	.LVL244:
 2029              	.L166:
 358:Middlewares/ST/STM32_USB_Device_Library/Core/Src/usbd_ctlreq.c ****                     &pdev->ep_out[ep_addr & 0x7FU];
 2030              		.loc 1 358 73 discriminator 1 view .LVU573
 2031 01e6 7F23     		movs	r3, #127
 2032 01e8 1340     		ands	r3, r2
 358:Middlewares/ST/STM32_USB_Device_Library/Core/Src/usbd_ctlreq.c ****                     &pdev->ep_out[ep_addr & 0x7FU];
 2033              		.loc 1 358 82 discriminator 1 view .LVU574
 2034 01ea 9C00     		lsls	r4, r3, #2
 2035 01ec E418     		adds	r4, r4, r3
 2036 01ee A400     		lsls	r4, r4, #2
 2037 01f0 1034     		adds	r4, r4, #16
 2038 01f2 2C19     		adds	r4, r5, r4
ARM GAS  /tmp/cc2rDdvh.s 			page 62


 2039 01f4 0434     		adds	r4, r4, #4
 2040 01f6 D6E7     		b	.L145
 2041              	.LVL245:
 2042              	.L147:
 365:Middlewares/ST/STM32_USB_Device_Library/Core/Src/usbd_ctlreq.c ****               {
 2043              		.loc 1 365 20 is_stmt 1 view .LVU575
 365:Middlewares/ST/STM32_USB_Device_Library/Core/Src/usbd_ctlreq.c ****               {
 2044              		.loc 1 365 24 is_stmt 0 view .LVU576
 2045 01f8 1100     		movs	r1, r2
 2046              	.LVL246:
 365:Middlewares/ST/STM32_USB_Device_Library/Core/Src/usbd_ctlreq.c ****               {
 2047              		.loc 1 365 24 view .LVU577
 2048 01fa 2800     		movs	r0, r5
 2049 01fc FFF7FEFF 		bl	USBD_LL_IsStallEP
 2050              	.LVL247:
 365:Middlewares/ST/STM32_USB_Device_Library/Core/Src/usbd_ctlreq.c ****               {
 2051              		.loc 1 365 23 view .LVU578
 2052 0200 0028     		cmp	r0, #0
 2053 0202 02D0     		beq	.L149
 367:Middlewares/ST/STM32_USB_Device_Library/Core/Src/usbd_ctlreq.c ****               }
 2054              		.loc 1 367 17 is_stmt 1 view .LVU579
 367:Middlewares/ST/STM32_USB_Device_Library/Core/Src/usbd_ctlreq.c ****               }
 2055              		.loc 1 367 29 is_stmt 0 view .LVU580
 2056 0204 0123     		movs	r3, #1
 2057 0206 2360     		str	r3, [r4]
 2058 0208 D3E7     		b	.L148
 2059              	.L149:
 371:Middlewares/ST/STM32_USB_Device_Library/Core/Src/usbd_ctlreq.c ****               }
 2060              		.loc 1 371 17 is_stmt 1 view .LVU581
 371:Middlewares/ST/STM32_USB_Device_Library/Core/Src/usbd_ctlreq.c ****               }
 2061              		.loc 1 371 29 is_stmt 0 view .LVU582
 2062 020a 0023     		movs	r3, #0
 2063 020c 2360     		str	r3, [r4]
 2064 020e D0E7     		b	.L148
 2065              		.cfi_endproc
 2066              	.LFE45:
 2068              		.section	.text.USBD_GetString,"ax",%progbits
 2069              		.align	1
 2070              		.global	USBD_GetString
 2071              		.syntax unified
 2072              		.code	16
 2073              		.thumb_func
 2074              		.fpu softvfp
 2076              	USBD_GetString:
 2077              	.LVL248:
 2078              	.LFB55:
 869:Middlewares/ST/STM32_USB_Device_Library/Core/Src/usbd_ctlreq.c ****   uint8_t idx = 0U;
 2079              		.loc 1 869 1 is_stmt 1 view -0
 2080              		.cfi_startproc
 2081              		@ args = 0, pretend = 0, frame = 0
 2082              		@ frame_needed = 0, uses_anonymous_args = 0
 869:Middlewares/ST/STM32_USB_Device_Library/Core/Src/usbd_ctlreq.c ****   uint8_t idx = 0U;
 2083              		.loc 1 869 1 is_stmt 0 view .LVU584
 2084 0000 70B5     		push	{r4, r5, r6, lr}
 2085              	.LCFI12:
 2086              		.cfi_def_cfa_offset 16
 2087              		.cfi_offset 4, -16
ARM GAS  /tmp/cc2rDdvh.s 			page 63


 2088              		.cfi_offset 5, -12
 2089              		.cfi_offset 6, -8
 2090              		.cfi_offset 14, -4
 2091 0002 0400     		movs	r4, r0
 2092 0004 0D00     		movs	r5, r1
 2093 0006 1600     		movs	r6, r2
 870:Middlewares/ST/STM32_USB_Device_Library/Core/Src/usbd_ctlreq.c **** 
 2094              		.loc 1 870 3 is_stmt 1 view .LVU585
 2095              	.LVL249:
 872:Middlewares/ST/STM32_USB_Device_Library/Core/Src/usbd_ctlreq.c ****   {
 2096              		.loc 1 872 3 view .LVU586
 872:Middlewares/ST/STM32_USB_Device_Library/Core/Src/usbd_ctlreq.c ****   {
 2097              		.loc 1 872 6 is_stmt 0 view .LVU587
 2098 0008 0028     		cmp	r0, #0
 2099 000a 15D0     		beq	.L167
 874:Middlewares/ST/STM32_USB_Device_Library/Core/Src/usbd_ctlreq.c ****     unicode[idx++] = *(uint8_t *)(void *)len;
 2100              		.loc 1 874 5 is_stmt 1 view .LVU588
 874:Middlewares/ST/STM32_USB_Device_Library/Core/Src/usbd_ctlreq.c ****     unicode[idx++] = *(uint8_t *)(void *)len;
 2101              		.loc 1 874 22 is_stmt 0 view .LVU589
 2102 000c FFF7FEFF 		bl	USBD_GetLen
 2103              	.LVL250:
 874:Middlewares/ST/STM32_USB_Device_Library/Core/Src/usbd_ctlreq.c ****     unicode[idx++] = *(uint8_t *)(void *)len;
 2104              		.loc 1 874 45 view .LVU590
 2105 0010 0130     		adds	r0, r0, #1
 874:Middlewares/ST/STM32_USB_Device_Library/Core/Src/usbd_ctlreq.c ****     unicode[idx++] = *(uint8_t *)(void *)len;
 2106              		.loc 1 874 10 view .LVU591
 2107 0012 4000     		lsls	r0, r0, #1
 2108 0014 3080     		strh	r0, [r6]
 875:Middlewares/ST/STM32_USB_Device_Library/Core/Src/usbd_ctlreq.c ****     unicode[idx++] = USB_DESC_TYPE_STRING;
 2109              		.loc 1 875 5 is_stmt 1 view .LVU592
 2110              	.LVL251:
 875:Middlewares/ST/STM32_USB_Device_Library/Core/Src/usbd_ctlreq.c ****     unicode[idx++] = USB_DESC_TYPE_STRING;
 2111              		.loc 1 875 20 is_stmt 0 view .LVU593
 2112 0016 2870     		strb	r0, [r5]
 876:Middlewares/ST/STM32_USB_Device_Library/Core/Src/usbd_ctlreq.c **** 
 2113              		.loc 1 876 5 is_stmt 1 view .LVU594
 2114              	.LVL252:
 876:Middlewares/ST/STM32_USB_Device_Library/Core/Src/usbd_ctlreq.c **** 
 2115              		.loc 1 876 20 is_stmt 0 view .LVU595
 2116 0018 0323     		movs	r3, #3
 2117 001a 6B70     		strb	r3, [r5, #1]
 878:Middlewares/ST/STM32_USB_Device_Library/Core/Src/usbd_ctlreq.c ****     {
 2118              		.loc 1 878 5 is_stmt 1 view .LVU596
 876:Middlewares/ST/STM32_USB_Device_Library/Core/Src/usbd_ctlreq.c **** 
 2119              		.loc 1 876 16 is_stmt 0 view .LVU597
 2120 001c 013B     		subs	r3, r3, #1
 878:Middlewares/ST/STM32_USB_Device_Library/Core/Src/usbd_ctlreq.c ****     {
 2121              		.loc 1 878 11 view .LVU598
 2122 001e 08E0     		b	.L169
 2123              	.LVL253:
 2124              	.L170:
 880:Middlewares/ST/STM32_USB_Device_Library/Core/Src/usbd_ctlreq.c ****       unicode[idx++] =  0U;
 2125              		.loc 1 880 7 is_stmt 1 view .LVU599
 880:Middlewares/ST/STM32_USB_Device_Library/Core/Src/usbd_ctlreq.c ****       unicode[idx++] =  0U;
 2126              		.loc 1 880 29 is_stmt 0 view .LVU600
 2127 0020 0134     		adds	r4, r4, #1
 2128              	.LVL254:
ARM GAS  /tmp/cc2rDdvh.s 			page 64


 880:Middlewares/ST/STM32_USB_Device_Library/Core/Src/usbd_ctlreq.c ****       unicode[idx++] =  0U;
 2129              		.loc 1 880 18 view .LVU601
 2130 0022 5A1C     		adds	r2, r3, #1
 2131 0024 D2B2     		uxtb	r2, r2
 2132              	.LVL255:
 880:Middlewares/ST/STM32_USB_Device_Library/Core/Src/usbd_ctlreq.c ****       unicode[idx++] =  0U;
 2133              		.loc 1 880 22 view .LVU602
 2134 0026 E854     		strb	r0, [r5, r3]
 881:Middlewares/ST/STM32_USB_Device_Library/Core/Src/usbd_ctlreq.c ****     }
 2135              		.loc 1 881 7 is_stmt 1 view .LVU603
 881:Middlewares/ST/STM32_USB_Device_Library/Core/Src/usbd_ctlreq.c ****     }
 2136              		.loc 1 881 18 is_stmt 0 view .LVU604
 2137 0028 0233     		adds	r3, r3, #2
 2138 002a DBB2     		uxtb	r3, r3
 2139              	.LVL256:
 881:Middlewares/ST/STM32_USB_Device_Library/Core/Src/usbd_ctlreq.c ****     }
 2140              		.loc 1 881 14 view .LVU605
 2141 002c AA18     		adds	r2, r5, r2
 881:Middlewares/ST/STM32_USB_Device_Library/Core/Src/usbd_ctlreq.c ****     }
 2142              		.loc 1 881 22 view .LVU606
 2143 002e 0021     		movs	r1, #0
 2144 0030 1170     		strb	r1, [r2]
 2145              	.LVL257:
 2146              	.L169:
 878:Middlewares/ST/STM32_USB_Device_Library/Core/Src/usbd_ctlreq.c ****     {
 2147              		.loc 1 878 11 is_stmt 1 view .LVU607
 878:Middlewares/ST/STM32_USB_Device_Library/Core/Src/usbd_ctlreq.c ****     {
 2148              		.loc 1 878 12 is_stmt 0 view .LVU608
 2149 0032 2078     		ldrb	r0, [r4]
 878:Middlewares/ST/STM32_USB_Device_Library/Core/Src/usbd_ctlreq.c ****     {
 2150              		.loc 1 878 11 view .LVU609
 2151 0034 0028     		cmp	r0, #0
 2152 0036 F3D1     		bne	.L170
 2153              	.LVL258:
 2154              	.L167:
 884:Middlewares/ST/STM32_USB_Device_Library/Core/Src/usbd_ctlreq.c **** 
 2155              		.loc 1 884 1 view .LVU610
 2156              		@ sp needed
 2157              	.LVL259:
 2158              	.LVL260:
 2159              	.LVL261:
 884:Middlewares/ST/STM32_USB_Device_Library/Core/Src/usbd_ctlreq.c **** 
 2160              		.loc 1 884 1 view .LVU611
 2161 0038 70BD     		pop	{r4, r5, r6, pc}
 2162              		.cfi_endproc
 2163              	.LFE55:
 2165              		.section	.bss.cfgidx.7825,"aw",%nobits
 2166              		.set	.LANCHOR0,. + 0
 2169              	cfgidx.7825:
 2170 0000 00       		.space	1
 2171              		.text
 2172              	.Letext0:
 2173              		.file 2 "/usr/arm-none-eabi/include/machine/_default_types.h"
 2174              		.file 3 "/usr/arm-none-eabi/include/sys/lock.h"
 2175              		.file 4 "/usr/arm-none-eabi/include/sys/_types.h"
 2176              		.file 5 "/usr/lib/gcc/arm-none-eabi/9.2.0/include/stddef.h"
 2177              		.file 6 "/usr/arm-none-eabi/include/sys/reent.h"
ARM GAS  /tmp/cc2rDdvh.s 			page 65


 2178              		.file 7 "/usr/arm-none-eabi/include/sys/_stdint.h"
 2179              		.file 8 "/usr/arm-none-eabi/include/stdlib.h"
 2180              		.file 9 "Drivers/CMSIS/Device/ST/STM32F0xx/Include/system_stm32f0xx.h"
 2181              		.file 10 "Drivers/STM32F0xx_HAL_Driver/Inc/stm32f0xx_hal.h"
 2182              		.file 11 "Middlewares/ST/STM32_USB_Device_Library/Core/Inc/usbd_def.h"
 2183              		.file 12 "Middlewares/ST/STM32_USB_Device_Library/Core/Inc/usbd_core.h"
 2184              		.file 13 "Middlewares/ST/STM32_USB_Device_Library/Core/Inc/usbd_ioreq.h"
ARM GAS  /tmp/cc2rDdvh.s 			page 66


DEFINED SYMBOLS
                            *ABS*:0000000000000000 usbd_ctlreq.c
     /tmp/cc2rDdvh.s:16     .text.USBD_GetLen:0000000000000000 $t
     /tmp/cc2rDdvh.s:23     .text.USBD_GetLen:0000000000000000 USBD_GetLen
     /tmp/cc2rDdvh.s:68     .text.USBD_SetFeature:0000000000000000 $t
     /tmp/cc2rDdvh.s:74     .text.USBD_SetFeature:0000000000000000 USBD_SetFeature
     /tmp/cc2rDdvh.s:115    .text.USBD_ParseSetupRequest:0000000000000000 $t
     /tmp/cc2rDdvh.s:122    .text.USBD_ParseSetupRequest:0000000000000000 USBD_ParseSetupRequest
     /tmp/cc2rDdvh.s:170    .text.USBD_CtlError:0000000000000000 $t
     /tmp/cc2rDdvh.s:177    .text.USBD_CtlError:0000000000000000 USBD_CtlError
     /tmp/cc2rDdvh.s:211    .text.USBD_GetDescriptor:0000000000000000 $t
     /tmp/cc2rDdvh.s:217    .text.USBD_GetDescriptor:0000000000000000 USBD_GetDescriptor
     /tmp/cc2rDdvh.s:259    .rodata.USBD_GetDescriptor:0000000000000000 $d
     /tmp/cc2rDdvh.s:731    .text.USBD_GetDescriptor:00000000000001c4 $d
     /tmp/cc2rDdvh.s:737    .text.USBD_SetAddress:0000000000000000 $t
     /tmp/cc2rDdvh.s:743    .text.USBD_SetAddress:0000000000000000 USBD_SetAddress
     /tmp/cc2rDdvh.s:846    .text.USBD_SetAddress:000000000000005c $d
     /tmp/cc2rDdvh.s:851    .text.USBD_SetConfig:0000000000000000 $t
     /tmp/cc2rDdvh.s:857    .text.USBD_SetConfig:0000000000000000 USBD_SetConfig
     /tmp/cc2rDdvh.s:1034   .text.USBD_SetConfig:00000000000000b4 $d
     /tmp/cc2rDdvh.s:1039   .text.USBD_GetConfig:0000000000000000 $t
     /tmp/cc2rDdvh.s:1045   .text.USBD_GetConfig:0000000000000000 USBD_GetConfig
     /tmp/cc2rDdvh.s:1127   .text.USBD_GetStatus:0000000000000000 $t
     /tmp/cc2rDdvh.s:1133   .text.USBD_GetStatus:0000000000000000 USBD_GetStatus
     /tmp/cc2rDdvh.s:1212   .text.USBD_ClrFeature:0000000000000000 $t
     /tmp/cc2rDdvh.s:1218   .text.USBD_ClrFeature:0000000000000000 USBD_ClrFeature
     /tmp/cc2rDdvh.s:1276   .text.USBD_StdDevReq:0000000000000000 $t
     /tmp/cc2rDdvh.s:1283   .text.USBD_StdDevReq:0000000000000000 USBD_StdDevReq
     /tmp/cc2rDdvh.s:1346   .rodata.USBD_StdDevReq:0000000000000000 $d
     /tmp/cc2rDdvh.s:1417   .text.USBD_StdDevReq:0000000000000068 $d
     /tmp/cc2rDdvh.s:1422   .text.USBD_StdItfReq:0000000000000000 $t
     /tmp/cc2rDdvh.s:1429   .text.USBD_StdItfReq:0000000000000000 USBD_StdItfReq
     /tmp/cc2rDdvh.s:1550   .text.USBD_StdEPReq:0000000000000000 $t
     /tmp/cc2rDdvh.s:1557   .text.USBD_StdEPReq:0000000000000000 USBD_StdEPReq
     /tmp/cc2rDdvh.s:2069   .text.USBD_GetString:0000000000000000 $t
     /tmp/cc2rDdvh.s:2076   .text.USBD_GetString:0000000000000000 USBD_GetString
     /tmp/cc2rDdvh.s:2169   .bss.cfgidx.7825:0000000000000000 cfgidx.7825
     /tmp/cc2rDdvh.s:2170   .bss.cfgidx.7825:0000000000000000 $d

UNDEFINED SYMBOLS
USBD_CtlSendStatus
USBD_LL_StallEP
USBD_CtlSendData
USBD_LL_SetUSBAddress
USBD_ClrClassConfig
USBD_SetClassConfig
USBD_LL_ClearStallEP
USBD_LL_IsStallEP
