ARM GAS  /tmp/cc2AD7kg.s 			page 1


   1              		.cpu cortex-m0
   2              		.eabi_attribute 20, 1
   3              		.eabi_attribute 21, 1
   4              		.eabi_attribute 23, 3
   5              		.eabi_attribute 24, 1
   6              		.eabi_attribute 25, 1
   7              		.eabi_attribute 26, 1
   8              		.eabi_attribute 30, 1
   9              		.eabi_attribute 34, 0
  10              		.eabi_attribute 18, 4
  11              		.file	"usbd_dfu.c"
  12              		.text
  13              	.Ltext0:
  14              		.cfi_sections	.debug_frame
  15              		.section	.text.USBD_DFU_GetCfgDesc,"ax",%progbits
  16              		.align	1
  17              		.arch armv6s-m
  18              		.syntax unified
  19              		.code	16
  20              		.thumb_func
  21              		.fpu softvfp
  23              	USBD_DFU_GetCfgDesc:
  24              	.LVL0:
  25              	.LFB46:
  26              		.file 1 "Middlewares/ST/STM32_USB_Device_Library/Class/DFU/Src/usbd_dfu.c"
   1:Middlewares/ST/STM32_USB_Device_Library/Class/DFU/Src/usbd_dfu.c **** /**
   2:Middlewares/ST/STM32_USB_Device_Library/Class/DFU/Src/usbd_dfu.c ****   ******************************************************************************
   3:Middlewares/ST/STM32_USB_Device_Library/Class/DFU/Src/usbd_dfu.c ****   * @file    usbd_dfu.c
   4:Middlewares/ST/STM32_USB_Device_Library/Class/DFU/Src/usbd_dfu.c ****   * @author  MCD Application Team
   5:Middlewares/ST/STM32_USB_Device_Library/Class/DFU/Src/usbd_dfu.c ****   * @brief   This file provides the DFU core functions.
   6:Middlewares/ST/STM32_USB_Device_Library/Class/DFU/Src/usbd_dfu.c ****   *
   7:Middlewares/ST/STM32_USB_Device_Library/Class/DFU/Src/usbd_dfu.c ****   * @verbatim
   8:Middlewares/ST/STM32_USB_Device_Library/Class/DFU/Src/usbd_dfu.c ****   *
   9:Middlewares/ST/STM32_USB_Device_Library/Class/DFU/Src/usbd_dfu.c ****   *          ===================================================================
  10:Middlewares/ST/STM32_USB_Device_Library/Class/DFU/Src/usbd_dfu.c ****   *                                DFU Class Driver Description
  11:Middlewares/ST/STM32_USB_Device_Library/Class/DFU/Src/usbd_dfu.c ****   *          ===================================================================
  12:Middlewares/ST/STM32_USB_Device_Library/Class/DFU/Src/usbd_dfu.c ****   *           This driver manages the DFU class V1.1 following the "Device Class Specification for
  13:Middlewares/ST/STM32_USB_Device_Library/Class/DFU/Src/usbd_dfu.c ****   *           Device Firmware Upgrade Version 1.1 Aug 5, 2004".
  14:Middlewares/ST/STM32_USB_Device_Library/Class/DFU/Src/usbd_dfu.c ****   *           This driver implements the following aspects of the specification:
  15:Middlewares/ST/STM32_USB_Device_Library/Class/DFU/Src/usbd_dfu.c ****   *             - Device descriptor management
  16:Middlewares/ST/STM32_USB_Device_Library/Class/DFU/Src/usbd_dfu.c ****   *             - Configuration descriptor management
  17:Middlewares/ST/STM32_USB_Device_Library/Class/DFU/Src/usbd_dfu.c ****   *             - Enumeration as DFU device (in DFU mode only)
  18:Middlewares/ST/STM32_USB_Device_Library/Class/DFU/Src/usbd_dfu.c ****   *             - Requests management (supporting ST DFU sub-protocol)
  19:Middlewares/ST/STM32_USB_Device_Library/Class/DFU/Src/usbd_dfu.c ****   *             - Memory operations management (Download/Upload/Erase/Detach/GetState/GetStatus)
  20:Middlewares/ST/STM32_USB_Device_Library/Class/DFU/Src/usbd_dfu.c ****   *             - DFU state machine implementation.
  21:Middlewares/ST/STM32_USB_Device_Library/Class/DFU/Src/usbd_dfu.c ****   *
  22:Middlewares/ST/STM32_USB_Device_Library/Class/DFU/Src/usbd_dfu.c ****   *           @note
  23:Middlewares/ST/STM32_USB_Device_Library/Class/DFU/Src/usbd_dfu.c ****   *            ST DFU sub-protocol is compliant with DFU protocol and use sub-requests to manage
  24:Middlewares/ST/STM32_USB_Device_Library/Class/DFU/Src/usbd_dfu.c ****   *            memory addressing, commands processing, specific memories operations (ie. Erase) ...
  25:Middlewares/ST/STM32_USB_Device_Library/Class/DFU/Src/usbd_dfu.c ****   *            As required by the DFU specification, only endpoint 0 is used in this application.
  26:Middlewares/ST/STM32_USB_Device_Library/Class/DFU/Src/usbd_dfu.c ****   *            Other endpoints and functions may be added to the application (ie. DFU ...)
  27:Middlewares/ST/STM32_USB_Device_Library/Class/DFU/Src/usbd_dfu.c ****   *
  28:Middlewares/ST/STM32_USB_Device_Library/Class/DFU/Src/usbd_dfu.c ****   *           These aspects may be enriched or modified for a specific user application.
  29:Middlewares/ST/STM32_USB_Device_Library/Class/DFU/Src/usbd_dfu.c ****   *
  30:Middlewares/ST/STM32_USB_Device_Library/Class/DFU/Src/usbd_dfu.c ****   *           This driver doesn't implement the following aspects of the specification
  31:Middlewares/ST/STM32_USB_Device_Library/Class/DFU/Src/usbd_dfu.c ****   *           (but it is possible to manage these features with some modifications on this driver):
  32:Middlewares/ST/STM32_USB_Device_Library/Class/DFU/Src/usbd_dfu.c ****   *             - Manifestation Tolerant mode
ARM GAS  /tmp/cc2AD7kg.s 			page 2


  33:Middlewares/ST/STM32_USB_Device_Library/Class/DFU/Src/usbd_dfu.c ****   *
  34:Middlewares/ST/STM32_USB_Device_Library/Class/DFU/Src/usbd_dfu.c ****   *  @endverbatim
  35:Middlewares/ST/STM32_USB_Device_Library/Class/DFU/Src/usbd_dfu.c ****   *
  36:Middlewares/ST/STM32_USB_Device_Library/Class/DFU/Src/usbd_dfu.c ****   ******************************************************************************
  37:Middlewares/ST/STM32_USB_Device_Library/Class/DFU/Src/usbd_dfu.c ****   * @attention
  38:Middlewares/ST/STM32_USB_Device_Library/Class/DFU/Src/usbd_dfu.c ****   *
  39:Middlewares/ST/STM32_USB_Device_Library/Class/DFU/Src/usbd_dfu.c ****   * <h2><center>&copy; Copyright (c) 2015 STMicroelectronics.
  40:Middlewares/ST/STM32_USB_Device_Library/Class/DFU/Src/usbd_dfu.c ****   * All rights reserved.</center></h2>
  41:Middlewares/ST/STM32_USB_Device_Library/Class/DFU/Src/usbd_dfu.c ****   *
  42:Middlewares/ST/STM32_USB_Device_Library/Class/DFU/Src/usbd_dfu.c ****   * This software component is licensed by ST under Ultimate Liberty license
  43:Middlewares/ST/STM32_USB_Device_Library/Class/DFU/Src/usbd_dfu.c ****   * SLA0044, the "License"; You may not use this file except in compliance with
  44:Middlewares/ST/STM32_USB_Device_Library/Class/DFU/Src/usbd_dfu.c ****   * the License. You may obtain a copy of the License at:
  45:Middlewares/ST/STM32_USB_Device_Library/Class/DFU/Src/usbd_dfu.c ****   *                      www.st.com/SLA0044
  46:Middlewares/ST/STM32_USB_Device_Library/Class/DFU/Src/usbd_dfu.c ****   *
  47:Middlewares/ST/STM32_USB_Device_Library/Class/DFU/Src/usbd_dfu.c ****   ******************************************************************************
  48:Middlewares/ST/STM32_USB_Device_Library/Class/DFU/Src/usbd_dfu.c ****   */
  49:Middlewares/ST/STM32_USB_Device_Library/Class/DFU/Src/usbd_dfu.c **** 
  50:Middlewares/ST/STM32_USB_Device_Library/Class/DFU/Src/usbd_dfu.c **** /* BSPDependencies
  51:Middlewares/ST/STM32_USB_Device_Library/Class/DFU/Src/usbd_dfu.c **** - "stm32xxxxx_{eval}{discovery}{nucleo_144}.c"
  52:Middlewares/ST/STM32_USB_Device_Library/Class/DFU/Src/usbd_dfu.c **** - "stm32xxxxx_{eval}{discovery}_io.c"
  53:Middlewares/ST/STM32_USB_Device_Library/Class/DFU/Src/usbd_dfu.c **** EndBSPDependencies */
  54:Middlewares/ST/STM32_USB_Device_Library/Class/DFU/Src/usbd_dfu.c **** 
  55:Middlewares/ST/STM32_USB_Device_Library/Class/DFU/Src/usbd_dfu.c **** /* Includes ------------------------------------------------------------------*/
  56:Middlewares/ST/STM32_USB_Device_Library/Class/DFU/Src/usbd_dfu.c **** #include "usbd_dfu.h"
  57:Middlewares/ST/STM32_USB_Device_Library/Class/DFU/Src/usbd_dfu.c **** #include "usbd_ctlreq.h"
  58:Middlewares/ST/STM32_USB_Device_Library/Class/DFU/Src/usbd_dfu.c **** 
  59:Middlewares/ST/STM32_USB_Device_Library/Class/DFU/Src/usbd_dfu.c **** 
  60:Middlewares/ST/STM32_USB_Device_Library/Class/DFU/Src/usbd_dfu.c **** /** @addtogroup STM32_USB_DEVICE_LIBRARY
  61:Middlewares/ST/STM32_USB_Device_Library/Class/DFU/Src/usbd_dfu.c ****   * @{
  62:Middlewares/ST/STM32_USB_Device_Library/Class/DFU/Src/usbd_dfu.c ****   */
  63:Middlewares/ST/STM32_USB_Device_Library/Class/DFU/Src/usbd_dfu.c **** 
  64:Middlewares/ST/STM32_USB_Device_Library/Class/DFU/Src/usbd_dfu.c **** 
  65:Middlewares/ST/STM32_USB_Device_Library/Class/DFU/Src/usbd_dfu.c **** /** @defgroup USBD_DFU
  66:Middlewares/ST/STM32_USB_Device_Library/Class/DFU/Src/usbd_dfu.c ****   * @brief usbd core module
  67:Middlewares/ST/STM32_USB_Device_Library/Class/DFU/Src/usbd_dfu.c ****   * @{
  68:Middlewares/ST/STM32_USB_Device_Library/Class/DFU/Src/usbd_dfu.c ****   */
  69:Middlewares/ST/STM32_USB_Device_Library/Class/DFU/Src/usbd_dfu.c **** 
  70:Middlewares/ST/STM32_USB_Device_Library/Class/DFU/Src/usbd_dfu.c **** /** @defgroup USBD_DFU_Private_TypesDefinitions
  71:Middlewares/ST/STM32_USB_Device_Library/Class/DFU/Src/usbd_dfu.c ****   * @{
  72:Middlewares/ST/STM32_USB_Device_Library/Class/DFU/Src/usbd_dfu.c ****   */
  73:Middlewares/ST/STM32_USB_Device_Library/Class/DFU/Src/usbd_dfu.c **** /**
  74:Middlewares/ST/STM32_USB_Device_Library/Class/DFU/Src/usbd_dfu.c ****   * @}
  75:Middlewares/ST/STM32_USB_Device_Library/Class/DFU/Src/usbd_dfu.c ****   */
  76:Middlewares/ST/STM32_USB_Device_Library/Class/DFU/Src/usbd_dfu.c **** 
  77:Middlewares/ST/STM32_USB_Device_Library/Class/DFU/Src/usbd_dfu.c **** 
  78:Middlewares/ST/STM32_USB_Device_Library/Class/DFU/Src/usbd_dfu.c **** /** @defgroup USBD_DFU_Private_Defines
  79:Middlewares/ST/STM32_USB_Device_Library/Class/DFU/Src/usbd_dfu.c ****   * @{
  80:Middlewares/ST/STM32_USB_Device_Library/Class/DFU/Src/usbd_dfu.c ****   */
  81:Middlewares/ST/STM32_USB_Device_Library/Class/DFU/Src/usbd_dfu.c **** 
  82:Middlewares/ST/STM32_USB_Device_Library/Class/DFU/Src/usbd_dfu.c **** /**
  83:Middlewares/ST/STM32_USB_Device_Library/Class/DFU/Src/usbd_dfu.c ****   * @}
  84:Middlewares/ST/STM32_USB_Device_Library/Class/DFU/Src/usbd_dfu.c ****   */
  85:Middlewares/ST/STM32_USB_Device_Library/Class/DFU/Src/usbd_dfu.c **** 
  86:Middlewares/ST/STM32_USB_Device_Library/Class/DFU/Src/usbd_dfu.c **** 
  87:Middlewares/ST/STM32_USB_Device_Library/Class/DFU/Src/usbd_dfu.c **** /** @defgroup USBD_DFU_Private_Macros
  88:Middlewares/ST/STM32_USB_Device_Library/Class/DFU/Src/usbd_dfu.c ****   * @{
  89:Middlewares/ST/STM32_USB_Device_Library/Class/DFU/Src/usbd_dfu.c ****   */
ARM GAS  /tmp/cc2AD7kg.s 			page 3


  90:Middlewares/ST/STM32_USB_Device_Library/Class/DFU/Src/usbd_dfu.c **** 
  91:Middlewares/ST/STM32_USB_Device_Library/Class/DFU/Src/usbd_dfu.c **** /**
  92:Middlewares/ST/STM32_USB_Device_Library/Class/DFU/Src/usbd_dfu.c ****   * @}
  93:Middlewares/ST/STM32_USB_Device_Library/Class/DFU/Src/usbd_dfu.c ****   */
  94:Middlewares/ST/STM32_USB_Device_Library/Class/DFU/Src/usbd_dfu.c **** 
  95:Middlewares/ST/STM32_USB_Device_Library/Class/DFU/Src/usbd_dfu.c **** 
  96:Middlewares/ST/STM32_USB_Device_Library/Class/DFU/Src/usbd_dfu.c **** 
  97:Middlewares/ST/STM32_USB_Device_Library/Class/DFU/Src/usbd_dfu.c **** 
  98:Middlewares/ST/STM32_USB_Device_Library/Class/DFU/Src/usbd_dfu.c **** /** @defgroup USBD_DFU_Private_FunctionPrototypes
  99:Middlewares/ST/STM32_USB_Device_Library/Class/DFU/Src/usbd_dfu.c ****   * @{
 100:Middlewares/ST/STM32_USB_Device_Library/Class/DFU/Src/usbd_dfu.c ****   */
 101:Middlewares/ST/STM32_USB_Device_Library/Class/DFU/Src/usbd_dfu.c **** 
 102:Middlewares/ST/STM32_USB_Device_Library/Class/DFU/Src/usbd_dfu.c **** 
 103:Middlewares/ST/STM32_USB_Device_Library/Class/DFU/Src/usbd_dfu.c **** static uint8_t  USBD_DFU_Init(USBD_HandleTypeDef *pdev,
 104:Middlewares/ST/STM32_USB_Device_Library/Class/DFU/Src/usbd_dfu.c ****                               uint8_t cfgidx);
 105:Middlewares/ST/STM32_USB_Device_Library/Class/DFU/Src/usbd_dfu.c **** 
 106:Middlewares/ST/STM32_USB_Device_Library/Class/DFU/Src/usbd_dfu.c **** static uint8_t  USBD_DFU_DeInit(USBD_HandleTypeDef *pdev,
 107:Middlewares/ST/STM32_USB_Device_Library/Class/DFU/Src/usbd_dfu.c ****                                 uint8_t cfgidx);
 108:Middlewares/ST/STM32_USB_Device_Library/Class/DFU/Src/usbd_dfu.c **** 
 109:Middlewares/ST/STM32_USB_Device_Library/Class/DFU/Src/usbd_dfu.c **** static uint8_t  USBD_DFU_Setup(USBD_HandleTypeDef *pdev,
 110:Middlewares/ST/STM32_USB_Device_Library/Class/DFU/Src/usbd_dfu.c ****                                USBD_SetupReqTypedef *req);
 111:Middlewares/ST/STM32_USB_Device_Library/Class/DFU/Src/usbd_dfu.c **** 
 112:Middlewares/ST/STM32_USB_Device_Library/Class/DFU/Src/usbd_dfu.c **** static uint8_t  *USBD_DFU_GetCfgDesc(uint16_t *length);
 113:Middlewares/ST/STM32_USB_Device_Library/Class/DFU/Src/usbd_dfu.c **** 
 114:Middlewares/ST/STM32_USB_Device_Library/Class/DFU/Src/usbd_dfu.c **** static uint8_t  *USBD_DFU_GetDeviceQualifierDesc(uint16_t *length);
 115:Middlewares/ST/STM32_USB_Device_Library/Class/DFU/Src/usbd_dfu.c **** 
 116:Middlewares/ST/STM32_USB_Device_Library/Class/DFU/Src/usbd_dfu.c **** static uint8_t  USBD_DFU_DataIn(USBD_HandleTypeDef *pdev, uint8_t epnum);
 117:Middlewares/ST/STM32_USB_Device_Library/Class/DFU/Src/usbd_dfu.c **** 
 118:Middlewares/ST/STM32_USB_Device_Library/Class/DFU/Src/usbd_dfu.c **** static uint8_t  USBD_DFU_DataOut(USBD_HandleTypeDef *pdev, uint8_t epnum);
 119:Middlewares/ST/STM32_USB_Device_Library/Class/DFU/Src/usbd_dfu.c **** 
 120:Middlewares/ST/STM32_USB_Device_Library/Class/DFU/Src/usbd_dfu.c **** static uint8_t  USBD_DFU_EP0_RxReady(USBD_HandleTypeDef *pdev);
 121:Middlewares/ST/STM32_USB_Device_Library/Class/DFU/Src/usbd_dfu.c **** 
 122:Middlewares/ST/STM32_USB_Device_Library/Class/DFU/Src/usbd_dfu.c **** static uint8_t  USBD_DFU_EP0_TxReady(USBD_HandleTypeDef *pdev);
 123:Middlewares/ST/STM32_USB_Device_Library/Class/DFU/Src/usbd_dfu.c **** 
 124:Middlewares/ST/STM32_USB_Device_Library/Class/DFU/Src/usbd_dfu.c **** static uint8_t  USBD_DFU_SOF(USBD_HandleTypeDef *pdev);
 125:Middlewares/ST/STM32_USB_Device_Library/Class/DFU/Src/usbd_dfu.c **** 
 126:Middlewares/ST/STM32_USB_Device_Library/Class/DFU/Src/usbd_dfu.c **** static uint8_t  USBD_DFU_IsoINIncomplete(USBD_HandleTypeDef *pdev, uint8_t epnum);
 127:Middlewares/ST/STM32_USB_Device_Library/Class/DFU/Src/usbd_dfu.c **** 
 128:Middlewares/ST/STM32_USB_Device_Library/Class/DFU/Src/usbd_dfu.c **** static uint8_t  USBD_DFU_IsoOutIncomplete(USBD_HandleTypeDef *pdev, uint8_t epnum);
 129:Middlewares/ST/STM32_USB_Device_Library/Class/DFU/Src/usbd_dfu.c **** 
 130:Middlewares/ST/STM32_USB_Device_Library/Class/DFU/Src/usbd_dfu.c **** #if (USBD_SUPPORT_USER_STRING_DESC == 1U)
 131:Middlewares/ST/STM32_USB_Device_Library/Class/DFU/Src/usbd_dfu.c **** static uint8_t *USBD_DFU_GetUsrStringDesc(USBD_HandleTypeDef *pdev, uint8_t index, uint16_t *length
 132:Middlewares/ST/STM32_USB_Device_Library/Class/DFU/Src/usbd_dfu.c **** #endif
 133:Middlewares/ST/STM32_USB_Device_Library/Class/DFU/Src/usbd_dfu.c **** 
 134:Middlewares/ST/STM32_USB_Device_Library/Class/DFU/Src/usbd_dfu.c **** static void DFU_Detach(USBD_HandleTypeDef *pdev, USBD_SetupReqTypedef *req);
 135:Middlewares/ST/STM32_USB_Device_Library/Class/DFU/Src/usbd_dfu.c **** 
 136:Middlewares/ST/STM32_USB_Device_Library/Class/DFU/Src/usbd_dfu.c **** static void DFU_Download(USBD_HandleTypeDef *pdev, USBD_SetupReqTypedef *req);
 137:Middlewares/ST/STM32_USB_Device_Library/Class/DFU/Src/usbd_dfu.c **** 
 138:Middlewares/ST/STM32_USB_Device_Library/Class/DFU/Src/usbd_dfu.c **** static void DFU_Upload(USBD_HandleTypeDef *pdev, USBD_SetupReqTypedef *req);
 139:Middlewares/ST/STM32_USB_Device_Library/Class/DFU/Src/usbd_dfu.c **** 
 140:Middlewares/ST/STM32_USB_Device_Library/Class/DFU/Src/usbd_dfu.c **** static void DFU_GetStatus(USBD_HandleTypeDef *pdev);
 141:Middlewares/ST/STM32_USB_Device_Library/Class/DFU/Src/usbd_dfu.c **** 
 142:Middlewares/ST/STM32_USB_Device_Library/Class/DFU/Src/usbd_dfu.c **** static void DFU_ClearStatus(USBD_HandleTypeDef *pdev);
 143:Middlewares/ST/STM32_USB_Device_Library/Class/DFU/Src/usbd_dfu.c **** 
 144:Middlewares/ST/STM32_USB_Device_Library/Class/DFU/Src/usbd_dfu.c **** static void DFU_GetState(USBD_HandleTypeDef *pdev);
 145:Middlewares/ST/STM32_USB_Device_Library/Class/DFU/Src/usbd_dfu.c **** 
 146:Middlewares/ST/STM32_USB_Device_Library/Class/DFU/Src/usbd_dfu.c **** static void DFU_Abort(USBD_HandleTypeDef *pdev);
ARM GAS  /tmp/cc2AD7kg.s 			page 4


 147:Middlewares/ST/STM32_USB_Device_Library/Class/DFU/Src/usbd_dfu.c **** 
 148:Middlewares/ST/STM32_USB_Device_Library/Class/DFU/Src/usbd_dfu.c **** static void DFU_Leave(USBD_HandleTypeDef *pdev);
 149:Middlewares/ST/STM32_USB_Device_Library/Class/DFU/Src/usbd_dfu.c **** 
 150:Middlewares/ST/STM32_USB_Device_Library/Class/DFU/Src/usbd_dfu.c **** 
 151:Middlewares/ST/STM32_USB_Device_Library/Class/DFU/Src/usbd_dfu.c **** /**
 152:Middlewares/ST/STM32_USB_Device_Library/Class/DFU/Src/usbd_dfu.c ****   * @}
 153:Middlewares/ST/STM32_USB_Device_Library/Class/DFU/Src/usbd_dfu.c ****   */
 154:Middlewares/ST/STM32_USB_Device_Library/Class/DFU/Src/usbd_dfu.c **** 
 155:Middlewares/ST/STM32_USB_Device_Library/Class/DFU/Src/usbd_dfu.c **** /** @defgroup USBD_DFU_Private_Variables
 156:Middlewares/ST/STM32_USB_Device_Library/Class/DFU/Src/usbd_dfu.c ****   * @{
 157:Middlewares/ST/STM32_USB_Device_Library/Class/DFU/Src/usbd_dfu.c ****   */
 158:Middlewares/ST/STM32_USB_Device_Library/Class/DFU/Src/usbd_dfu.c **** 
 159:Middlewares/ST/STM32_USB_Device_Library/Class/DFU/Src/usbd_dfu.c **** USBD_ClassTypeDef  USBD_DFU =
 160:Middlewares/ST/STM32_USB_Device_Library/Class/DFU/Src/usbd_dfu.c **** {
 161:Middlewares/ST/STM32_USB_Device_Library/Class/DFU/Src/usbd_dfu.c ****   USBD_DFU_Init,
 162:Middlewares/ST/STM32_USB_Device_Library/Class/DFU/Src/usbd_dfu.c ****   USBD_DFU_DeInit,
 163:Middlewares/ST/STM32_USB_Device_Library/Class/DFU/Src/usbd_dfu.c ****   USBD_DFU_Setup,
 164:Middlewares/ST/STM32_USB_Device_Library/Class/DFU/Src/usbd_dfu.c ****   USBD_DFU_EP0_TxReady,
 165:Middlewares/ST/STM32_USB_Device_Library/Class/DFU/Src/usbd_dfu.c ****   USBD_DFU_EP0_RxReady,
 166:Middlewares/ST/STM32_USB_Device_Library/Class/DFU/Src/usbd_dfu.c ****   USBD_DFU_DataIn,
 167:Middlewares/ST/STM32_USB_Device_Library/Class/DFU/Src/usbd_dfu.c ****   USBD_DFU_DataOut,
 168:Middlewares/ST/STM32_USB_Device_Library/Class/DFU/Src/usbd_dfu.c ****   USBD_DFU_SOF,
 169:Middlewares/ST/STM32_USB_Device_Library/Class/DFU/Src/usbd_dfu.c ****   USBD_DFU_IsoINIncomplete,
 170:Middlewares/ST/STM32_USB_Device_Library/Class/DFU/Src/usbd_dfu.c ****   USBD_DFU_IsoOutIncomplete,
 171:Middlewares/ST/STM32_USB_Device_Library/Class/DFU/Src/usbd_dfu.c ****   USBD_DFU_GetCfgDesc,
 172:Middlewares/ST/STM32_USB_Device_Library/Class/DFU/Src/usbd_dfu.c ****   USBD_DFU_GetCfgDesc,
 173:Middlewares/ST/STM32_USB_Device_Library/Class/DFU/Src/usbd_dfu.c ****   USBD_DFU_GetCfgDesc,
 174:Middlewares/ST/STM32_USB_Device_Library/Class/DFU/Src/usbd_dfu.c ****   USBD_DFU_GetDeviceQualifierDesc,
 175:Middlewares/ST/STM32_USB_Device_Library/Class/DFU/Src/usbd_dfu.c **** #if (USBD_SUPPORT_USER_STRING_DESC == 1U)
 176:Middlewares/ST/STM32_USB_Device_Library/Class/DFU/Src/usbd_dfu.c ****   USBD_DFU_GetUsrStringDesc
 177:Middlewares/ST/STM32_USB_Device_Library/Class/DFU/Src/usbd_dfu.c **** #endif
 178:Middlewares/ST/STM32_USB_Device_Library/Class/DFU/Src/usbd_dfu.c **** };
 179:Middlewares/ST/STM32_USB_Device_Library/Class/DFU/Src/usbd_dfu.c **** 
 180:Middlewares/ST/STM32_USB_Device_Library/Class/DFU/Src/usbd_dfu.c **** /* USB DFU device Configuration Descriptor */
 181:Middlewares/ST/STM32_USB_Device_Library/Class/DFU/Src/usbd_dfu.c **** __ALIGN_BEGIN static uint8_t USBD_DFU_CfgDesc[USB_DFU_CONFIG_DESC_SIZ] __ALIGN_END =
 182:Middlewares/ST/STM32_USB_Device_Library/Class/DFU/Src/usbd_dfu.c **** {
 183:Middlewares/ST/STM32_USB_Device_Library/Class/DFU/Src/usbd_dfu.c ****   0x09, /* bLength: Configuation Descriptor size */
 184:Middlewares/ST/STM32_USB_Device_Library/Class/DFU/Src/usbd_dfu.c ****   USB_DESC_TYPE_CONFIGURATION, /* bDescriptorType: Configuration */
 185:Middlewares/ST/STM32_USB_Device_Library/Class/DFU/Src/usbd_dfu.c ****   USB_DFU_CONFIG_DESC_SIZ,
 186:Middlewares/ST/STM32_USB_Device_Library/Class/DFU/Src/usbd_dfu.c ****   /* wTotalLength: Bytes returned */
 187:Middlewares/ST/STM32_USB_Device_Library/Class/DFU/Src/usbd_dfu.c ****   0x00,
 188:Middlewares/ST/STM32_USB_Device_Library/Class/DFU/Src/usbd_dfu.c ****   0x01,         /*bNumInterfaces: 1 interface*/
 189:Middlewares/ST/STM32_USB_Device_Library/Class/DFU/Src/usbd_dfu.c ****   0x01,         /*bConfigurationValue: Configuration value*/
 190:Middlewares/ST/STM32_USB_Device_Library/Class/DFU/Src/usbd_dfu.c ****   0x02,         /*iConfiguration: Index of string descriptor describing the configuration*/
 191:Middlewares/ST/STM32_USB_Device_Library/Class/DFU/Src/usbd_dfu.c ****   0xC0,         /*bmAttributes: bus powered and Supprts Remote Wakeup */
 192:Middlewares/ST/STM32_USB_Device_Library/Class/DFU/Src/usbd_dfu.c ****   0x32,         /*MaxPower 100 mA: this current is used for detecting Vbus*/
 193:Middlewares/ST/STM32_USB_Device_Library/Class/DFU/Src/usbd_dfu.c ****   /* 09 */
 194:Middlewares/ST/STM32_USB_Device_Library/Class/DFU/Src/usbd_dfu.c **** 
 195:Middlewares/ST/STM32_USB_Device_Library/Class/DFU/Src/usbd_dfu.c ****   /**********  Descriptor of DFU interface 0 Alternate setting 0 **************/
 196:Middlewares/ST/STM32_USB_Device_Library/Class/DFU/Src/usbd_dfu.c ****   USBD_DFU_IF_DESC(0U), /* This interface is mandatory for all devices */
 197:Middlewares/ST/STM32_USB_Device_Library/Class/DFU/Src/usbd_dfu.c **** 
 198:Middlewares/ST/STM32_USB_Device_Library/Class/DFU/Src/usbd_dfu.c **** #if (USBD_DFU_MAX_ITF_NUM > 1U)
 199:Middlewares/ST/STM32_USB_Device_Library/Class/DFU/Src/usbd_dfu.c ****   /**********  Descriptor of DFU interface 0 Alternate setting 1 **************/
 200:Middlewares/ST/STM32_USB_Device_Library/Class/DFU/Src/usbd_dfu.c ****   USBD_DFU_IF_DESC(1),
 201:Middlewares/ST/STM32_USB_Device_Library/Class/DFU/Src/usbd_dfu.c **** #endif /* (USBD_DFU_MAX_ITF_NUM > 1) */
 202:Middlewares/ST/STM32_USB_Device_Library/Class/DFU/Src/usbd_dfu.c **** 
 203:Middlewares/ST/STM32_USB_Device_Library/Class/DFU/Src/usbd_dfu.c **** #if (USBD_DFU_MAX_ITF_NUM > 2U)
ARM GAS  /tmp/cc2AD7kg.s 			page 5


 204:Middlewares/ST/STM32_USB_Device_Library/Class/DFU/Src/usbd_dfu.c ****   /**********  Descriptor of DFU interface 0 Alternate setting 2 **************/
 205:Middlewares/ST/STM32_USB_Device_Library/Class/DFU/Src/usbd_dfu.c ****   USBD_DFU_IF_DESC(2),
 206:Middlewares/ST/STM32_USB_Device_Library/Class/DFU/Src/usbd_dfu.c **** #endif /* (USBD_DFU_MAX_ITF_NUM > 2) */
 207:Middlewares/ST/STM32_USB_Device_Library/Class/DFU/Src/usbd_dfu.c **** 
 208:Middlewares/ST/STM32_USB_Device_Library/Class/DFU/Src/usbd_dfu.c **** #if (USBD_DFU_MAX_ITF_NUM > 3U)
 209:Middlewares/ST/STM32_USB_Device_Library/Class/DFU/Src/usbd_dfu.c ****   /**********  Descriptor of DFU interface 0 Alternate setting 3 **************/
 210:Middlewares/ST/STM32_USB_Device_Library/Class/DFU/Src/usbd_dfu.c ****   USBD_DFU_IF_DESC(3),
 211:Middlewares/ST/STM32_USB_Device_Library/Class/DFU/Src/usbd_dfu.c **** #endif /* (USBD_DFU_MAX_ITF_NUM > 3) */
 212:Middlewares/ST/STM32_USB_Device_Library/Class/DFU/Src/usbd_dfu.c **** 
 213:Middlewares/ST/STM32_USB_Device_Library/Class/DFU/Src/usbd_dfu.c **** #if (USBD_DFU_MAX_ITF_NUM > 4U)
 214:Middlewares/ST/STM32_USB_Device_Library/Class/DFU/Src/usbd_dfu.c ****   /**********  Descriptor of DFU interface 0 Alternate setting 4 **************/
 215:Middlewares/ST/STM32_USB_Device_Library/Class/DFU/Src/usbd_dfu.c ****   USBD_DFU_IF_DESC(4),
 216:Middlewares/ST/STM32_USB_Device_Library/Class/DFU/Src/usbd_dfu.c **** #endif /* (USBD_DFU_MAX_ITF_NUM > 4) */
 217:Middlewares/ST/STM32_USB_Device_Library/Class/DFU/Src/usbd_dfu.c **** 
 218:Middlewares/ST/STM32_USB_Device_Library/Class/DFU/Src/usbd_dfu.c **** #if (USBD_DFU_MAX_ITF_NUM > 5U)
 219:Middlewares/ST/STM32_USB_Device_Library/Class/DFU/Src/usbd_dfu.c ****   /**********  Descriptor of DFU interface 0 Alternate setting 5 **************/
 220:Middlewares/ST/STM32_USB_Device_Library/Class/DFU/Src/usbd_dfu.c ****   USBD_DFU_IF_DESC(5),
 221:Middlewares/ST/STM32_USB_Device_Library/Class/DFU/Src/usbd_dfu.c **** #endif /* (USBD_DFU_MAX_ITF_NUM > 5) */
 222:Middlewares/ST/STM32_USB_Device_Library/Class/DFU/Src/usbd_dfu.c **** 
 223:Middlewares/ST/STM32_USB_Device_Library/Class/DFU/Src/usbd_dfu.c **** #if (USBD_DFU_MAX_ITF_NUM > 6U)
 224:Middlewares/ST/STM32_USB_Device_Library/Class/DFU/Src/usbd_dfu.c **** #error "ERROR: usbd_dfu_core.c: Modify the file to support more descriptors!"
 225:Middlewares/ST/STM32_USB_Device_Library/Class/DFU/Src/usbd_dfu.c **** #endif /* (USBD_DFU_MAX_ITF_NUM > 6) */
 226:Middlewares/ST/STM32_USB_Device_Library/Class/DFU/Src/usbd_dfu.c **** 
 227:Middlewares/ST/STM32_USB_Device_Library/Class/DFU/Src/usbd_dfu.c ****   /******************** DFU Functional Descriptor********************/
 228:Middlewares/ST/STM32_USB_Device_Library/Class/DFU/Src/usbd_dfu.c ****   0x09,   /*blength = 9 Bytes*/
 229:Middlewares/ST/STM32_USB_Device_Library/Class/DFU/Src/usbd_dfu.c ****   DFU_DESCRIPTOR_TYPE,   /* DFU Functional Descriptor*/
 230:Middlewares/ST/STM32_USB_Device_Library/Class/DFU/Src/usbd_dfu.c ****   0x0B,   /*bmAttribute
 231:Middlewares/ST/STM32_USB_Device_Library/Class/DFU/Src/usbd_dfu.c ****                 bitCanDnload             = 1      (bit 0)
 232:Middlewares/ST/STM32_USB_Device_Library/Class/DFU/Src/usbd_dfu.c ****                 bitCanUpload             = 1      (bit 1)
 233:Middlewares/ST/STM32_USB_Device_Library/Class/DFU/Src/usbd_dfu.c ****                 bitManifestationTolerant = 0      (bit 2)
 234:Middlewares/ST/STM32_USB_Device_Library/Class/DFU/Src/usbd_dfu.c ****                 bitWillDetach            = 1      (bit 3)
 235:Middlewares/ST/STM32_USB_Device_Library/Class/DFU/Src/usbd_dfu.c ****                 Reserved                          (bit4-6)
 236:Middlewares/ST/STM32_USB_Device_Library/Class/DFU/Src/usbd_dfu.c ****                 bitAcceleratedST         = 0      (bit 7)*/
 237:Middlewares/ST/STM32_USB_Device_Library/Class/DFU/Src/usbd_dfu.c ****   0xFF,   /*DetachTimeOut= 255 ms*/
 238:Middlewares/ST/STM32_USB_Device_Library/Class/DFU/Src/usbd_dfu.c ****   0x00,
 239:Middlewares/ST/STM32_USB_Device_Library/Class/DFU/Src/usbd_dfu.c ****   /*WARNING: In DMA mode the multiple MPS packets feature is still not supported
 240:Middlewares/ST/STM32_USB_Device_Library/Class/DFU/Src/usbd_dfu.c ****    ==> In this case, when using DMA USBD_DFU_XFER_SIZE should be set to 64 in usbd_conf.h */
 241:Middlewares/ST/STM32_USB_Device_Library/Class/DFU/Src/usbd_dfu.c ****   TRANSFER_SIZE_BYTES(USBD_DFU_XFER_SIZE),       /* TransferSize = 1024 Byte*/
 242:Middlewares/ST/STM32_USB_Device_Library/Class/DFU/Src/usbd_dfu.c ****   0x1A,                                /* bcdDFUVersion*/
 243:Middlewares/ST/STM32_USB_Device_Library/Class/DFU/Src/usbd_dfu.c ****   0x01
 244:Middlewares/ST/STM32_USB_Device_Library/Class/DFU/Src/usbd_dfu.c ****   /***********************************************************/
 245:Middlewares/ST/STM32_USB_Device_Library/Class/DFU/Src/usbd_dfu.c ****   /* 9*/
 246:Middlewares/ST/STM32_USB_Device_Library/Class/DFU/Src/usbd_dfu.c **** };
 247:Middlewares/ST/STM32_USB_Device_Library/Class/DFU/Src/usbd_dfu.c **** 
 248:Middlewares/ST/STM32_USB_Device_Library/Class/DFU/Src/usbd_dfu.c **** /* USB Standard Device Descriptor */
 249:Middlewares/ST/STM32_USB_Device_Library/Class/DFU/Src/usbd_dfu.c **** __ALIGN_BEGIN static uint8_t USBD_DFU_DeviceQualifierDesc[USB_LEN_DEV_QUALIFIER_DESC] __ALIGN_END =
 250:Middlewares/ST/STM32_USB_Device_Library/Class/DFU/Src/usbd_dfu.c **** {
 251:Middlewares/ST/STM32_USB_Device_Library/Class/DFU/Src/usbd_dfu.c ****   USB_LEN_DEV_QUALIFIER_DESC,
 252:Middlewares/ST/STM32_USB_Device_Library/Class/DFU/Src/usbd_dfu.c ****   USB_DESC_TYPE_DEVICE_QUALIFIER,
 253:Middlewares/ST/STM32_USB_Device_Library/Class/DFU/Src/usbd_dfu.c ****   0x00,
 254:Middlewares/ST/STM32_USB_Device_Library/Class/DFU/Src/usbd_dfu.c ****   0x02,
 255:Middlewares/ST/STM32_USB_Device_Library/Class/DFU/Src/usbd_dfu.c ****   0x00,
 256:Middlewares/ST/STM32_USB_Device_Library/Class/DFU/Src/usbd_dfu.c ****   0x00,
 257:Middlewares/ST/STM32_USB_Device_Library/Class/DFU/Src/usbd_dfu.c ****   0x00,
 258:Middlewares/ST/STM32_USB_Device_Library/Class/DFU/Src/usbd_dfu.c ****   0x40,
 259:Middlewares/ST/STM32_USB_Device_Library/Class/DFU/Src/usbd_dfu.c ****   0x01,
 260:Middlewares/ST/STM32_USB_Device_Library/Class/DFU/Src/usbd_dfu.c ****   0x00,
ARM GAS  /tmp/cc2AD7kg.s 			page 6


 261:Middlewares/ST/STM32_USB_Device_Library/Class/DFU/Src/usbd_dfu.c **** };
 262:Middlewares/ST/STM32_USB_Device_Library/Class/DFU/Src/usbd_dfu.c **** 
 263:Middlewares/ST/STM32_USB_Device_Library/Class/DFU/Src/usbd_dfu.c **** /**
 264:Middlewares/ST/STM32_USB_Device_Library/Class/DFU/Src/usbd_dfu.c ****   * @}
 265:Middlewares/ST/STM32_USB_Device_Library/Class/DFU/Src/usbd_dfu.c ****   */
 266:Middlewares/ST/STM32_USB_Device_Library/Class/DFU/Src/usbd_dfu.c **** 
 267:Middlewares/ST/STM32_USB_Device_Library/Class/DFU/Src/usbd_dfu.c **** /** @defgroup USBD_DFU_Private_Functions
 268:Middlewares/ST/STM32_USB_Device_Library/Class/DFU/Src/usbd_dfu.c ****   * @{
 269:Middlewares/ST/STM32_USB_Device_Library/Class/DFU/Src/usbd_dfu.c ****   */
 270:Middlewares/ST/STM32_USB_Device_Library/Class/DFU/Src/usbd_dfu.c **** 
 271:Middlewares/ST/STM32_USB_Device_Library/Class/DFU/Src/usbd_dfu.c **** /**
 272:Middlewares/ST/STM32_USB_Device_Library/Class/DFU/Src/usbd_dfu.c ****   * @brief  USBD_DFU_Init
 273:Middlewares/ST/STM32_USB_Device_Library/Class/DFU/Src/usbd_dfu.c ****   *         Initialize the DFU interface
 274:Middlewares/ST/STM32_USB_Device_Library/Class/DFU/Src/usbd_dfu.c ****   * @param  pdev: device instance
 275:Middlewares/ST/STM32_USB_Device_Library/Class/DFU/Src/usbd_dfu.c ****   * @param  cfgidx: Configuration index
 276:Middlewares/ST/STM32_USB_Device_Library/Class/DFU/Src/usbd_dfu.c ****   * @retval status
 277:Middlewares/ST/STM32_USB_Device_Library/Class/DFU/Src/usbd_dfu.c ****   */
 278:Middlewares/ST/STM32_USB_Device_Library/Class/DFU/Src/usbd_dfu.c **** static uint8_t  USBD_DFU_Init(USBD_HandleTypeDef *pdev,
 279:Middlewares/ST/STM32_USB_Device_Library/Class/DFU/Src/usbd_dfu.c ****                               uint8_t cfgidx)
 280:Middlewares/ST/STM32_USB_Device_Library/Class/DFU/Src/usbd_dfu.c **** {
 281:Middlewares/ST/STM32_USB_Device_Library/Class/DFU/Src/usbd_dfu.c ****   USBD_DFU_HandleTypeDef   *hdfu;
 282:Middlewares/ST/STM32_USB_Device_Library/Class/DFU/Src/usbd_dfu.c **** 
 283:Middlewares/ST/STM32_USB_Device_Library/Class/DFU/Src/usbd_dfu.c ****   /* Allocate Audio structure */
 284:Middlewares/ST/STM32_USB_Device_Library/Class/DFU/Src/usbd_dfu.c ****   pdev->pClassData = USBD_malloc(sizeof(USBD_DFU_HandleTypeDef));
 285:Middlewares/ST/STM32_USB_Device_Library/Class/DFU/Src/usbd_dfu.c **** 
 286:Middlewares/ST/STM32_USB_Device_Library/Class/DFU/Src/usbd_dfu.c ****   if (pdev->pClassData == NULL)
 287:Middlewares/ST/STM32_USB_Device_Library/Class/DFU/Src/usbd_dfu.c ****   {
 288:Middlewares/ST/STM32_USB_Device_Library/Class/DFU/Src/usbd_dfu.c ****     return USBD_FAIL;
 289:Middlewares/ST/STM32_USB_Device_Library/Class/DFU/Src/usbd_dfu.c ****   }
 290:Middlewares/ST/STM32_USB_Device_Library/Class/DFU/Src/usbd_dfu.c ****   else
 291:Middlewares/ST/STM32_USB_Device_Library/Class/DFU/Src/usbd_dfu.c ****   {
 292:Middlewares/ST/STM32_USB_Device_Library/Class/DFU/Src/usbd_dfu.c ****     hdfu = (USBD_DFU_HandleTypeDef *) pdev->pClassData;
 293:Middlewares/ST/STM32_USB_Device_Library/Class/DFU/Src/usbd_dfu.c **** 
 294:Middlewares/ST/STM32_USB_Device_Library/Class/DFU/Src/usbd_dfu.c ****     hdfu->alt_setting = 0U;
 295:Middlewares/ST/STM32_USB_Device_Library/Class/DFU/Src/usbd_dfu.c ****     hdfu->data_ptr = USBD_DFU_APP_DEFAULT_ADD;
 296:Middlewares/ST/STM32_USB_Device_Library/Class/DFU/Src/usbd_dfu.c ****     hdfu->wblock_num = 0U;
 297:Middlewares/ST/STM32_USB_Device_Library/Class/DFU/Src/usbd_dfu.c ****     hdfu->wlength = 0U;
 298:Middlewares/ST/STM32_USB_Device_Library/Class/DFU/Src/usbd_dfu.c **** 
 299:Middlewares/ST/STM32_USB_Device_Library/Class/DFU/Src/usbd_dfu.c ****     hdfu->manif_state = DFU_MANIFEST_COMPLETE;
 300:Middlewares/ST/STM32_USB_Device_Library/Class/DFU/Src/usbd_dfu.c ****     hdfu->dev_state = DFU_STATE_IDLE;
 301:Middlewares/ST/STM32_USB_Device_Library/Class/DFU/Src/usbd_dfu.c **** 
 302:Middlewares/ST/STM32_USB_Device_Library/Class/DFU/Src/usbd_dfu.c ****     hdfu->dev_status[0] = DFU_ERROR_NONE;
 303:Middlewares/ST/STM32_USB_Device_Library/Class/DFU/Src/usbd_dfu.c ****     hdfu->dev_status[1] = 0U;
 304:Middlewares/ST/STM32_USB_Device_Library/Class/DFU/Src/usbd_dfu.c ****     hdfu->dev_status[2] = 0U;
 305:Middlewares/ST/STM32_USB_Device_Library/Class/DFU/Src/usbd_dfu.c ****     hdfu->dev_status[3] = 0U;
 306:Middlewares/ST/STM32_USB_Device_Library/Class/DFU/Src/usbd_dfu.c ****     hdfu->dev_status[4] = DFU_STATE_IDLE;
 307:Middlewares/ST/STM32_USB_Device_Library/Class/DFU/Src/usbd_dfu.c ****     hdfu->dev_status[5] = 0U;
 308:Middlewares/ST/STM32_USB_Device_Library/Class/DFU/Src/usbd_dfu.c **** 
 309:Middlewares/ST/STM32_USB_Device_Library/Class/DFU/Src/usbd_dfu.c ****     /* Initialize Hardware layer */
 310:Middlewares/ST/STM32_USB_Device_Library/Class/DFU/Src/usbd_dfu.c ****     if (((USBD_DFU_MediaTypeDef *)pdev->pUserData)->Init() != USBD_OK)
 311:Middlewares/ST/STM32_USB_Device_Library/Class/DFU/Src/usbd_dfu.c ****     {
 312:Middlewares/ST/STM32_USB_Device_Library/Class/DFU/Src/usbd_dfu.c ****       return USBD_FAIL;
 313:Middlewares/ST/STM32_USB_Device_Library/Class/DFU/Src/usbd_dfu.c ****     }
 314:Middlewares/ST/STM32_USB_Device_Library/Class/DFU/Src/usbd_dfu.c ****   }
 315:Middlewares/ST/STM32_USB_Device_Library/Class/DFU/Src/usbd_dfu.c ****   return USBD_OK;
 316:Middlewares/ST/STM32_USB_Device_Library/Class/DFU/Src/usbd_dfu.c **** }
 317:Middlewares/ST/STM32_USB_Device_Library/Class/DFU/Src/usbd_dfu.c **** 
ARM GAS  /tmp/cc2AD7kg.s 			page 7


 318:Middlewares/ST/STM32_USB_Device_Library/Class/DFU/Src/usbd_dfu.c **** /**
 319:Middlewares/ST/STM32_USB_Device_Library/Class/DFU/Src/usbd_dfu.c ****   * @brief  USBD_DFU_Init
 320:Middlewares/ST/STM32_USB_Device_Library/Class/DFU/Src/usbd_dfu.c ****   *         De-Initialize the DFU layer
 321:Middlewares/ST/STM32_USB_Device_Library/Class/DFU/Src/usbd_dfu.c ****   * @param  pdev: device instance
 322:Middlewares/ST/STM32_USB_Device_Library/Class/DFU/Src/usbd_dfu.c ****   * @param  cfgidx: Configuration index
 323:Middlewares/ST/STM32_USB_Device_Library/Class/DFU/Src/usbd_dfu.c ****   * @retval status
 324:Middlewares/ST/STM32_USB_Device_Library/Class/DFU/Src/usbd_dfu.c ****   */
 325:Middlewares/ST/STM32_USB_Device_Library/Class/DFU/Src/usbd_dfu.c **** static uint8_t  USBD_DFU_DeInit(USBD_HandleTypeDef *pdev,
 326:Middlewares/ST/STM32_USB_Device_Library/Class/DFU/Src/usbd_dfu.c ****                                 uint8_t cfgidx)
 327:Middlewares/ST/STM32_USB_Device_Library/Class/DFU/Src/usbd_dfu.c **** {
 328:Middlewares/ST/STM32_USB_Device_Library/Class/DFU/Src/usbd_dfu.c ****   USBD_DFU_HandleTypeDef   *hdfu;
 329:Middlewares/ST/STM32_USB_Device_Library/Class/DFU/Src/usbd_dfu.c ****   hdfu = (USBD_DFU_HandleTypeDef *) pdev->pClassData;
 330:Middlewares/ST/STM32_USB_Device_Library/Class/DFU/Src/usbd_dfu.c **** 
 331:Middlewares/ST/STM32_USB_Device_Library/Class/DFU/Src/usbd_dfu.c ****   hdfu->wblock_num = 0U;
 332:Middlewares/ST/STM32_USB_Device_Library/Class/DFU/Src/usbd_dfu.c ****   hdfu->wlength = 0U;
 333:Middlewares/ST/STM32_USB_Device_Library/Class/DFU/Src/usbd_dfu.c **** 
 334:Middlewares/ST/STM32_USB_Device_Library/Class/DFU/Src/usbd_dfu.c ****   hdfu->dev_state = DFU_STATE_IDLE;
 335:Middlewares/ST/STM32_USB_Device_Library/Class/DFU/Src/usbd_dfu.c ****   hdfu->dev_status[0] = DFU_ERROR_NONE;
 336:Middlewares/ST/STM32_USB_Device_Library/Class/DFU/Src/usbd_dfu.c ****   hdfu->dev_status[4] = DFU_STATE_IDLE;
 337:Middlewares/ST/STM32_USB_Device_Library/Class/DFU/Src/usbd_dfu.c **** 
 338:Middlewares/ST/STM32_USB_Device_Library/Class/DFU/Src/usbd_dfu.c ****   /* DeInit  physical Interface components */
 339:Middlewares/ST/STM32_USB_Device_Library/Class/DFU/Src/usbd_dfu.c ****   if (pdev->pClassData != NULL)
 340:Middlewares/ST/STM32_USB_Device_Library/Class/DFU/Src/usbd_dfu.c ****   {
 341:Middlewares/ST/STM32_USB_Device_Library/Class/DFU/Src/usbd_dfu.c ****     /* De-Initialize Hardware layer */
 342:Middlewares/ST/STM32_USB_Device_Library/Class/DFU/Src/usbd_dfu.c ****     ((USBD_DFU_MediaTypeDef *)pdev->pUserData)->DeInit();
 343:Middlewares/ST/STM32_USB_Device_Library/Class/DFU/Src/usbd_dfu.c ****     USBD_free(pdev->pClassData);
 344:Middlewares/ST/STM32_USB_Device_Library/Class/DFU/Src/usbd_dfu.c ****     pdev->pClassData = NULL;
 345:Middlewares/ST/STM32_USB_Device_Library/Class/DFU/Src/usbd_dfu.c ****   }
 346:Middlewares/ST/STM32_USB_Device_Library/Class/DFU/Src/usbd_dfu.c **** 
 347:Middlewares/ST/STM32_USB_Device_Library/Class/DFU/Src/usbd_dfu.c ****   return USBD_OK;
 348:Middlewares/ST/STM32_USB_Device_Library/Class/DFU/Src/usbd_dfu.c **** }
 349:Middlewares/ST/STM32_USB_Device_Library/Class/DFU/Src/usbd_dfu.c **** 
 350:Middlewares/ST/STM32_USB_Device_Library/Class/DFU/Src/usbd_dfu.c **** /**
 351:Middlewares/ST/STM32_USB_Device_Library/Class/DFU/Src/usbd_dfu.c ****   * @brief  USBD_DFU_Setup
 352:Middlewares/ST/STM32_USB_Device_Library/Class/DFU/Src/usbd_dfu.c ****   *         Handle the DFU specific requests
 353:Middlewares/ST/STM32_USB_Device_Library/Class/DFU/Src/usbd_dfu.c ****   * @param  pdev: instance
 354:Middlewares/ST/STM32_USB_Device_Library/Class/DFU/Src/usbd_dfu.c ****   * @param  req: usb requests
 355:Middlewares/ST/STM32_USB_Device_Library/Class/DFU/Src/usbd_dfu.c ****   * @retval status
 356:Middlewares/ST/STM32_USB_Device_Library/Class/DFU/Src/usbd_dfu.c ****   */
 357:Middlewares/ST/STM32_USB_Device_Library/Class/DFU/Src/usbd_dfu.c **** static uint8_t  USBD_DFU_Setup(USBD_HandleTypeDef *pdev,
 358:Middlewares/ST/STM32_USB_Device_Library/Class/DFU/Src/usbd_dfu.c ****                                USBD_SetupReqTypedef *req)
 359:Middlewares/ST/STM32_USB_Device_Library/Class/DFU/Src/usbd_dfu.c **** {
 360:Middlewares/ST/STM32_USB_Device_Library/Class/DFU/Src/usbd_dfu.c ****   USBD_DFU_HandleTypeDef   *hdfu;
 361:Middlewares/ST/STM32_USB_Device_Library/Class/DFU/Src/usbd_dfu.c ****   uint8_t *pbuf = 0U;
 362:Middlewares/ST/STM32_USB_Device_Library/Class/DFU/Src/usbd_dfu.c ****   uint16_t len = 0U;
 363:Middlewares/ST/STM32_USB_Device_Library/Class/DFU/Src/usbd_dfu.c ****   uint16_t status_info = 0U;
 364:Middlewares/ST/STM32_USB_Device_Library/Class/DFU/Src/usbd_dfu.c ****   uint8_t ret = USBD_OK;
 365:Middlewares/ST/STM32_USB_Device_Library/Class/DFU/Src/usbd_dfu.c **** 
 366:Middlewares/ST/STM32_USB_Device_Library/Class/DFU/Src/usbd_dfu.c ****   hdfu = (USBD_DFU_HandleTypeDef *) pdev->pClassData;
 367:Middlewares/ST/STM32_USB_Device_Library/Class/DFU/Src/usbd_dfu.c **** 
 368:Middlewares/ST/STM32_USB_Device_Library/Class/DFU/Src/usbd_dfu.c ****   switch (req->bmRequest & USB_REQ_TYPE_MASK)
 369:Middlewares/ST/STM32_USB_Device_Library/Class/DFU/Src/usbd_dfu.c ****   {
 370:Middlewares/ST/STM32_USB_Device_Library/Class/DFU/Src/usbd_dfu.c ****     case USB_REQ_TYPE_CLASS:
 371:Middlewares/ST/STM32_USB_Device_Library/Class/DFU/Src/usbd_dfu.c ****       switch (req->bRequest)
 372:Middlewares/ST/STM32_USB_Device_Library/Class/DFU/Src/usbd_dfu.c ****       {
 373:Middlewares/ST/STM32_USB_Device_Library/Class/DFU/Src/usbd_dfu.c ****         case DFU_DNLOAD:
 374:Middlewares/ST/STM32_USB_Device_Library/Class/DFU/Src/usbd_dfu.c ****           DFU_Download(pdev, req);
ARM GAS  /tmp/cc2AD7kg.s 			page 8


 375:Middlewares/ST/STM32_USB_Device_Library/Class/DFU/Src/usbd_dfu.c ****           break;
 376:Middlewares/ST/STM32_USB_Device_Library/Class/DFU/Src/usbd_dfu.c **** 
 377:Middlewares/ST/STM32_USB_Device_Library/Class/DFU/Src/usbd_dfu.c ****         case DFU_UPLOAD:
 378:Middlewares/ST/STM32_USB_Device_Library/Class/DFU/Src/usbd_dfu.c ****           DFU_Upload(pdev, req);
 379:Middlewares/ST/STM32_USB_Device_Library/Class/DFU/Src/usbd_dfu.c ****           break;
 380:Middlewares/ST/STM32_USB_Device_Library/Class/DFU/Src/usbd_dfu.c **** 
 381:Middlewares/ST/STM32_USB_Device_Library/Class/DFU/Src/usbd_dfu.c ****         case DFU_GETSTATUS:
 382:Middlewares/ST/STM32_USB_Device_Library/Class/DFU/Src/usbd_dfu.c ****           DFU_GetStatus(pdev);
 383:Middlewares/ST/STM32_USB_Device_Library/Class/DFU/Src/usbd_dfu.c ****           break;
 384:Middlewares/ST/STM32_USB_Device_Library/Class/DFU/Src/usbd_dfu.c **** 
 385:Middlewares/ST/STM32_USB_Device_Library/Class/DFU/Src/usbd_dfu.c ****         case DFU_CLRSTATUS:
 386:Middlewares/ST/STM32_USB_Device_Library/Class/DFU/Src/usbd_dfu.c ****           DFU_ClearStatus(pdev);
 387:Middlewares/ST/STM32_USB_Device_Library/Class/DFU/Src/usbd_dfu.c ****           break;
 388:Middlewares/ST/STM32_USB_Device_Library/Class/DFU/Src/usbd_dfu.c **** 
 389:Middlewares/ST/STM32_USB_Device_Library/Class/DFU/Src/usbd_dfu.c ****         case DFU_GETSTATE:
 390:Middlewares/ST/STM32_USB_Device_Library/Class/DFU/Src/usbd_dfu.c ****           DFU_GetState(pdev);
 391:Middlewares/ST/STM32_USB_Device_Library/Class/DFU/Src/usbd_dfu.c ****           break;
 392:Middlewares/ST/STM32_USB_Device_Library/Class/DFU/Src/usbd_dfu.c **** 
 393:Middlewares/ST/STM32_USB_Device_Library/Class/DFU/Src/usbd_dfu.c ****         case DFU_ABORT:
 394:Middlewares/ST/STM32_USB_Device_Library/Class/DFU/Src/usbd_dfu.c ****           DFU_Abort(pdev);
 395:Middlewares/ST/STM32_USB_Device_Library/Class/DFU/Src/usbd_dfu.c ****           break;
 396:Middlewares/ST/STM32_USB_Device_Library/Class/DFU/Src/usbd_dfu.c **** 
 397:Middlewares/ST/STM32_USB_Device_Library/Class/DFU/Src/usbd_dfu.c ****         case DFU_DETACH:
 398:Middlewares/ST/STM32_USB_Device_Library/Class/DFU/Src/usbd_dfu.c ****           DFU_Detach(pdev, req);
 399:Middlewares/ST/STM32_USB_Device_Library/Class/DFU/Src/usbd_dfu.c ****           break;
 400:Middlewares/ST/STM32_USB_Device_Library/Class/DFU/Src/usbd_dfu.c **** 
 401:Middlewares/ST/STM32_USB_Device_Library/Class/DFU/Src/usbd_dfu.c ****         default:
 402:Middlewares/ST/STM32_USB_Device_Library/Class/DFU/Src/usbd_dfu.c ****           USBD_CtlError(pdev, req);
 403:Middlewares/ST/STM32_USB_Device_Library/Class/DFU/Src/usbd_dfu.c ****           ret = USBD_FAIL;
 404:Middlewares/ST/STM32_USB_Device_Library/Class/DFU/Src/usbd_dfu.c ****           break;
 405:Middlewares/ST/STM32_USB_Device_Library/Class/DFU/Src/usbd_dfu.c ****       }
 406:Middlewares/ST/STM32_USB_Device_Library/Class/DFU/Src/usbd_dfu.c ****       break;
 407:Middlewares/ST/STM32_USB_Device_Library/Class/DFU/Src/usbd_dfu.c **** 
 408:Middlewares/ST/STM32_USB_Device_Library/Class/DFU/Src/usbd_dfu.c ****     case USB_REQ_TYPE_STANDARD:
 409:Middlewares/ST/STM32_USB_Device_Library/Class/DFU/Src/usbd_dfu.c ****       switch (req->bRequest)
 410:Middlewares/ST/STM32_USB_Device_Library/Class/DFU/Src/usbd_dfu.c ****       {
 411:Middlewares/ST/STM32_USB_Device_Library/Class/DFU/Src/usbd_dfu.c ****         case USB_REQ_GET_STATUS:
 412:Middlewares/ST/STM32_USB_Device_Library/Class/DFU/Src/usbd_dfu.c ****           if (pdev->dev_state == USBD_STATE_CONFIGURED)
 413:Middlewares/ST/STM32_USB_Device_Library/Class/DFU/Src/usbd_dfu.c ****           {
 414:Middlewares/ST/STM32_USB_Device_Library/Class/DFU/Src/usbd_dfu.c ****             USBD_CtlSendData(pdev, (uint8_t *)(void *)&status_info, 2U);
 415:Middlewares/ST/STM32_USB_Device_Library/Class/DFU/Src/usbd_dfu.c ****           }
 416:Middlewares/ST/STM32_USB_Device_Library/Class/DFU/Src/usbd_dfu.c ****           else
 417:Middlewares/ST/STM32_USB_Device_Library/Class/DFU/Src/usbd_dfu.c ****           {
 418:Middlewares/ST/STM32_USB_Device_Library/Class/DFU/Src/usbd_dfu.c ****             USBD_CtlError(pdev, req);
 419:Middlewares/ST/STM32_USB_Device_Library/Class/DFU/Src/usbd_dfu.c ****             ret = USBD_FAIL;
 420:Middlewares/ST/STM32_USB_Device_Library/Class/DFU/Src/usbd_dfu.c ****           }
 421:Middlewares/ST/STM32_USB_Device_Library/Class/DFU/Src/usbd_dfu.c ****           break;
 422:Middlewares/ST/STM32_USB_Device_Library/Class/DFU/Src/usbd_dfu.c **** 
 423:Middlewares/ST/STM32_USB_Device_Library/Class/DFU/Src/usbd_dfu.c ****         case USB_REQ_GET_DESCRIPTOR:
 424:Middlewares/ST/STM32_USB_Device_Library/Class/DFU/Src/usbd_dfu.c ****           if ((req->wValue >> 8) == DFU_DESCRIPTOR_TYPE)
 425:Middlewares/ST/STM32_USB_Device_Library/Class/DFU/Src/usbd_dfu.c ****           {
 426:Middlewares/ST/STM32_USB_Device_Library/Class/DFU/Src/usbd_dfu.c ****             pbuf = USBD_DFU_CfgDesc + (9U * (USBD_DFU_MAX_ITF_NUM + 1U));
 427:Middlewares/ST/STM32_USB_Device_Library/Class/DFU/Src/usbd_dfu.c ****             len = MIN(USB_DFU_DESC_SIZ, req->wLength);
 428:Middlewares/ST/STM32_USB_Device_Library/Class/DFU/Src/usbd_dfu.c ****           }
 429:Middlewares/ST/STM32_USB_Device_Library/Class/DFU/Src/usbd_dfu.c **** 
 430:Middlewares/ST/STM32_USB_Device_Library/Class/DFU/Src/usbd_dfu.c ****           USBD_CtlSendData(pdev, pbuf, len);
 431:Middlewares/ST/STM32_USB_Device_Library/Class/DFU/Src/usbd_dfu.c ****           break;
ARM GAS  /tmp/cc2AD7kg.s 			page 9


 432:Middlewares/ST/STM32_USB_Device_Library/Class/DFU/Src/usbd_dfu.c **** 
 433:Middlewares/ST/STM32_USB_Device_Library/Class/DFU/Src/usbd_dfu.c ****         case USB_REQ_GET_INTERFACE:
 434:Middlewares/ST/STM32_USB_Device_Library/Class/DFU/Src/usbd_dfu.c ****           if (pdev->dev_state == USBD_STATE_CONFIGURED)
 435:Middlewares/ST/STM32_USB_Device_Library/Class/DFU/Src/usbd_dfu.c ****           {
 436:Middlewares/ST/STM32_USB_Device_Library/Class/DFU/Src/usbd_dfu.c ****             USBD_CtlSendData(pdev, (uint8_t *)(void *)&hdfu->alt_setting, 1U);
 437:Middlewares/ST/STM32_USB_Device_Library/Class/DFU/Src/usbd_dfu.c ****           }
 438:Middlewares/ST/STM32_USB_Device_Library/Class/DFU/Src/usbd_dfu.c ****           else
 439:Middlewares/ST/STM32_USB_Device_Library/Class/DFU/Src/usbd_dfu.c ****           {
 440:Middlewares/ST/STM32_USB_Device_Library/Class/DFU/Src/usbd_dfu.c ****             USBD_CtlError(pdev, req);
 441:Middlewares/ST/STM32_USB_Device_Library/Class/DFU/Src/usbd_dfu.c ****             ret = USBD_FAIL;
 442:Middlewares/ST/STM32_USB_Device_Library/Class/DFU/Src/usbd_dfu.c ****           }
 443:Middlewares/ST/STM32_USB_Device_Library/Class/DFU/Src/usbd_dfu.c ****           break;
 444:Middlewares/ST/STM32_USB_Device_Library/Class/DFU/Src/usbd_dfu.c **** 
 445:Middlewares/ST/STM32_USB_Device_Library/Class/DFU/Src/usbd_dfu.c ****         case USB_REQ_SET_INTERFACE:
 446:Middlewares/ST/STM32_USB_Device_Library/Class/DFU/Src/usbd_dfu.c ****           if ((uint8_t)(req->wValue) < USBD_DFU_MAX_ITF_NUM)
 447:Middlewares/ST/STM32_USB_Device_Library/Class/DFU/Src/usbd_dfu.c ****           {
 448:Middlewares/ST/STM32_USB_Device_Library/Class/DFU/Src/usbd_dfu.c ****             if (pdev->dev_state == USBD_STATE_CONFIGURED)
 449:Middlewares/ST/STM32_USB_Device_Library/Class/DFU/Src/usbd_dfu.c ****             {
 450:Middlewares/ST/STM32_USB_Device_Library/Class/DFU/Src/usbd_dfu.c ****               hdfu->alt_setting = (uint8_t)(req->wValue);
 451:Middlewares/ST/STM32_USB_Device_Library/Class/DFU/Src/usbd_dfu.c ****             }
 452:Middlewares/ST/STM32_USB_Device_Library/Class/DFU/Src/usbd_dfu.c ****             else
 453:Middlewares/ST/STM32_USB_Device_Library/Class/DFU/Src/usbd_dfu.c ****             {
 454:Middlewares/ST/STM32_USB_Device_Library/Class/DFU/Src/usbd_dfu.c ****               USBD_CtlError(pdev, req);
 455:Middlewares/ST/STM32_USB_Device_Library/Class/DFU/Src/usbd_dfu.c ****               ret = USBD_FAIL;
 456:Middlewares/ST/STM32_USB_Device_Library/Class/DFU/Src/usbd_dfu.c ****             }
 457:Middlewares/ST/STM32_USB_Device_Library/Class/DFU/Src/usbd_dfu.c ****           }
 458:Middlewares/ST/STM32_USB_Device_Library/Class/DFU/Src/usbd_dfu.c ****           else
 459:Middlewares/ST/STM32_USB_Device_Library/Class/DFU/Src/usbd_dfu.c ****           {
 460:Middlewares/ST/STM32_USB_Device_Library/Class/DFU/Src/usbd_dfu.c ****             /* Call the error management function (command will be nacked */
 461:Middlewares/ST/STM32_USB_Device_Library/Class/DFU/Src/usbd_dfu.c ****             USBD_CtlError(pdev, req);
 462:Middlewares/ST/STM32_USB_Device_Library/Class/DFU/Src/usbd_dfu.c ****             ret = USBD_FAIL;
 463:Middlewares/ST/STM32_USB_Device_Library/Class/DFU/Src/usbd_dfu.c ****           }
 464:Middlewares/ST/STM32_USB_Device_Library/Class/DFU/Src/usbd_dfu.c ****           break;
 465:Middlewares/ST/STM32_USB_Device_Library/Class/DFU/Src/usbd_dfu.c **** 
 466:Middlewares/ST/STM32_USB_Device_Library/Class/DFU/Src/usbd_dfu.c ****         default:
 467:Middlewares/ST/STM32_USB_Device_Library/Class/DFU/Src/usbd_dfu.c ****           USBD_CtlError(pdev, req);
 468:Middlewares/ST/STM32_USB_Device_Library/Class/DFU/Src/usbd_dfu.c ****           ret = USBD_FAIL;
 469:Middlewares/ST/STM32_USB_Device_Library/Class/DFU/Src/usbd_dfu.c ****           break;
 470:Middlewares/ST/STM32_USB_Device_Library/Class/DFU/Src/usbd_dfu.c ****       }
 471:Middlewares/ST/STM32_USB_Device_Library/Class/DFU/Src/usbd_dfu.c ****       break;
 472:Middlewares/ST/STM32_USB_Device_Library/Class/DFU/Src/usbd_dfu.c **** 
 473:Middlewares/ST/STM32_USB_Device_Library/Class/DFU/Src/usbd_dfu.c ****     default:
 474:Middlewares/ST/STM32_USB_Device_Library/Class/DFU/Src/usbd_dfu.c ****       USBD_CtlError(pdev, req);
 475:Middlewares/ST/STM32_USB_Device_Library/Class/DFU/Src/usbd_dfu.c ****       ret = USBD_FAIL;
 476:Middlewares/ST/STM32_USB_Device_Library/Class/DFU/Src/usbd_dfu.c ****       break;
 477:Middlewares/ST/STM32_USB_Device_Library/Class/DFU/Src/usbd_dfu.c ****   }
 478:Middlewares/ST/STM32_USB_Device_Library/Class/DFU/Src/usbd_dfu.c **** 
 479:Middlewares/ST/STM32_USB_Device_Library/Class/DFU/Src/usbd_dfu.c ****   return ret;
 480:Middlewares/ST/STM32_USB_Device_Library/Class/DFU/Src/usbd_dfu.c **** }
 481:Middlewares/ST/STM32_USB_Device_Library/Class/DFU/Src/usbd_dfu.c **** 
 482:Middlewares/ST/STM32_USB_Device_Library/Class/DFU/Src/usbd_dfu.c **** 
 483:Middlewares/ST/STM32_USB_Device_Library/Class/DFU/Src/usbd_dfu.c **** /**
 484:Middlewares/ST/STM32_USB_Device_Library/Class/DFU/Src/usbd_dfu.c ****   * @brief  USBD_DFU_GetCfgDesc
 485:Middlewares/ST/STM32_USB_Device_Library/Class/DFU/Src/usbd_dfu.c ****   *         return configuration descriptor
 486:Middlewares/ST/STM32_USB_Device_Library/Class/DFU/Src/usbd_dfu.c ****   * @param  speed : current device speed
 487:Middlewares/ST/STM32_USB_Device_Library/Class/DFU/Src/usbd_dfu.c ****   * @param  length : pointer data length
 488:Middlewares/ST/STM32_USB_Device_Library/Class/DFU/Src/usbd_dfu.c ****   * @retval pointer to descriptor buffer
ARM GAS  /tmp/cc2AD7kg.s 			page 10


 489:Middlewares/ST/STM32_USB_Device_Library/Class/DFU/Src/usbd_dfu.c ****   */
 490:Middlewares/ST/STM32_USB_Device_Library/Class/DFU/Src/usbd_dfu.c **** static uint8_t  *USBD_DFU_GetCfgDesc(uint16_t *length)
 491:Middlewares/ST/STM32_USB_Device_Library/Class/DFU/Src/usbd_dfu.c **** {
  27              		.loc 1 491 1 view -0
  28              		.cfi_startproc
  29              		@ args = 0, pretend = 0, frame = 0
  30              		@ frame_needed = 0, uses_anonymous_args = 0
  31              		@ link register save eliminated.
 492:Middlewares/ST/STM32_USB_Device_Library/Class/DFU/Src/usbd_dfu.c ****   *length = sizeof(USBD_DFU_CfgDesc);
  32              		.loc 1 492 3 view .LVU1
  33              		.loc 1 492 11 is_stmt 0 view .LVU2
  34 0000 1B23     		movs	r3, #27
  35 0002 0380     		strh	r3, [r0]
 493:Middlewares/ST/STM32_USB_Device_Library/Class/DFU/Src/usbd_dfu.c ****   return USBD_DFU_CfgDesc;
  36              		.loc 1 493 3 is_stmt 1 view .LVU3
  37              		.loc 1 493 10 is_stmt 0 view .LVU4
  38 0004 0048     		ldr	r0, .L2
  39              	.LVL1:
 494:Middlewares/ST/STM32_USB_Device_Library/Class/DFU/Src/usbd_dfu.c **** }
  40              		.loc 1 494 1 view .LVU5
  41              		@ sp needed
  42 0006 7047     		bx	lr
  43              	.L3:
  44              		.align	2
  45              	.L2:
  46 0008 00000000 		.word	.LANCHOR0
  47              		.cfi_endproc
  48              	.LFE46:
  50              		.section	.text.USBD_DFU_DataIn,"ax",%progbits
  51              		.align	1
  52              		.syntax unified
  53              		.code	16
  54              		.thumb_func
  55              		.fpu softvfp
  57              	USBD_DFU_DataIn:
  58              	.LVL2:
  59              	.LFB47:
 495:Middlewares/ST/STM32_USB_Device_Library/Class/DFU/Src/usbd_dfu.c **** 
 496:Middlewares/ST/STM32_USB_Device_Library/Class/DFU/Src/usbd_dfu.c **** /**
 497:Middlewares/ST/STM32_USB_Device_Library/Class/DFU/Src/usbd_dfu.c ****   * @brief  USBD_DFU_DataIn
 498:Middlewares/ST/STM32_USB_Device_Library/Class/DFU/Src/usbd_dfu.c ****   *         handle data IN Stage
 499:Middlewares/ST/STM32_USB_Device_Library/Class/DFU/Src/usbd_dfu.c ****   * @param  pdev: device instance
 500:Middlewares/ST/STM32_USB_Device_Library/Class/DFU/Src/usbd_dfu.c ****   * @param  epnum: endpoint index
 501:Middlewares/ST/STM32_USB_Device_Library/Class/DFU/Src/usbd_dfu.c ****   * @retval status
 502:Middlewares/ST/STM32_USB_Device_Library/Class/DFU/Src/usbd_dfu.c ****   */
 503:Middlewares/ST/STM32_USB_Device_Library/Class/DFU/Src/usbd_dfu.c **** static uint8_t  USBD_DFU_DataIn(USBD_HandleTypeDef *pdev,
 504:Middlewares/ST/STM32_USB_Device_Library/Class/DFU/Src/usbd_dfu.c ****                                 uint8_t epnum)
 505:Middlewares/ST/STM32_USB_Device_Library/Class/DFU/Src/usbd_dfu.c **** {
  60              		.loc 1 505 1 is_stmt 1 view -0
  61              		.cfi_startproc
  62              		@ args = 0, pretend = 0, frame = 0
  63              		@ frame_needed = 0, uses_anonymous_args = 0
  64              		@ link register save eliminated.
 506:Middlewares/ST/STM32_USB_Device_Library/Class/DFU/Src/usbd_dfu.c **** 
 507:Middlewares/ST/STM32_USB_Device_Library/Class/DFU/Src/usbd_dfu.c ****   return USBD_OK;
  65              		.loc 1 507 3 view .LVU7
 508:Middlewares/ST/STM32_USB_Device_Library/Class/DFU/Src/usbd_dfu.c **** }
ARM GAS  /tmp/cc2AD7kg.s 			page 11


  66              		.loc 1 508 1 is_stmt 0 view .LVU8
  67 0000 0020     		movs	r0, #0
  68              	.LVL3:
  69              		.loc 1 508 1 view .LVU9
  70              		@ sp needed
  71 0002 7047     		bx	lr
  72              		.cfi_endproc
  73              	.LFE47:
  75              		.section	.text.USBD_DFU_EP0_RxReady,"ax",%progbits
  76              		.align	1
  77              		.syntax unified
  78              		.code	16
  79              		.thumb_func
  80              		.fpu softvfp
  82              	USBD_DFU_EP0_RxReady:
  83              	.LVL4:
  84              	.LFB48:
 509:Middlewares/ST/STM32_USB_Device_Library/Class/DFU/Src/usbd_dfu.c **** 
 510:Middlewares/ST/STM32_USB_Device_Library/Class/DFU/Src/usbd_dfu.c **** /**
 511:Middlewares/ST/STM32_USB_Device_Library/Class/DFU/Src/usbd_dfu.c ****   * @brief  USBD_DFU_EP0_RxReady
 512:Middlewares/ST/STM32_USB_Device_Library/Class/DFU/Src/usbd_dfu.c ****   *         handle EP0 Rx Ready event
 513:Middlewares/ST/STM32_USB_Device_Library/Class/DFU/Src/usbd_dfu.c ****   * @param  pdev: device instance
 514:Middlewares/ST/STM32_USB_Device_Library/Class/DFU/Src/usbd_dfu.c ****   * @retval status
 515:Middlewares/ST/STM32_USB_Device_Library/Class/DFU/Src/usbd_dfu.c ****   */
 516:Middlewares/ST/STM32_USB_Device_Library/Class/DFU/Src/usbd_dfu.c **** static uint8_t  USBD_DFU_EP0_RxReady(USBD_HandleTypeDef *pdev)
 517:Middlewares/ST/STM32_USB_Device_Library/Class/DFU/Src/usbd_dfu.c **** {
  85              		.loc 1 517 1 is_stmt 1 view -0
  86              		.cfi_startproc
  87              		@ args = 0, pretend = 0, frame = 0
  88              		@ frame_needed = 0, uses_anonymous_args = 0
  89              		@ link register save eliminated.
 518:Middlewares/ST/STM32_USB_Device_Library/Class/DFU/Src/usbd_dfu.c **** 
 519:Middlewares/ST/STM32_USB_Device_Library/Class/DFU/Src/usbd_dfu.c ****   return USBD_OK;
  90              		.loc 1 519 3 view .LVU11
 520:Middlewares/ST/STM32_USB_Device_Library/Class/DFU/Src/usbd_dfu.c **** }
  91              		.loc 1 520 1 is_stmt 0 view .LVU12
  92 0000 0020     		movs	r0, #0
  93              	.LVL5:
  94              		.loc 1 520 1 view .LVU13
  95              		@ sp needed
  96 0002 7047     		bx	lr
  97              		.cfi_endproc
  98              	.LFE48:
 100              		.section	.text.USBD_DFU_SOF,"ax",%progbits
 101              		.align	1
 102              		.syntax unified
 103              		.code	16
 104              		.thumb_func
 105              		.fpu softvfp
 107              	USBD_DFU_SOF:
 108              	.LVL6:
 109              	.LFB50:
 521:Middlewares/ST/STM32_USB_Device_Library/Class/DFU/Src/usbd_dfu.c **** /**
 522:Middlewares/ST/STM32_USB_Device_Library/Class/DFU/Src/usbd_dfu.c ****   * @brief  USBD_DFU_EP0_TxReady
 523:Middlewares/ST/STM32_USB_Device_Library/Class/DFU/Src/usbd_dfu.c ****   *         handle EP0 TRx Ready event
 524:Middlewares/ST/STM32_USB_Device_Library/Class/DFU/Src/usbd_dfu.c ****   * @param  pdev: device instance
 525:Middlewares/ST/STM32_USB_Device_Library/Class/DFU/Src/usbd_dfu.c ****   * @retval status
ARM GAS  /tmp/cc2AD7kg.s 			page 12


 526:Middlewares/ST/STM32_USB_Device_Library/Class/DFU/Src/usbd_dfu.c ****   */
 527:Middlewares/ST/STM32_USB_Device_Library/Class/DFU/Src/usbd_dfu.c **** static uint8_t  USBD_DFU_EP0_TxReady(USBD_HandleTypeDef *pdev)
 528:Middlewares/ST/STM32_USB_Device_Library/Class/DFU/Src/usbd_dfu.c **** {
 529:Middlewares/ST/STM32_USB_Device_Library/Class/DFU/Src/usbd_dfu.c ****   uint32_t addr;
 530:Middlewares/ST/STM32_USB_Device_Library/Class/DFU/Src/usbd_dfu.c ****   USBD_SetupReqTypedef     req;
 531:Middlewares/ST/STM32_USB_Device_Library/Class/DFU/Src/usbd_dfu.c ****   USBD_DFU_HandleTypeDef   *hdfu;
 532:Middlewares/ST/STM32_USB_Device_Library/Class/DFU/Src/usbd_dfu.c **** 
 533:Middlewares/ST/STM32_USB_Device_Library/Class/DFU/Src/usbd_dfu.c ****   hdfu = (USBD_DFU_HandleTypeDef *) pdev->pClassData;
 534:Middlewares/ST/STM32_USB_Device_Library/Class/DFU/Src/usbd_dfu.c **** 
 535:Middlewares/ST/STM32_USB_Device_Library/Class/DFU/Src/usbd_dfu.c ****   if (hdfu->dev_state == DFU_STATE_DNLOAD_BUSY)
 536:Middlewares/ST/STM32_USB_Device_Library/Class/DFU/Src/usbd_dfu.c ****   {
 537:Middlewares/ST/STM32_USB_Device_Library/Class/DFU/Src/usbd_dfu.c ****     /* Decode the Special Command*/
 538:Middlewares/ST/STM32_USB_Device_Library/Class/DFU/Src/usbd_dfu.c ****     if (hdfu->wblock_num == 0U)
 539:Middlewares/ST/STM32_USB_Device_Library/Class/DFU/Src/usbd_dfu.c ****     {
 540:Middlewares/ST/STM32_USB_Device_Library/Class/DFU/Src/usbd_dfu.c ****       if ((hdfu->buffer.d8[0] == DFU_CMD_GETCOMMANDS) && (hdfu->wlength == 1U))
 541:Middlewares/ST/STM32_USB_Device_Library/Class/DFU/Src/usbd_dfu.c ****       {
 542:Middlewares/ST/STM32_USB_Device_Library/Class/DFU/Src/usbd_dfu.c **** 
 543:Middlewares/ST/STM32_USB_Device_Library/Class/DFU/Src/usbd_dfu.c ****       }
 544:Middlewares/ST/STM32_USB_Device_Library/Class/DFU/Src/usbd_dfu.c ****       else if ((hdfu->buffer.d8[0] == DFU_CMD_SETADDRESSPOINTER) && (hdfu->wlength == 5U))
 545:Middlewares/ST/STM32_USB_Device_Library/Class/DFU/Src/usbd_dfu.c ****       {
 546:Middlewares/ST/STM32_USB_Device_Library/Class/DFU/Src/usbd_dfu.c ****         hdfu->data_ptr = hdfu->buffer.d8[1];
 547:Middlewares/ST/STM32_USB_Device_Library/Class/DFU/Src/usbd_dfu.c ****         hdfu->data_ptr += (uint32_t)hdfu->buffer.d8[2] << 8;
 548:Middlewares/ST/STM32_USB_Device_Library/Class/DFU/Src/usbd_dfu.c ****         hdfu->data_ptr += (uint32_t)hdfu->buffer.d8[3] << 16;
 549:Middlewares/ST/STM32_USB_Device_Library/Class/DFU/Src/usbd_dfu.c ****         hdfu->data_ptr += (uint32_t)hdfu->buffer.d8[4] << 24;
 550:Middlewares/ST/STM32_USB_Device_Library/Class/DFU/Src/usbd_dfu.c ****       }
 551:Middlewares/ST/STM32_USB_Device_Library/Class/DFU/Src/usbd_dfu.c ****       else if ((hdfu->buffer.d8[0] == DFU_CMD_ERASE) && (hdfu->wlength == 5U))
 552:Middlewares/ST/STM32_USB_Device_Library/Class/DFU/Src/usbd_dfu.c ****       {
 553:Middlewares/ST/STM32_USB_Device_Library/Class/DFU/Src/usbd_dfu.c ****         hdfu->data_ptr = hdfu->buffer.d8[1];
 554:Middlewares/ST/STM32_USB_Device_Library/Class/DFU/Src/usbd_dfu.c ****         hdfu->data_ptr += (uint32_t)hdfu->buffer.d8[2] << 8;
 555:Middlewares/ST/STM32_USB_Device_Library/Class/DFU/Src/usbd_dfu.c ****         hdfu->data_ptr += (uint32_t)hdfu->buffer.d8[3] << 16;
 556:Middlewares/ST/STM32_USB_Device_Library/Class/DFU/Src/usbd_dfu.c ****         hdfu->data_ptr += (uint32_t)hdfu->buffer.d8[4] << 24;
 557:Middlewares/ST/STM32_USB_Device_Library/Class/DFU/Src/usbd_dfu.c **** 
 558:Middlewares/ST/STM32_USB_Device_Library/Class/DFU/Src/usbd_dfu.c ****         if (((USBD_DFU_MediaTypeDef *)pdev->pUserData)->Erase(hdfu->data_ptr) != USBD_OK)
 559:Middlewares/ST/STM32_USB_Device_Library/Class/DFU/Src/usbd_dfu.c ****         {
 560:Middlewares/ST/STM32_USB_Device_Library/Class/DFU/Src/usbd_dfu.c ****           return USBD_FAIL;
 561:Middlewares/ST/STM32_USB_Device_Library/Class/DFU/Src/usbd_dfu.c ****         }
 562:Middlewares/ST/STM32_USB_Device_Library/Class/DFU/Src/usbd_dfu.c ****       }
 563:Middlewares/ST/STM32_USB_Device_Library/Class/DFU/Src/usbd_dfu.c ****       else
 564:Middlewares/ST/STM32_USB_Device_Library/Class/DFU/Src/usbd_dfu.c ****       {
 565:Middlewares/ST/STM32_USB_Device_Library/Class/DFU/Src/usbd_dfu.c ****         /* Reset the global length and block number */
 566:Middlewares/ST/STM32_USB_Device_Library/Class/DFU/Src/usbd_dfu.c ****         hdfu->wlength = 0U;
 567:Middlewares/ST/STM32_USB_Device_Library/Class/DFU/Src/usbd_dfu.c ****         hdfu->wblock_num = 0U;
 568:Middlewares/ST/STM32_USB_Device_Library/Class/DFU/Src/usbd_dfu.c ****         /* Call the error management function (command will be nacked) */
 569:Middlewares/ST/STM32_USB_Device_Library/Class/DFU/Src/usbd_dfu.c ****         req.bmRequest = 0U;
 570:Middlewares/ST/STM32_USB_Device_Library/Class/DFU/Src/usbd_dfu.c ****         req.wLength = 1U;
 571:Middlewares/ST/STM32_USB_Device_Library/Class/DFU/Src/usbd_dfu.c ****         USBD_CtlError(pdev, &req);
 572:Middlewares/ST/STM32_USB_Device_Library/Class/DFU/Src/usbd_dfu.c ****       }
 573:Middlewares/ST/STM32_USB_Device_Library/Class/DFU/Src/usbd_dfu.c ****     }
 574:Middlewares/ST/STM32_USB_Device_Library/Class/DFU/Src/usbd_dfu.c ****     /* Regular Download Command */
 575:Middlewares/ST/STM32_USB_Device_Library/Class/DFU/Src/usbd_dfu.c ****     else
 576:Middlewares/ST/STM32_USB_Device_Library/Class/DFU/Src/usbd_dfu.c ****     {
 577:Middlewares/ST/STM32_USB_Device_Library/Class/DFU/Src/usbd_dfu.c ****       if (hdfu->wblock_num > 1U)
 578:Middlewares/ST/STM32_USB_Device_Library/Class/DFU/Src/usbd_dfu.c ****       {
 579:Middlewares/ST/STM32_USB_Device_Library/Class/DFU/Src/usbd_dfu.c ****         /* Decode the required address */
 580:Middlewares/ST/STM32_USB_Device_Library/Class/DFU/Src/usbd_dfu.c ****         addr = ((hdfu->wblock_num - 2U) * USBD_DFU_XFER_SIZE) + hdfu->data_ptr;
 581:Middlewares/ST/STM32_USB_Device_Library/Class/DFU/Src/usbd_dfu.c **** 
 582:Middlewares/ST/STM32_USB_Device_Library/Class/DFU/Src/usbd_dfu.c ****         /* Preform the write operation */
ARM GAS  /tmp/cc2AD7kg.s 			page 13


 583:Middlewares/ST/STM32_USB_Device_Library/Class/DFU/Src/usbd_dfu.c ****         if (((USBD_DFU_MediaTypeDef *)pdev->pUserData)->Write(hdfu->buffer.d8,
 584:Middlewares/ST/STM32_USB_Device_Library/Class/DFU/Src/usbd_dfu.c ****                                                               (uint8_t *)addr, hdfu->wlength) != US
 585:Middlewares/ST/STM32_USB_Device_Library/Class/DFU/Src/usbd_dfu.c ****         {
 586:Middlewares/ST/STM32_USB_Device_Library/Class/DFU/Src/usbd_dfu.c ****           return USBD_FAIL;
 587:Middlewares/ST/STM32_USB_Device_Library/Class/DFU/Src/usbd_dfu.c ****         }
 588:Middlewares/ST/STM32_USB_Device_Library/Class/DFU/Src/usbd_dfu.c ****       }
 589:Middlewares/ST/STM32_USB_Device_Library/Class/DFU/Src/usbd_dfu.c ****     }
 590:Middlewares/ST/STM32_USB_Device_Library/Class/DFU/Src/usbd_dfu.c **** 
 591:Middlewares/ST/STM32_USB_Device_Library/Class/DFU/Src/usbd_dfu.c ****     /* Reset the global length and block number */
 592:Middlewares/ST/STM32_USB_Device_Library/Class/DFU/Src/usbd_dfu.c ****     hdfu->wlength = 0U;
 593:Middlewares/ST/STM32_USB_Device_Library/Class/DFU/Src/usbd_dfu.c ****     hdfu->wblock_num = 0U;
 594:Middlewares/ST/STM32_USB_Device_Library/Class/DFU/Src/usbd_dfu.c **** 
 595:Middlewares/ST/STM32_USB_Device_Library/Class/DFU/Src/usbd_dfu.c ****     /* Update the state machine */
 596:Middlewares/ST/STM32_USB_Device_Library/Class/DFU/Src/usbd_dfu.c ****     hdfu->dev_state =  DFU_STATE_DNLOAD_SYNC;
 597:Middlewares/ST/STM32_USB_Device_Library/Class/DFU/Src/usbd_dfu.c **** 
 598:Middlewares/ST/STM32_USB_Device_Library/Class/DFU/Src/usbd_dfu.c ****     hdfu->dev_status[1] = 0U;
 599:Middlewares/ST/STM32_USB_Device_Library/Class/DFU/Src/usbd_dfu.c ****     hdfu->dev_status[2] = 0U;
 600:Middlewares/ST/STM32_USB_Device_Library/Class/DFU/Src/usbd_dfu.c ****     hdfu->dev_status[3] = 0U;
 601:Middlewares/ST/STM32_USB_Device_Library/Class/DFU/Src/usbd_dfu.c ****     hdfu->dev_status[4] = hdfu->dev_state;
 602:Middlewares/ST/STM32_USB_Device_Library/Class/DFU/Src/usbd_dfu.c ****     return USBD_OK;
 603:Middlewares/ST/STM32_USB_Device_Library/Class/DFU/Src/usbd_dfu.c ****   }
 604:Middlewares/ST/STM32_USB_Device_Library/Class/DFU/Src/usbd_dfu.c ****   else
 605:Middlewares/ST/STM32_USB_Device_Library/Class/DFU/Src/usbd_dfu.c ****   {
 606:Middlewares/ST/STM32_USB_Device_Library/Class/DFU/Src/usbd_dfu.c ****     if (hdfu->dev_state == DFU_STATE_MANIFEST)/* Manifestation in progress */
 607:Middlewares/ST/STM32_USB_Device_Library/Class/DFU/Src/usbd_dfu.c ****     {
 608:Middlewares/ST/STM32_USB_Device_Library/Class/DFU/Src/usbd_dfu.c ****       /* Start leaving DFU mode */
 609:Middlewares/ST/STM32_USB_Device_Library/Class/DFU/Src/usbd_dfu.c ****       DFU_Leave(pdev);
 610:Middlewares/ST/STM32_USB_Device_Library/Class/DFU/Src/usbd_dfu.c ****     }
 611:Middlewares/ST/STM32_USB_Device_Library/Class/DFU/Src/usbd_dfu.c ****   }
 612:Middlewares/ST/STM32_USB_Device_Library/Class/DFU/Src/usbd_dfu.c **** 
 613:Middlewares/ST/STM32_USB_Device_Library/Class/DFU/Src/usbd_dfu.c ****   return USBD_OK;
 614:Middlewares/ST/STM32_USB_Device_Library/Class/DFU/Src/usbd_dfu.c **** }
 615:Middlewares/ST/STM32_USB_Device_Library/Class/DFU/Src/usbd_dfu.c **** /**
 616:Middlewares/ST/STM32_USB_Device_Library/Class/DFU/Src/usbd_dfu.c ****   * @brief  USBD_DFU_SOF
 617:Middlewares/ST/STM32_USB_Device_Library/Class/DFU/Src/usbd_dfu.c ****   *         handle SOF event
 618:Middlewares/ST/STM32_USB_Device_Library/Class/DFU/Src/usbd_dfu.c ****   * @param  pdev: device instance
 619:Middlewares/ST/STM32_USB_Device_Library/Class/DFU/Src/usbd_dfu.c ****   * @retval status
 620:Middlewares/ST/STM32_USB_Device_Library/Class/DFU/Src/usbd_dfu.c ****   */
 621:Middlewares/ST/STM32_USB_Device_Library/Class/DFU/Src/usbd_dfu.c **** static uint8_t  USBD_DFU_SOF(USBD_HandleTypeDef *pdev)
 622:Middlewares/ST/STM32_USB_Device_Library/Class/DFU/Src/usbd_dfu.c **** {
 110              		.loc 1 622 1 is_stmt 1 view -0
 111              		.cfi_startproc
 112              		@ args = 0, pretend = 0, frame = 0
 113              		@ frame_needed = 0, uses_anonymous_args = 0
 114              		@ link register save eliminated.
 623:Middlewares/ST/STM32_USB_Device_Library/Class/DFU/Src/usbd_dfu.c **** 
 624:Middlewares/ST/STM32_USB_Device_Library/Class/DFU/Src/usbd_dfu.c ****   return USBD_OK;
 115              		.loc 1 624 3 view .LVU15
 625:Middlewares/ST/STM32_USB_Device_Library/Class/DFU/Src/usbd_dfu.c **** }
 116              		.loc 1 625 1 is_stmt 0 view .LVU16
 117 0000 0020     		movs	r0, #0
 118              	.LVL7:
 119              		.loc 1 625 1 view .LVU17
 120              		@ sp needed
 121 0002 7047     		bx	lr
 122              		.cfi_endproc
 123              	.LFE50:
ARM GAS  /tmp/cc2AD7kg.s 			page 14


 125              		.section	.text.USBD_DFU_IsoINIncomplete,"ax",%progbits
 126              		.align	1
 127              		.syntax unified
 128              		.code	16
 129              		.thumb_func
 130              		.fpu softvfp
 132              	USBD_DFU_IsoINIncomplete:
 133              	.LVL8:
 134              	.LFB51:
 626:Middlewares/ST/STM32_USB_Device_Library/Class/DFU/Src/usbd_dfu.c **** /**
 627:Middlewares/ST/STM32_USB_Device_Library/Class/DFU/Src/usbd_dfu.c ****   * @brief  USBD_DFU_IsoINIncomplete
 628:Middlewares/ST/STM32_USB_Device_Library/Class/DFU/Src/usbd_dfu.c ****   *         handle data ISO IN Incomplete event
 629:Middlewares/ST/STM32_USB_Device_Library/Class/DFU/Src/usbd_dfu.c ****   * @param  pdev: device instance
 630:Middlewares/ST/STM32_USB_Device_Library/Class/DFU/Src/usbd_dfu.c ****   * @param  epnum: endpoint index
 631:Middlewares/ST/STM32_USB_Device_Library/Class/DFU/Src/usbd_dfu.c ****   * @retval status
 632:Middlewares/ST/STM32_USB_Device_Library/Class/DFU/Src/usbd_dfu.c ****   */
 633:Middlewares/ST/STM32_USB_Device_Library/Class/DFU/Src/usbd_dfu.c **** static uint8_t  USBD_DFU_IsoINIncomplete(USBD_HandleTypeDef *pdev, uint8_t epnum)
 634:Middlewares/ST/STM32_USB_Device_Library/Class/DFU/Src/usbd_dfu.c **** {
 135              		.loc 1 634 1 is_stmt 1 view -0
 136              		.cfi_startproc
 137              		@ args = 0, pretend = 0, frame = 0
 138              		@ frame_needed = 0, uses_anonymous_args = 0
 139              		@ link register save eliminated.
 635:Middlewares/ST/STM32_USB_Device_Library/Class/DFU/Src/usbd_dfu.c **** 
 636:Middlewares/ST/STM32_USB_Device_Library/Class/DFU/Src/usbd_dfu.c ****   return USBD_OK;
 140              		.loc 1 636 3 view .LVU19
 637:Middlewares/ST/STM32_USB_Device_Library/Class/DFU/Src/usbd_dfu.c **** }
 141              		.loc 1 637 1 is_stmt 0 view .LVU20
 142 0000 0020     		movs	r0, #0
 143              	.LVL9:
 144              		.loc 1 637 1 view .LVU21
 145              		@ sp needed
 146 0002 7047     		bx	lr
 147              		.cfi_endproc
 148              	.LFE51:
 150              		.section	.text.USBD_DFU_IsoOutIncomplete,"ax",%progbits
 151              		.align	1
 152              		.syntax unified
 153              		.code	16
 154              		.thumb_func
 155              		.fpu softvfp
 157              	USBD_DFU_IsoOutIncomplete:
 158              	.LVL10:
 159              	.LFB52:
 638:Middlewares/ST/STM32_USB_Device_Library/Class/DFU/Src/usbd_dfu.c **** /**
 639:Middlewares/ST/STM32_USB_Device_Library/Class/DFU/Src/usbd_dfu.c ****   * @brief  USBD_DFU_IsoOutIncomplete
 640:Middlewares/ST/STM32_USB_Device_Library/Class/DFU/Src/usbd_dfu.c ****   *         handle data ISO OUT Incomplete event
 641:Middlewares/ST/STM32_USB_Device_Library/Class/DFU/Src/usbd_dfu.c ****   * @param  pdev: device instance
 642:Middlewares/ST/STM32_USB_Device_Library/Class/DFU/Src/usbd_dfu.c ****   * @param  epnum: endpoint index
 643:Middlewares/ST/STM32_USB_Device_Library/Class/DFU/Src/usbd_dfu.c ****   * @retval status
 644:Middlewares/ST/STM32_USB_Device_Library/Class/DFU/Src/usbd_dfu.c ****   */
 645:Middlewares/ST/STM32_USB_Device_Library/Class/DFU/Src/usbd_dfu.c **** static uint8_t  USBD_DFU_IsoOutIncomplete(USBD_HandleTypeDef *pdev, uint8_t epnum)
 646:Middlewares/ST/STM32_USB_Device_Library/Class/DFU/Src/usbd_dfu.c **** {
 160              		.loc 1 646 1 is_stmt 1 view -0
 161              		.cfi_startproc
 162              		@ args = 0, pretend = 0, frame = 0
 163              		@ frame_needed = 0, uses_anonymous_args = 0
ARM GAS  /tmp/cc2AD7kg.s 			page 15


 164              		@ link register save eliminated.
 647:Middlewares/ST/STM32_USB_Device_Library/Class/DFU/Src/usbd_dfu.c **** 
 648:Middlewares/ST/STM32_USB_Device_Library/Class/DFU/Src/usbd_dfu.c ****   return USBD_OK;
 165              		.loc 1 648 3 view .LVU23
 649:Middlewares/ST/STM32_USB_Device_Library/Class/DFU/Src/usbd_dfu.c **** }
 166              		.loc 1 649 1 is_stmt 0 view .LVU24
 167 0000 0020     		movs	r0, #0
 168              	.LVL11:
 169              		.loc 1 649 1 view .LVU25
 170              		@ sp needed
 171 0002 7047     		bx	lr
 172              		.cfi_endproc
 173              	.LFE52:
 175              		.section	.text.USBD_DFU_DataOut,"ax",%progbits
 176              		.align	1
 177              		.syntax unified
 178              		.code	16
 179              		.thumb_func
 180              		.fpu softvfp
 182              	USBD_DFU_DataOut:
 183              	.LVL12:
 184              	.LFB53:
 650:Middlewares/ST/STM32_USB_Device_Library/Class/DFU/Src/usbd_dfu.c **** /**
 651:Middlewares/ST/STM32_USB_Device_Library/Class/DFU/Src/usbd_dfu.c ****   * @brief  USBD_DFU_DataOut
 652:Middlewares/ST/STM32_USB_Device_Library/Class/DFU/Src/usbd_dfu.c ****   *         handle data OUT Stage
 653:Middlewares/ST/STM32_USB_Device_Library/Class/DFU/Src/usbd_dfu.c ****   * @param  pdev: device instance
 654:Middlewares/ST/STM32_USB_Device_Library/Class/DFU/Src/usbd_dfu.c ****   * @param  epnum: endpoint index
 655:Middlewares/ST/STM32_USB_Device_Library/Class/DFU/Src/usbd_dfu.c ****   * @retval status
 656:Middlewares/ST/STM32_USB_Device_Library/Class/DFU/Src/usbd_dfu.c ****   */
 657:Middlewares/ST/STM32_USB_Device_Library/Class/DFU/Src/usbd_dfu.c **** static uint8_t  USBD_DFU_DataOut(USBD_HandleTypeDef *pdev,
 658:Middlewares/ST/STM32_USB_Device_Library/Class/DFU/Src/usbd_dfu.c ****                                  uint8_t epnum)
 659:Middlewares/ST/STM32_USB_Device_Library/Class/DFU/Src/usbd_dfu.c **** {
 185              		.loc 1 659 1 is_stmt 1 view -0
 186              		.cfi_startproc
 187              		@ args = 0, pretend = 0, frame = 0
 188              		@ frame_needed = 0, uses_anonymous_args = 0
 189              		@ link register save eliminated.
 660:Middlewares/ST/STM32_USB_Device_Library/Class/DFU/Src/usbd_dfu.c **** 
 661:Middlewares/ST/STM32_USB_Device_Library/Class/DFU/Src/usbd_dfu.c ****   return USBD_OK;
 190              		.loc 1 661 3 view .LVU27
 662:Middlewares/ST/STM32_USB_Device_Library/Class/DFU/Src/usbd_dfu.c **** }
 191              		.loc 1 662 1 is_stmt 0 view .LVU28
 192 0000 0020     		movs	r0, #0
 193              	.LVL13:
 194              		.loc 1 662 1 view .LVU29
 195              		@ sp needed
 196 0002 7047     		bx	lr
 197              		.cfi_endproc
 198              	.LFE53:
 200              		.section	.text.USBD_DFU_GetDeviceQualifierDesc,"ax",%progbits
 201              		.align	1
 202              		.syntax unified
 203              		.code	16
 204              		.thumb_func
 205              		.fpu softvfp
 207              	USBD_DFU_GetDeviceQualifierDesc:
 208              	.LVL14:
ARM GAS  /tmp/cc2AD7kg.s 			page 16


 209              	.LFB54:
 663:Middlewares/ST/STM32_USB_Device_Library/Class/DFU/Src/usbd_dfu.c **** 
 664:Middlewares/ST/STM32_USB_Device_Library/Class/DFU/Src/usbd_dfu.c **** /**
 665:Middlewares/ST/STM32_USB_Device_Library/Class/DFU/Src/usbd_dfu.c **** * @brief  DeviceQualifierDescriptor
 666:Middlewares/ST/STM32_USB_Device_Library/Class/DFU/Src/usbd_dfu.c **** *         return Device Qualifier descriptor
 667:Middlewares/ST/STM32_USB_Device_Library/Class/DFU/Src/usbd_dfu.c **** * @param  length : pointer data length
 668:Middlewares/ST/STM32_USB_Device_Library/Class/DFU/Src/usbd_dfu.c **** * @retval pointer to descriptor buffer
 669:Middlewares/ST/STM32_USB_Device_Library/Class/DFU/Src/usbd_dfu.c **** */
 670:Middlewares/ST/STM32_USB_Device_Library/Class/DFU/Src/usbd_dfu.c **** static uint8_t  *USBD_DFU_GetDeviceQualifierDesc(uint16_t *length)
 671:Middlewares/ST/STM32_USB_Device_Library/Class/DFU/Src/usbd_dfu.c **** {
 210              		.loc 1 671 1 is_stmt 1 view -0
 211              		.cfi_startproc
 212              		@ args = 0, pretend = 0, frame = 0
 213              		@ frame_needed = 0, uses_anonymous_args = 0
 214              		@ link register save eliminated.
 672:Middlewares/ST/STM32_USB_Device_Library/Class/DFU/Src/usbd_dfu.c ****   *length = sizeof(USBD_DFU_DeviceQualifierDesc);
 215              		.loc 1 672 3 view .LVU31
 216              		.loc 1 672 11 is_stmt 0 view .LVU32
 217 0000 0A23     		movs	r3, #10
 218 0002 0380     		strh	r3, [r0]
 673:Middlewares/ST/STM32_USB_Device_Library/Class/DFU/Src/usbd_dfu.c ****   return USBD_DFU_DeviceQualifierDesc;
 219              		.loc 1 673 3 is_stmt 1 view .LVU33
 220              		.loc 1 673 10 is_stmt 0 view .LVU34
 221 0004 0048     		ldr	r0, .L11
 222              	.LVL15:
 674:Middlewares/ST/STM32_USB_Device_Library/Class/DFU/Src/usbd_dfu.c **** }
 223              		.loc 1 674 1 view .LVU35
 224              		@ sp needed
 225 0006 7047     		bx	lr
 226              	.L12:
 227              		.align	2
 228              	.L11:
 229 0008 00000000 		.word	.LANCHOR1
 230              		.cfi_endproc
 231              	.LFE54:
 233              		.section	.text.DFU_ClearStatus,"ax",%progbits
 234              		.align	1
 235              		.syntax unified
 236              		.code	16
 237              		.thumb_func
 238              		.fpu softvfp
 240              	DFU_ClearStatus:
 241              	.LVL16:
 242              	.LFB61:
 675:Middlewares/ST/STM32_USB_Device_Library/Class/DFU/Src/usbd_dfu.c **** 
 676:Middlewares/ST/STM32_USB_Device_Library/Class/DFU/Src/usbd_dfu.c **** /**
 677:Middlewares/ST/STM32_USB_Device_Library/Class/DFU/Src/usbd_dfu.c ****   * @brief  USBD_DFU_GetUsrStringDesc
 678:Middlewares/ST/STM32_USB_Device_Library/Class/DFU/Src/usbd_dfu.c ****   *         Manages the transfer of memory interfaces string descriptors.
 679:Middlewares/ST/STM32_USB_Device_Library/Class/DFU/Src/usbd_dfu.c ****   * @param  speed : current device speed
 680:Middlewares/ST/STM32_USB_Device_Library/Class/DFU/Src/usbd_dfu.c ****   * @param  index: desciptor index
 681:Middlewares/ST/STM32_USB_Device_Library/Class/DFU/Src/usbd_dfu.c ****   * @param  length : pointer data length
 682:Middlewares/ST/STM32_USB_Device_Library/Class/DFU/Src/usbd_dfu.c ****   * @retval pointer to the descriptor table or NULL if the descriptor is not supported.
 683:Middlewares/ST/STM32_USB_Device_Library/Class/DFU/Src/usbd_dfu.c ****   */
 684:Middlewares/ST/STM32_USB_Device_Library/Class/DFU/Src/usbd_dfu.c **** #if (USBD_SUPPORT_USER_STRING_DESC == 1U)
 685:Middlewares/ST/STM32_USB_Device_Library/Class/DFU/Src/usbd_dfu.c **** static uint8_t *USBD_DFU_GetUsrStringDesc(USBD_HandleTypeDef *pdev, uint8_t index, uint16_t *length
 686:Middlewares/ST/STM32_USB_Device_Library/Class/DFU/Src/usbd_dfu.c **** {
 687:Middlewares/ST/STM32_USB_Device_Library/Class/DFU/Src/usbd_dfu.c ****   static uint8_t USBD_StrDesc[255];
ARM GAS  /tmp/cc2AD7kg.s 			page 17


 688:Middlewares/ST/STM32_USB_Device_Library/Class/DFU/Src/usbd_dfu.c ****   /* Check if the requested string interface is supported */
 689:Middlewares/ST/STM32_USB_Device_Library/Class/DFU/Src/usbd_dfu.c ****   if (index <= (USBD_IDX_INTERFACE_STR + USBD_DFU_MAX_ITF_NUM))
 690:Middlewares/ST/STM32_USB_Device_Library/Class/DFU/Src/usbd_dfu.c ****   {
 691:Middlewares/ST/STM32_USB_Device_Library/Class/DFU/Src/usbd_dfu.c ****     USBD_GetString((uint8_t *)((USBD_DFU_MediaTypeDef *)pdev->pUserData)->pStrDesc, USBD_StrDesc, l
 692:Middlewares/ST/STM32_USB_Device_Library/Class/DFU/Src/usbd_dfu.c ****     return USBD_StrDesc;
 693:Middlewares/ST/STM32_USB_Device_Library/Class/DFU/Src/usbd_dfu.c ****   }
 694:Middlewares/ST/STM32_USB_Device_Library/Class/DFU/Src/usbd_dfu.c ****   /* Not supported Interface Descriptor index */
 695:Middlewares/ST/STM32_USB_Device_Library/Class/DFU/Src/usbd_dfu.c ****   else
 696:Middlewares/ST/STM32_USB_Device_Library/Class/DFU/Src/usbd_dfu.c ****   {
 697:Middlewares/ST/STM32_USB_Device_Library/Class/DFU/Src/usbd_dfu.c ****     return NULL;
 698:Middlewares/ST/STM32_USB_Device_Library/Class/DFU/Src/usbd_dfu.c ****   }
 699:Middlewares/ST/STM32_USB_Device_Library/Class/DFU/Src/usbd_dfu.c **** }
 700:Middlewares/ST/STM32_USB_Device_Library/Class/DFU/Src/usbd_dfu.c **** #endif
 701:Middlewares/ST/STM32_USB_Device_Library/Class/DFU/Src/usbd_dfu.c **** 
 702:Middlewares/ST/STM32_USB_Device_Library/Class/DFU/Src/usbd_dfu.c **** /**
 703:Middlewares/ST/STM32_USB_Device_Library/Class/DFU/Src/usbd_dfu.c **** * @brief  USBD_MSC_RegisterStorage
 704:Middlewares/ST/STM32_USB_Device_Library/Class/DFU/Src/usbd_dfu.c **** * @param  fops: storage callback
 705:Middlewares/ST/STM32_USB_Device_Library/Class/DFU/Src/usbd_dfu.c **** * @retval status
 706:Middlewares/ST/STM32_USB_Device_Library/Class/DFU/Src/usbd_dfu.c **** */
 707:Middlewares/ST/STM32_USB_Device_Library/Class/DFU/Src/usbd_dfu.c **** uint8_t  USBD_DFU_RegisterMedia(USBD_HandleTypeDef   *pdev,
 708:Middlewares/ST/STM32_USB_Device_Library/Class/DFU/Src/usbd_dfu.c ****                                 USBD_DFU_MediaTypeDef *fops)
 709:Middlewares/ST/STM32_USB_Device_Library/Class/DFU/Src/usbd_dfu.c **** {
 710:Middlewares/ST/STM32_USB_Device_Library/Class/DFU/Src/usbd_dfu.c ****   if (fops != NULL)
 711:Middlewares/ST/STM32_USB_Device_Library/Class/DFU/Src/usbd_dfu.c ****   {
 712:Middlewares/ST/STM32_USB_Device_Library/Class/DFU/Src/usbd_dfu.c ****     pdev->pUserData = fops;
 713:Middlewares/ST/STM32_USB_Device_Library/Class/DFU/Src/usbd_dfu.c ****   }
 714:Middlewares/ST/STM32_USB_Device_Library/Class/DFU/Src/usbd_dfu.c ****   return 0U;
 715:Middlewares/ST/STM32_USB_Device_Library/Class/DFU/Src/usbd_dfu.c **** }
 716:Middlewares/ST/STM32_USB_Device_Library/Class/DFU/Src/usbd_dfu.c **** 
 717:Middlewares/ST/STM32_USB_Device_Library/Class/DFU/Src/usbd_dfu.c **** /******************************************************************************
 718:Middlewares/ST/STM32_USB_Device_Library/Class/DFU/Src/usbd_dfu.c ****      DFU Class requests management
 719:Middlewares/ST/STM32_USB_Device_Library/Class/DFU/Src/usbd_dfu.c **** ******************************************************************************/
 720:Middlewares/ST/STM32_USB_Device_Library/Class/DFU/Src/usbd_dfu.c **** /**
 721:Middlewares/ST/STM32_USB_Device_Library/Class/DFU/Src/usbd_dfu.c ****   * @brief  DFU_Detach
 722:Middlewares/ST/STM32_USB_Device_Library/Class/DFU/Src/usbd_dfu.c ****   *         Handles the DFU DETACH request.
 723:Middlewares/ST/STM32_USB_Device_Library/Class/DFU/Src/usbd_dfu.c ****   * @param  pdev: device instance
 724:Middlewares/ST/STM32_USB_Device_Library/Class/DFU/Src/usbd_dfu.c ****   * @param  req: pointer to the request structure.
 725:Middlewares/ST/STM32_USB_Device_Library/Class/DFU/Src/usbd_dfu.c ****   * @retval None.
 726:Middlewares/ST/STM32_USB_Device_Library/Class/DFU/Src/usbd_dfu.c ****   */
 727:Middlewares/ST/STM32_USB_Device_Library/Class/DFU/Src/usbd_dfu.c **** static void DFU_Detach(USBD_HandleTypeDef *pdev, USBD_SetupReqTypedef *req)
 728:Middlewares/ST/STM32_USB_Device_Library/Class/DFU/Src/usbd_dfu.c **** {
 729:Middlewares/ST/STM32_USB_Device_Library/Class/DFU/Src/usbd_dfu.c ****   USBD_DFU_HandleTypeDef   *hdfu;
 730:Middlewares/ST/STM32_USB_Device_Library/Class/DFU/Src/usbd_dfu.c **** 
 731:Middlewares/ST/STM32_USB_Device_Library/Class/DFU/Src/usbd_dfu.c ****   hdfu = (USBD_DFU_HandleTypeDef *) pdev->pClassData;
 732:Middlewares/ST/STM32_USB_Device_Library/Class/DFU/Src/usbd_dfu.c **** 
 733:Middlewares/ST/STM32_USB_Device_Library/Class/DFU/Src/usbd_dfu.c ****   if (hdfu->dev_state == DFU_STATE_IDLE || hdfu->dev_state == DFU_STATE_DNLOAD_SYNC
 734:Middlewares/ST/STM32_USB_Device_Library/Class/DFU/Src/usbd_dfu.c ****       || hdfu->dev_state == DFU_STATE_DNLOAD_IDLE || hdfu->dev_state == DFU_STATE_MANIFEST_SYNC
 735:Middlewares/ST/STM32_USB_Device_Library/Class/DFU/Src/usbd_dfu.c ****       || hdfu->dev_state == DFU_STATE_UPLOAD_IDLE)
 736:Middlewares/ST/STM32_USB_Device_Library/Class/DFU/Src/usbd_dfu.c ****   {
 737:Middlewares/ST/STM32_USB_Device_Library/Class/DFU/Src/usbd_dfu.c ****     /* Update the state machine */
 738:Middlewares/ST/STM32_USB_Device_Library/Class/DFU/Src/usbd_dfu.c ****     hdfu->dev_state = DFU_STATE_IDLE;
 739:Middlewares/ST/STM32_USB_Device_Library/Class/DFU/Src/usbd_dfu.c ****     hdfu->dev_status[0] = DFU_ERROR_NONE;
 740:Middlewares/ST/STM32_USB_Device_Library/Class/DFU/Src/usbd_dfu.c ****     hdfu->dev_status[1] = 0U;
 741:Middlewares/ST/STM32_USB_Device_Library/Class/DFU/Src/usbd_dfu.c ****     hdfu->dev_status[2] = 0U;
 742:Middlewares/ST/STM32_USB_Device_Library/Class/DFU/Src/usbd_dfu.c ****     hdfu->dev_status[3] = 0U; /*bwPollTimeout=0ms*/
 743:Middlewares/ST/STM32_USB_Device_Library/Class/DFU/Src/usbd_dfu.c ****     hdfu->dev_status[4] = hdfu->dev_state;
 744:Middlewares/ST/STM32_USB_Device_Library/Class/DFU/Src/usbd_dfu.c ****     hdfu->dev_status[5] = 0U; /*iString*/
ARM GAS  /tmp/cc2AD7kg.s 			page 18


 745:Middlewares/ST/STM32_USB_Device_Library/Class/DFU/Src/usbd_dfu.c ****     hdfu->wblock_num = 0U;
 746:Middlewares/ST/STM32_USB_Device_Library/Class/DFU/Src/usbd_dfu.c ****     hdfu->wlength = 0U;
 747:Middlewares/ST/STM32_USB_Device_Library/Class/DFU/Src/usbd_dfu.c ****   }
 748:Middlewares/ST/STM32_USB_Device_Library/Class/DFU/Src/usbd_dfu.c **** 
 749:Middlewares/ST/STM32_USB_Device_Library/Class/DFU/Src/usbd_dfu.c ****   /* Check the detach capability in the DFU functional descriptor */
 750:Middlewares/ST/STM32_USB_Device_Library/Class/DFU/Src/usbd_dfu.c ****   if ((USBD_DFU_CfgDesc[12U + (9U * USBD_DFU_MAX_ITF_NUM)]) & DFU_DETACH_MASK)
 751:Middlewares/ST/STM32_USB_Device_Library/Class/DFU/Src/usbd_dfu.c ****   {
 752:Middlewares/ST/STM32_USB_Device_Library/Class/DFU/Src/usbd_dfu.c ****     /* Perform an Attach-Detach operation on USB bus */
 753:Middlewares/ST/STM32_USB_Device_Library/Class/DFU/Src/usbd_dfu.c ****     USBD_Stop(pdev);
 754:Middlewares/ST/STM32_USB_Device_Library/Class/DFU/Src/usbd_dfu.c ****     USBD_Start(pdev);
 755:Middlewares/ST/STM32_USB_Device_Library/Class/DFU/Src/usbd_dfu.c ****   }
 756:Middlewares/ST/STM32_USB_Device_Library/Class/DFU/Src/usbd_dfu.c ****   else
 757:Middlewares/ST/STM32_USB_Device_Library/Class/DFU/Src/usbd_dfu.c ****   {
 758:Middlewares/ST/STM32_USB_Device_Library/Class/DFU/Src/usbd_dfu.c ****     /* Wait for the period of time specified in Detach request */
 759:Middlewares/ST/STM32_USB_Device_Library/Class/DFU/Src/usbd_dfu.c ****     USBD_Delay((uint32_t)req->wValue);
 760:Middlewares/ST/STM32_USB_Device_Library/Class/DFU/Src/usbd_dfu.c ****   }
 761:Middlewares/ST/STM32_USB_Device_Library/Class/DFU/Src/usbd_dfu.c **** }
 762:Middlewares/ST/STM32_USB_Device_Library/Class/DFU/Src/usbd_dfu.c **** 
 763:Middlewares/ST/STM32_USB_Device_Library/Class/DFU/Src/usbd_dfu.c **** /**
 764:Middlewares/ST/STM32_USB_Device_Library/Class/DFU/Src/usbd_dfu.c ****   * @brief  DFU_Download
 765:Middlewares/ST/STM32_USB_Device_Library/Class/DFU/Src/usbd_dfu.c ****   *         Handles the DFU DNLOAD request.
 766:Middlewares/ST/STM32_USB_Device_Library/Class/DFU/Src/usbd_dfu.c ****   * @param  pdev: device instance
 767:Middlewares/ST/STM32_USB_Device_Library/Class/DFU/Src/usbd_dfu.c ****   * @param  req: pointer to the request structure
 768:Middlewares/ST/STM32_USB_Device_Library/Class/DFU/Src/usbd_dfu.c ****   * @retval None
 769:Middlewares/ST/STM32_USB_Device_Library/Class/DFU/Src/usbd_dfu.c ****   */
 770:Middlewares/ST/STM32_USB_Device_Library/Class/DFU/Src/usbd_dfu.c **** static void DFU_Download(USBD_HandleTypeDef *pdev, USBD_SetupReqTypedef *req)
 771:Middlewares/ST/STM32_USB_Device_Library/Class/DFU/Src/usbd_dfu.c **** {
 772:Middlewares/ST/STM32_USB_Device_Library/Class/DFU/Src/usbd_dfu.c ****   USBD_DFU_HandleTypeDef   *hdfu;
 773:Middlewares/ST/STM32_USB_Device_Library/Class/DFU/Src/usbd_dfu.c **** 
 774:Middlewares/ST/STM32_USB_Device_Library/Class/DFU/Src/usbd_dfu.c ****   hdfu = (USBD_DFU_HandleTypeDef *) pdev->pClassData;
 775:Middlewares/ST/STM32_USB_Device_Library/Class/DFU/Src/usbd_dfu.c **** 
 776:Middlewares/ST/STM32_USB_Device_Library/Class/DFU/Src/usbd_dfu.c ****   /* Data setup request */
 777:Middlewares/ST/STM32_USB_Device_Library/Class/DFU/Src/usbd_dfu.c ****   if (req->wLength > 0U)
 778:Middlewares/ST/STM32_USB_Device_Library/Class/DFU/Src/usbd_dfu.c ****   {
 779:Middlewares/ST/STM32_USB_Device_Library/Class/DFU/Src/usbd_dfu.c ****     if ((hdfu->dev_state == DFU_STATE_IDLE) || (hdfu->dev_state == DFU_STATE_DNLOAD_IDLE))
 780:Middlewares/ST/STM32_USB_Device_Library/Class/DFU/Src/usbd_dfu.c ****     {
 781:Middlewares/ST/STM32_USB_Device_Library/Class/DFU/Src/usbd_dfu.c ****       /* Update the global length and block number */
 782:Middlewares/ST/STM32_USB_Device_Library/Class/DFU/Src/usbd_dfu.c ****       hdfu->wblock_num = req->wValue;
 783:Middlewares/ST/STM32_USB_Device_Library/Class/DFU/Src/usbd_dfu.c ****       hdfu->wlength = req->wLength;
 784:Middlewares/ST/STM32_USB_Device_Library/Class/DFU/Src/usbd_dfu.c **** 
 785:Middlewares/ST/STM32_USB_Device_Library/Class/DFU/Src/usbd_dfu.c ****       /* Update the state machine */
 786:Middlewares/ST/STM32_USB_Device_Library/Class/DFU/Src/usbd_dfu.c ****       hdfu->dev_state = DFU_STATE_DNLOAD_SYNC;
 787:Middlewares/ST/STM32_USB_Device_Library/Class/DFU/Src/usbd_dfu.c ****       hdfu->dev_status[4] = hdfu->dev_state;
 788:Middlewares/ST/STM32_USB_Device_Library/Class/DFU/Src/usbd_dfu.c **** 
 789:Middlewares/ST/STM32_USB_Device_Library/Class/DFU/Src/usbd_dfu.c ****       /* Prepare the reception of the buffer over EP0 */
 790:Middlewares/ST/STM32_USB_Device_Library/Class/DFU/Src/usbd_dfu.c ****       USBD_CtlPrepareRx(pdev, (uint8_t *)hdfu->buffer.d8,
 791:Middlewares/ST/STM32_USB_Device_Library/Class/DFU/Src/usbd_dfu.c ****                         (uint16_t)hdfu->wlength);
 792:Middlewares/ST/STM32_USB_Device_Library/Class/DFU/Src/usbd_dfu.c ****     }
 793:Middlewares/ST/STM32_USB_Device_Library/Class/DFU/Src/usbd_dfu.c ****     /* Unsupported state */
 794:Middlewares/ST/STM32_USB_Device_Library/Class/DFU/Src/usbd_dfu.c ****     else
 795:Middlewares/ST/STM32_USB_Device_Library/Class/DFU/Src/usbd_dfu.c ****     {
 796:Middlewares/ST/STM32_USB_Device_Library/Class/DFU/Src/usbd_dfu.c ****       /* Call the error management function (command will be nacked */
 797:Middlewares/ST/STM32_USB_Device_Library/Class/DFU/Src/usbd_dfu.c ****       USBD_CtlError(pdev, req);
 798:Middlewares/ST/STM32_USB_Device_Library/Class/DFU/Src/usbd_dfu.c ****     }
 799:Middlewares/ST/STM32_USB_Device_Library/Class/DFU/Src/usbd_dfu.c ****   }
 800:Middlewares/ST/STM32_USB_Device_Library/Class/DFU/Src/usbd_dfu.c ****   /* 0 Data DNLOAD request */
 801:Middlewares/ST/STM32_USB_Device_Library/Class/DFU/Src/usbd_dfu.c ****   else
ARM GAS  /tmp/cc2AD7kg.s 			page 19


 802:Middlewares/ST/STM32_USB_Device_Library/Class/DFU/Src/usbd_dfu.c ****   {
 803:Middlewares/ST/STM32_USB_Device_Library/Class/DFU/Src/usbd_dfu.c ****     /* End of DNLOAD operation*/
 804:Middlewares/ST/STM32_USB_Device_Library/Class/DFU/Src/usbd_dfu.c ****     if (hdfu->dev_state == DFU_STATE_DNLOAD_IDLE || hdfu->dev_state == DFU_STATE_IDLE)
 805:Middlewares/ST/STM32_USB_Device_Library/Class/DFU/Src/usbd_dfu.c ****     {
 806:Middlewares/ST/STM32_USB_Device_Library/Class/DFU/Src/usbd_dfu.c ****       hdfu->manif_state = DFU_MANIFEST_IN_PROGRESS;
 807:Middlewares/ST/STM32_USB_Device_Library/Class/DFU/Src/usbd_dfu.c ****       hdfu->dev_state = DFU_STATE_MANIFEST_SYNC;
 808:Middlewares/ST/STM32_USB_Device_Library/Class/DFU/Src/usbd_dfu.c ****       hdfu->dev_status[1] = 0U;
 809:Middlewares/ST/STM32_USB_Device_Library/Class/DFU/Src/usbd_dfu.c ****       hdfu->dev_status[2] = 0U;
 810:Middlewares/ST/STM32_USB_Device_Library/Class/DFU/Src/usbd_dfu.c ****       hdfu->dev_status[3] = 0U;
 811:Middlewares/ST/STM32_USB_Device_Library/Class/DFU/Src/usbd_dfu.c ****       hdfu->dev_status[4] = hdfu->dev_state;
 812:Middlewares/ST/STM32_USB_Device_Library/Class/DFU/Src/usbd_dfu.c ****     }
 813:Middlewares/ST/STM32_USB_Device_Library/Class/DFU/Src/usbd_dfu.c ****     else
 814:Middlewares/ST/STM32_USB_Device_Library/Class/DFU/Src/usbd_dfu.c ****     {
 815:Middlewares/ST/STM32_USB_Device_Library/Class/DFU/Src/usbd_dfu.c ****       /* Call the error management function (command will be nacked */
 816:Middlewares/ST/STM32_USB_Device_Library/Class/DFU/Src/usbd_dfu.c ****       USBD_CtlError(pdev, req);
 817:Middlewares/ST/STM32_USB_Device_Library/Class/DFU/Src/usbd_dfu.c ****     }
 818:Middlewares/ST/STM32_USB_Device_Library/Class/DFU/Src/usbd_dfu.c ****   }
 819:Middlewares/ST/STM32_USB_Device_Library/Class/DFU/Src/usbd_dfu.c **** }
 820:Middlewares/ST/STM32_USB_Device_Library/Class/DFU/Src/usbd_dfu.c **** 
 821:Middlewares/ST/STM32_USB_Device_Library/Class/DFU/Src/usbd_dfu.c **** /**
 822:Middlewares/ST/STM32_USB_Device_Library/Class/DFU/Src/usbd_dfu.c ****   * @brief  DFU_Upload
 823:Middlewares/ST/STM32_USB_Device_Library/Class/DFU/Src/usbd_dfu.c ****   *         Handles the DFU UPLOAD request.
 824:Middlewares/ST/STM32_USB_Device_Library/Class/DFU/Src/usbd_dfu.c ****   * @param  pdev: instance
 825:Middlewares/ST/STM32_USB_Device_Library/Class/DFU/Src/usbd_dfu.c ****   * @param  req: pointer to the request structure
 826:Middlewares/ST/STM32_USB_Device_Library/Class/DFU/Src/usbd_dfu.c ****   * @retval status
 827:Middlewares/ST/STM32_USB_Device_Library/Class/DFU/Src/usbd_dfu.c ****   */
 828:Middlewares/ST/STM32_USB_Device_Library/Class/DFU/Src/usbd_dfu.c **** static void DFU_Upload(USBD_HandleTypeDef *pdev, USBD_SetupReqTypedef *req)
 829:Middlewares/ST/STM32_USB_Device_Library/Class/DFU/Src/usbd_dfu.c **** {
 830:Middlewares/ST/STM32_USB_Device_Library/Class/DFU/Src/usbd_dfu.c ****   USBD_DFU_HandleTypeDef   *hdfu;
 831:Middlewares/ST/STM32_USB_Device_Library/Class/DFU/Src/usbd_dfu.c **** 
 832:Middlewares/ST/STM32_USB_Device_Library/Class/DFU/Src/usbd_dfu.c ****   hdfu = (USBD_DFU_HandleTypeDef *) pdev->pClassData;
 833:Middlewares/ST/STM32_USB_Device_Library/Class/DFU/Src/usbd_dfu.c **** 
 834:Middlewares/ST/STM32_USB_Device_Library/Class/DFU/Src/usbd_dfu.c ****   uint8_t *phaddr = NULL;
 835:Middlewares/ST/STM32_USB_Device_Library/Class/DFU/Src/usbd_dfu.c ****   uint32_t addr = 0U;
 836:Middlewares/ST/STM32_USB_Device_Library/Class/DFU/Src/usbd_dfu.c **** 
 837:Middlewares/ST/STM32_USB_Device_Library/Class/DFU/Src/usbd_dfu.c ****   /* Data setup request */
 838:Middlewares/ST/STM32_USB_Device_Library/Class/DFU/Src/usbd_dfu.c ****   if (req->wLength > 0U)
 839:Middlewares/ST/STM32_USB_Device_Library/Class/DFU/Src/usbd_dfu.c ****   {
 840:Middlewares/ST/STM32_USB_Device_Library/Class/DFU/Src/usbd_dfu.c ****     if ((hdfu->dev_state == DFU_STATE_IDLE) || (hdfu->dev_state == DFU_STATE_UPLOAD_IDLE))
 841:Middlewares/ST/STM32_USB_Device_Library/Class/DFU/Src/usbd_dfu.c ****     {
 842:Middlewares/ST/STM32_USB_Device_Library/Class/DFU/Src/usbd_dfu.c ****       /* Update the global length and block number */
 843:Middlewares/ST/STM32_USB_Device_Library/Class/DFU/Src/usbd_dfu.c ****       hdfu->wblock_num = req->wValue;
 844:Middlewares/ST/STM32_USB_Device_Library/Class/DFU/Src/usbd_dfu.c ****       hdfu->wlength = req->wLength;
 845:Middlewares/ST/STM32_USB_Device_Library/Class/DFU/Src/usbd_dfu.c **** 
 846:Middlewares/ST/STM32_USB_Device_Library/Class/DFU/Src/usbd_dfu.c ****       /* DFU Get Command */
 847:Middlewares/ST/STM32_USB_Device_Library/Class/DFU/Src/usbd_dfu.c ****       if (hdfu->wblock_num == 0U)
 848:Middlewares/ST/STM32_USB_Device_Library/Class/DFU/Src/usbd_dfu.c ****       {
 849:Middlewares/ST/STM32_USB_Device_Library/Class/DFU/Src/usbd_dfu.c ****         /* Update the state machine */
 850:Middlewares/ST/STM32_USB_Device_Library/Class/DFU/Src/usbd_dfu.c ****         hdfu->dev_state = (hdfu->wlength > 3U) ? DFU_STATE_IDLE : DFU_STATE_UPLOAD_IDLE;
 851:Middlewares/ST/STM32_USB_Device_Library/Class/DFU/Src/usbd_dfu.c **** 
 852:Middlewares/ST/STM32_USB_Device_Library/Class/DFU/Src/usbd_dfu.c ****         hdfu->dev_status[1] = 0U;
 853:Middlewares/ST/STM32_USB_Device_Library/Class/DFU/Src/usbd_dfu.c ****         hdfu->dev_status[2] = 0U;
 854:Middlewares/ST/STM32_USB_Device_Library/Class/DFU/Src/usbd_dfu.c ****         hdfu->dev_status[3] = 0U;
 855:Middlewares/ST/STM32_USB_Device_Library/Class/DFU/Src/usbd_dfu.c ****         hdfu->dev_status[4] = hdfu->dev_state;
 856:Middlewares/ST/STM32_USB_Device_Library/Class/DFU/Src/usbd_dfu.c **** 
 857:Middlewares/ST/STM32_USB_Device_Library/Class/DFU/Src/usbd_dfu.c ****         /* Store the values of all supported commands */
 858:Middlewares/ST/STM32_USB_Device_Library/Class/DFU/Src/usbd_dfu.c ****         hdfu->buffer.d8[0] = DFU_CMD_GETCOMMANDS;
ARM GAS  /tmp/cc2AD7kg.s 			page 20


 859:Middlewares/ST/STM32_USB_Device_Library/Class/DFU/Src/usbd_dfu.c ****         hdfu->buffer.d8[1] = DFU_CMD_SETADDRESSPOINTER;
 860:Middlewares/ST/STM32_USB_Device_Library/Class/DFU/Src/usbd_dfu.c ****         hdfu->buffer.d8[2] = DFU_CMD_ERASE;
 861:Middlewares/ST/STM32_USB_Device_Library/Class/DFU/Src/usbd_dfu.c **** 
 862:Middlewares/ST/STM32_USB_Device_Library/Class/DFU/Src/usbd_dfu.c ****         /* Send the status data over EP0 */
 863:Middlewares/ST/STM32_USB_Device_Library/Class/DFU/Src/usbd_dfu.c ****         USBD_CtlSendData(pdev, (uint8_t *)(&(hdfu->buffer.d8[0])), 3U);
 864:Middlewares/ST/STM32_USB_Device_Library/Class/DFU/Src/usbd_dfu.c ****       }
 865:Middlewares/ST/STM32_USB_Device_Library/Class/DFU/Src/usbd_dfu.c ****       else if (hdfu->wblock_num > 1U)
 866:Middlewares/ST/STM32_USB_Device_Library/Class/DFU/Src/usbd_dfu.c ****       {
 867:Middlewares/ST/STM32_USB_Device_Library/Class/DFU/Src/usbd_dfu.c ****         hdfu->dev_state = DFU_STATE_UPLOAD_IDLE;
 868:Middlewares/ST/STM32_USB_Device_Library/Class/DFU/Src/usbd_dfu.c **** 
 869:Middlewares/ST/STM32_USB_Device_Library/Class/DFU/Src/usbd_dfu.c ****         hdfu->dev_status[1] = 0U;
 870:Middlewares/ST/STM32_USB_Device_Library/Class/DFU/Src/usbd_dfu.c ****         hdfu->dev_status[2] = 0U;
 871:Middlewares/ST/STM32_USB_Device_Library/Class/DFU/Src/usbd_dfu.c ****         hdfu->dev_status[3] = 0U;
 872:Middlewares/ST/STM32_USB_Device_Library/Class/DFU/Src/usbd_dfu.c ****         hdfu->dev_status[4] = hdfu->dev_state;
 873:Middlewares/ST/STM32_USB_Device_Library/Class/DFU/Src/usbd_dfu.c **** 
 874:Middlewares/ST/STM32_USB_Device_Library/Class/DFU/Src/usbd_dfu.c ****         addr = ((hdfu->wblock_num - 2U) * USBD_DFU_XFER_SIZE) + hdfu->data_ptr;  /* Change is Accel
 875:Middlewares/ST/STM32_USB_Device_Library/Class/DFU/Src/usbd_dfu.c **** 
 876:Middlewares/ST/STM32_USB_Device_Library/Class/DFU/Src/usbd_dfu.c ****         /* Return the physical address where data are stored */
 877:Middlewares/ST/STM32_USB_Device_Library/Class/DFU/Src/usbd_dfu.c ****         phaddr = ((USBD_DFU_MediaTypeDef *)pdev->pUserData)->Read((uint8_t *)addr, hdfu->buffer.d8,
 878:Middlewares/ST/STM32_USB_Device_Library/Class/DFU/Src/usbd_dfu.c **** 
 879:Middlewares/ST/STM32_USB_Device_Library/Class/DFU/Src/usbd_dfu.c ****         /* Send the status data over EP0 */
 880:Middlewares/ST/STM32_USB_Device_Library/Class/DFU/Src/usbd_dfu.c ****         USBD_CtlSendData(pdev, phaddr, (uint16_t)hdfu->wlength);
 881:Middlewares/ST/STM32_USB_Device_Library/Class/DFU/Src/usbd_dfu.c ****       }
 882:Middlewares/ST/STM32_USB_Device_Library/Class/DFU/Src/usbd_dfu.c ****       else  /* unsupported hdfu->wblock_num */
 883:Middlewares/ST/STM32_USB_Device_Library/Class/DFU/Src/usbd_dfu.c ****       {
 884:Middlewares/ST/STM32_USB_Device_Library/Class/DFU/Src/usbd_dfu.c ****         hdfu->dev_state = DFU_ERROR_STALLEDPKT;
 885:Middlewares/ST/STM32_USB_Device_Library/Class/DFU/Src/usbd_dfu.c **** 
 886:Middlewares/ST/STM32_USB_Device_Library/Class/DFU/Src/usbd_dfu.c ****         hdfu->dev_status[1] = 0U;
 887:Middlewares/ST/STM32_USB_Device_Library/Class/DFU/Src/usbd_dfu.c ****         hdfu->dev_status[2] = 0U;
 888:Middlewares/ST/STM32_USB_Device_Library/Class/DFU/Src/usbd_dfu.c ****         hdfu->dev_status[3] = 0U;
 889:Middlewares/ST/STM32_USB_Device_Library/Class/DFU/Src/usbd_dfu.c ****         hdfu->dev_status[4] = hdfu->dev_state;
 890:Middlewares/ST/STM32_USB_Device_Library/Class/DFU/Src/usbd_dfu.c **** 
 891:Middlewares/ST/STM32_USB_Device_Library/Class/DFU/Src/usbd_dfu.c ****         /* Call the error management function (command will be nacked */
 892:Middlewares/ST/STM32_USB_Device_Library/Class/DFU/Src/usbd_dfu.c ****         USBD_CtlError(pdev, req);
 893:Middlewares/ST/STM32_USB_Device_Library/Class/DFU/Src/usbd_dfu.c ****       }
 894:Middlewares/ST/STM32_USB_Device_Library/Class/DFU/Src/usbd_dfu.c ****     }
 895:Middlewares/ST/STM32_USB_Device_Library/Class/DFU/Src/usbd_dfu.c ****     /* Unsupported state */
 896:Middlewares/ST/STM32_USB_Device_Library/Class/DFU/Src/usbd_dfu.c ****     else
 897:Middlewares/ST/STM32_USB_Device_Library/Class/DFU/Src/usbd_dfu.c ****     {
 898:Middlewares/ST/STM32_USB_Device_Library/Class/DFU/Src/usbd_dfu.c ****       hdfu->wlength = 0U;
 899:Middlewares/ST/STM32_USB_Device_Library/Class/DFU/Src/usbd_dfu.c ****       hdfu->wblock_num = 0U;
 900:Middlewares/ST/STM32_USB_Device_Library/Class/DFU/Src/usbd_dfu.c ****       /* Call the error management function (command will be nacked */
 901:Middlewares/ST/STM32_USB_Device_Library/Class/DFU/Src/usbd_dfu.c ****       USBD_CtlError(pdev, req);
 902:Middlewares/ST/STM32_USB_Device_Library/Class/DFU/Src/usbd_dfu.c ****     }
 903:Middlewares/ST/STM32_USB_Device_Library/Class/DFU/Src/usbd_dfu.c ****   }
 904:Middlewares/ST/STM32_USB_Device_Library/Class/DFU/Src/usbd_dfu.c ****   /* No Data setup request */
 905:Middlewares/ST/STM32_USB_Device_Library/Class/DFU/Src/usbd_dfu.c ****   else
 906:Middlewares/ST/STM32_USB_Device_Library/Class/DFU/Src/usbd_dfu.c ****   {
 907:Middlewares/ST/STM32_USB_Device_Library/Class/DFU/Src/usbd_dfu.c ****     hdfu->dev_state = DFU_STATE_IDLE;
 908:Middlewares/ST/STM32_USB_Device_Library/Class/DFU/Src/usbd_dfu.c **** 
 909:Middlewares/ST/STM32_USB_Device_Library/Class/DFU/Src/usbd_dfu.c ****     hdfu->dev_status[1] = 0U;
 910:Middlewares/ST/STM32_USB_Device_Library/Class/DFU/Src/usbd_dfu.c ****     hdfu->dev_status[2] = 0U;
 911:Middlewares/ST/STM32_USB_Device_Library/Class/DFU/Src/usbd_dfu.c ****     hdfu->dev_status[3] = 0U;
 912:Middlewares/ST/STM32_USB_Device_Library/Class/DFU/Src/usbd_dfu.c ****     hdfu->dev_status[4] = hdfu->dev_state;
 913:Middlewares/ST/STM32_USB_Device_Library/Class/DFU/Src/usbd_dfu.c ****   }
 914:Middlewares/ST/STM32_USB_Device_Library/Class/DFU/Src/usbd_dfu.c **** }
 915:Middlewares/ST/STM32_USB_Device_Library/Class/DFU/Src/usbd_dfu.c **** 
ARM GAS  /tmp/cc2AD7kg.s 			page 21


 916:Middlewares/ST/STM32_USB_Device_Library/Class/DFU/Src/usbd_dfu.c **** /**
 917:Middlewares/ST/STM32_USB_Device_Library/Class/DFU/Src/usbd_dfu.c ****   * @brief  DFU_GetStatus
 918:Middlewares/ST/STM32_USB_Device_Library/Class/DFU/Src/usbd_dfu.c ****   *         Handles the DFU GETSTATUS request.
 919:Middlewares/ST/STM32_USB_Device_Library/Class/DFU/Src/usbd_dfu.c ****   * @param  pdev: instance
 920:Middlewares/ST/STM32_USB_Device_Library/Class/DFU/Src/usbd_dfu.c ****   * @retval status
 921:Middlewares/ST/STM32_USB_Device_Library/Class/DFU/Src/usbd_dfu.c ****   */
 922:Middlewares/ST/STM32_USB_Device_Library/Class/DFU/Src/usbd_dfu.c **** static void DFU_GetStatus(USBD_HandleTypeDef *pdev)
 923:Middlewares/ST/STM32_USB_Device_Library/Class/DFU/Src/usbd_dfu.c **** {
 924:Middlewares/ST/STM32_USB_Device_Library/Class/DFU/Src/usbd_dfu.c ****   USBD_DFU_HandleTypeDef   *hdfu;
 925:Middlewares/ST/STM32_USB_Device_Library/Class/DFU/Src/usbd_dfu.c **** 
 926:Middlewares/ST/STM32_USB_Device_Library/Class/DFU/Src/usbd_dfu.c ****   hdfu = (USBD_DFU_HandleTypeDef *) pdev->pClassData;
 927:Middlewares/ST/STM32_USB_Device_Library/Class/DFU/Src/usbd_dfu.c **** 
 928:Middlewares/ST/STM32_USB_Device_Library/Class/DFU/Src/usbd_dfu.c ****   switch (hdfu->dev_state)
 929:Middlewares/ST/STM32_USB_Device_Library/Class/DFU/Src/usbd_dfu.c ****   {
 930:Middlewares/ST/STM32_USB_Device_Library/Class/DFU/Src/usbd_dfu.c ****     case   DFU_STATE_DNLOAD_SYNC:
 931:Middlewares/ST/STM32_USB_Device_Library/Class/DFU/Src/usbd_dfu.c ****       if (hdfu->wlength != 0U)
 932:Middlewares/ST/STM32_USB_Device_Library/Class/DFU/Src/usbd_dfu.c ****       {
 933:Middlewares/ST/STM32_USB_Device_Library/Class/DFU/Src/usbd_dfu.c ****         hdfu->dev_state = DFU_STATE_DNLOAD_BUSY;
 934:Middlewares/ST/STM32_USB_Device_Library/Class/DFU/Src/usbd_dfu.c **** 
 935:Middlewares/ST/STM32_USB_Device_Library/Class/DFU/Src/usbd_dfu.c ****         hdfu->dev_status[1] = 0U;
 936:Middlewares/ST/STM32_USB_Device_Library/Class/DFU/Src/usbd_dfu.c ****         hdfu->dev_status[2] = 0U;
 937:Middlewares/ST/STM32_USB_Device_Library/Class/DFU/Src/usbd_dfu.c ****         hdfu->dev_status[3] = 0U;
 938:Middlewares/ST/STM32_USB_Device_Library/Class/DFU/Src/usbd_dfu.c ****         hdfu->dev_status[4] = hdfu->dev_state;
 939:Middlewares/ST/STM32_USB_Device_Library/Class/DFU/Src/usbd_dfu.c **** 
 940:Middlewares/ST/STM32_USB_Device_Library/Class/DFU/Src/usbd_dfu.c ****         if ((hdfu->wblock_num == 0U) && (hdfu->buffer.d8[0] == DFU_CMD_ERASE))
 941:Middlewares/ST/STM32_USB_Device_Library/Class/DFU/Src/usbd_dfu.c ****         {
 942:Middlewares/ST/STM32_USB_Device_Library/Class/DFU/Src/usbd_dfu.c ****           ((USBD_DFU_MediaTypeDef *)pdev->pUserData)->GetStatus(hdfu->data_ptr, DFU_MEDIA_ERASE, hd
 943:Middlewares/ST/STM32_USB_Device_Library/Class/DFU/Src/usbd_dfu.c ****         }
 944:Middlewares/ST/STM32_USB_Device_Library/Class/DFU/Src/usbd_dfu.c ****         else
 945:Middlewares/ST/STM32_USB_Device_Library/Class/DFU/Src/usbd_dfu.c ****         {
 946:Middlewares/ST/STM32_USB_Device_Library/Class/DFU/Src/usbd_dfu.c ****           ((USBD_DFU_MediaTypeDef *)pdev->pUserData)->GetStatus(hdfu->data_ptr, DFU_MEDIA_PROGRAM, 
 947:Middlewares/ST/STM32_USB_Device_Library/Class/DFU/Src/usbd_dfu.c ****         }
 948:Middlewares/ST/STM32_USB_Device_Library/Class/DFU/Src/usbd_dfu.c ****       }
 949:Middlewares/ST/STM32_USB_Device_Library/Class/DFU/Src/usbd_dfu.c ****       else  /* (hdfu->wlength==0)*/
 950:Middlewares/ST/STM32_USB_Device_Library/Class/DFU/Src/usbd_dfu.c ****       {
 951:Middlewares/ST/STM32_USB_Device_Library/Class/DFU/Src/usbd_dfu.c ****         hdfu->dev_state = DFU_STATE_DNLOAD_IDLE;
 952:Middlewares/ST/STM32_USB_Device_Library/Class/DFU/Src/usbd_dfu.c **** 
 953:Middlewares/ST/STM32_USB_Device_Library/Class/DFU/Src/usbd_dfu.c ****         hdfu->dev_status[1] = 0U;
 954:Middlewares/ST/STM32_USB_Device_Library/Class/DFU/Src/usbd_dfu.c ****         hdfu->dev_status[2] = 0U;
 955:Middlewares/ST/STM32_USB_Device_Library/Class/DFU/Src/usbd_dfu.c ****         hdfu->dev_status[3] = 0U;
 956:Middlewares/ST/STM32_USB_Device_Library/Class/DFU/Src/usbd_dfu.c ****         hdfu->dev_status[4] = hdfu->dev_state;
 957:Middlewares/ST/STM32_USB_Device_Library/Class/DFU/Src/usbd_dfu.c ****       }
 958:Middlewares/ST/STM32_USB_Device_Library/Class/DFU/Src/usbd_dfu.c ****       break;
 959:Middlewares/ST/STM32_USB_Device_Library/Class/DFU/Src/usbd_dfu.c **** 
 960:Middlewares/ST/STM32_USB_Device_Library/Class/DFU/Src/usbd_dfu.c ****     case   DFU_STATE_MANIFEST_SYNC :
 961:Middlewares/ST/STM32_USB_Device_Library/Class/DFU/Src/usbd_dfu.c ****       if (hdfu->manif_state == DFU_MANIFEST_IN_PROGRESS)
 962:Middlewares/ST/STM32_USB_Device_Library/Class/DFU/Src/usbd_dfu.c ****       {
 963:Middlewares/ST/STM32_USB_Device_Library/Class/DFU/Src/usbd_dfu.c ****         hdfu->dev_state = DFU_STATE_MANIFEST;
 964:Middlewares/ST/STM32_USB_Device_Library/Class/DFU/Src/usbd_dfu.c **** 
 965:Middlewares/ST/STM32_USB_Device_Library/Class/DFU/Src/usbd_dfu.c ****         hdfu->dev_status[1] = 1U;             /*bwPollTimeout = 1ms*/
 966:Middlewares/ST/STM32_USB_Device_Library/Class/DFU/Src/usbd_dfu.c ****         hdfu->dev_status[2] = 0U;
 967:Middlewares/ST/STM32_USB_Device_Library/Class/DFU/Src/usbd_dfu.c ****         hdfu->dev_status[3] = 0U;
 968:Middlewares/ST/STM32_USB_Device_Library/Class/DFU/Src/usbd_dfu.c ****         hdfu->dev_status[4] = hdfu->dev_state;
 969:Middlewares/ST/STM32_USB_Device_Library/Class/DFU/Src/usbd_dfu.c ****       }
 970:Middlewares/ST/STM32_USB_Device_Library/Class/DFU/Src/usbd_dfu.c ****       else
 971:Middlewares/ST/STM32_USB_Device_Library/Class/DFU/Src/usbd_dfu.c ****       {
 972:Middlewares/ST/STM32_USB_Device_Library/Class/DFU/Src/usbd_dfu.c ****         if ((hdfu->manif_state == DFU_MANIFEST_COMPLETE) &&
ARM GAS  /tmp/cc2AD7kg.s 			page 22


 973:Middlewares/ST/STM32_USB_Device_Library/Class/DFU/Src/usbd_dfu.c ****             ((USBD_DFU_CfgDesc[(11U + (9U * USBD_DFU_MAX_ITF_NUM))]) & 0x04U))
 974:Middlewares/ST/STM32_USB_Device_Library/Class/DFU/Src/usbd_dfu.c ****         {
 975:Middlewares/ST/STM32_USB_Device_Library/Class/DFU/Src/usbd_dfu.c ****           hdfu->dev_state = DFU_STATE_IDLE;
 976:Middlewares/ST/STM32_USB_Device_Library/Class/DFU/Src/usbd_dfu.c **** 
 977:Middlewares/ST/STM32_USB_Device_Library/Class/DFU/Src/usbd_dfu.c ****           hdfu->dev_status[1] = 0U;
 978:Middlewares/ST/STM32_USB_Device_Library/Class/DFU/Src/usbd_dfu.c ****           hdfu->dev_status[2] = 0U;
 979:Middlewares/ST/STM32_USB_Device_Library/Class/DFU/Src/usbd_dfu.c ****           hdfu->dev_status[3] = 0U;
 980:Middlewares/ST/STM32_USB_Device_Library/Class/DFU/Src/usbd_dfu.c ****           hdfu->dev_status[4] = hdfu->dev_state;
 981:Middlewares/ST/STM32_USB_Device_Library/Class/DFU/Src/usbd_dfu.c ****         }
 982:Middlewares/ST/STM32_USB_Device_Library/Class/DFU/Src/usbd_dfu.c ****       }
 983:Middlewares/ST/STM32_USB_Device_Library/Class/DFU/Src/usbd_dfu.c ****       break;
 984:Middlewares/ST/STM32_USB_Device_Library/Class/DFU/Src/usbd_dfu.c **** 
 985:Middlewares/ST/STM32_USB_Device_Library/Class/DFU/Src/usbd_dfu.c ****     default :
 986:Middlewares/ST/STM32_USB_Device_Library/Class/DFU/Src/usbd_dfu.c ****       break;
 987:Middlewares/ST/STM32_USB_Device_Library/Class/DFU/Src/usbd_dfu.c ****   }
 988:Middlewares/ST/STM32_USB_Device_Library/Class/DFU/Src/usbd_dfu.c **** 
 989:Middlewares/ST/STM32_USB_Device_Library/Class/DFU/Src/usbd_dfu.c ****   /* Send the status data over EP0 */
 990:Middlewares/ST/STM32_USB_Device_Library/Class/DFU/Src/usbd_dfu.c ****   USBD_CtlSendData(pdev, (uint8_t *)(&(hdfu->dev_status[0])), 6U);
 991:Middlewares/ST/STM32_USB_Device_Library/Class/DFU/Src/usbd_dfu.c **** }
 992:Middlewares/ST/STM32_USB_Device_Library/Class/DFU/Src/usbd_dfu.c **** 
 993:Middlewares/ST/STM32_USB_Device_Library/Class/DFU/Src/usbd_dfu.c **** /**
 994:Middlewares/ST/STM32_USB_Device_Library/Class/DFU/Src/usbd_dfu.c ****   * @brief  DFU_ClearStatus
 995:Middlewares/ST/STM32_USB_Device_Library/Class/DFU/Src/usbd_dfu.c ****   *         Handles the DFU CLRSTATUS request.
 996:Middlewares/ST/STM32_USB_Device_Library/Class/DFU/Src/usbd_dfu.c ****   * @param  pdev: device instance
 997:Middlewares/ST/STM32_USB_Device_Library/Class/DFU/Src/usbd_dfu.c ****   * @retval status
 998:Middlewares/ST/STM32_USB_Device_Library/Class/DFU/Src/usbd_dfu.c ****   */
 999:Middlewares/ST/STM32_USB_Device_Library/Class/DFU/Src/usbd_dfu.c **** static void DFU_ClearStatus(USBD_HandleTypeDef *pdev)
1000:Middlewares/ST/STM32_USB_Device_Library/Class/DFU/Src/usbd_dfu.c **** {
 243              		.loc 1 1000 1 is_stmt 1 view -0
 244              		.cfi_startproc
 245              		@ args = 0, pretend = 0, frame = 0
 246              		@ frame_needed = 0, uses_anonymous_args = 0
 247              		@ link register save eliminated.
1001:Middlewares/ST/STM32_USB_Device_Library/Class/DFU/Src/usbd_dfu.c ****   USBD_DFU_HandleTypeDef   *hdfu;
 248              		.loc 1 1001 3 view .LVU37
1002:Middlewares/ST/STM32_USB_Device_Library/Class/DFU/Src/usbd_dfu.c **** 
1003:Middlewares/ST/STM32_USB_Device_Library/Class/DFU/Src/usbd_dfu.c ****   hdfu = (USBD_DFU_HandleTypeDef *) pdev->pClassData;
 249              		.loc 1 1003 3 view .LVU38
 250              		.loc 1 1003 8 is_stmt 0 view .LVU39
 251 0000 AE23     		movs	r3, #174
 252 0002 9B00     		lsls	r3, r3, #2
 253 0004 C358     		ldr	r3, [r0, r3]
 254              	.LVL17:
1004:Middlewares/ST/STM32_USB_Device_Library/Class/DFU/Src/usbd_dfu.c **** 
1005:Middlewares/ST/STM32_USB_Device_Library/Class/DFU/Src/usbd_dfu.c ****   if (hdfu->dev_state == DFU_STATE_ERROR)
 255              		.loc 1 1005 3 is_stmt 1 view .LVU40
 256              		.loc 1 1005 11 is_stmt 0 view .LVU41
 257 0006 8322     		movs	r2, #131
 258 0008 D200     		lsls	r2, r2, #3
 259 000a 9A5C     		ldrb	r2, [r3, r2]
 260              		.loc 1 1005 6 view .LVU42
 261 000c 0A2A     		cmp	r2, #10
 262 000e 12D0     		beq	.L16
1006:Middlewares/ST/STM32_USB_Device_Library/Class/DFU/Src/usbd_dfu.c ****   {
1007:Middlewares/ST/STM32_USB_Device_Library/Class/DFU/Src/usbd_dfu.c ****     hdfu->dev_state = DFU_STATE_IDLE;
1008:Middlewares/ST/STM32_USB_Device_Library/Class/DFU/Src/usbd_dfu.c ****     hdfu->dev_status[0] = DFU_ERROR_NONE;/*bStatus*/
1009:Middlewares/ST/STM32_USB_Device_Library/Class/DFU/Src/usbd_dfu.c ****     hdfu->dev_status[1] = 0U;
ARM GAS  /tmp/cc2AD7kg.s 			page 23


1010:Middlewares/ST/STM32_USB_Device_Library/Class/DFU/Src/usbd_dfu.c ****     hdfu->dev_status[2] = 0U;
1011:Middlewares/ST/STM32_USB_Device_Library/Class/DFU/Src/usbd_dfu.c ****     hdfu->dev_status[3] = 0U; /*bwPollTimeout=0ms*/
1012:Middlewares/ST/STM32_USB_Device_Library/Class/DFU/Src/usbd_dfu.c ****     hdfu->dev_status[4] = hdfu->dev_state;/*bState*/
1013:Middlewares/ST/STM32_USB_Device_Library/Class/DFU/Src/usbd_dfu.c ****     hdfu->dev_status[5] = 0U;/*iString*/
1014:Middlewares/ST/STM32_USB_Device_Library/Class/DFU/Src/usbd_dfu.c ****   }
1015:Middlewares/ST/STM32_USB_Device_Library/Class/DFU/Src/usbd_dfu.c ****   else
1016:Middlewares/ST/STM32_USB_Device_Library/Class/DFU/Src/usbd_dfu.c ****   {
1017:Middlewares/ST/STM32_USB_Device_Library/Class/DFU/Src/usbd_dfu.c ****     /*State Error*/
1018:Middlewares/ST/STM32_USB_Device_Library/Class/DFU/Src/usbd_dfu.c ****     hdfu->dev_state = DFU_STATE_ERROR;
 263              		.loc 1 1018 5 is_stmt 1 view .LVU43
 264              		.loc 1 1018 21 is_stmt 0 view .LVU44
 265 0010 0A21     		movs	r1, #10
 266 0012 8322     		movs	r2, #131
 267 0014 D200     		lsls	r2, r2, #3
 268 0016 9954     		strb	r1, [r3, r2]
1019:Middlewares/ST/STM32_USB_Device_Library/Class/DFU/Src/usbd_dfu.c ****     hdfu->dev_status[0] = DFU_ERROR_UNKNOWN;/*bStatus*/
 269              		.loc 1 1019 5 is_stmt 1 view .LVU45
 270              		.loc 1 1019 25 is_stmt 0 view .LVU46
 271 0018 083A     		subs	r2, r2, #8
 272 001a 0E20     		movs	r0, #14
 273              	.LVL18:
 274              		.loc 1 1019 25 view .LVU47
 275 001c 9854     		strb	r0, [r3, r2]
1020:Middlewares/ST/STM32_USB_Device_Library/Class/DFU/Src/usbd_dfu.c ****     hdfu->dev_status[1] = 0U;
 276              		.loc 1 1020 5 is_stmt 1 view .LVU48
 277              		.loc 1 1020 25 is_stmt 0 view .LVU49
 278 001e 0022     		movs	r2, #0
 279 0020 0E48     		ldr	r0, .L17
 280 0022 1A54     		strb	r2, [r3, r0]
1021:Middlewares/ST/STM32_USB_Device_Library/Class/DFU/Src/usbd_dfu.c ****     hdfu->dev_status[2] = 0U;
 281              		.loc 1 1021 5 is_stmt 1 view .LVU50
 282              		.loc 1 1021 25 is_stmt 0 view .LVU51
 283 0024 0E48     		ldr	r0, .L17+4
 284 0026 1A54     		strb	r2, [r3, r0]
1022:Middlewares/ST/STM32_USB_Device_Library/Class/DFU/Src/usbd_dfu.c ****     hdfu->dev_status[3] = 0U; /*bwPollTimeout=0ms*/
 285              		.loc 1 1022 5 is_stmt 1 view .LVU52
 286              		.loc 1 1022 25 is_stmt 0 view .LVU53
 287 0028 0E48     		ldr	r0, .L17+8
 288 002a 1A54     		strb	r2, [r3, r0]
1023:Middlewares/ST/STM32_USB_Device_Library/Class/DFU/Src/usbd_dfu.c ****     hdfu->dev_status[4] = hdfu->dev_state;/*bState*/
 289              		.loc 1 1023 5 is_stmt 1 view .LVU54
 290              		.loc 1 1023 25 is_stmt 0 view .LVU55
 291 002c 0E48     		ldr	r0, .L17+12
 292 002e 1954     		strb	r1, [r3, r0]
1024:Middlewares/ST/STM32_USB_Device_Library/Class/DFU/Src/usbd_dfu.c ****     hdfu->dev_status[5] = 0U;/*iString*/
 293              		.loc 1 1024 5 is_stmt 1 view .LVU56
 294              		.loc 1 1024 25 is_stmt 0 view .LVU57
 295 0030 0E49     		ldr	r1, .L17+16
 296 0032 5A54     		strb	r2, [r3, r1]
 297              	.L13:
1025:Middlewares/ST/STM32_USB_Device_Library/Class/DFU/Src/usbd_dfu.c ****   }
1026:Middlewares/ST/STM32_USB_Device_Library/Class/DFU/Src/usbd_dfu.c **** }
 298              		.loc 1 1026 1 view .LVU58
 299              		@ sp needed
 300 0034 7047     		bx	lr
 301              	.LVL19:
 302              	.L16:
ARM GAS  /tmp/cc2AD7kg.s 			page 24


1007:Middlewares/ST/STM32_USB_Device_Library/Class/DFU/Src/usbd_dfu.c ****     hdfu->dev_status[0] = DFU_ERROR_NONE;/*bStatus*/
 303              		.loc 1 1007 5 is_stmt 1 view .LVU59
1007:Middlewares/ST/STM32_USB_Device_Library/Class/DFU/Src/usbd_dfu.c ****     hdfu->dev_status[0] = DFU_ERROR_NONE;/*bStatus*/
 304              		.loc 1 1007 21 is_stmt 0 view .LVU60
 305 0036 0221     		movs	r1, #2
 306 0038 8322     		movs	r2, #131
 307 003a D200     		lsls	r2, r2, #3
 308 003c 9954     		strb	r1, [r3, r2]
1008:Middlewares/ST/STM32_USB_Device_Library/Class/DFU/Src/usbd_dfu.c ****     hdfu->dev_status[1] = 0U;
 309              		.loc 1 1008 5 is_stmt 1 view .LVU61
1008:Middlewares/ST/STM32_USB_Device_Library/Class/DFU/Src/usbd_dfu.c ****     hdfu->dev_status[1] = 0U;
 310              		.loc 1 1008 25 is_stmt 0 view .LVU62
 311 003e 0022     		movs	r2, #0
 312 0040 8220     		movs	r0, #130
 313              	.LVL20:
1008:Middlewares/ST/STM32_USB_Device_Library/Class/DFU/Src/usbd_dfu.c ****     hdfu->dev_status[1] = 0U;
 314              		.loc 1 1008 25 view .LVU63
 315 0042 C000     		lsls	r0, r0, #3
 316 0044 1A54     		strb	r2, [r3, r0]
1009:Middlewares/ST/STM32_USB_Device_Library/Class/DFU/Src/usbd_dfu.c ****     hdfu->dev_status[2] = 0U;
 317              		.loc 1 1009 5 is_stmt 1 view .LVU64
1009:Middlewares/ST/STM32_USB_Device_Library/Class/DFU/Src/usbd_dfu.c ****     hdfu->dev_status[2] = 0U;
 318              		.loc 1 1009 25 is_stmt 0 view .LVU65
 319 0046 0548     		ldr	r0, .L17
 320 0048 1A54     		strb	r2, [r3, r0]
1010:Middlewares/ST/STM32_USB_Device_Library/Class/DFU/Src/usbd_dfu.c ****     hdfu->dev_status[3] = 0U; /*bwPollTimeout=0ms*/
 321              		.loc 1 1010 5 is_stmt 1 view .LVU66
1010:Middlewares/ST/STM32_USB_Device_Library/Class/DFU/Src/usbd_dfu.c ****     hdfu->dev_status[3] = 0U; /*bwPollTimeout=0ms*/
 322              		.loc 1 1010 25 is_stmt 0 view .LVU67
 323 004a 0548     		ldr	r0, .L17+4
 324 004c 1A54     		strb	r2, [r3, r0]
1011:Middlewares/ST/STM32_USB_Device_Library/Class/DFU/Src/usbd_dfu.c ****     hdfu->dev_status[4] = hdfu->dev_state;/*bState*/
 325              		.loc 1 1011 5 is_stmt 1 view .LVU68
1011:Middlewares/ST/STM32_USB_Device_Library/Class/DFU/Src/usbd_dfu.c ****     hdfu->dev_status[4] = hdfu->dev_state;/*bState*/
 326              		.loc 1 1011 25 is_stmt 0 view .LVU69
 327 004e 0548     		ldr	r0, .L17+8
 328 0050 1A54     		strb	r2, [r3, r0]
1012:Middlewares/ST/STM32_USB_Device_Library/Class/DFU/Src/usbd_dfu.c ****     hdfu->dev_status[5] = 0U;/*iString*/
 329              		.loc 1 1012 5 is_stmt 1 view .LVU70
1012:Middlewares/ST/STM32_USB_Device_Library/Class/DFU/Src/usbd_dfu.c ****     hdfu->dev_status[5] = 0U;/*iString*/
 330              		.loc 1 1012 25 is_stmt 0 view .LVU71
 331 0052 0548     		ldr	r0, .L17+12
 332 0054 1954     		strb	r1, [r3, r0]
1013:Middlewares/ST/STM32_USB_Device_Library/Class/DFU/Src/usbd_dfu.c ****   }
 333              		.loc 1 1013 5 is_stmt 1 view .LVU72
1013:Middlewares/ST/STM32_USB_Device_Library/Class/DFU/Src/usbd_dfu.c ****   }
 334              		.loc 1 1013 25 is_stmt 0 view .LVU73
 335 0056 0549     		ldr	r1, .L17+16
 336 0058 5A54     		strb	r2, [r3, r1]
 337 005a EBE7     		b	.L13
 338              	.L18:
 339              		.align	2
 340              	.L17:
 341 005c 11040000 		.word	1041
 342 0060 12040000 		.word	1042
 343 0064 13040000 		.word	1043
 344 0068 14040000 		.word	1044
ARM GAS  /tmp/cc2AD7kg.s 			page 25


 345 006c 15040000 		.word	1045
 346              		.cfi_endproc
 347              	.LFE61:
 349              		.section	.text.DFU_Abort,"ax",%progbits
 350              		.align	1
 351              		.syntax unified
 352              		.code	16
 353              		.thumb_func
 354              		.fpu softvfp
 356              	DFU_Abort:
 357              	.LVL21:
 358              	.LFB63:
1027:Middlewares/ST/STM32_USB_Device_Library/Class/DFU/Src/usbd_dfu.c **** 
1028:Middlewares/ST/STM32_USB_Device_Library/Class/DFU/Src/usbd_dfu.c **** /**
1029:Middlewares/ST/STM32_USB_Device_Library/Class/DFU/Src/usbd_dfu.c ****   * @brief  DFU_GetState
1030:Middlewares/ST/STM32_USB_Device_Library/Class/DFU/Src/usbd_dfu.c ****   *         Handles the DFU GETSTATE request.
1031:Middlewares/ST/STM32_USB_Device_Library/Class/DFU/Src/usbd_dfu.c ****   * @param  pdev: device instance
1032:Middlewares/ST/STM32_USB_Device_Library/Class/DFU/Src/usbd_dfu.c ****   * @retval None
1033:Middlewares/ST/STM32_USB_Device_Library/Class/DFU/Src/usbd_dfu.c ****   */
1034:Middlewares/ST/STM32_USB_Device_Library/Class/DFU/Src/usbd_dfu.c **** static void DFU_GetState(USBD_HandleTypeDef *pdev)
1035:Middlewares/ST/STM32_USB_Device_Library/Class/DFU/Src/usbd_dfu.c **** {
1036:Middlewares/ST/STM32_USB_Device_Library/Class/DFU/Src/usbd_dfu.c ****   USBD_DFU_HandleTypeDef   *hdfu;
1037:Middlewares/ST/STM32_USB_Device_Library/Class/DFU/Src/usbd_dfu.c **** 
1038:Middlewares/ST/STM32_USB_Device_Library/Class/DFU/Src/usbd_dfu.c ****   hdfu = (USBD_DFU_HandleTypeDef *) pdev->pClassData;
1039:Middlewares/ST/STM32_USB_Device_Library/Class/DFU/Src/usbd_dfu.c **** 
1040:Middlewares/ST/STM32_USB_Device_Library/Class/DFU/Src/usbd_dfu.c ****   /* Return the current state of the DFU interface */
1041:Middlewares/ST/STM32_USB_Device_Library/Class/DFU/Src/usbd_dfu.c ****   USBD_CtlSendData(pdev, &hdfu->dev_state, 1U);
1042:Middlewares/ST/STM32_USB_Device_Library/Class/DFU/Src/usbd_dfu.c **** }
1043:Middlewares/ST/STM32_USB_Device_Library/Class/DFU/Src/usbd_dfu.c **** 
1044:Middlewares/ST/STM32_USB_Device_Library/Class/DFU/Src/usbd_dfu.c **** /**
1045:Middlewares/ST/STM32_USB_Device_Library/Class/DFU/Src/usbd_dfu.c ****   * @brief  DFU_Abort
1046:Middlewares/ST/STM32_USB_Device_Library/Class/DFU/Src/usbd_dfu.c ****   *         Handles the DFU ABORT request.
1047:Middlewares/ST/STM32_USB_Device_Library/Class/DFU/Src/usbd_dfu.c ****   * @param  pdev: device instance
1048:Middlewares/ST/STM32_USB_Device_Library/Class/DFU/Src/usbd_dfu.c ****   * @retval None
1049:Middlewares/ST/STM32_USB_Device_Library/Class/DFU/Src/usbd_dfu.c ****   */
1050:Middlewares/ST/STM32_USB_Device_Library/Class/DFU/Src/usbd_dfu.c **** static void DFU_Abort(USBD_HandleTypeDef *pdev)
1051:Middlewares/ST/STM32_USB_Device_Library/Class/DFU/Src/usbd_dfu.c **** {
 359              		.loc 1 1051 1 is_stmt 1 view -0
 360              		.cfi_startproc
 361              		@ args = 0, pretend = 0, frame = 0
 362              		@ frame_needed = 0, uses_anonymous_args = 0
 363              		@ link register save eliminated.
1052:Middlewares/ST/STM32_USB_Device_Library/Class/DFU/Src/usbd_dfu.c ****   USBD_DFU_HandleTypeDef   *hdfu;
 364              		.loc 1 1052 3 view .LVU75
1053:Middlewares/ST/STM32_USB_Device_Library/Class/DFU/Src/usbd_dfu.c **** 
1054:Middlewares/ST/STM32_USB_Device_Library/Class/DFU/Src/usbd_dfu.c ****   hdfu = (USBD_DFU_HandleTypeDef *) pdev->pClassData;
 365              		.loc 1 1054 3 view .LVU76
 366              		.loc 1 1054 8 is_stmt 0 view .LVU77
 367 0000 AE23     		movs	r3, #174
 368 0002 9B00     		lsls	r3, r3, #2
 369 0004 C358     		ldr	r3, [r0, r3]
 370              	.LVL22:
1055:Middlewares/ST/STM32_USB_Device_Library/Class/DFU/Src/usbd_dfu.c **** 
1056:Middlewares/ST/STM32_USB_Device_Library/Class/DFU/Src/usbd_dfu.c ****   if (hdfu->dev_state == DFU_STATE_IDLE || hdfu->dev_state == DFU_STATE_DNLOAD_SYNC
 371              		.loc 1 1056 3 is_stmt 1 view .LVU78
 372              		.loc 1 1056 11 is_stmt 0 view .LVU79
 373 0006 8322     		movs	r2, #131
ARM GAS  /tmp/cc2AD7kg.s 			page 26


 374 0008 D200     		lsls	r2, r2, #3
 375 000a 995C     		ldrb	r1, [r3, r2]
 376              		.loc 1 1056 41 view .LVU80
 377 000c 8A1E     		subs	r2, r1, #2
 378 000e D2B2     		uxtb	r2, r2
 379              		.loc 1 1056 6 view .LVU81
 380 0010 012A     		cmp	r2, #1
 381 0012 05D9     		bls	.L20
1057:Middlewares/ST/STM32_USB_Device_Library/Class/DFU/Src/usbd_dfu.c ****       || hdfu->dev_state == DFU_STATE_DNLOAD_IDLE || hdfu->dev_state == DFU_STATE_MANIFEST_SYNC
 382              		.loc 1 1057 7 view .LVU82
 383 0014 0529     		cmp	r1, #5
 384 0016 03D0     		beq	.L20
 385              		.loc 1 1057 51 discriminator 1 view .LVU83
 386 0018 0629     		cmp	r1, #6
 387 001a 01D0     		beq	.L20
1058:Middlewares/ST/STM32_USB_Device_Library/Class/DFU/Src/usbd_dfu.c ****       || hdfu->dev_state == DFU_STATE_UPLOAD_IDLE)
 388              		.loc 1 1058 7 view .LVU84
 389 001c 0929     		cmp	r1, #9
 390 001e 15D1     		bne	.L19
 391              	.L20:
1059:Middlewares/ST/STM32_USB_Device_Library/Class/DFU/Src/usbd_dfu.c ****   {
1060:Middlewares/ST/STM32_USB_Device_Library/Class/DFU/Src/usbd_dfu.c ****     hdfu->dev_state = DFU_STATE_IDLE;
 392              		.loc 1 1060 5 is_stmt 1 view .LVU85
 393              		.loc 1 1060 21 is_stmt 0 view .LVU86
 394 0020 0221     		movs	r1, #2
 395 0022 8322     		movs	r2, #131
 396 0024 D200     		lsls	r2, r2, #3
 397 0026 9954     		strb	r1, [r3, r2]
1061:Middlewares/ST/STM32_USB_Device_Library/Class/DFU/Src/usbd_dfu.c ****     hdfu->dev_status[0] = DFU_ERROR_NONE;
 398              		.loc 1 1061 5 is_stmt 1 view .LVU87
 399              		.loc 1 1061 25 is_stmt 0 view .LVU88
 400 0028 0022     		movs	r2, #0
 401 002a 8220     		movs	r0, #130
 402              	.LVL23:
 403              		.loc 1 1061 25 view .LVU89
 404 002c C000     		lsls	r0, r0, #3
 405 002e 1A54     		strb	r2, [r3, r0]
1062:Middlewares/ST/STM32_USB_Device_Library/Class/DFU/Src/usbd_dfu.c ****     hdfu->dev_status[1] = 0U;
 406              		.loc 1 1062 5 is_stmt 1 view .LVU90
 407              		.loc 1 1062 25 is_stmt 0 view .LVU91
 408 0030 0748     		ldr	r0, .L22
 409 0032 1A54     		strb	r2, [r3, r0]
1063:Middlewares/ST/STM32_USB_Device_Library/Class/DFU/Src/usbd_dfu.c ****     hdfu->dev_status[2] = 0U;
 410              		.loc 1 1063 5 is_stmt 1 view .LVU92
 411              		.loc 1 1063 25 is_stmt 0 view .LVU93
 412 0034 0748     		ldr	r0, .L22+4
 413 0036 1A54     		strb	r2, [r3, r0]
1064:Middlewares/ST/STM32_USB_Device_Library/Class/DFU/Src/usbd_dfu.c ****     hdfu->dev_status[3] = 0U; /*bwPollTimeout=0ms*/
 414              		.loc 1 1064 5 is_stmt 1 view .LVU94
 415              		.loc 1 1064 25 is_stmt 0 view .LVU95
 416 0038 0748     		ldr	r0, .L22+8
 417 003a 1A54     		strb	r2, [r3, r0]
1065:Middlewares/ST/STM32_USB_Device_Library/Class/DFU/Src/usbd_dfu.c ****     hdfu->dev_status[4] = hdfu->dev_state;
 418              		.loc 1 1065 5 is_stmt 1 view .LVU96
 419              		.loc 1 1065 25 is_stmt 0 view .LVU97
 420 003c 0748     		ldr	r0, .L22+12
 421 003e 1954     		strb	r1, [r3, r0]
ARM GAS  /tmp/cc2AD7kg.s 			page 27


1066:Middlewares/ST/STM32_USB_Device_Library/Class/DFU/Src/usbd_dfu.c ****     hdfu->dev_status[5] = 0U; /*iString*/
 422              		.loc 1 1066 5 is_stmt 1 view .LVU98
 423              		.loc 1 1066 25 is_stmt 0 view .LVU99
 424 0040 0749     		ldr	r1, .L22+16
 425 0042 5A54     		strb	r2, [r3, r1]
1067:Middlewares/ST/STM32_USB_Device_Library/Class/DFU/Src/usbd_dfu.c ****     hdfu->wblock_num = 0U;
 426              		.loc 1 1067 5 is_stmt 1 view .LVU100
 427              		.loc 1 1067 22 is_stmt 0 view .LVU101
 428 0044 1539     		subs	r1, r1, #21
 429 0046 5A50     		str	r2, [r3, r1]
1068:Middlewares/ST/STM32_USB_Device_Library/Class/DFU/Src/usbd_dfu.c ****     hdfu->wlength = 0U;
 430              		.loc 1 1068 5 is_stmt 1 view .LVU102
 431              		.loc 1 1068 19 is_stmt 0 view .LVU103
 432 0048 0649     		ldr	r1, .L22+20
 433 004a 5A50     		str	r2, [r3, r1]
 434              	.L19:
1069:Middlewares/ST/STM32_USB_Device_Library/Class/DFU/Src/usbd_dfu.c ****   }
1070:Middlewares/ST/STM32_USB_Device_Library/Class/DFU/Src/usbd_dfu.c **** }
 435              		.loc 1 1070 1 view .LVU104
 436              		@ sp needed
 437 004c 7047     		bx	lr
 438              	.L23:
 439 004e C046     		.align	2
 440              	.L22:
 441 0050 11040000 		.word	1041
 442 0054 12040000 		.word	1042
 443 0058 13040000 		.word	1043
 444 005c 14040000 		.word	1044
 445 0060 15040000 		.word	1045
 446 0064 04040000 		.word	1028
 447              		.cfi_endproc
 448              	.LFE63:
 450              		.section	.text.USBD_DFU_GetUsrStringDesc,"ax",%progbits
 451              		.align	1
 452              		.syntax unified
 453              		.code	16
 454              		.thumb_func
 455              		.fpu softvfp
 457              	USBD_DFU_GetUsrStringDesc:
 458              	.LVL24:
 459              	.LFB55:
 686:Middlewares/ST/STM32_USB_Device_Library/Class/DFU/Src/usbd_dfu.c ****   static uint8_t USBD_StrDesc[255];
 460              		.loc 1 686 1 is_stmt 1 view -0
 461              		.cfi_startproc
 462              		@ args = 0, pretend = 0, frame = 0
 463              		@ frame_needed = 0, uses_anonymous_args = 0
 686:Middlewares/ST/STM32_USB_Device_Library/Class/DFU/Src/usbd_dfu.c ****   static uint8_t USBD_StrDesc[255];
 464              		.loc 1 686 1 is_stmt 0 view .LVU106
 465 0000 10B5     		push	{r4, lr}
 466              	.LCFI0:
 467              		.cfi_def_cfa_offset 8
 468              		.cfi_offset 4, -8
 469              		.cfi_offset 14, -4
 687:Middlewares/ST/STM32_USB_Device_Library/Class/DFU/Src/usbd_dfu.c ****   /* Check if the requested string interface is supported */
 470              		.loc 1 687 3 is_stmt 1 view .LVU107
 689:Middlewares/ST/STM32_USB_Device_Library/Class/DFU/Src/usbd_dfu.c ****   {
 471              		.loc 1 689 3 view .LVU108
ARM GAS  /tmp/cc2AD7kg.s 			page 28


 689:Middlewares/ST/STM32_USB_Device_Library/Class/DFU/Src/usbd_dfu.c ****   {
 472              		.loc 1 689 6 is_stmt 0 view .LVU109
 473 0002 0629     		cmp	r1, #6
 474 0004 09D8     		bhi	.L26
 691:Middlewares/ST/STM32_USB_Device_Library/Class/DFU/Src/usbd_dfu.c ****     return USBD_StrDesc;
 475              		.loc 1 691 5 is_stmt 1 view .LVU110
 691:Middlewares/ST/STM32_USB_Device_Library/Class/DFU/Src/usbd_dfu.c ****     return USBD_StrDesc;
 476              		.loc 1 691 61 is_stmt 0 view .LVU111
 477 0006 AF23     		movs	r3, #175
 478 0008 9B00     		lsls	r3, r3, #2
 479 000a C358     		ldr	r3, [r0, r3]
 691:Middlewares/ST/STM32_USB_Device_Library/Class/DFU/Src/usbd_dfu.c ****     return USBD_StrDesc;
 480              		.loc 1 691 73 view .LVU112
 481 000c 1868     		ldr	r0, [r3]
 482              	.LVL25:
 691:Middlewares/ST/STM32_USB_Device_Library/Class/DFU/Src/usbd_dfu.c ****     return USBD_StrDesc;
 483              		.loc 1 691 5 view .LVU113
 484 000e 044C     		ldr	r4, .L27
 485 0010 2100     		movs	r1, r4
 486              	.LVL26:
 691:Middlewares/ST/STM32_USB_Device_Library/Class/DFU/Src/usbd_dfu.c ****     return USBD_StrDesc;
 487              		.loc 1 691 5 view .LVU114
 488 0012 FFF7FEFF 		bl	USBD_GetString
 489              	.LVL27:
 692:Middlewares/ST/STM32_USB_Device_Library/Class/DFU/Src/usbd_dfu.c ****   }
 490              		.loc 1 692 5 is_stmt 1 view .LVU115
 692:Middlewares/ST/STM32_USB_Device_Library/Class/DFU/Src/usbd_dfu.c ****   }
 491              		.loc 1 692 12 is_stmt 0 view .LVU116
 492 0016 2000     		movs	r0, r4
 493              	.L24:
 699:Middlewares/ST/STM32_USB_Device_Library/Class/DFU/Src/usbd_dfu.c **** #endif
 494              		.loc 1 699 1 view .LVU117
 495              		@ sp needed
 496 0018 10BD     		pop	{r4, pc}
 497              	.LVL28:
 498              	.L26:
 697:Middlewares/ST/STM32_USB_Device_Library/Class/DFU/Src/usbd_dfu.c ****   }
 499              		.loc 1 697 12 view .LVU118
 500 001a 0020     		movs	r0, #0
 501              	.LVL29:
 697:Middlewares/ST/STM32_USB_Device_Library/Class/DFU/Src/usbd_dfu.c ****   }
 502              		.loc 1 697 12 view .LVU119
 503 001c FCE7     		b	.L24
 504              	.L28:
 505 001e C046     		.align	2
 506              	.L27:
 507 0020 00000000 		.word	USBD_StrDesc.0
 508              		.cfi_endproc
 509              	.LFE55:
 511              		.section	.text.DFU_Leave,"ax",%progbits
 512              		.align	1
 513              		.syntax unified
 514              		.code	16
 515              		.thumb_func
 516              		.fpu softvfp
 518              	DFU_Leave:
 519              	.LVL30:
ARM GAS  /tmp/cc2AD7kg.s 			page 29


 520              	.LFB64:
1071:Middlewares/ST/STM32_USB_Device_Library/Class/DFU/Src/usbd_dfu.c **** 
1072:Middlewares/ST/STM32_USB_Device_Library/Class/DFU/Src/usbd_dfu.c **** /**
1073:Middlewares/ST/STM32_USB_Device_Library/Class/DFU/Src/usbd_dfu.c ****   * @brief  DFU_Leave
1074:Middlewares/ST/STM32_USB_Device_Library/Class/DFU/Src/usbd_dfu.c ****   *         Handles the sub-protocol DFU leave DFU mode request (leaves DFU mode
1075:Middlewares/ST/STM32_USB_Device_Library/Class/DFU/Src/usbd_dfu.c ****   *         and resets device to jump to user loaded code).
1076:Middlewares/ST/STM32_USB_Device_Library/Class/DFU/Src/usbd_dfu.c ****   * @param  pdev: device instance
1077:Middlewares/ST/STM32_USB_Device_Library/Class/DFU/Src/usbd_dfu.c ****   * @retval None
1078:Middlewares/ST/STM32_USB_Device_Library/Class/DFU/Src/usbd_dfu.c ****   */
1079:Middlewares/ST/STM32_USB_Device_Library/Class/DFU/Src/usbd_dfu.c **** static void DFU_Leave(USBD_HandleTypeDef *pdev)
1080:Middlewares/ST/STM32_USB_Device_Library/Class/DFU/Src/usbd_dfu.c **** {
 521              		.loc 1 1080 1 is_stmt 1 view -0
 522              		.cfi_startproc
 523              		@ args = 0, pretend = 0, frame = 0
 524              		@ frame_needed = 0, uses_anonymous_args = 0
 525              		.loc 1 1080 1 is_stmt 0 view .LVU121
 526 0000 10B5     		push	{r4, lr}
 527              	.LCFI1:
 528              		.cfi_def_cfa_offset 8
 529              		.cfi_offset 4, -8
 530              		.cfi_offset 14, -4
 531 0002 0400     		movs	r4, r0
1081:Middlewares/ST/STM32_USB_Device_Library/Class/DFU/Src/usbd_dfu.c ****   USBD_DFU_HandleTypeDef   *hdfu;
 532              		.loc 1 1081 3 is_stmt 1 view .LVU122
1082:Middlewares/ST/STM32_USB_Device_Library/Class/DFU/Src/usbd_dfu.c **** 
1083:Middlewares/ST/STM32_USB_Device_Library/Class/DFU/Src/usbd_dfu.c ****   hdfu = (USBD_DFU_HandleTypeDef *) pdev->pClassData;
 533              		.loc 1 1083 3 view .LVU123
 534              		.loc 1 1083 8 is_stmt 0 view .LVU124
 535 0004 AE23     		movs	r3, #174
 536 0006 9B00     		lsls	r3, r3, #2
 537 0008 C358     		ldr	r3, [r0, r3]
 538              	.LVL31:
1084:Middlewares/ST/STM32_USB_Device_Library/Class/DFU/Src/usbd_dfu.c **** 
1085:Middlewares/ST/STM32_USB_Device_Library/Class/DFU/Src/usbd_dfu.c ****   hdfu->manif_state = DFU_MANIFEST_COMPLETE;
 539              		.loc 1 1085 3 is_stmt 1 view .LVU125
 540              		.loc 1 1085 21 is_stmt 0 view .LVU126
 541 000a 194A     		ldr	r2, .L33
 542 000c 0021     		movs	r1, #0
 543 000e 9954     		strb	r1, [r3, r2]
1086:Middlewares/ST/STM32_USB_Device_Library/Class/DFU/Src/usbd_dfu.c **** 
1087:Middlewares/ST/STM32_USB_Device_Library/Class/DFU/Src/usbd_dfu.c ****   if ((USBD_DFU_CfgDesc[(11U + (9U * USBD_DFU_MAX_ITF_NUM))]) & 0x04U)
 544              		.loc 1 1087 3 is_stmt 1 view .LVU127
 545              		.loc 1 1087 24 is_stmt 0 view .LVU128
 546 0010 184A     		ldr	r2, .L33+4
 547 0012 127D     		ldrb	r2, [r2, #20]
 548              		.loc 1 1087 6 view .LVU129
 549 0014 5207     		lsls	r2, r2, #29
 550 0016 0DD5     		bpl	.L30
1088:Middlewares/ST/STM32_USB_Device_Library/Class/DFU/Src/usbd_dfu.c ****   {
1089:Middlewares/ST/STM32_USB_Device_Library/Class/DFU/Src/usbd_dfu.c ****     hdfu->dev_state = DFU_STATE_MANIFEST_SYNC;
 551              		.loc 1 1089 5 is_stmt 1 view .LVU130
 552              		.loc 1 1089 21 is_stmt 0 view .LVU131
 553 0018 0631     		adds	r1, r1, #6
 554 001a 8322     		movs	r2, #131
 555 001c D200     		lsls	r2, r2, #3
 556 001e 9954     		strb	r1, [r3, r2]
1090:Middlewares/ST/STM32_USB_Device_Library/Class/DFU/Src/usbd_dfu.c **** 
ARM GAS  /tmp/cc2AD7kg.s 			page 30


1091:Middlewares/ST/STM32_USB_Device_Library/Class/DFU/Src/usbd_dfu.c ****     hdfu->dev_status[1] = 0U;
 557              		.loc 1 1091 5 is_stmt 1 view .LVU132
 558              		.loc 1 1091 25 is_stmt 0 view .LVU133
 559 0020 0022     		movs	r2, #0
 560 0022 1548     		ldr	r0, .L33+8
 561              	.LVL32:
 562              		.loc 1 1091 25 view .LVU134
 563 0024 1A54     		strb	r2, [r3, r0]
1092:Middlewares/ST/STM32_USB_Device_Library/Class/DFU/Src/usbd_dfu.c ****     hdfu->dev_status[2] = 0U;
 564              		.loc 1 1092 5 is_stmt 1 view .LVU135
 565              		.loc 1 1092 25 is_stmt 0 view .LVU136
 566 0026 1548     		ldr	r0, .L33+12
 567 0028 1A54     		strb	r2, [r3, r0]
1093:Middlewares/ST/STM32_USB_Device_Library/Class/DFU/Src/usbd_dfu.c ****     hdfu->dev_status[3] = 0U;
 568              		.loc 1 1093 5 is_stmt 1 view .LVU137
 569              		.loc 1 1093 25 is_stmt 0 view .LVU138
 570 002a 1548     		ldr	r0, .L33+16
 571 002c 1A54     		strb	r2, [r3, r0]
1094:Middlewares/ST/STM32_USB_Device_Library/Class/DFU/Src/usbd_dfu.c ****     hdfu->dev_status[4] = hdfu->dev_state;
 572              		.loc 1 1094 5 is_stmt 1 view .LVU139
 573              		.loc 1 1094 25 is_stmt 0 view .LVU140
 574 002e 154A     		ldr	r2, .L33+20
 575 0030 9954     		strb	r1, [r3, r2]
1095:Middlewares/ST/STM32_USB_Device_Library/Class/DFU/Src/usbd_dfu.c ****     return;
 576              		.loc 1 1095 5 is_stmt 1 view .LVU141
1096:Middlewares/ST/STM32_USB_Device_Library/Class/DFU/Src/usbd_dfu.c ****   }
1097:Middlewares/ST/STM32_USB_Device_Library/Class/DFU/Src/usbd_dfu.c ****   else
1098:Middlewares/ST/STM32_USB_Device_Library/Class/DFU/Src/usbd_dfu.c ****   {
1099:Middlewares/ST/STM32_USB_Device_Library/Class/DFU/Src/usbd_dfu.c ****     hdfu->dev_state = DFU_STATE_MANIFEST_WAIT_RESET;
1100:Middlewares/ST/STM32_USB_Device_Library/Class/DFU/Src/usbd_dfu.c **** 
1101:Middlewares/ST/STM32_USB_Device_Library/Class/DFU/Src/usbd_dfu.c ****     hdfu->dev_status[1] = 0U;
1102:Middlewares/ST/STM32_USB_Device_Library/Class/DFU/Src/usbd_dfu.c ****     hdfu->dev_status[2] = 0U;
1103:Middlewares/ST/STM32_USB_Device_Library/Class/DFU/Src/usbd_dfu.c ****     hdfu->dev_status[3] = 0U;
1104:Middlewares/ST/STM32_USB_Device_Library/Class/DFU/Src/usbd_dfu.c ****     hdfu->dev_status[4] = hdfu->dev_state;
1105:Middlewares/ST/STM32_USB_Device_Library/Class/DFU/Src/usbd_dfu.c **** 
1106:Middlewares/ST/STM32_USB_Device_Library/Class/DFU/Src/usbd_dfu.c ****     /* Disconnect the USB device */
1107:Middlewares/ST/STM32_USB_Device_Library/Class/DFU/Src/usbd_dfu.c ****     USBD_Stop(pdev);
1108:Middlewares/ST/STM32_USB_Device_Library/Class/DFU/Src/usbd_dfu.c **** 
1109:Middlewares/ST/STM32_USB_Device_Library/Class/DFU/Src/usbd_dfu.c ****     /* DeInitilialize the MAL(Media Access Layer) */
1110:Middlewares/ST/STM32_USB_Device_Library/Class/DFU/Src/usbd_dfu.c ****     ((USBD_DFU_MediaTypeDef *)pdev->pUserData)->DeInit();
1111:Middlewares/ST/STM32_USB_Device_Library/Class/DFU/Src/usbd_dfu.c **** 
1112:Middlewares/ST/STM32_USB_Device_Library/Class/DFU/Src/usbd_dfu.c ****     /* Generate system reset to allow jumping to the user code */
1113:Middlewares/ST/STM32_USB_Device_Library/Class/DFU/Src/usbd_dfu.c ****     NVIC_SystemReset();
1114:Middlewares/ST/STM32_USB_Device_Library/Class/DFU/Src/usbd_dfu.c **** 
1115:Middlewares/ST/STM32_USB_Device_Library/Class/DFU/Src/usbd_dfu.c ****     /* The next instructions will not be reached (system reset) */
1116:Middlewares/ST/STM32_USB_Device_Library/Class/DFU/Src/usbd_dfu.c ****   }
1117:Middlewares/ST/STM32_USB_Device_Library/Class/DFU/Src/usbd_dfu.c **** }
 577              		.loc 1 1117 1 is_stmt 0 view .LVU142
 578              		@ sp needed
 579              	.LVL33:
 580              		.loc 1 1117 1 view .LVU143
 581 0032 10BD     		pop	{r4, pc}
 582              	.LVL34:
 583              	.L30:
1099:Middlewares/ST/STM32_USB_Device_Library/Class/DFU/Src/usbd_dfu.c **** 
 584              		.loc 1 1099 5 is_stmt 1 view .LVU144
1099:Middlewares/ST/STM32_USB_Device_Library/Class/DFU/Src/usbd_dfu.c **** 
ARM GAS  /tmp/cc2AD7kg.s 			page 31


 585              		.loc 1 1099 21 is_stmt 0 view .LVU145
 586 0034 0821     		movs	r1, #8
 587 0036 8322     		movs	r2, #131
 588 0038 D200     		lsls	r2, r2, #3
 589 003a 9954     		strb	r1, [r3, r2]
1101:Middlewares/ST/STM32_USB_Device_Library/Class/DFU/Src/usbd_dfu.c ****     hdfu->dev_status[2] = 0U;
 590              		.loc 1 1101 5 is_stmt 1 view .LVU146
1101:Middlewares/ST/STM32_USB_Device_Library/Class/DFU/Src/usbd_dfu.c ****     hdfu->dev_status[2] = 0U;
 591              		.loc 1 1101 25 is_stmt 0 view .LVU147
 592 003c 0022     		movs	r2, #0
 593 003e 0E48     		ldr	r0, .L33+8
 594              	.LVL35:
1101:Middlewares/ST/STM32_USB_Device_Library/Class/DFU/Src/usbd_dfu.c ****     hdfu->dev_status[2] = 0U;
 595              		.loc 1 1101 25 view .LVU148
 596 0040 1A54     		strb	r2, [r3, r0]
1102:Middlewares/ST/STM32_USB_Device_Library/Class/DFU/Src/usbd_dfu.c ****     hdfu->dev_status[3] = 0U;
 597              		.loc 1 1102 5 is_stmt 1 view .LVU149
1102:Middlewares/ST/STM32_USB_Device_Library/Class/DFU/Src/usbd_dfu.c ****     hdfu->dev_status[3] = 0U;
 598              		.loc 1 1102 25 is_stmt 0 view .LVU150
 599 0042 0E48     		ldr	r0, .L33+12
 600 0044 1A54     		strb	r2, [r3, r0]
1103:Middlewares/ST/STM32_USB_Device_Library/Class/DFU/Src/usbd_dfu.c ****     hdfu->dev_status[4] = hdfu->dev_state;
 601              		.loc 1 1103 5 is_stmt 1 view .LVU151
1103:Middlewares/ST/STM32_USB_Device_Library/Class/DFU/Src/usbd_dfu.c ****     hdfu->dev_status[4] = hdfu->dev_state;
 602              		.loc 1 1103 25 is_stmt 0 view .LVU152
 603 0046 0E48     		ldr	r0, .L33+16
 604 0048 1A54     		strb	r2, [r3, r0]
1104:Middlewares/ST/STM32_USB_Device_Library/Class/DFU/Src/usbd_dfu.c **** 
 605              		.loc 1 1104 5 is_stmt 1 view .LVU153
1104:Middlewares/ST/STM32_USB_Device_Library/Class/DFU/Src/usbd_dfu.c **** 
 606              		.loc 1 1104 25 is_stmt 0 view .LVU154
 607 004a 0E4A     		ldr	r2, .L33+20
 608 004c 9954     		strb	r1, [r3, r2]
1107:Middlewares/ST/STM32_USB_Device_Library/Class/DFU/Src/usbd_dfu.c **** 
 609              		.loc 1 1107 5 is_stmt 1 view .LVU155
 610 004e 2000     		movs	r0, r4
 611 0050 FFF7FEFF 		bl	USBD_Stop
 612              	.LVL36:
1110:Middlewares/ST/STM32_USB_Device_Library/Class/DFU/Src/usbd_dfu.c **** 
 613              		.loc 1 1110 5 view .LVU156
1110:Middlewares/ST/STM32_USB_Device_Library/Class/DFU/Src/usbd_dfu.c **** 
 614              		.loc 1 1110 35 is_stmt 0 view .LVU157
 615 0054 AF23     		movs	r3, #175
 616 0056 9B00     		lsls	r3, r3, #2
 617 0058 E358     		ldr	r3, [r4, r3]
1110:Middlewares/ST/STM32_USB_Device_Library/Class/DFU/Src/usbd_dfu.c **** 
 618              		.loc 1 1110 47 view .LVU158
 619 005a 9B68     		ldr	r3, [r3, #8]
1110:Middlewares/ST/STM32_USB_Device_Library/Class/DFU/Src/usbd_dfu.c **** 
 620              		.loc 1 1110 6 view .LVU159
 621 005c 9847     		blx	r3
 622              	.LVL37:
1113:Middlewares/ST/STM32_USB_Device_Library/Class/DFU/Src/usbd_dfu.c **** 
 623              		.loc 1 1113 5 is_stmt 1 view .LVU160
 624              	.LBB12:
 625              	.LBI12:
 626              		.file 2 "Drivers/CMSIS/Include/core_cm0.h"
ARM GAS  /tmp/cc2AD7kg.s 			page 32


   1:Drivers/CMSIS/Include/core_cm0.h **** /**************************************************************************//**
   2:Drivers/CMSIS/Include/core_cm0.h ****  * @file     core_cm0.h
   3:Drivers/CMSIS/Include/core_cm0.h ****  * @brief    CMSIS Cortex-M0 Core Peripheral Access Layer Header File
   4:Drivers/CMSIS/Include/core_cm0.h ****  * @version  V5.0.5
   5:Drivers/CMSIS/Include/core_cm0.h ****  * @date     28. May 2018
   6:Drivers/CMSIS/Include/core_cm0.h ****  ******************************************************************************/
   7:Drivers/CMSIS/Include/core_cm0.h **** /*
   8:Drivers/CMSIS/Include/core_cm0.h ****  * Copyright (c) 2009-2018 Arm Limited. All rights reserved.
   9:Drivers/CMSIS/Include/core_cm0.h ****  *
  10:Drivers/CMSIS/Include/core_cm0.h ****  * SPDX-License-Identifier: Apache-2.0
  11:Drivers/CMSIS/Include/core_cm0.h ****  *
  12:Drivers/CMSIS/Include/core_cm0.h ****  * Licensed under the Apache License, Version 2.0 (the License); you may
  13:Drivers/CMSIS/Include/core_cm0.h ****  * not use this file except in compliance with the License.
  14:Drivers/CMSIS/Include/core_cm0.h ****  * You may obtain a copy of the License at
  15:Drivers/CMSIS/Include/core_cm0.h ****  *
  16:Drivers/CMSIS/Include/core_cm0.h ****  * www.apache.org/licenses/LICENSE-2.0
  17:Drivers/CMSIS/Include/core_cm0.h ****  *
  18:Drivers/CMSIS/Include/core_cm0.h ****  * Unless required by applicable law or agreed to in writing, software
  19:Drivers/CMSIS/Include/core_cm0.h ****  * distributed under the License is distributed on an AS IS BASIS, WITHOUT
  20:Drivers/CMSIS/Include/core_cm0.h ****  * WARRANTIES OR CONDITIONS OF ANY KIND, either express or implied.
  21:Drivers/CMSIS/Include/core_cm0.h ****  * See the License for the specific language governing permissions and
  22:Drivers/CMSIS/Include/core_cm0.h ****  * limitations under the License.
  23:Drivers/CMSIS/Include/core_cm0.h ****  */
  24:Drivers/CMSIS/Include/core_cm0.h **** 
  25:Drivers/CMSIS/Include/core_cm0.h **** #if   defined ( __ICCARM__ )
  26:Drivers/CMSIS/Include/core_cm0.h ****   #pragma system_include         /* treat file as system include file for MISRA check */
  27:Drivers/CMSIS/Include/core_cm0.h **** #elif defined (__clang__)
  28:Drivers/CMSIS/Include/core_cm0.h ****   #pragma clang system_header   /* treat file as system include file */
  29:Drivers/CMSIS/Include/core_cm0.h **** #endif
  30:Drivers/CMSIS/Include/core_cm0.h **** 
  31:Drivers/CMSIS/Include/core_cm0.h **** #ifndef __CORE_CM0_H_GENERIC
  32:Drivers/CMSIS/Include/core_cm0.h **** #define __CORE_CM0_H_GENERIC
  33:Drivers/CMSIS/Include/core_cm0.h **** 
  34:Drivers/CMSIS/Include/core_cm0.h **** #include <stdint.h>
  35:Drivers/CMSIS/Include/core_cm0.h **** 
  36:Drivers/CMSIS/Include/core_cm0.h **** #ifdef __cplusplus
  37:Drivers/CMSIS/Include/core_cm0.h ****  extern "C" {
  38:Drivers/CMSIS/Include/core_cm0.h **** #endif
  39:Drivers/CMSIS/Include/core_cm0.h **** 
  40:Drivers/CMSIS/Include/core_cm0.h **** /**
  41:Drivers/CMSIS/Include/core_cm0.h ****   \page CMSIS_MISRA_Exceptions  MISRA-C:2004 Compliance Exceptions
  42:Drivers/CMSIS/Include/core_cm0.h ****   CMSIS violates the following MISRA-C:2004 rules:
  43:Drivers/CMSIS/Include/core_cm0.h **** 
  44:Drivers/CMSIS/Include/core_cm0.h ****    \li Required Rule 8.5, object/function definition in header file.<br>
  45:Drivers/CMSIS/Include/core_cm0.h ****      Function definitions in header files are used to allow 'inlining'.
  46:Drivers/CMSIS/Include/core_cm0.h **** 
  47:Drivers/CMSIS/Include/core_cm0.h ****    \li Required Rule 18.4, declaration of union type or object of union type: '{...}'.<br>
  48:Drivers/CMSIS/Include/core_cm0.h ****      Unions are used for effective representation of core registers.
  49:Drivers/CMSIS/Include/core_cm0.h **** 
  50:Drivers/CMSIS/Include/core_cm0.h ****    \li Advisory Rule 19.7, Function-like macro defined.<br>
  51:Drivers/CMSIS/Include/core_cm0.h ****      Function-like macros are used to allow more efficient code.
  52:Drivers/CMSIS/Include/core_cm0.h ****  */
  53:Drivers/CMSIS/Include/core_cm0.h **** 
  54:Drivers/CMSIS/Include/core_cm0.h **** 
  55:Drivers/CMSIS/Include/core_cm0.h **** /*******************************************************************************
  56:Drivers/CMSIS/Include/core_cm0.h ****  *                 CMSIS definitions
  57:Drivers/CMSIS/Include/core_cm0.h ****  ******************************************************************************/
ARM GAS  /tmp/cc2AD7kg.s 			page 33


  58:Drivers/CMSIS/Include/core_cm0.h **** /**
  59:Drivers/CMSIS/Include/core_cm0.h ****   \ingroup Cortex_M0
  60:Drivers/CMSIS/Include/core_cm0.h ****   @{
  61:Drivers/CMSIS/Include/core_cm0.h ****  */
  62:Drivers/CMSIS/Include/core_cm0.h **** 
  63:Drivers/CMSIS/Include/core_cm0.h **** #include "cmsis_version.h"
  64:Drivers/CMSIS/Include/core_cm0.h ****  
  65:Drivers/CMSIS/Include/core_cm0.h **** /*  CMSIS CM0 definitions */
  66:Drivers/CMSIS/Include/core_cm0.h **** #define __CM0_CMSIS_VERSION_MAIN  (__CM_CMSIS_VERSION_MAIN)              /*!< \deprecated [31:16] C
  67:Drivers/CMSIS/Include/core_cm0.h **** #define __CM0_CMSIS_VERSION_SUB   (__CM_CMSIS_VERSION_SUB)               /*!< \deprecated [15:0]  C
  68:Drivers/CMSIS/Include/core_cm0.h **** #define __CM0_CMSIS_VERSION       ((__CM0_CMSIS_VERSION_MAIN << 16U) | \
  69:Drivers/CMSIS/Include/core_cm0.h ****                                     __CM0_CMSIS_VERSION_SUB           )  /*!< \deprecated CMSIS HAL
  70:Drivers/CMSIS/Include/core_cm0.h **** 
  71:Drivers/CMSIS/Include/core_cm0.h **** #define __CORTEX_M                (0U)                                   /*!< Cortex-M Core */
  72:Drivers/CMSIS/Include/core_cm0.h **** 
  73:Drivers/CMSIS/Include/core_cm0.h **** /** __FPU_USED indicates whether an FPU is used or not.
  74:Drivers/CMSIS/Include/core_cm0.h ****     This core does not support an FPU at all
  75:Drivers/CMSIS/Include/core_cm0.h **** */
  76:Drivers/CMSIS/Include/core_cm0.h **** #define __FPU_USED       0U
  77:Drivers/CMSIS/Include/core_cm0.h **** 
  78:Drivers/CMSIS/Include/core_cm0.h **** #if defined ( __CC_ARM )
  79:Drivers/CMSIS/Include/core_cm0.h ****   #if defined __TARGET_FPU_VFP
  80:Drivers/CMSIS/Include/core_cm0.h ****     #error "Compiler generates FPU instructions for a device without an FPU (check __FPU_PRESENT)"
  81:Drivers/CMSIS/Include/core_cm0.h ****   #endif
  82:Drivers/CMSIS/Include/core_cm0.h **** 
  83:Drivers/CMSIS/Include/core_cm0.h **** #elif defined (__ARMCC_VERSION) && (__ARMCC_VERSION >= 6010050)
  84:Drivers/CMSIS/Include/core_cm0.h ****   #if defined __ARM_PCS_VFP
  85:Drivers/CMSIS/Include/core_cm0.h ****     #error "Compiler generates FPU instructions for a device without an FPU (check __FPU_PRESENT)"
  86:Drivers/CMSIS/Include/core_cm0.h ****   #endif
  87:Drivers/CMSIS/Include/core_cm0.h **** 
  88:Drivers/CMSIS/Include/core_cm0.h **** #elif defined ( __GNUC__ )
  89:Drivers/CMSIS/Include/core_cm0.h ****   #if defined (__VFP_FP__) && !defined(__SOFTFP__)
  90:Drivers/CMSIS/Include/core_cm0.h ****     #error "Compiler generates FPU instructions for a device without an FPU (check __FPU_PRESENT)"
  91:Drivers/CMSIS/Include/core_cm0.h ****   #endif
  92:Drivers/CMSIS/Include/core_cm0.h **** 
  93:Drivers/CMSIS/Include/core_cm0.h **** #elif defined ( __ICCARM__ )
  94:Drivers/CMSIS/Include/core_cm0.h ****   #if defined __ARMVFP__
  95:Drivers/CMSIS/Include/core_cm0.h ****     #error "Compiler generates FPU instructions for a device without an FPU (check __FPU_PRESENT)"
  96:Drivers/CMSIS/Include/core_cm0.h ****   #endif
  97:Drivers/CMSIS/Include/core_cm0.h **** 
  98:Drivers/CMSIS/Include/core_cm0.h **** #elif defined ( __TI_ARM__ )
  99:Drivers/CMSIS/Include/core_cm0.h ****   #if defined __TI_VFP_SUPPORT__
 100:Drivers/CMSIS/Include/core_cm0.h ****     #error "Compiler generates FPU instructions for a device without an FPU (check __FPU_PRESENT)"
 101:Drivers/CMSIS/Include/core_cm0.h ****   #endif
 102:Drivers/CMSIS/Include/core_cm0.h **** 
 103:Drivers/CMSIS/Include/core_cm0.h **** #elif defined ( __TASKING__ )
 104:Drivers/CMSIS/Include/core_cm0.h ****   #if defined __FPU_VFP__
 105:Drivers/CMSIS/Include/core_cm0.h ****     #error "Compiler generates FPU instructions for a device without an FPU (check __FPU_PRESENT)"
 106:Drivers/CMSIS/Include/core_cm0.h ****   #endif
 107:Drivers/CMSIS/Include/core_cm0.h **** 
 108:Drivers/CMSIS/Include/core_cm0.h **** #elif defined ( __CSMC__ )
 109:Drivers/CMSIS/Include/core_cm0.h ****   #if ( __CSMC__ & 0x400U)
 110:Drivers/CMSIS/Include/core_cm0.h ****     #error "Compiler generates FPU instructions for a device without an FPU (check __FPU_PRESENT)"
 111:Drivers/CMSIS/Include/core_cm0.h ****   #endif
 112:Drivers/CMSIS/Include/core_cm0.h **** 
 113:Drivers/CMSIS/Include/core_cm0.h **** #endif
 114:Drivers/CMSIS/Include/core_cm0.h **** 
ARM GAS  /tmp/cc2AD7kg.s 			page 34


 115:Drivers/CMSIS/Include/core_cm0.h **** #include "cmsis_compiler.h"               /* CMSIS compiler specific defines */
 116:Drivers/CMSIS/Include/core_cm0.h **** 
 117:Drivers/CMSIS/Include/core_cm0.h **** 
 118:Drivers/CMSIS/Include/core_cm0.h **** #ifdef __cplusplus
 119:Drivers/CMSIS/Include/core_cm0.h **** }
 120:Drivers/CMSIS/Include/core_cm0.h **** #endif
 121:Drivers/CMSIS/Include/core_cm0.h **** 
 122:Drivers/CMSIS/Include/core_cm0.h **** #endif /* __CORE_CM0_H_GENERIC */
 123:Drivers/CMSIS/Include/core_cm0.h **** 
 124:Drivers/CMSIS/Include/core_cm0.h **** #ifndef __CMSIS_GENERIC
 125:Drivers/CMSIS/Include/core_cm0.h **** 
 126:Drivers/CMSIS/Include/core_cm0.h **** #ifndef __CORE_CM0_H_DEPENDANT
 127:Drivers/CMSIS/Include/core_cm0.h **** #define __CORE_CM0_H_DEPENDANT
 128:Drivers/CMSIS/Include/core_cm0.h **** 
 129:Drivers/CMSIS/Include/core_cm0.h **** #ifdef __cplusplus
 130:Drivers/CMSIS/Include/core_cm0.h ****  extern "C" {
 131:Drivers/CMSIS/Include/core_cm0.h **** #endif
 132:Drivers/CMSIS/Include/core_cm0.h **** 
 133:Drivers/CMSIS/Include/core_cm0.h **** /* check device defines and use defaults */
 134:Drivers/CMSIS/Include/core_cm0.h **** #if defined __CHECK_DEVICE_DEFINES
 135:Drivers/CMSIS/Include/core_cm0.h ****   #ifndef __CM0_REV
 136:Drivers/CMSIS/Include/core_cm0.h ****     #define __CM0_REV               0x0000U
 137:Drivers/CMSIS/Include/core_cm0.h ****     #warning "__CM0_REV not defined in device header file; using default!"
 138:Drivers/CMSIS/Include/core_cm0.h ****   #endif
 139:Drivers/CMSIS/Include/core_cm0.h **** 
 140:Drivers/CMSIS/Include/core_cm0.h ****   #ifndef __NVIC_PRIO_BITS
 141:Drivers/CMSIS/Include/core_cm0.h ****     #define __NVIC_PRIO_BITS          2U
 142:Drivers/CMSIS/Include/core_cm0.h ****     #warning "__NVIC_PRIO_BITS not defined in device header file; using default!"
 143:Drivers/CMSIS/Include/core_cm0.h ****   #endif
 144:Drivers/CMSIS/Include/core_cm0.h **** 
 145:Drivers/CMSIS/Include/core_cm0.h ****   #ifndef __Vendor_SysTickConfig
 146:Drivers/CMSIS/Include/core_cm0.h ****     #define __Vendor_SysTickConfig    0U
 147:Drivers/CMSIS/Include/core_cm0.h ****     #warning "__Vendor_SysTickConfig not defined in device header file; using default!"
 148:Drivers/CMSIS/Include/core_cm0.h ****   #endif
 149:Drivers/CMSIS/Include/core_cm0.h **** #endif
 150:Drivers/CMSIS/Include/core_cm0.h **** 
 151:Drivers/CMSIS/Include/core_cm0.h **** /* IO definitions (access restrictions to peripheral registers) */
 152:Drivers/CMSIS/Include/core_cm0.h **** /**
 153:Drivers/CMSIS/Include/core_cm0.h ****     \defgroup CMSIS_glob_defs CMSIS Global Defines
 154:Drivers/CMSIS/Include/core_cm0.h **** 
 155:Drivers/CMSIS/Include/core_cm0.h ****     <strong>IO Type Qualifiers</strong> are used
 156:Drivers/CMSIS/Include/core_cm0.h ****     \li to specify the access to peripheral variables.
 157:Drivers/CMSIS/Include/core_cm0.h ****     \li for automatic generation of peripheral register debug information.
 158:Drivers/CMSIS/Include/core_cm0.h **** */
 159:Drivers/CMSIS/Include/core_cm0.h **** #ifdef __cplusplus
 160:Drivers/CMSIS/Include/core_cm0.h ****   #define   __I     volatile             /*!< Defines 'read only' permissions */
 161:Drivers/CMSIS/Include/core_cm0.h **** #else
 162:Drivers/CMSIS/Include/core_cm0.h ****   #define   __I     volatile const       /*!< Defines 'read only' permissions */
 163:Drivers/CMSIS/Include/core_cm0.h **** #endif
 164:Drivers/CMSIS/Include/core_cm0.h **** #define     __O     volatile             /*!< Defines 'write only' permissions */
 165:Drivers/CMSIS/Include/core_cm0.h **** #define     __IO    volatile             /*!< Defines 'read / write' permissions */
 166:Drivers/CMSIS/Include/core_cm0.h **** 
 167:Drivers/CMSIS/Include/core_cm0.h **** /* following defines should be used for structure members */
 168:Drivers/CMSIS/Include/core_cm0.h **** #define     __IM     volatile const      /*! Defines 'read only' structure member permissions */
 169:Drivers/CMSIS/Include/core_cm0.h **** #define     __OM     volatile            /*! Defines 'write only' structure member permissions */
 170:Drivers/CMSIS/Include/core_cm0.h **** #define     __IOM    volatile            /*! Defines 'read / write' structure member permissions */
 171:Drivers/CMSIS/Include/core_cm0.h **** 
ARM GAS  /tmp/cc2AD7kg.s 			page 35


 172:Drivers/CMSIS/Include/core_cm0.h **** /*@} end of group Cortex_M0 */
 173:Drivers/CMSIS/Include/core_cm0.h **** 
 174:Drivers/CMSIS/Include/core_cm0.h **** 
 175:Drivers/CMSIS/Include/core_cm0.h **** 
 176:Drivers/CMSIS/Include/core_cm0.h **** /*******************************************************************************
 177:Drivers/CMSIS/Include/core_cm0.h ****  *                 Register Abstraction
 178:Drivers/CMSIS/Include/core_cm0.h ****   Core Register contain:
 179:Drivers/CMSIS/Include/core_cm0.h ****   - Core Register
 180:Drivers/CMSIS/Include/core_cm0.h ****   - Core NVIC Register
 181:Drivers/CMSIS/Include/core_cm0.h ****   - Core SCB Register
 182:Drivers/CMSIS/Include/core_cm0.h ****   - Core SysTick Register
 183:Drivers/CMSIS/Include/core_cm0.h ****  ******************************************************************************/
 184:Drivers/CMSIS/Include/core_cm0.h **** /**
 185:Drivers/CMSIS/Include/core_cm0.h ****   \defgroup CMSIS_core_register Defines and Type Definitions
 186:Drivers/CMSIS/Include/core_cm0.h ****   \brief Type definitions and defines for Cortex-M processor based devices.
 187:Drivers/CMSIS/Include/core_cm0.h **** */
 188:Drivers/CMSIS/Include/core_cm0.h **** 
 189:Drivers/CMSIS/Include/core_cm0.h **** /**
 190:Drivers/CMSIS/Include/core_cm0.h ****   \ingroup    CMSIS_core_register
 191:Drivers/CMSIS/Include/core_cm0.h ****   \defgroup   CMSIS_CORE  Status and Control Registers
 192:Drivers/CMSIS/Include/core_cm0.h ****   \brief      Core Register type definitions.
 193:Drivers/CMSIS/Include/core_cm0.h ****   @{
 194:Drivers/CMSIS/Include/core_cm0.h ****  */
 195:Drivers/CMSIS/Include/core_cm0.h **** 
 196:Drivers/CMSIS/Include/core_cm0.h **** /**
 197:Drivers/CMSIS/Include/core_cm0.h ****   \brief  Union type to access the Application Program Status Register (APSR).
 198:Drivers/CMSIS/Include/core_cm0.h ****  */
 199:Drivers/CMSIS/Include/core_cm0.h **** typedef union
 200:Drivers/CMSIS/Include/core_cm0.h **** {
 201:Drivers/CMSIS/Include/core_cm0.h ****   struct
 202:Drivers/CMSIS/Include/core_cm0.h ****   {
 203:Drivers/CMSIS/Include/core_cm0.h ****     uint32_t _reserved0:28;              /*!< bit:  0..27  Reserved */
 204:Drivers/CMSIS/Include/core_cm0.h ****     uint32_t V:1;                        /*!< bit:     28  Overflow condition code flag */
 205:Drivers/CMSIS/Include/core_cm0.h ****     uint32_t C:1;                        /*!< bit:     29  Carry condition code flag */
 206:Drivers/CMSIS/Include/core_cm0.h ****     uint32_t Z:1;                        /*!< bit:     30  Zero condition code flag */
 207:Drivers/CMSIS/Include/core_cm0.h ****     uint32_t N:1;                        /*!< bit:     31  Negative condition code flag */
 208:Drivers/CMSIS/Include/core_cm0.h ****   } b;                                   /*!< Structure used for bit  access */
 209:Drivers/CMSIS/Include/core_cm0.h ****   uint32_t w;                            /*!< Type      used for word access */
 210:Drivers/CMSIS/Include/core_cm0.h **** } APSR_Type;
 211:Drivers/CMSIS/Include/core_cm0.h **** 
 212:Drivers/CMSIS/Include/core_cm0.h **** /* APSR Register Definitions */
 213:Drivers/CMSIS/Include/core_cm0.h **** #define APSR_N_Pos                         31U                                            /*!< APSR
 214:Drivers/CMSIS/Include/core_cm0.h **** #define APSR_N_Msk                         (1UL << APSR_N_Pos)                            /*!< APSR
 215:Drivers/CMSIS/Include/core_cm0.h **** 
 216:Drivers/CMSIS/Include/core_cm0.h **** #define APSR_Z_Pos                         30U                                            /*!< APSR
 217:Drivers/CMSIS/Include/core_cm0.h **** #define APSR_Z_Msk                         (1UL << APSR_Z_Pos)                            /*!< APSR
 218:Drivers/CMSIS/Include/core_cm0.h **** 
 219:Drivers/CMSIS/Include/core_cm0.h **** #define APSR_C_Pos                         29U                                            /*!< APSR
 220:Drivers/CMSIS/Include/core_cm0.h **** #define APSR_C_Msk                         (1UL << APSR_C_Pos)                            /*!< APSR
 221:Drivers/CMSIS/Include/core_cm0.h **** 
 222:Drivers/CMSIS/Include/core_cm0.h **** #define APSR_V_Pos                         28U                                            /*!< APSR
 223:Drivers/CMSIS/Include/core_cm0.h **** #define APSR_V_Msk                         (1UL << APSR_V_Pos)                            /*!< APSR
 224:Drivers/CMSIS/Include/core_cm0.h **** 
 225:Drivers/CMSIS/Include/core_cm0.h **** 
 226:Drivers/CMSIS/Include/core_cm0.h **** /**
 227:Drivers/CMSIS/Include/core_cm0.h ****   \brief  Union type to access the Interrupt Program Status Register (IPSR).
 228:Drivers/CMSIS/Include/core_cm0.h ****  */
ARM GAS  /tmp/cc2AD7kg.s 			page 36


 229:Drivers/CMSIS/Include/core_cm0.h **** typedef union
 230:Drivers/CMSIS/Include/core_cm0.h **** {
 231:Drivers/CMSIS/Include/core_cm0.h ****   struct
 232:Drivers/CMSIS/Include/core_cm0.h ****   {
 233:Drivers/CMSIS/Include/core_cm0.h ****     uint32_t ISR:9;                      /*!< bit:  0.. 8  Exception number */
 234:Drivers/CMSIS/Include/core_cm0.h ****     uint32_t _reserved0:23;              /*!< bit:  9..31  Reserved */
 235:Drivers/CMSIS/Include/core_cm0.h ****   } b;                                   /*!< Structure used for bit  access */
 236:Drivers/CMSIS/Include/core_cm0.h ****   uint32_t w;                            /*!< Type      used for word access */
 237:Drivers/CMSIS/Include/core_cm0.h **** } IPSR_Type;
 238:Drivers/CMSIS/Include/core_cm0.h **** 
 239:Drivers/CMSIS/Include/core_cm0.h **** /* IPSR Register Definitions */
 240:Drivers/CMSIS/Include/core_cm0.h **** #define IPSR_ISR_Pos                        0U                                            /*!< IPSR
 241:Drivers/CMSIS/Include/core_cm0.h **** #define IPSR_ISR_Msk                       (0x1FFUL /*<< IPSR_ISR_Pos*/)                  /*!< IPSR
 242:Drivers/CMSIS/Include/core_cm0.h **** 
 243:Drivers/CMSIS/Include/core_cm0.h **** 
 244:Drivers/CMSIS/Include/core_cm0.h **** /**
 245:Drivers/CMSIS/Include/core_cm0.h ****   \brief  Union type to access the Special-Purpose Program Status Registers (xPSR).
 246:Drivers/CMSIS/Include/core_cm0.h ****  */
 247:Drivers/CMSIS/Include/core_cm0.h **** typedef union
 248:Drivers/CMSIS/Include/core_cm0.h **** {
 249:Drivers/CMSIS/Include/core_cm0.h ****   struct
 250:Drivers/CMSIS/Include/core_cm0.h ****   {
 251:Drivers/CMSIS/Include/core_cm0.h ****     uint32_t ISR:9;                      /*!< bit:  0.. 8  Exception number */
 252:Drivers/CMSIS/Include/core_cm0.h ****     uint32_t _reserved0:15;              /*!< bit:  9..23  Reserved */
 253:Drivers/CMSIS/Include/core_cm0.h ****     uint32_t T:1;                        /*!< bit:     24  Thumb bit        (read 0) */
 254:Drivers/CMSIS/Include/core_cm0.h ****     uint32_t _reserved1:3;               /*!< bit: 25..27  Reserved */
 255:Drivers/CMSIS/Include/core_cm0.h ****     uint32_t V:1;                        /*!< bit:     28  Overflow condition code flag */
 256:Drivers/CMSIS/Include/core_cm0.h ****     uint32_t C:1;                        /*!< bit:     29  Carry condition code flag */
 257:Drivers/CMSIS/Include/core_cm0.h ****     uint32_t Z:1;                        /*!< bit:     30  Zero condition code flag */
 258:Drivers/CMSIS/Include/core_cm0.h ****     uint32_t N:1;                        /*!< bit:     31  Negative condition code flag */
 259:Drivers/CMSIS/Include/core_cm0.h ****   } b;                                   /*!< Structure used for bit  access */
 260:Drivers/CMSIS/Include/core_cm0.h ****   uint32_t w;                            /*!< Type      used for word access */
 261:Drivers/CMSIS/Include/core_cm0.h **** } xPSR_Type;
 262:Drivers/CMSIS/Include/core_cm0.h **** 
 263:Drivers/CMSIS/Include/core_cm0.h **** /* xPSR Register Definitions */
 264:Drivers/CMSIS/Include/core_cm0.h **** #define xPSR_N_Pos                         31U                                            /*!< xPSR
 265:Drivers/CMSIS/Include/core_cm0.h **** #define xPSR_N_Msk                         (1UL << xPSR_N_Pos)                            /*!< xPSR
 266:Drivers/CMSIS/Include/core_cm0.h **** 
 267:Drivers/CMSIS/Include/core_cm0.h **** #define xPSR_Z_Pos                         30U                                            /*!< xPSR
 268:Drivers/CMSIS/Include/core_cm0.h **** #define xPSR_Z_Msk                         (1UL << xPSR_Z_Pos)                            /*!< xPSR
 269:Drivers/CMSIS/Include/core_cm0.h **** 
 270:Drivers/CMSIS/Include/core_cm0.h **** #define xPSR_C_Pos                         29U                                            /*!< xPSR
 271:Drivers/CMSIS/Include/core_cm0.h **** #define xPSR_C_Msk                         (1UL << xPSR_C_Pos)                            /*!< xPSR
 272:Drivers/CMSIS/Include/core_cm0.h **** 
 273:Drivers/CMSIS/Include/core_cm0.h **** #define xPSR_V_Pos                         28U                                            /*!< xPSR
 274:Drivers/CMSIS/Include/core_cm0.h **** #define xPSR_V_Msk                         (1UL << xPSR_V_Pos)                            /*!< xPSR
 275:Drivers/CMSIS/Include/core_cm0.h **** 
 276:Drivers/CMSIS/Include/core_cm0.h **** #define xPSR_T_Pos                         24U                                            /*!< xPSR
 277:Drivers/CMSIS/Include/core_cm0.h **** #define xPSR_T_Msk                         (1UL << xPSR_T_Pos)                            /*!< xPSR
 278:Drivers/CMSIS/Include/core_cm0.h **** 
 279:Drivers/CMSIS/Include/core_cm0.h **** #define xPSR_ISR_Pos                        0U                                            /*!< xPSR
 280:Drivers/CMSIS/Include/core_cm0.h **** #define xPSR_ISR_Msk                       (0x1FFUL /*<< xPSR_ISR_Pos*/)                  /*!< xPSR
 281:Drivers/CMSIS/Include/core_cm0.h **** 
 282:Drivers/CMSIS/Include/core_cm0.h **** 
 283:Drivers/CMSIS/Include/core_cm0.h **** /**
 284:Drivers/CMSIS/Include/core_cm0.h ****   \brief  Union type to access the Control Registers (CONTROL).
 285:Drivers/CMSIS/Include/core_cm0.h ****  */
ARM GAS  /tmp/cc2AD7kg.s 			page 37


 286:Drivers/CMSIS/Include/core_cm0.h **** typedef union
 287:Drivers/CMSIS/Include/core_cm0.h **** {
 288:Drivers/CMSIS/Include/core_cm0.h ****   struct
 289:Drivers/CMSIS/Include/core_cm0.h ****   {
 290:Drivers/CMSIS/Include/core_cm0.h ****     uint32_t _reserved0:1;               /*!< bit:      0  Reserved */
 291:Drivers/CMSIS/Include/core_cm0.h ****     uint32_t SPSEL:1;                    /*!< bit:      1  Stack to be used */
 292:Drivers/CMSIS/Include/core_cm0.h ****     uint32_t _reserved1:30;              /*!< bit:  2..31  Reserved */
 293:Drivers/CMSIS/Include/core_cm0.h ****   } b;                                   /*!< Structure used for bit  access */
 294:Drivers/CMSIS/Include/core_cm0.h ****   uint32_t w;                            /*!< Type      used for word access */
 295:Drivers/CMSIS/Include/core_cm0.h **** } CONTROL_Type;
 296:Drivers/CMSIS/Include/core_cm0.h **** 
 297:Drivers/CMSIS/Include/core_cm0.h **** /* CONTROL Register Definitions */
 298:Drivers/CMSIS/Include/core_cm0.h **** #define CONTROL_SPSEL_Pos                   1U                                            /*!< CONT
 299:Drivers/CMSIS/Include/core_cm0.h **** #define CONTROL_SPSEL_Msk                  (1UL << CONTROL_SPSEL_Pos)                     /*!< CONT
 300:Drivers/CMSIS/Include/core_cm0.h **** 
 301:Drivers/CMSIS/Include/core_cm0.h **** /*@} end of group CMSIS_CORE */
 302:Drivers/CMSIS/Include/core_cm0.h **** 
 303:Drivers/CMSIS/Include/core_cm0.h **** 
 304:Drivers/CMSIS/Include/core_cm0.h **** /**
 305:Drivers/CMSIS/Include/core_cm0.h ****   \ingroup    CMSIS_core_register
 306:Drivers/CMSIS/Include/core_cm0.h ****   \defgroup   CMSIS_NVIC  Nested Vectored Interrupt Controller (NVIC)
 307:Drivers/CMSIS/Include/core_cm0.h ****   \brief      Type definitions for the NVIC Registers
 308:Drivers/CMSIS/Include/core_cm0.h ****   @{
 309:Drivers/CMSIS/Include/core_cm0.h ****  */
 310:Drivers/CMSIS/Include/core_cm0.h **** 
 311:Drivers/CMSIS/Include/core_cm0.h **** /**
 312:Drivers/CMSIS/Include/core_cm0.h ****   \brief  Structure type to access the Nested Vectored Interrupt Controller (NVIC).
 313:Drivers/CMSIS/Include/core_cm0.h ****  */
 314:Drivers/CMSIS/Include/core_cm0.h **** typedef struct
 315:Drivers/CMSIS/Include/core_cm0.h **** {
 316:Drivers/CMSIS/Include/core_cm0.h ****   __IOM uint32_t ISER[1U];               /*!< Offset: 0x000 (R/W)  Interrupt Set Enable Register */
 317:Drivers/CMSIS/Include/core_cm0.h ****         uint32_t RESERVED0[31U];
 318:Drivers/CMSIS/Include/core_cm0.h ****   __IOM uint32_t ICER[1U];               /*!< Offset: 0x080 (R/W)  Interrupt Clear Enable Register 
 319:Drivers/CMSIS/Include/core_cm0.h ****         uint32_t RSERVED1[31U];
 320:Drivers/CMSIS/Include/core_cm0.h ****   __IOM uint32_t ISPR[1U];               /*!< Offset: 0x100 (R/W)  Interrupt Set Pending Register *
 321:Drivers/CMSIS/Include/core_cm0.h ****         uint32_t RESERVED2[31U];
 322:Drivers/CMSIS/Include/core_cm0.h ****   __IOM uint32_t ICPR[1U];               /*!< Offset: 0x180 (R/W)  Interrupt Clear Pending Register
 323:Drivers/CMSIS/Include/core_cm0.h ****         uint32_t RESERVED3[31U];
 324:Drivers/CMSIS/Include/core_cm0.h ****         uint32_t RESERVED4[64U];
 325:Drivers/CMSIS/Include/core_cm0.h ****   __IOM uint32_t IP[8U];                 /*!< Offset: 0x300 (R/W)  Interrupt Priority Register */
 326:Drivers/CMSIS/Include/core_cm0.h **** }  NVIC_Type;
 327:Drivers/CMSIS/Include/core_cm0.h **** 
 328:Drivers/CMSIS/Include/core_cm0.h **** /*@} end of group CMSIS_NVIC */
 329:Drivers/CMSIS/Include/core_cm0.h **** 
 330:Drivers/CMSIS/Include/core_cm0.h **** 
 331:Drivers/CMSIS/Include/core_cm0.h **** /**
 332:Drivers/CMSIS/Include/core_cm0.h ****   \ingroup  CMSIS_core_register
 333:Drivers/CMSIS/Include/core_cm0.h ****   \defgroup CMSIS_SCB     System Control Block (SCB)
 334:Drivers/CMSIS/Include/core_cm0.h ****   \brief    Type definitions for the System Control Block Registers
 335:Drivers/CMSIS/Include/core_cm0.h ****   @{
 336:Drivers/CMSIS/Include/core_cm0.h ****  */
 337:Drivers/CMSIS/Include/core_cm0.h **** 
 338:Drivers/CMSIS/Include/core_cm0.h **** /**
 339:Drivers/CMSIS/Include/core_cm0.h ****   \brief  Structure type to access the System Control Block (SCB).
 340:Drivers/CMSIS/Include/core_cm0.h ****  */
 341:Drivers/CMSIS/Include/core_cm0.h **** typedef struct
 342:Drivers/CMSIS/Include/core_cm0.h **** {
ARM GAS  /tmp/cc2AD7kg.s 			page 38


 343:Drivers/CMSIS/Include/core_cm0.h ****   __IM  uint32_t CPUID;                  /*!< Offset: 0x000 (R/ )  CPUID Base Register */
 344:Drivers/CMSIS/Include/core_cm0.h ****   __IOM uint32_t ICSR;                   /*!< Offset: 0x004 (R/W)  Interrupt Control and State Regi
 345:Drivers/CMSIS/Include/core_cm0.h ****         uint32_t RESERVED0;
 346:Drivers/CMSIS/Include/core_cm0.h ****   __IOM uint32_t AIRCR;                  /*!< Offset: 0x00C (R/W)  Application Interrupt and Reset 
 347:Drivers/CMSIS/Include/core_cm0.h ****   __IOM uint32_t SCR;                    /*!< Offset: 0x010 (R/W)  System Control Register */
 348:Drivers/CMSIS/Include/core_cm0.h ****   __IOM uint32_t CCR;                    /*!< Offset: 0x014 (R/W)  Configuration Control Register *
 349:Drivers/CMSIS/Include/core_cm0.h ****         uint32_t RESERVED1;
 350:Drivers/CMSIS/Include/core_cm0.h ****   __IOM uint32_t SHP[2U];                /*!< Offset: 0x01C (R/W)  System Handlers Priority Registe
 351:Drivers/CMSIS/Include/core_cm0.h ****   __IOM uint32_t SHCSR;                  /*!< Offset: 0x024 (R/W)  System Handler Control and State
 352:Drivers/CMSIS/Include/core_cm0.h **** } SCB_Type;
 353:Drivers/CMSIS/Include/core_cm0.h **** 
 354:Drivers/CMSIS/Include/core_cm0.h **** /* SCB CPUID Register Definitions */
 355:Drivers/CMSIS/Include/core_cm0.h **** #define SCB_CPUID_IMPLEMENTER_Pos          24U                                            /*!< SCB 
 356:Drivers/CMSIS/Include/core_cm0.h **** #define SCB_CPUID_IMPLEMENTER_Msk          (0xFFUL << SCB_CPUID_IMPLEMENTER_Pos)          /*!< SCB 
 357:Drivers/CMSIS/Include/core_cm0.h **** 
 358:Drivers/CMSIS/Include/core_cm0.h **** #define SCB_CPUID_VARIANT_Pos              20U                                            /*!< SCB 
 359:Drivers/CMSIS/Include/core_cm0.h **** #define SCB_CPUID_VARIANT_Msk              (0xFUL << SCB_CPUID_VARIANT_Pos)               /*!< SCB 
 360:Drivers/CMSIS/Include/core_cm0.h **** 
 361:Drivers/CMSIS/Include/core_cm0.h **** #define SCB_CPUID_ARCHITECTURE_Pos         16U                                            /*!< SCB 
 362:Drivers/CMSIS/Include/core_cm0.h **** #define SCB_CPUID_ARCHITECTURE_Msk         (0xFUL << SCB_CPUID_ARCHITECTURE_Pos)          /*!< SCB 
 363:Drivers/CMSIS/Include/core_cm0.h **** 
 364:Drivers/CMSIS/Include/core_cm0.h **** #define SCB_CPUID_PARTNO_Pos                4U                                            /*!< SCB 
 365:Drivers/CMSIS/Include/core_cm0.h **** #define SCB_CPUID_PARTNO_Msk               (0xFFFUL << SCB_CPUID_PARTNO_Pos)              /*!< SCB 
 366:Drivers/CMSIS/Include/core_cm0.h **** 
 367:Drivers/CMSIS/Include/core_cm0.h **** #define SCB_CPUID_REVISION_Pos              0U                                            /*!< SCB 
 368:Drivers/CMSIS/Include/core_cm0.h **** #define SCB_CPUID_REVISION_Msk             (0xFUL /*<< SCB_CPUID_REVISION_Pos*/)          /*!< SCB 
 369:Drivers/CMSIS/Include/core_cm0.h **** 
 370:Drivers/CMSIS/Include/core_cm0.h **** /* SCB Interrupt Control State Register Definitions */
 371:Drivers/CMSIS/Include/core_cm0.h **** #define SCB_ICSR_NMIPENDSET_Pos            31U                                            /*!< SCB 
 372:Drivers/CMSIS/Include/core_cm0.h **** #define SCB_ICSR_NMIPENDSET_Msk            (1UL << SCB_ICSR_NMIPENDSET_Pos)               /*!< SCB 
 373:Drivers/CMSIS/Include/core_cm0.h **** 
 374:Drivers/CMSIS/Include/core_cm0.h **** #define SCB_ICSR_PENDSVSET_Pos             28U                                            /*!< SCB 
 375:Drivers/CMSIS/Include/core_cm0.h **** #define SCB_ICSR_PENDSVSET_Msk             (1UL << SCB_ICSR_PENDSVSET_Pos)                /*!< SCB 
 376:Drivers/CMSIS/Include/core_cm0.h **** 
 377:Drivers/CMSIS/Include/core_cm0.h **** #define SCB_ICSR_PENDSVCLR_Pos             27U                                            /*!< SCB 
 378:Drivers/CMSIS/Include/core_cm0.h **** #define SCB_ICSR_PENDSVCLR_Msk             (1UL << SCB_ICSR_PENDSVCLR_Pos)                /*!< SCB 
 379:Drivers/CMSIS/Include/core_cm0.h **** 
 380:Drivers/CMSIS/Include/core_cm0.h **** #define SCB_ICSR_PENDSTSET_Pos             26U                                            /*!< SCB 
 381:Drivers/CMSIS/Include/core_cm0.h **** #define SCB_ICSR_PENDSTSET_Msk             (1UL << SCB_ICSR_PENDSTSET_Pos)                /*!< SCB 
 382:Drivers/CMSIS/Include/core_cm0.h **** 
 383:Drivers/CMSIS/Include/core_cm0.h **** #define SCB_ICSR_PENDSTCLR_Pos             25U                                            /*!< SCB 
 384:Drivers/CMSIS/Include/core_cm0.h **** #define SCB_ICSR_PENDSTCLR_Msk             (1UL << SCB_ICSR_PENDSTCLR_Pos)                /*!< SCB 
 385:Drivers/CMSIS/Include/core_cm0.h **** 
 386:Drivers/CMSIS/Include/core_cm0.h **** #define SCB_ICSR_ISRPREEMPT_Pos            23U                                            /*!< SCB 
 387:Drivers/CMSIS/Include/core_cm0.h **** #define SCB_ICSR_ISRPREEMPT_Msk            (1UL << SCB_ICSR_ISRPREEMPT_Pos)               /*!< SCB 
 388:Drivers/CMSIS/Include/core_cm0.h **** 
 389:Drivers/CMSIS/Include/core_cm0.h **** #define SCB_ICSR_ISRPENDING_Pos            22U                                            /*!< SCB 
 390:Drivers/CMSIS/Include/core_cm0.h **** #define SCB_ICSR_ISRPENDING_Msk            (1UL << SCB_ICSR_ISRPENDING_Pos)               /*!< SCB 
 391:Drivers/CMSIS/Include/core_cm0.h **** 
 392:Drivers/CMSIS/Include/core_cm0.h **** #define SCB_ICSR_VECTPENDING_Pos           12U                                            /*!< SCB 
 393:Drivers/CMSIS/Include/core_cm0.h **** #define SCB_ICSR_VECTPENDING_Msk           (0x1FFUL << SCB_ICSR_VECTPENDING_Pos)          /*!< SCB 
 394:Drivers/CMSIS/Include/core_cm0.h **** 
 395:Drivers/CMSIS/Include/core_cm0.h **** #define SCB_ICSR_VECTACTIVE_Pos             0U                                            /*!< SCB 
 396:Drivers/CMSIS/Include/core_cm0.h **** #define SCB_ICSR_VECTACTIVE_Msk            (0x1FFUL /*<< SCB_ICSR_VECTACTIVE_Pos*/)       /*!< SCB 
 397:Drivers/CMSIS/Include/core_cm0.h **** 
 398:Drivers/CMSIS/Include/core_cm0.h **** /* SCB Application Interrupt and Reset Control Register Definitions */
 399:Drivers/CMSIS/Include/core_cm0.h **** #define SCB_AIRCR_VECTKEY_Pos              16U                                            /*!< SCB 
ARM GAS  /tmp/cc2AD7kg.s 			page 39


 400:Drivers/CMSIS/Include/core_cm0.h **** #define SCB_AIRCR_VECTKEY_Msk              (0xFFFFUL << SCB_AIRCR_VECTKEY_Pos)            /*!< SCB 
 401:Drivers/CMSIS/Include/core_cm0.h **** 
 402:Drivers/CMSIS/Include/core_cm0.h **** #define SCB_AIRCR_VECTKEYSTAT_Pos          16U                                            /*!< SCB 
 403:Drivers/CMSIS/Include/core_cm0.h **** #define SCB_AIRCR_VECTKEYSTAT_Msk          (0xFFFFUL << SCB_AIRCR_VECTKEYSTAT_Pos)        /*!< SCB 
 404:Drivers/CMSIS/Include/core_cm0.h **** 
 405:Drivers/CMSIS/Include/core_cm0.h **** #define SCB_AIRCR_ENDIANESS_Pos            15U                                            /*!< SCB 
 406:Drivers/CMSIS/Include/core_cm0.h **** #define SCB_AIRCR_ENDIANESS_Msk            (1UL << SCB_AIRCR_ENDIANESS_Pos)               /*!< SCB 
 407:Drivers/CMSIS/Include/core_cm0.h **** 
 408:Drivers/CMSIS/Include/core_cm0.h **** #define SCB_AIRCR_SYSRESETREQ_Pos           2U                                            /*!< SCB 
 409:Drivers/CMSIS/Include/core_cm0.h **** #define SCB_AIRCR_SYSRESETREQ_Msk          (1UL << SCB_AIRCR_SYSRESETREQ_Pos)             /*!< SCB 
 410:Drivers/CMSIS/Include/core_cm0.h **** 
 411:Drivers/CMSIS/Include/core_cm0.h **** #define SCB_AIRCR_VECTCLRACTIVE_Pos         1U                                            /*!< SCB 
 412:Drivers/CMSIS/Include/core_cm0.h **** #define SCB_AIRCR_VECTCLRACTIVE_Msk        (1UL << SCB_AIRCR_VECTCLRACTIVE_Pos)           /*!< SCB 
 413:Drivers/CMSIS/Include/core_cm0.h **** 
 414:Drivers/CMSIS/Include/core_cm0.h **** /* SCB System Control Register Definitions */
 415:Drivers/CMSIS/Include/core_cm0.h **** #define SCB_SCR_SEVONPEND_Pos               4U                                            /*!< SCB 
 416:Drivers/CMSIS/Include/core_cm0.h **** #define SCB_SCR_SEVONPEND_Msk              (1UL << SCB_SCR_SEVONPEND_Pos)                 /*!< SCB 
 417:Drivers/CMSIS/Include/core_cm0.h **** 
 418:Drivers/CMSIS/Include/core_cm0.h **** #define SCB_SCR_SLEEPDEEP_Pos               2U                                            /*!< SCB 
 419:Drivers/CMSIS/Include/core_cm0.h **** #define SCB_SCR_SLEEPDEEP_Msk              (1UL << SCB_SCR_SLEEPDEEP_Pos)                 /*!< SCB 
 420:Drivers/CMSIS/Include/core_cm0.h **** 
 421:Drivers/CMSIS/Include/core_cm0.h **** #define SCB_SCR_SLEEPONEXIT_Pos             1U                                            /*!< SCB 
 422:Drivers/CMSIS/Include/core_cm0.h **** #define SCB_SCR_SLEEPONEXIT_Msk            (1UL << SCB_SCR_SLEEPONEXIT_Pos)               /*!< SCB 
 423:Drivers/CMSIS/Include/core_cm0.h **** 
 424:Drivers/CMSIS/Include/core_cm0.h **** /* SCB Configuration Control Register Definitions */
 425:Drivers/CMSIS/Include/core_cm0.h **** #define SCB_CCR_STKALIGN_Pos                9U                                            /*!< SCB 
 426:Drivers/CMSIS/Include/core_cm0.h **** #define SCB_CCR_STKALIGN_Msk               (1UL << SCB_CCR_STKALIGN_Pos)                  /*!< SCB 
 427:Drivers/CMSIS/Include/core_cm0.h **** 
 428:Drivers/CMSIS/Include/core_cm0.h **** #define SCB_CCR_UNALIGN_TRP_Pos             3U                                            /*!< SCB 
 429:Drivers/CMSIS/Include/core_cm0.h **** #define SCB_CCR_UNALIGN_TRP_Msk            (1UL << SCB_CCR_UNALIGN_TRP_Pos)               /*!< SCB 
 430:Drivers/CMSIS/Include/core_cm0.h **** 
 431:Drivers/CMSIS/Include/core_cm0.h **** /* SCB System Handler Control and State Register Definitions */
 432:Drivers/CMSIS/Include/core_cm0.h **** #define SCB_SHCSR_SVCALLPENDED_Pos         15U                                            /*!< SCB 
 433:Drivers/CMSIS/Include/core_cm0.h **** #define SCB_SHCSR_SVCALLPENDED_Msk         (1UL << SCB_SHCSR_SVCALLPENDED_Pos)            /*!< SCB 
 434:Drivers/CMSIS/Include/core_cm0.h **** 
 435:Drivers/CMSIS/Include/core_cm0.h **** /*@} end of group CMSIS_SCB */
 436:Drivers/CMSIS/Include/core_cm0.h **** 
 437:Drivers/CMSIS/Include/core_cm0.h **** 
 438:Drivers/CMSIS/Include/core_cm0.h **** /**
 439:Drivers/CMSIS/Include/core_cm0.h ****   \ingroup  CMSIS_core_register
 440:Drivers/CMSIS/Include/core_cm0.h ****   \defgroup CMSIS_SysTick     System Tick Timer (SysTick)
 441:Drivers/CMSIS/Include/core_cm0.h ****   \brief    Type definitions for the System Timer Registers.
 442:Drivers/CMSIS/Include/core_cm0.h ****   @{
 443:Drivers/CMSIS/Include/core_cm0.h ****  */
 444:Drivers/CMSIS/Include/core_cm0.h **** 
 445:Drivers/CMSIS/Include/core_cm0.h **** /**
 446:Drivers/CMSIS/Include/core_cm0.h ****   \brief  Structure type to access the System Timer (SysTick).
 447:Drivers/CMSIS/Include/core_cm0.h ****  */
 448:Drivers/CMSIS/Include/core_cm0.h **** typedef struct
 449:Drivers/CMSIS/Include/core_cm0.h **** {
 450:Drivers/CMSIS/Include/core_cm0.h ****   __IOM uint32_t CTRL;                   /*!< Offset: 0x000 (R/W)  SysTick Control and Status Regis
 451:Drivers/CMSIS/Include/core_cm0.h ****   __IOM uint32_t LOAD;                   /*!< Offset: 0x004 (R/W)  SysTick Reload Value Register */
 452:Drivers/CMSIS/Include/core_cm0.h ****   __IOM uint32_t VAL;                    /*!< Offset: 0x008 (R/W)  SysTick Current Value Register *
 453:Drivers/CMSIS/Include/core_cm0.h ****   __IM  uint32_t CALIB;                  /*!< Offset: 0x00C (R/ )  SysTick Calibration Register */
 454:Drivers/CMSIS/Include/core_cm0.h **** } SysTick_Type;
 455:Drivers/CMSIS/Include/core_cm0.h **** 
 456:Drivers/CMSIS/Include/core_cm0.h **** /* SysTick Control / Status Register Definitions */
ARM GAS  /tmp/cc2AD7kg.s 			page 40


 457:Drivers/CMSIS/Include/core_cm0.h **** #define SysTick_CTRL_COUNTFLAG_Pos         16U                                            /*!< SysT
 458:Drivers/CMSIS/Include/core_cm0.h **** #define SysTick_CTRL_COUNTFLAG_Msk         (1UL << SysTick_CTRL_COUNTFLAG_Pos)            /*!< SysT
 459:Drivers/CMSIS/Include/core_cm0.h **** 
 460:Drivers/CMSIS/Include/core_cm0.h **** #define SysTick_CTRL_CLKSOURCE_Pos          2U                                            /*!< SysT
 461:Drivers/CMSIS/Include/core_cm0.h **** #define SysTick_CTRL_CLKSOURCE_Msk         (1UL << SysTick_CTRL_CLKSOURCE_Pos)            /*!< SysT
 462:Drivers/CMSIS/Include/core_cm0.h **** 
 463:Drivers/CMSIS/Include/core_cm0.h **** #define SysTick_CTRL_TICKINT_Pos            1U                                            /*!< SysT
 464:Drivers/CMSIS/Include/core_cm0.h **** #define SysTick_CTRL_TICKINT_Msk           (1UL << SysTick_CTRL_TICKINT_Pos)              /*!< SysT
 465:Drivers/CMSIS/Include/core_cm0.h **** 
 466:Drivers/CMSIS/Include/core_cm0.h **** #define SysTick_CTRL_ENABLE_Pos             0U                                            /*!< SysT
 467:Drivers/CMSIS/Include/core_cm0.h **** #define SysTick_CTRL_ENABLE_Msk            (1UL /*<< SysTick_CTRL_ENABLE_Pos*/)           /*!< SysT
 468:Drivers/CMSIS/Include/core_cm0.h **** 
 469:Drivers/CMSIS/Include/core_cm0.h **** /* SysTick Reload Register Definitions */
 470:Drivers/CMSIS/Include/core_cm0.h **** #define SysTick_LOAD_RELOAD_Pos             0U                                            /*!< SysT
 471:Drivers/CMSIS/Include/core_cm0.h **** #define SysTick_LOAD_RELOAD_Msk            (0xFFFFFFUL /*<< SysTick_LOAD_RELOAD_Pos*/)    /*!< SysT
 472:Drivers/CMSIS/Include/core_cm0.h **** 
 473:Drivers/CMSIS/Include/core_cm0.h **** /* SysTick Current Register Definitions */
 474:Drivers/CMSIS/Include/core_cm0.h **** #define SysTick_VAL_CURRENT_Pos             0U                                            /*!< SysT
 475:Drivers/CMSIS/Include/core_cm0.h **** #define SysTick_VAL_CURRENT_Msk            (0xFFFFFFUL /*<< SysTick_VAL_CURRENT_Pos*/)    /*!< SysT
 476:Drivers/CMSIS/Include/core_cm0.h **** 
 477:Drivers/CMSIS/Include/core_cm0.h **** /* SysTick Calibration Register Definitions */
 478:Drivers/CMSIS/Include/core_cm0.h **** #define SysTick_CALIB_NOREF_Pos            31U                                            /*!< SysT
 479:Drivers/CMSIS/Include/core_cm0.h **** #define SysTick_CALIB_NOREF_Msk            (1UL << SysTick_CALIB_NOREF_Pos)               /*!< SysT
 480:Drivers/CMSIS/Include/core_cm0.h **** 
 481:Drivers/CMSIS/Include/core_cm0.h **** #define SysTick_CALIB_SKEW_Pos             30U                                            /*!< SysT
 482:Drivers/CMSIS/Include/core_cm0.h **** #define SysTick_CALIB_SKEW_Msk             (1UL << SysTick_CALIB_SKEW_Pos)                /*!< SysT
 483:Drivers/CMSIS/Include/core_cm0.h **** 
 484:Drivers/CMSIS/Include/core_cm0.h **** #define SysTick_CALIB_TENMS_Pos             0U                                            /*!< SysT
 485:Drivers/CMSIS/Include/core_cm0.h **** #define SysTick_CALIB_TENMS_Msk            (0xFFFFFFUL /*<< SysTick_CALIB_TENMS_Pos*/)    /*!< SysT
 486:Drivers/CMSIS/Include/core_cm0.h **** 
 487:Drivers/CMSIS/Include/core_cm0.h **** /*@} end of group CMSIS_SysTick */
 488:Drivers/CMSIS/Include/core_cm0.h **** 
 489:Drivers/CMSIS/Include/core_cm0.h **** 
 490:Drivers/CMSIS/Include/core_cm0.h **** /**
 491:Drivers/CMSIS/Include/core_cm0.h ****   \ingroup  CMSIS_core_register
 492:Drivers/CMSIS/Include/core_cm0.h ****   \defgroup CMSIS_CoreDebug       Core Debug Registers (CoreDebug)
 493:Drivers/CMSIS/Include/core_cm0.h ****   \brief    Cortex-M0 Core Debug Registers (DCB registers, SHCSR, and DFSR) are only accessible ove
 494:Drivers/CMSIS/Include/core_cm0.h ****             Therefore they are not covered by the Cortex-M0 header file.
 495:Drivers/CMSIS/Include/core_cm0.h ****   @{
 496:Drivers/CMSIS/Include/core_cm0.h ****  */
 497:Drivers/CMSIS/Include/core_cm0.h **** /*@} end of group CMSIS_CoreDebug */
 498:Drivers/CMSIS/Include/core_cm0.h **** 
 499:Drivers/CMSIS/Include/core_cm0.h **** 
 500:Drivers/CMSIS/Include/core_cm0.h **** /**
 501:Drivers/CMSIS/Include/core_cm0.h ****   \ingroup    CMSIS_core_register
 502:Drivers/CMSIS/Include/core_cm0.h ****   \defgroup   CMSIS_core_bitfield     Core register bit field macros
 503:Drivers/CMSIS/Include/core_cm0.h ****   \brief      Macros for use with bit field definitions (xxx_Pos, xxx_Msk).
 504:Drivers/CMSIS/Include/core_cm0.h ****   @{
 505:Drivers/CMSIS/Include/core_cm0.h ****  */
 506:Drivers/CMSIS/Include/core_cm0.h **** 
 507:Drivers/CMSIS/Include/core_cm0.h **** /**
 508:Drivers/CMSIS/Include/core_cm0.h ****   \brief   Mask and shift a bit field value for use in a register bit range.
 509:Drivers/CMSIS/Include/core_cm0.h ****   \param[in] field  Name of the register bit field.
 510:Drivers/CMSIS/Include/core_cm0.h ****   \param[in] value  Value of the bit field. This parameter is interpreted as an uint32_t type.
 511:Drivers/CMSIS/Include/core_cm0.h ****   \return           Masked and shifted value.
 512:Drivers/CMSIS/Include/core_cm0.h **** */
 513:Drivers/CMSIS/Include/core_cm0.h **** #define _VAL2FLD(field, value)    (((uint32_t)(value) << field ## _Pos) & field ## _Msk)
ARM GAS  /tmp/cc2AD7kg.s 			page 41


 514:Drivers/CMSIS/Include/core_cm0.h **** 
 515:Drivers/CMSIS/Include/core_cm0.h **** /**
 516:Drivers/CMSIS/Include/core_cm0.h ****   \brief     Mask and shift a register value to extract a bit filed value.
 517:Drivers/CMSIS/Include/core_cm0.h ****   \param[in] field  Name of the register bit field.
 518:Drivers/CMSIS/Include/core_cm0.h ****   \param[in] value  Value of register. This parameter is interpreted as an uint32_t type.
 519:Drivers/CMSIS/Include/core_cm0.h ****   \return           Masked and shifted bit field value.
 520:Drivers/CMSIS/Include/core_cm0.h **** */
 521:Drivers/CMSIS/Include/core_cm0.h **** #define _FLD2VAL(field, value)    (((uint32_t)(value) & field ## _Msk) >> field ## _Pos)
 522:Drivers/CMSIS/Include/core_cm0.h **** 
 523:Drivers/CMSIS/Include/core_cm0.h **** /*@} end of group CMSIS_core_bitfield */
 524:Drivers/CMSIS/Include/core_cm0.h **** 
 525:Drivers/CMSIS/Include/core_cm0.h **** 
 526:Drivers/CMSIS/Include/core_cm0.h **** /**
 527:Drivers/CMSIS/Include/core_cm0.h ****   \ingroup    CMSIS_core_register
 528:Drivers/CMSIS/Include/core_cm0.h ****   \defgroup   CMSIS_core_base     Core Definitions
 529:Drivers/CMSIS/Include/core_cm0.h ****   \brief      Definitions for base addresses, unions, and structures.
 530:Drivers/CMSIS/Include/core_cm0.h ****   @{
 531:Drivers/CMSIS/Include/core_cm0.h ****  */
 532:Drivers/CMSIS/Include/core_cm0.h **** 
 533:Drivers/CMSIS/Include/core_cm0.h **** /* Memory mapping of Core Hardware */
 534:Drivers/CMSIS/Include/core_cm0.h **** #define SCS_BASE            (0xE000E000UL)                            /*!< System Control Space Bas
 535:Drivers/CMSIS/Include/core_cm0.h **** #define SysTick_BASE        (SCS_BASE +  0x0010UL)                    /*!< SysTick Base Address */
 536:Drivers/CMSIS/Include/core_cm0.h **** #define NVIC_BASE           (SCS_BASE +  0x0100UL)                    /*!< NVIC Base Address */
 537:Drivers/CMSIS/Include/core_cm0.h **** #define SCB_BASE            (SCS_BASE +  0x0D00UL)                    /*!< System Control Block Bas
 538:Drivers/CMSIS/Include/core_cm0.h **** 
 539:Drivers/CMSIS/Include/core_cm0.h **** #define SCB                 ((SCB_Type       *)     SCB_BASE      )   /*!< SCB configuration struct
 540:Drivers/CMSIS/Include/core_cm0.h **** #define SysTick             ((SysTick_Type   *)     SysTick_BASE  )   /*!< SysTick configuration st
 541:Drivers/CMSIS/Include/core_cm0.h **** #define NVIC                ((NVIC_Type      *)     NVIC_BASE     )   /*!< NVIC configuration struc
 542:Drivers/CMSIS/Include/core_cm0.h **** 
 543:Drivers/CMSIS/Include/core_cm0.h **** 
 544:Drivers/CMSIS/Include/core_cm0.h **** /*@} */
 545:Drivers/CMSIS/Include/core_cm0.h **** 
 546:Drivers/CMSIS/Include/core_cm0.h **** 
 547:Drivers/CMSIS/Include/core_cm0.h **** 
 548:Drivers/CMSIS/Include/core_cm0.h **** /*******************************************************************************
 549:Drivers/CMSIS/Include/core_cm0.h ****  *                Hardware Abstraction Layer
 550:Drivers/CMSIS/Include/core_cm0.h ****   Core Function Interface contains:
 551:Drivers/CMSIS/Include/core_cm0.h ****   - Core NVIC Functions
 552:Drivers/CMSIS/Include/core_cm0.h ****   - Core SysTick Functions
 553:Drivers/CMSIS/Include/core_cm0.h ****   - Core Register Access Functions
 554:Drivers/CMSIS/Include/core_cm0.h ****  ******************************************************************************/
 555:Drivers/CMSIS/Include/core_cm0.h **** /**
 556:Drivers/CMSIS/Include/core_cm0.h ****   \defgroup CMSIS_Core_FunctionInterface Functions and Instructions Reference
 557:Drivers/CMSIS/Include/core_cm0.h **** */
 558:Drivers/CMSIS/Include/core_cm0.h **** 
 559:Drivers/CMSIS/Include/core_cm0.h **** 
 560:Drivers/CMSIS/Include/core_cm0.h **** 
 561:Drivers/CMSIS/Include/core_cm0.h **** /* ##########################   NVIC functions  #################################### */
 562:Drivers/CMSIS/Include/core_cm0.h **** /**
 563:Drivers/CMSIS/Include/core_cm0.h ****   \ingroup  CMSIS_Core_FunctionInterface
 564:Drivers/CMSIS/Include/core_cm0.h ****   \defgroup CMSIS_Core_NVICFunctions NVIC Functions
 565:Drivers/CMSIS/Include/core_cm0.h ****   \brief    Functions that manage interrupts and exceptions via the NVIC.
 566:Drivers/CMSIS/Include/core_cm0.h ****   @{
 567:Drivers/CMSIS/Include/core_cm0.h ****  */
 568:Drivers/CMSIS/Include/core_cm0.h **** 
 569:Drivers/CMSIS/Include/core_cm0.h **** #ifdef CMSIS_NVIC_VIRTUAL
 570:Drivers/CMSIS/Include/core_cm0.h ****   #ifndef CMSIS_NVIC_VIRTUAL_HEADER_FILE
ARM GAS  /tmp/cc2AD7kg.s 			page 42


 571:Drivers/CMSIS/Include/core_cm0.h ****     #define CMSIS_NVIC_VIRTUAL_HEADER_FILE "cmsis_nvic_virtual.h"
 572:Drivers/CMSIS/Include/core_cm0.h ****   #endif
 573:Drivers/CMSIS/Include/core_cm0.h ****   #include CMSIS_NVIC_VIRTUAL_HEADER_FILE
 574:Drivers/CMSIS/Include/core_cm0.h **** #else
 575:Drivers/CMSIS/Include/core_cm0.h ****   #define NVIC_SetPriorityGrouping    __NVIC_SetPriorityGrouping
 576:Drivers/CMSIS/Include/core_cm0.h ****   #define NVIC_GetPriorityGrouping    __NVIC_GetPriorityGrouping
 577:Drivers/CMSIS/Include/core_cm0.h ****   #define NVIC_EnableIRQ              __NVIC_EnableIRQ
 578:Drivers/CMSIS/Include/core_cm0.h ****   #define NVIC_GetEnableIRQ           __NVIC_GetEnableIRQ
 579:Drivers/CMSIS/Include/core_cm0.h ****   #define NVIC_DisableIRQ             __NVIC_DisableIRQ
 580:Drivers/CMSIS/Include/core_cm0.h ****   #define NVIC_GetPendingIRQ          __NVIC_GetPendingIRQ
 581:Drivers/CMSIS/Include/core_cm0.h ****   #define NVIC_SetPendingIRQ          __NVIC_SetPendingIRQ
 582:Drivers/CMSIS/Include/core_cm0.h ****   #define NVIC_ClearPendingIRQ        __NVIC_ClearPendingIRQ
 583:Drivers/CMSIS/Include/core_cm0.h **** /*#define NVIC_GetActive              __NVIC_GetActive             not available for Cortex-M0 */
 584:Drivers/CMSIS/Include/core_cm0.h ****   #define NVIC_SetPriority            __NVIC_SetPriority
 585:Drivers/CMSIS/Include/core_cm0.h ****   #define NVIC_GetPriority            __NVIC_GetPriority
 586:Drivers/CMSIS/Include/core_cm0.h ****   #define NVIC_SystemReset            __NVIC_SystemReset
 587:Drivers/CMSIS/Include/core_cm0.h **** #endif /* CMSIS_NVIC_VIRTUAL */
 588:Drivers/CMSIS/Include/core_cm0.h **** 
 589:Drivers/CMSIS/Include/core_cm0.h **** #ifdef CMSIS_VECTAB_VIRTUAL
 590:Drivers/CMSIS/Include/core_cm0.h ****   #ifndef CMSIS_VECTAB_VIRTUAL_HEADER_FILE
 591:Drivers/CMSIS/Include/core_cm0.h ****     #define CMSIS_VECTAB_VIRTUAL_HEADER_FILE "cmsis_vectab_virtual.h"
 592:Drivers/CMSIS/Include/core_cm0.h ****   #endif
 593:Drivers/CMSIS/Include/core_cm0.h ****   #include CMSIS_VECTAB_VIRTUAL_HEADER_FILE
 594:Drivers/CMSIS/Include/core_cm0.h **** #else
 595:Drivers/CMSIS/Include/core_cm0.h ****   #define NVIC_SetVector              __NVIC_SetVector
 596:Drivers/CMSIS/Include/core_cm0.h ****   #define NVIC_GetVector              __NVIC_GetVector
 597:Drivers/CMSIS/Include/core_cm0.h **** #endif  /* (CMSIS_VECTAB_VIRTUAL) */
 598:Drivers/CMSIS/Include/core_cm0.h **** 
 599:Drivers/CMSIS/Include/core_cm0.h **** #define NVIC_USER_IRQ_OFFSET          16
 600:Drivers/CMSIS/Include/core_cm0.h **** 
 601:Drivers/CMSIS/Include/core_cm0.h **** 
 602:Drivers/CMSIS/Include/core_cm0.h **** /* The following EXC_RETURN values are saved the LR on exception entry */
 603:Drivers/CMSIS/Include/core_cm0.h **** #define EXC_RETURN_HANDLER         (0xFFFFFFF1UL)     /* return to Handler mode, uses MSP after ret
 604:Drivers/CMSIS/Include/core_cm0.h **** #define EXC_RETURN_THREAD_MSP      (0xFFFFFFF9UL)     /* return to Thread mode, uses MSP after retu
 605:Drivers/CMSIS/Include/core_cm0.h **** #define EXC_RETURN_THREAD_PSP      (0xFFFFFFFDUL)     /* return to Thread mode, uses PSP after retu
 606:Drivers/CMSIS/Include/core_cm0.h **** 
 607:Drivers/CMSIS/Include/core_cm0.h **** 
 608:Drivers/CMSIS/Include/core_cm0.h **** /* Interrupt Priorities are WORD accessible only under Armv6-M                  */
 609:Drivers/CMSIS/Include/core_cm0.h **** /* The following MACROS handle generation of the register offset and byte masks */
 610:Drivers/CMSIS/Include/core_cm0.h **** #define _BIT_SHIFT(IRQn)         (  ((((uint32_t)(int32_t)(IRQn))         )      &  0x03UL) * 8UL)
 611:Drivers/CMSIS/Include/core_cm0.h **** #define _SHP_IDX(IRQn)           ( (((((uint32_t)(int32_t)(IRQn)) & 0x0FUL)-8UL) >>    2UL)      )
 612:Drivers/CMSIS/Include/core_cm0.h **** #define _IP_IDX(IRQn)            (   (((uint32_t)(int32_t)(IRQn))                >>    2UL)      )
 613:Drivers/CMSIS/Include/core_cm0.h **** 
 614:Drivers/CMSIS/Include/core_cm0.h **** #define __NVIC_SetPriorityGrouping(X) (void)(X)
 615:Drivers/CMSIS/Include/core_cm0.h **** #define __NVIC_GetPriorityGrouping()  (0U)
 616:Drivers/CMSIS/Include/core_cm0.h **** 
 617:Drivers/CMSIS/Include/core_cm0.h **** /**
 618:Drivers/CMSIS/Include/core_cm0.h ****   \brief   Enable Interrupt
 619:Drivers/CMSIS/Include/core_cm0.h ****   \details Enables a device specific interrupt in the NVIC interrupt controller.
 620:Drivers/CMSIS/Include/core_cm0.h ****   \param [in]      IRQn  Device specific interrupt number.
 621:Drivers/CMSIS/Include/core_cm0.h ****   \note    IRQn must not be negative.
 622:Drivers/CMSIS/Include/core_cm0.h ****  */
 623:Drivers/CMSIS/Include/core_cm0.h **** __STATIC_INLINE void __NVIC_EnableIRQ(IRQn_Type IRQn)
 624:Drivers/CMSIS/Include/core_cm0.h **** {
 625:Drivers/CMSIS/Include/core_cm0.h ****   if ((int32_t)(IRQn) >= 0)
 626:Drivers/CMSIS/Include/core_cm0.h ****   {
 627:Drivers/CMSIS/Include/core_cm0.h ****     NVIC->ISER[0U] = (uint32_t)(1UL << (((uint32_t)IRQn) & 0x1FUL));
ARM GAS  /tmp/cc2AD7kg.s 			page 43


 628:Drivers/CMSIS/Include/core_cm0.h ****   }
 629:Drivers/CMSIS/Include/core_cm0.h **** }
 630:Drivers/CMSIS/Include/core_cm0.h **** 
 631:Drivers/CMSIS/Include/core_cm0.h **** 
 632:Drivers/CMSIS/Include/core_cm0.h **** /**
 633:Drivers/CMSIS/Include/core_cm0.h ****   \brief   Get Interrupt Enable status
 634:Drivers/CMSIS/Include/core_cm0.h ****   \details Returns a device specific interrupt enable status from the NVIC interrupt controller.
 635:Drivers/CMSIS/Include/core_cm0.h ****   \param [in]      IRQn  Device specific interrupt number.
 636:Drivers/CMSIS/Include/core_cm0.h ****   \return             0  Interrupt is not enabled.
 637:Drivers/CMSIS/Include/core_cm0.h ****   \return             1  Interrupt is enabled.
 638:Drivers/CMSIS/Include/core_cm0.h ****   \note    IRQn must not be negative.
 639:Drivers/CMSIS/Include/core_cm0.h ****  */
 640:Drivers/CMSIS/Include/core_cm0.h **** __STATIC_INLINE uint32_t __NVIC_GetEnableIRQ(IRQn_Type IRQn)
 641:Drivers/CMSIS/Include/core_cm0.h **** {
 642:Drivers/CMSIS/Include/core_cm0.h ****   if ((int32_t)(IRQn) >= 0)
 643:Drivers/CMSIS/Include/core_cm0.h ****   {
 644:Drivers/CMSIS/Include/core_cm0.h ****     return((uint32_t)(((NVIC->ISER[0U] & (1UL << (((uint32_t)IRQn) & 0x1FUL))) != 0UL) ? 1UL : 0UL)
 645:Drivers/CMSIS/Include/core_cm0.h ****   }
 646:Drivers/CMSIS/Include/core_cm0.h ****   else
 647:Drivers/CMSIS/Include/core_cm0.h ****   {
 648:Drivers/CMSIS/Include/core_cm0.h ****     return(0U);
 649:Drivers/CMSIS/Include/core_cm0.h ****   }
 650:Drivers/CMSIS/Include/core_cm0.h **** }
 651:Drivers/CMSIS/Include/core_cm0.h **** 
 652:Drivers/CMSIS/Include/core_cm0.h **** 
 653:Drivers/CMSIS/Include/core_cm0.h **** /**
 654:Drivers/CMSIS/Include/core_cm0.h ****   \brief   Disable Interrupt
 655:Drivers/CMSIS/Include/core_cm0.h ****   \details Disables a device specific interrupt in the NVIC interrupt controller.
 656:Drivers/CMSIS/Include/core_cm0.h ****   \param [in]      IRQn  Device specific interrupt number.
 657:Drivers/CMSIS/Include/core_cm0.h ****   \note    IRQn must not be negative.
 658:Drivers/CMSIS/Include/core_cm0.h ****  */
 659:Drivers/CMSIS/Include/core_cm0.h **** __STATIC_INLINE void __NVIC_DisableIRQ(IRQn_Type IRQn)
 660:Drivers/CMSIS/Include/core_cm0.h **** {
 661:Drivers/CMSIS/Include/core_cm0.h ****   if ((int32_t)(IRQn) >= 0)
 662:Drivers/CMSIS/Include/core_cm0.h ****   {
 663:Drivers/CMSIS/Include/core_cm0.h ****     NVIC->ICER[0U] = (uint32_t)(1UL << (((uint32_t)IRQn) & 0x1FUL));
 664:Drivers/CMSIS/Include/core_cm0.h ****     __DSB();
 665:Drivers/CMSIS/Include/core_cm0.h ****     __ISB();
 666:Drivers/CMSIS/Include/core_cm0.h ****   }
 667:Drivers/CMSIS/Include/core_cm0.h **** }
 668:Drivers/CMSIS/Include/core_cm0.h **** 
 669:Drivers/CMSIS/Include/core_cm0.h **** 
 670:Drivers/CMSIS/Include/core_cm0.h **** /**
 671:Drivers/CMSIS/Include/core_cm0.h ****   \brief   Get Pending Interrupt
 672:Drivers/CMSIS/Include/core_cm0.h ****   \details Reads the NVIC pending register and returns the pending bit for the specified device spe
 673:Drivers/CMSIS/Include/core_cm0.h ****   \param [in]      IRQn  Device specific interrupt number.
 674:Drivers/CMSIS/Include/core_cm0.h ****   \return             0  Interrupt status is not pending.
 675:Drivers/CMSIS/Include/core_cm0.h ****   \return             1  Interrupt status is pending.
 676:Drivers/CMSIS/Include/core_cm0.h ****   \note    IRQn must not be negative.
 677:Drivers/CMSIS/Include/core_cm0.h ****  */
 678:Drivers/CMSIS/Include/core_cm0.h **** __STATIC_INLINE uint32_t __NVIC_GetPendingIRQ(IRQn_Type IRQn)
 679:Drivers/CMSIS/Include/core_cm0.h **** {
 680:Drivers/CMSIS/Include/core_cm0.h ****   if ((int32_t)(IRQn) >= 0)
 681:Drivers/CMSIS/Include/core_cm0.h ****   {
 682:Drivers/CMSIS/Include/core_cm0.h ****     return((uint32_t)(((NVIC->ISPR[0U] & (1UL << (((uint32_t)IRQn) & 0x1FUL))) != 0UL) ? 1UL : 0UL)
 683:Drivers/CMSIS/Include/core_cm0.h ****   }
 684:Drivers/CMSIS/Include/core_cm0.h ****   else
ARM GAS  /tmp/cc2AD7kg.s 			page 44


 685:Drivers/CMSIS/Include/core_cm0.h ****   {
 686:Drivers/CMSIS/Include/core_cm0.h ****     return(0U);
 687:Drivers/CMSIS/Include/core_cm0.h ****   }
 688:Drivers/CMSIS/Include/core_cm0.h **** }
 689:Drivers/CMSIS/Include/core_cm0.h **** 
 690:Drivers/CMSIS/Include/core_cm0.h **** 
 691:Drivers/CMSIS/Include/core_cm0.h **** /**
 692:Drivers/CMSIS/Include/core_cm0.h ****   \brief   Set Pending Interrupt
 693:Drivers/CMSIS/Include/core_cm0.h ****   \details Sets the pending bit of a device specific interrupt in the NVIC pending register.
 694:Drivers/CMSIS/Include/core_cm0.h ****   \param [in]      IRQn  Device specific interrupt number.
 695:Drivers/CMSIS/Include/core_cm0.h ****   \note    IRQn must not be negative.
 696:Drivers/CMSIS/Include/core_cm0.h ****  */
 697:Drivers/CMSIS/Include/core_cm0.h **** __STATIC_INLINE void __NVIC_SetPendingIRQ(IRQn_Type IRQn)
 698:Drivers/CMSIS/Include/core_cm0.h **** {
 699:Drivers/CMSIS/Include/core_cm0.h ****   if ((int32_t)(IRQn) >= 0)
 700:Drivers/CMSIS/Include/core_cm0.h ****   {
 701:Drivers/CMSIS/Include/core_cm0.h ****     NVIC->ISPR[0U] = (uint32_t)(1UL << (((uint32_t)IRQn) & 0x1FUL));
 702:Drivers/CMSIS/Include/core_cm0.h ****   }
 703:Drivers/CMSIS/Include/core_cm0.h **** }
 704:Drivers/CMSIS/Include/core_cm0.h **** 
 705:Drivers/CMSIS/Include/core_cm0.h **** 
 706:Drivers/CMSIS/Include/core_cm0.h **** /**
 707:Drivers/CMSIS/Include/core_cm0.h ****   \brief   Clear Pending Interrupt
 708:Drivers/CMSIS/Include/core_cm0.h ****   \details Clears the pending bit of a device specific interrupt in the NVIC pending register.
 709:Drivers/CMSIS/Include/core_cm0.h ****   \param [in]      IRQn  Device specific interrupt number.
 710:Drivers/CMSIS/Include/core_cm0.h ****   \note    IRQn must not be negative.
 711:Drivers/CMSIS/Include/core_cm0.h ****  */
 712:Drivers/CMSIS/Include/core_cm0.h **** __STATIC_INLINE void __NVIC_ClearPendingIRQ(IRQn_Type IRQn)
 713:Drivers/CMSIS/Include/core_cm0.h **** {
 714:Drivers/CMSIS/Include/core_cm0.h ****   if ((int32_t)(IRQn) >= 0)
 715:Drivers/CMSIS/Include/core_cm0.h ****   {
 716:Drivers/CMSIS/Include/core_cm0.h ****     NVIC->ICPR[0U] = (uint32_t)(1UL << (((uint32_t)IRQn) & 0x1FUL));
 717:Drivers/CMSIS/Include/core_cm0.h ****   }
 718:Drivers/CMSIS/Include/core_cm0.h **** }
 719:Drivers/CMSIS/Include/core_cm0.h **** 
 720:Drivers/CMSIS/Include/core_cm0.h **** 
 721:Drivers/CMSIS/Include/core_cm0.h **** /**
 722:Drivers/CMSIS/Include/core_cm0.h ****   \brief   Set Interrupt Priority
 723:Drivers/CMSIS/Include/core_cm0.h ****   \details Sets the priority of a device specific interrupt or a processor exception.
 724:Drivers/CMSIS/Include/core_cm0.h ****            The interrupt number can be positive to specify a device specific interrupt,
 725:Drivers/CMSIS/Include/core_cm0.h ****            or negative to specify a processor exception.
 726:Drivers/CMSIS/Include/core_cm0.h ****   \param [in]      IRQn  Interrupt number.
 727:Drivers/CMSIS/Include/core_cm0.h ****   \param [in]  priority  Priority to set.
 728:Drivers/CMSIS/Include/core_cm0.h ****   \note    The priority cannot be set for every processor exception.
 729:Drivers/CMSIS/Include/core_cm0.h ****  */
 730:Drivers/CMSIS/Include/core_cm0.h **** __STATIC_INLINE void __NVIC_SetPriority(IRQn_Type IRQn, uint32_t priority)
 731:Drivers/CMSIS/Include/core_cm0.h **** {
 732:Drivers/CMSIS/Include/core_cm0.h ****   if ((int32_t)(IRQn) >= 0)
 733:Drivers/CMSIS/Include/core_cm0.h ****   {
 734:Drivers/CMSIS/Include/core_cm0.h ****     NVIC->IP[_IP_IDX(IRQn)]  = ((uint32_t)(NVIC->IP[_IP_IDX(IRQn)]  & ~(0xFFUL << _BIT_SHIFT(IRQn))
 735:Drivers/CMSIS/Include/core_cm0.h ****        (((priority << (8U - __NVIC_PRIO_BITS)) & (uint32_t)0xFFUL) << _BIT_SHIFT(IRQn)));
 736:Drivers/CMSIS/Include/core_cm0.h ****   }
 737:Drivers/CMSIS/Include/core_cm0.h ****   else
 738:Drivers/CMSIS/Include/core_cm0.h ****   {
 739:Drivers/CMSIS/Include/core_cm0.h ****     SCB->SHP[_SHP_IDX(IRQn)] = ((uint32_t)(SCB->SHP[_SHP_IDX(IRQn)] & ~(0xFFUL << _BIT_SHIFT(IRQn))
 740:Drivers/CMSIS/Include/core_cm0.h ****        (((priority << (8U - __NVIC_PRIO_BITS)) & (uint32_t)0xFFUL) << _BIT_SHIFT(IRQn)));
 741:Drivers/CMSIS/Include/core_cm0.h ****   }
ARM GAS  /tmp/cc2AD7kg.s 			page 45


 742:Drivers/CMSIS/Include/core_cm0.h **** }
 743:Drivers/CMSIS/Include/core_cm0.h **** 
 744:Drivers/CMSIS/Include/core_cm0.h **** 
 745:Drivers/CMSIS/Include/core_cm0.h **** /**
 746:Drivers/CMSIS/Include/core_cm0.h ****   \brief   Get Interrupt Priority
 747:Drivers/CMSIS/Include/core_cm0.h ****   \details Reads the priority of a device specific interrupt or a processor exception.
 748:Drivers/CMSIS/Include/core_cm0.h ****            The interrupt number can be positive to specify a device specific interrupt,
 749:Drivers/CMSIS/Include/core_cm0.h ****            or negative to specify a processor exception.
 750:Drivers/CMSIS/Include/core_cm0.h ****   \param [in]   IRQn  Interrupt number.
 751:Drivers/CMSIS/Include/core_cm0.h ****   \return             Interrupt Priority.
 752:Drivers/CMSIS/Include/core_cm0.h ****                       Value is aligned automatically to the implemented priority bits of the microc
 753:Drivers/CMSIS/Include/core_cm0.h ****  */
 754:Drivers/CMSIS/Include/core_cm0.h **** __STATIC_INLINE uint32_t __NVIC_GetPriority(IRQn_Type IRQn)
 755:Drivers/CMSIS/Include/core_cm0.h **** {
 756:Drivers/CMSIS/Include/core_cm0.h **** 
 757:Drivers/CMSIS/Include/core_cm0.h ****   if ((int32_t)(IRQn) >= 0)
 758:Drivers/CMSIS/Include/core_cm0.h ****   {
 759:Drivers/CMSIS/Include/core_cm0.h ****     return((uint32_t)(((NVIC->IP[ _IP_IDX(IRQn)] >> _BIT_SHIFT(IRQn) ) & (uint32_t)0xFFUL) >> (8U -
 760:Drivers/CMSIS/Include/core_cm0.h ****   }
 761:Drivers/CMSIS/Include/core_cm0.h ****   else
 762:Drivers/CMSIS/Include/core_cm0.h ****   {
 763:Drivers/CMSIS/Include/core_cm0.h ****     return((uint32_t)(((SCB->SHP[_SHP_IDX(IRQn)] >> _BIT_SHIFT(IRQn) ) & (uint32_t)0xFFUL) >> (8U -
 764:Drivers/CMSIS/Include/core_cm0.h ****   }
 765:Drivers/CMSIS/Include/core_cm0.h **** }
 766:Drivers/CMSIS/Include/core_cm0.h **** 
 767:Drivers/CMSIS/Include/core_cm0.h **** 
 768:Drivers/CMSIS/Include/core_cm0.h **** /**
 769:Drivers/CMSIS/Include/core_cm0.h ****   \brief   Encode Priority
 770:Drivers/CMSIS/Include/core_cm0.h ****   \details Encodes the priority for an interrupt with the given priority group,
 771:Drivers/CMSIS/Include/core_cm0.h ****            preemptive priority value, and subpriority value.
 772:Drivers/CMSIS/Include/core_cm0.h ****            In case of a conflict between priority grouping and available
 773:Drivers/CMSIS/Include/core_cm0.h ****            priority bits (__NVIC_PRIO_BITS), the smallest possible priority group is set.
 774:Drivers/CMSIS/Include/core_cm0.h ****   \param [in]     PriorityGroup  Used priority group.
 775:Drivers/CMSIS/Include/core_cm0.h ****   \param [in]   PreemptPriority  Preemptive priority value (starting from 0).
 776:Drivers/CMSIS/Include/core_cm0.h ****   \param [in]       SubPriority  Subpriority value (starting from 0).
 777:Drivers/CMSIS/Include/core_cm0.h ****   \return                        Encoded priority. Value can be used in the function \ref NVIC_SetP
 778:Drivers/CMSIS/Include/core_cm0.h ****  */
 779:Drivers/CMSIS/Include/core_cm0.h **** __STATIC_INLINE uint32_t NVIC_EncodePriority (uint32_t PriorityGroup, uint32_t PreemptPriority, uin
 780:Drivers/CMSIS/Include/core_cm0.h **** {
 781:Drivers/CMSIS/Include/core_cm0.h ****   uint32_t PriorityGroupTmp = (PriorityGroup & (uint32_t)0x07UL);   /* only values 0..7 are used   
 782:Drivers/CMSIS/Include/core_cm0.h ****   uint32_t PreemptPriorityBits;
 783:Drivers/CMSIS/Include/core_cm0.h ****   uint32_t SubPriorityBits;
 784:Drivers/CMSIS/Include/core_cm0.h **** 
 785:Drivers/CMSIS/Include/core_cm0.h ****   PreemptPriorityBits = ((7UL - PriorityGroupTmp) > (uint32_t)(__NVIC_PRIO_BITS)) ? (uint32_t)(__NV
 786:Drivers/CMSIS/Include/core_cm0.h ****   SubPriorityBits     = ((PriorityGroupTmp + (uint32_t)(__NVIC_PRIO_BITS)) < (uint32_t)7UL) ? (uint
 787:Drivers/CMSIS/Include/core_cm0.h **** 
 788:Drivers/CMSIS/Include/core_cm0.h ****   return (
 789:Drivers/CMSIS/Include/core_cm0.h ****            ((PreemptPriority & (uint32_t)((1UL << (PreemptPriorityBits)) - 1UL)) << SubPriorityBits
 790:Drivers/CMSIS/Include/core_cm0.h ****            ((SubPriority     & (uint32_t)((1UL << (SubPriorityBits    )) - 1UL)))
 791:Drivers/CMSIS/Include/core_cm0.h ****          );
 792:Drivers/CMSIS/Include/core_cm0.h **** }
 793:Drivers/CMSIS/Include/core_cm0.h **** 
 794:Drivers/CMSIS/Include/core_cm0.h **** 
 795:Drivers/CMSIS/Include/core_cm0.h **** /**
 796:Drivers/CMSIS/Include/core_cm0.h ****   \brief   Decode Priority
 797:Drivers/CMSIS/Include/core_cm0.h ****   \details Decodes an interrupt priority value with a given priority group to
 798:Drivers/CMSIS/Include/core_cm0.h ****            preemptive priority value and subpriority value.
ARM GAS  /tmp/cc2AD7kg.s 			page 46


 799:Drivers/CMSIS/Include/core_cm0.h ****            In case of a conflict between priority grouping and available
 800:Drivers/CMSIS/Include/core_cm0.h ****            priority bits (__NVIC_PRIO_BITS) the smallest possible priority group is set.
 801:Drivers/CMSIS/Include/core_cm0.h ****   \param [in]         Priority   Priority value, which can be retrieved with the function \ref NVIC
 802:Drivers/CMSIS/Include/core_cm0.h ****   \param [in]     PriorityGroup  Used priority group.
 803:Drivers/CMSIS/Include/core_cm0.h ****   \param [out] pPreemptPriority  Preemptive priority value (starting from 0).
 804:Drivers/CMSIS/Include/core_cm0.h ****   \param [out]     pSubPriority  Subpriority value (starting from 0).
 805:Drivers/CMSIS/Include/core_cm0.h ****  */
 806:Drivers/CMSIS/Include/core_cm0.h **** __STATIC_INLINE void NVIC_DecodePriority (uint32_t Priority, uint32_t PriorityGroup, uint32_t* cons
 807:Drivers/CMSIS/Include/core_cm0.h **** {
 808:Drivers/CMSIS/Include/core_cm0.h ****   uint32_t PriorityGroupTmp = (PriorityGroup & (uint32_t)0x07UL);   /* only values 0..7 are used   
 809:Drivers/CMSIS/Include/core_cm0.h ****   uint32_t PreemptPriorityBits;
 810:Drivers/CMSIS/Include/core_cm0.h ****   uint32_t SubPriorityBits;
 811:Drivers/CMSIS/Include/core_cm0.h **** 
 812:Drivers/CMSIS/Include/core_cm0.h ****   PreemptPriorityBits = ((7UL - PriorityGroupTmp) > (uint32_t)(__NVIC_PRIO_BITS)) ? (uint32_t)(__NV
 813:Drivers/CMSIS/Include/core_cm0.h ****   SubPriorityBits     = ((PriorityGroupTmp + (uint32_t)(__NVIC_PRIO_BITS)) < (uint32_t)7UL) ? (uint
 814:Drivers/CMSIS/Include/core_cm0.h **** 
 815:Drivers/CMSIS/Include/core_cm0.h ****   *pPreemptPriority = (Priority >> SubPriorityBits) & (uint32_t)((1UL << (PreemptPriorityBits)) - 1
 816:Drivers/CMSIS/Include/core_cm0.h ****   *pSubPriority     = (Priority                   ) & (uint32_t)((1UL << (SubPriorityBits    )) - 1
 817:Drivers/CMSIS/Include/core_cm0.h **** }
 818:Drivers/CMSIS/Include/core_cm0.h **** 
 819:Drivers/CMSIS/Include/core_cm0.h **** 
 820:Drivers/CMSIS/Include/core_cm0.h **** 
 821:Drivers/CMSIS/Include/core_cm0.h **** /**
 822:Drivers/CMSIS/Include/core_cm0.h ****   \brief   Set Interrupt Vector
 823:Drivers/CMSIS/Include/core_cm0.h ****   \details Sets an interrupt vector in SRAM based interrupt vector table.
 824:Drivers/CMSIS/Include/core_cm0.h ****            The interrupt number can be positive to specify a device specific interrupt,
 825:Drivers/CMSIS/Include/core_cm0.h ****            or negative to specify a processor exception.
 826:Drivers/CMSIS/Include/core_cm0.h ****            Address 0 must be mapped to SRAM.
 827:Drivers/CMSIS/Include/core_cm0.h ****   \param [in]   IRQn      Interrupt number
 828:Drivers/CMSIS/Include/core_cm0.h ****   \param [in]   vector    Address of interrupt handler function
 829:Drivers/CMSIS/Include/core_cm0.h ****  */
 830:Drivers/CMSIS/Include/core_cm0.h **** __STATIC_INLINE void __NVIC_SetVector(IRQn_Type IRQn, uint32_t vector)
 831:Drivers/CMSIS/Include/core_cm0.h **** {
 832:Drivers/CMSIS/Include/core_cm0.h ****   uint32_t *vectors = (uint32_t *)0x0U;
 833:Drivers/CMSIS/Include/core_cm0.h ****   vectors[(int32_t)IRQn + NVIC_USER_IRQ_OFFSET] = vector;
 834:Drivers/CMSIS/Include/core_cm0.h **** }
 835:Drivers/CMSIS/Include/core_cm0.h **** 
 836:Drivers/CMSIS/Include/core_cm0.h **** 
 837:Drivers/CMSIS/Include/core_cm0.h **** /**
 838:Drivers/CMSIS/Include/core_cm0.h ****   \brief   Get Interrupt Vector
 839:Drivers/CMSIS/Include/core_cm0.h ****   \details Reads an interrupt vector from interrupt vector table.
 840:Drivers/CMSIS/Include/core_cm0.h ****            The interrupt number can be positive to specify a device specific interrupt,
 841:Drivers/CMSIS/Include/core_cm0.h ****            or negative to specify a processor exception.
 842:Drivers/CMSIS/Include/core_cm0.h ****   \param [in]   IRQn      Interrupt number.
 843:Drivers/CMSIS/Include/core_cm0.h ****   \return                 Address of interrupt handler function
 844:Drivers/CMSIS/Include/core_cm0.h ****  */
 845:Drivers/CMSIS/Include/core_cm0.h **** __STATIC_INLINE uint32_t __NVIC_GetVector(IRQn_Type IRQn)
 846:Drivers/CMSIS/Include/core_cm0.h **** {
 847:Drivers/CMSIS/Include/core_cm0.h ****   uint32_t *vectors = (uint32_t *)0x0U;
 848:Drivers/CMSIS/Include/core_cm0.h ****   return vectors[(int32_t)IRQn + NVIC_USER_IRQ_OFFSET];
 849:Drivers/CMSIS/Include/core_cm0.h **** }
 850:Drivers/CMSIS/Include/core_cm0.h **** 
 851:Drivers/CMSIS/Include/core_cm0.h **** 
 852:Drivers/CMSIS/Include/core_cm0.h **** /**
 853:Drivers/CMSIS/Include/core_cm0.h ****   \brief   System Reset
 854:Drivers/CMSIS/Include/core_cm0.h ****   \details Initiates a system reset request to reset the MCU.
 855:Drivers/CMSIS/Include/core_cm0.h ****  */
ARM GAS  /tmp/cc2AD7kg.s 			page 47


 856:Drivers/CMSIS/Include/core_cm0.h **** __NO_RETURN __STATIC_INLINE void __NVIC_SystemReset(void)
 627              		.loc 2 856 34 view .LVU161
 628              	.LBB13:
 857:Drivers/CMSIS/Include/core_cm0.h **** {
 858:Drivers/CMSIS/Include/core_cm0.h ****   __DSB();                                                          /* Ensure all outstanding memor
 629              		.loc 2 858 3 view .LVU162
 630              	.LBB14:
 631              	.LBI14:
 632              		.file 3 "Drivers/CMSIS/Include/cmsis_gcc.h"
   1:Drivers/CMSIS/Include/cmsis_gcc.h **** /**************************************************************************//**
   2:Drivers/CMSIS/Include/cmsis_gcc.h ****  * @file     cmsis_gcc.h
   3:Drivers/CMSIS/Include/cmsis_gcc.h ****  * @brief    CMSIS compiler GCC header file
   4:Drivers/CMSIS/Include/cmsis_gcc.h ****  * @version  V5.0.4
   5:Drivers/CMSIS/Include/cmsis_gcc.h ****  * @date     09. April 2018
   6:Drivers/CMSIS/Include/cmsis_gcc.h ****  ******************************************************************************/
   7:Drivers/CMSIS/Include/cmsis_gcc.h **** /*
   8:Drivers/CMSIS/Include/cmsis_gcc.h ****  * Copyright (c) 2009-2018 Arm Limited. All rights reserved.
   9:Drivers/CMSIS/Include/cmsis_gcc.h ****  *
  10:Drivers/CMSIS/Include/cmsis_gcc.h ****  * SPDX-License-Identifier: Apache-2.0
  11:Drivers/CMSIS/Include/cmsis_gcc.h ****  *
  12:Drivers/CMSIS/Include/cmsis_gcc.h ****  * Licensed under the Apache License, Version 2.0 (the License); you may
  13:Drivers/CMSIS/Include/cmsis_gcc.h ****  * not use this file except in compliance with the License.
  14:Drivers/CMSIS/Include/cmsis_gcc.h ****  * You may obtain a copy of the License at
  15:Drivers/CMSIS/Include/cmsis_gcc.h ****  *
  16:Drivers/CMSIS/Include/cmsis_gcc.h ****  * www.apache.org/licenses/LICENSE-2.0
  17:Drivers/CMSIS/Include/cmsis_gcc.h ****  *
  18:Drivers/CMSIS/Include/cmsis_gcc.h ****  * Unless required by applicable law or agreed to in writing, software
  19:Drivers/CMSIS/Include/cmsis_gcc.h ****  * distributed under the License is distributed on an AS IS BASIS, WITHOUT
  20:Drivers/CMSIS/Include/cmsis_gcc.h ****  * WARRANTIES OR CONDITIONS OF ANY KIND, either express or implied.
  21:Drivers/CMSIS/Include/cmsis_gcc.h ****  * See the License for the specific language governing permissions and
  22:Drivers/CMSIS/Include/cmsis_gcc.h ****  * limitations under the License.
  23:Drivers/CMSIS/Include/cmsis_gcc.h ****  */
  24:Drivers/CMSIS/Include/cmsis_gcc.h **** 
  25:Drivers/CMSIS/Include/cmsis_gcc.h **** #ifndef __CMSIS_GCC_H
  26:Drivers/CMSIS/Include/cmsis_gcc.h **** #define __CMSIS_GCC_H
  27:Drivers/CMSIS/Include/cmsis_gcc.h **** 
  28:Drivers/CMSIS/Include/cmsis_gcc.h **** /* ignore some GCC warnings */
  29:Drivers/CMSIS/Include/cmsis_gcc.h **** #pragma GCC diagnostic push
  30:Drivers/CMSIS/Include/cmsis_gcc.h **** #pragma GCC diagnostic ignored "-Wsign-conversion"
  31:Drivers/CMSIS/Include/cmsis_gcc.h **** #pragma GCC diagnostic ignored "-Wconversion"
  32:Drivers/CMSIS/Include/cmsis_gcc.h **** #pragma GCC diagnostic ignored "-Wunused-parameter"
  33:Drivers/CMSIS/Include/cmsis_gcc.h **** 
  34:Drivers/CMSIS/Include/cmsis_gcc.h **** /* Fallback for __has_builtin */
  35:Drivers/CMSIS/Include/cmsis_gcc.h **** #ifndef __has_builtin
  36:Drivers/CMSIS/Include/cmsis_gcc.h ****   #define __has_builtin(x) (0)
  37:Drivers/CMSIS/Include/cmsis_gcc.h **** #endif
  38:Drivers/CMSIS/Include/cmsis_gcc.h **** 
  39:Drivers/CMSIS/Include/cmsis_gcc.h **** /* CMSIS compiler specific defines */
  40:Drivers/CMSIS/Include/cmsis_gcc.h **** #ifndef   __ASM
  41:Drivers/CMSIS/Include/cmsis_gcc.h ****   #define __ASM                                  __asm
  42:Drivers/CMSIS/Include/cmsis_gcc.h **** #endif
  43:Drivers/CMSIS/Include/cmsis_gcc.h **** #ifndef   __INLINE
  44:Drivers/CMSIS/Include/cmsis_gcc.h ****   #define __INLINE                               inline
  45:Drivers/CMSIS/Include/cmsis_gcc.h **** #endif
  46:Drivers/CMSIS/Include/cmsis_gcc.h **** #ifndef   __STATIC_INLINE
  47:Drivers/CMSIS/Include/cmsis_gcc.h ****   #define __STATIC_INLINE                        static inline
  48:Drivers/CMSIS/Include/cmsis_gcc.h **** #endif
ARM GAS  /tmp/cc2AD7kg.s 			page 48


  49:Drivers/CMSIS/Include/cmsis_gcc.h **** #ifndef   __STATIC_FORCEINLINE                 
  50:Drivers/CMSIS/Include/cmsis_gcc.h ****   #define __STATIC_FORCEINLINE                   __attribute__((always_inline)) static inline
  51:Drivers/CMSIS/Include/cmsis_gcc.h **** #endif                                           
  52:Drivers/CMSIS/Include/cmsis_gcc.h **** #ifndef   __NO_RETURN
  53:Drivers/CMSIS/Include/cmsis_gcc.h ****   #define __NO_RETURN                            __attribute__((__noreturn__))
  54:Drivers/CMSIS/Include/cmsis_gcc.h **** #endif
  55:Drivers/CMSIS/Include/cmsis_gcc.h **** #ifndef   __USED
  56:Drivers/CMSIS/Include/cmsis_gcc.h ****   #define __USED                                 __attribute__((used))
  57:Drivers/CMSIS/Include/cmsis_gcc.h **** #endif
  58:Drivers/CMSIS/Include/cmsis_gcc.h **** #ifndef   __WEAK
  59:Drivers/CMSIS/Include/cmsis_gcc.h ****   #define __WEAK                                 __attribute__((weak))
  60:Drivers/CMSIS/Include/cmsis_gcc.h **** #endif
  61:Drivers/CMSIS/Include/cmsis_gcc.h **** #ifndef   __PACKED
  62:Drivers/CMSIS/Include/cmsis_gcc.h ****   #define __PACKED                               __attribute__((packed, aligned(1)))
  63:Drivers/CMSIS/Include/cmsis_gcc.h **** #endif
  64:Drivers/CMSIS/Include/cmsis_gcc.h **** #ifndef   __PACKED_STRUCT
  65:Drivers/CMSIS/Include/cmsis_gcc.h ****   #define __PACKED_STRUCT                        struct __attribute__((packed, aligned(1)))
  66:Drivers/CMSIS/Include/cmsis_gcc.h **** #endif
  67:Drivers/CMSIS/Include/cmsis_gcc.h **** #ifndef   __PACKED_UNION
  68:Drivers/CMSIS/Include/cmsis_gcc.h ****   #define __PACKED_UNION                         union __attribute__((packed, aligned(1)))
  69:Drivers/CMSIS/Include/cmsis_gcc.h **** #endif
  70:Drivers/CMSIS/Include/cmsis_gcc.h **** #ifndef   __UNALIGNED_UINT32        /* deprecated */
  71:Drivers/CMSIS/Include/cmsis_gcc.h ****   #pragma GCC diagnostic push
  72:Drivers/CMSIS/Include/cmsis_gcc.h ****   #pragma GCC diagnostic ignored "-Wpacked"
  73:Drivers/CMSIS/Include/cmsis_gcc.h ****   #pragma GCC diagnostic ignored "-Wattributes"
  74:Drivers/CMSIS/Include/cmsis_gcc.h ****   struct __attribute__((packed)) T_UINT32 { uint32_t v; };
  75:Drivers/CMSIS/Include/cmsis_gcc.h ****   #pragma GCC diagnostic pop
  76:Drivers/CMSIS/Include/cmsis_gcc.h ****   #define __UNALIGNED_UINT32(x)                  (((struct T_UINT32 *)(x))->v)
  77:Drivers/CMSIS/Include/cmsis_gcc.h **** #endif
  78:Drivers/CMSIS/Include/cmsis_gcc.h **** #ifndef   __UNALIGNED_UINT16_WRITE
  79:Drivers/CMSIS/Include/cmsis_gcc.h ****   #pragma GCC diagnostic push
  80:Drivers/CMSIS/Include/cmsis_gcc.h ****   #pragma GCC diagnostic ignored "-Wpacked"
  81:Drivers/CMSIS/Include/cmsis_gcc.h ****   #pragma GCC diagnostic ignored "-Wattributes"
  82:Drivers/CMSIS/Include/cmsis_gcc.h ****   __PACKED_STRUCT T_UINT16_WRITE { uint16_t v; };
  83:Drivers/CMSIS/Include/cmsis_gcc.h ****   #pragma GCC diagnostic pop
  84:Drivers/CMSIS/Include/cmsis_gcc.h ****   #define __UNALIGNED_UINT16_WRITE(addr, val)    (void)((((struct T_UINT16_WRITE *)(void *)(addr))-
  85:Drivers/CMSIS/Include/cmsis_gcc.h **** #endif
  86:Drivers/CMSIS/Include/cmsis_gcc.h **** #ifndef   __UNALIGNED_UINT16_READ
  87:Drivers/CMSIS/Include/cmsis_gcc.h ****   #pragma GCC diagnostic push
  88:Drivers/CMSIS/Include/cmsis_gcc.h ****   #pragma GCC diagnostic ignored "-Wpacked"
  89:Drivers/CMSIS/Include/cmsis_gcc.h ****   #pragma GCC diagnostic ignored "-Wattributes"
  90:Drivers/CMSIS/Include/cmsis_gcc.h ****   __PACKED_STRUCT T_UINT16_READ { uint16_t v; };
  91:Drivers/CMSIS/Include/cmsis_gcc.h ****   #pragma GCC diagnostic pop
  92:Drivers/CMSIS/Include/cmsis_gcc.h ****   #define __UNALIGNED_UINT16_READ(addr)          (((const struct T_UINT16_READ *)(const void *)(add
  93:Drivers/CMSIS/Include/cmsis_gcc.h **** #endif
  94:Drivers/CMSIS/Include/cmsis_gcc.h **** #ifndef   __UNALIGNED_UINT32_WRITE
  95:Drivers/CMSIS/Include/cmsis_gcc.h ****   #pragma GCC diagnostic push
  96:Drivers/CMSIS/Include/cmsis_gcc.h ****   #pragma GCC diagnostic ignored "-Wpacked"
  97:Drivers/CMSIS/Include/cmsis_gcc.h ****   #pragma GCC diagnostic ignored "-Wattributes"
  98:Drivers/CMSIS/Include/cmsis_gcc.h ****   __PACKED_STRUCT T_UINT32_WRITE { uint32_t v; };
  99:Drivers/CMSIS/Include/cmsis_gcc.h ****   #pragma GCC diagnostic pop
 100:Drivers/CMSIS/Include/cmsis_gcc.h ****   #define __UNALIGNED_UINT32_WRITE(addr, val)    (void)((((struct T_UINT32_WRITE *)(void *)(addr))-
 101:Drivers/CMSIS/Include/cmsis_gcc.h **** #endif
 102:Drivers/CMSIS/Include/cmsis_gcc.h **** #ifndef   __UNALIGNED_UINT32_READ
 103:Drivers/CMSIS/Include/cmsis_gcc.h ****   #pragma GCC diagnostic push
 104:Drivers/CMSIS/Include/cmsis_gcc.h ****   #pragma GCC diagnostic ignored "-Wpacked"
 105:Drivers/CMSIS/Include/cmsis_gcc.h ****   #pragma GCC diagnostic ignored "-Wattributes"
ARM GAS  /tmp/cc2AD7kg.s 			page 49


 106:Drivers/CMSIS/Include/cmsis_gcc.h ****   __PACKED_STRUCT T_UINT32_READ { uint32_t v; };
 107:Drivers/CMSIS/Include/cmsis_gcc.h ****   #pragma GCC diagnostic pop
 108:Drivers/CMSIS/Include/cmsis_gcc.h ****   #define __UNALIGNED_UINT32_READ(addr)          (((const struct T_UINT32_READ *)(const void *)(add
 109:Drivers/CMSIS/Include/cmsis_gcc.h **** #endif
 110:Drivers/CMSIS/Include/cmsis_gcc.h **** #ifndef   __ALIGNED
 111:Drivers/CMSIS/Include/cmsis_gcc.h ****   #define __ALIGNED(x)                           __attribute__((aligned(x)))
 112:Drivers/CMSIS/Include/cmsis_gcc.h **** #endif
 113:Drivers/CMSIS/Include/cmsis_gcc.h **** #ifndef   __RESTRICT
 114:Drivers/CMSIS/Include/cmsis_gcc.h ****   #define __RESTRICT                             __restrict
 115:Drivers/CMSIS/Include/cmsis_gcc.h **** #endif
 116:Drivers/CMSIS/Include/cmsis_gcc.h **** 
 117:Drivers/CMSIS/Include/cmsis_gcc.h **** 
 118:Drivers/CMSIS/Include/cmsis_gcc.h **** /* ###########################  Core Function Access  ########################### */
 119:Drivers/CMSIS/Include/cmsis_gcc.h **** /** \ingroup  CMSIS_Core_FunctionInterface
 120:Drivers/CMSIS/Include/cmsis_gcc.h ****     \defgroup CMSIS_Core_RegAccFunctions CMSIS Core Register Access Functions
 121:Drivers/CMSIS/Include/cmsis_gcc.h ****   @{
 122:Drivers/CMSIS/Include/cmsis_gcc.h ****  */
 123:Drivers/CMSIS/Include/cmsis_gcc.h **** 
 124:Drivers/CMSIS/Include/cmsis_gcc.h **** /**
 125:Drivers/CMSIS/Include/cmsis_gcc.h ****   \brief   Enable IRQ Interrupts
 126:Drivers/CMSIS/Include/cmsis_gcc.h ****   \details Enables IRQ interrupts by clearing the I-bit in the CPSR.
 127:Drivers/CMSIS/Include/cmsis_gcc.h ****            Can only be executed in Privileged modes.
 128:Drivers/CMSIS/Include/cmsis_gcc.h ****  */
 129:Drivers/CMSIS/Include/cmsis_gcc.h **** __STATIC_FORCEINLINE void __enable_irq(void)
 130:Drivers/CMSIS/Include/cmsis_gcc.h **** {
 131:Drivers/CMSIS/Include/cmsis_gcc.h ****   __ASM volatile ("cpsie i" : : : "memory");
 132:Drivers/CMSIS/Include/cmsis_gcc.h **** }
 133:Drivers/CMSIS/Include/cmsis_gcc.h **** 
 134:Drivers/CMSIS/Include/cmsis_gcc.h **** 
 135:Drivers/CMSIS/Include/cmsis_gcc.h **** /**
 136:Drivers/CMSIS/Include/cmsis_gcc.h ****   \brief   Disable IRQ Interrupts
 137:Drivers/CMSIS/Include/cmsis_gcc.h ****   \details Disables IRQ interrupts by setting the I-bit in the CPSR.
 138:Drivers/CMSIS/Include/cmsis_gcc.h ****            Can only be executed in Privileged modes.
 139:Drivers/CMSIS/Include/cmsis_gcc.h ****  */
 140:Drivers/CMSIS/Include/cmsis_gcc.h **** __STATIC_FORCEINLINE void __disable_irq(void)
 141:Drivers/CMSIS/Include/cmsis_gcc.h **** {
 142:Drivers/CMSIS/Include/cmsis_gcc.h ****   __ASM volatile ("cpsid i" : : : "memory");
 143:Drivers/CMSIS/Include/cmsis_gcc.h **** }
 144:Drivers/CMSIS/Include/cmsis_gcc.h **** 
 145:Drivers/CMSIS/Include/cmsis_gcc.h **** 
 146:Drivers/CMSIS/Include/cmsis_gcc.h **** /**
 147:Drivers/CMSIS/Include/cmsis_gcc.h ****   \brief   Get Control Register
 148:Drivers/CMSIS/Include/cmsis_gcc.h ****   \details Returns the content of the Control Register.
 149:Drivers/CMSIS/Include/cmsis_gcc.h ****   \return               Control Register value
 150:Drivers/CMSIS/Include/cmsis_gcc.h ****  */
 151:Drivers/CMSIS/Include/cmsis_gcc.h **** __STATIC_FORCEINLINE uint32_t __get_CONTROL(void)
 152:Drivers/CMSIS/Include/cmsis_gcc.h **** {
 153:Drivers/CMSIS/Include/cmsis_gcc.h ****   uint32_t result;
 154:Drivers/CMSIS/Include/cmsis_gcc.h **** 
 155:Drivers/CMSIS/Include/cmsis_gcc.h ****   __ASM volatile ("MRS %0, control" : "=r" (result) );
 156:Drivers/CMSIS/Include/cmsis_gcc.h ****   return(result);
 157:Drivers/CMSIS/Include/cmsis_gcc.h **** }
 158:Drivers/CMSIS/Include/cmsis_gcc.h **** 
 159:Drivers/CMSIS/Include/cmsis_gcc.h **** 
 160:Drivers/CMSIS/Include/cmsis_gcc.h **** #if (defined (__ARM_FEATURE_CMSE ) && (__ARM_FEATURE_CMSE == 3))
 161:Drivers/CMSIS/Include/cmsis_gcc.h **** /**
 162:Drivers/CMSIS/Include/cmsis_gcc.h ****   \brief   Get Control Register (non-secure)
ARM GAS  /tmp/cc2AD7kg.s 			page 50


 163:Drivers/CMSIS/Include/cmsis_gcc.h ****   \details Returns the content of the non-secure Control Register when in secure mode.
 164:Drivers/CMSIS/Include/cmsis_gcc.h ****   \return               non-secure Control Register value
 165:Drivers/CMSIS/Include/cmsis_gcc.h ****  */
 166:Drivers/CMSIS/Include/cmsis_gcc.h **** __STATIC_FORCEINLINE uint32_t __TZ_get_CONTROL_NS(void)
 167:Drivers/CMSIS/Include/cmsis_gcc.h **** {
 168:Drivers/CMSIS/Include/cmsis_gcc.h ****   uint32_t result;
 169:Drivers/CMSIS/Include/cmsis_gcc.h **** 
 170:Drivers/CMSIS/Include/cmsis_gcc.h ****   __ASM volatile ("MRS %0, control_ns" : "=r" (result) );
 171:Drivers/CMSIS/Include/cmsis_gcc.h ****   return(result);
 172:Drivers/CMSIS/Include/cmsis_gcc.h **** }
 173:Drivers/CMSIS/Include/cmsis_gcc.h **** #endif
 174:Drivers/CMSIS/Include/cmsis_gcc.h **** 
 175:Drivers/CMSIS/Include/cmsis_gcc.h **** 
 176:Drivers/CMSIS/Include/cmsis_gcc.h **** /**
 177:Drivers/CMSIS/Include/cmsis_gcc.h ****   \brief   Set Control Register
 178:Drivers/CMSIS/Include/cmsis_gcc.h ****   \details Writes the given value to the Control Register.
 179:Drivers/CMSIS/Include/cmsis_gcc.h ****   \param [in]    control  Control Register value to set
 180:Drivers/CMSIS/Include/cmsis_gcc.h ****  */
 181:Drivers/CMSIS/Include/cmsis_gcc.h **** __STATIC_FORCEINLINE void __set_CONTROL(uint32_t control)
 182:Drivers/CMSIS/Include/cmsis_gcc.h **** {
 183:Drivers/CMSIS/Include/cmsis_gcc.h ****   __ASM volatile ("MSR control, %0" : : "r" (control) : "memory");
 184:Drivers/CMSIS/Include/cmsis_gcc.h **** }
 185:Drivers/CMSIS/Include/cmsis_gcc.h **** 
 186:Drivers/CMSIS/Include/cmsis_gcc.h **** 
 187:Drivers/CMSIS/Include/cmsis_gcc.h **** #if (defined (__ARM_FEATURE_CMSE ) && (__ARM_FEATURE_CMSE == 3))
 188:Drivers/CMSIS/Include/cmsis_gcc.h **** /**
 189:Drivers/CMSIS/Include/cmsis_gcc.h ****   \brief   Set Control Register (non-secure)
 190:Drivers/CMSIS/Include/cmsis_gcc.h ****   \details Writes the given value to the non-secure Control Register when in secure state.
 191:Drivers/CMSIS/Include/cmsis_gcc.h ****   \param [in]    control  Control Register value to set
 192:Drivers/CMSIS/Include/cmsis_gcc.h ****  */
 193:Drivers/CMSIS/Include/cmsis_gcc.h **** __STATIC_FORCEINLINE void __TZ_set_CONTROL_NS(uint32_t control)
 194:Drivers/CMSIS/Include/cmsis_gcc.h **** {
 195:Drivers/CMSIS/Include/cmsis_gcc.h ****   __ASM volatile ("MSR control_ns, %0" : : "r" (control) : "memory");
 196:Drivers/CMSIS/Include/cmsis_gcc.h **** }
 197:Drivers/CMSIS/Include/cmsis_gcc.h **** #endif
 198:Drivers/CMSIS/Include/cmsis_gcc.h **** 
 199:Drivers/CMSIS/Include/cmsis_gcc.h **** 
 200:Drivers/CMSIS/Include/cmsis_gcc.h **** /**
 201:Drivers/CMSIS/Include/cmsis_gcc.h ****   \brief   Get IPSR Register
 202:Drivers/CMSIS/Include/cmsis_gcc.h ****   \details Returns the content of the IPSR Register.
 203:Drivers/CMSIS/Include/cmsis_gcc.h ****   \return               IPSR Register value
 204:Drivers/CMSIS/Include/cmsis_gcc.h ****  */
 205:Drivers/CMSIS/Include/cmsis_gcc.h **** __STATIC_FORCEINLINE uint32_t __get_IPSR(void)
 206:Drivers/CMSIS/Include/cmsis_gcc.h **** {
 207:Drivers/CMSIS/Include/cmsis_gcc.h ****   uint32_t result;
 208:Drivers/CMSIS/Include/cmsis_gcc.h **** 
 209:Drivers/CMSIS/Include/cmsis_gcc.h ****   __ASM volatile ("MRS %0, ipsr" : "=r" (result) );
 210:Drivers/CMSIS/Include/cmsis_gcc.h ****   return(result);
 211:Drivers/CMSIS/Include/cmsis_gcc.h **** }
 212:Drivers/CMSIS/Include/cmsis_gcc.h **** 
 213:Drivers/CMSIS/Include/cmsis_gcc.h **** 
 214:Drivers/CMSIS/Include/cmsis_gcc.h **** /**
 215:Drivers/CMSIS/Include/cmsis_gcc.h ****   \brief   Get APSR Register
 216:Drivers/CMSIS/Include/cmsis_gcc.h ****   \details Returns the content of the APSR Register.
 217:Drivers/CMSIS/Include/cmsis_gcc.h ****   \return               APSR Register value
 218:Drivers/CMSIS/Include/cmsis_gcc.h ****  */
 219:Drivers/CMSIS/Include/cmsis_gcc.h **** __STATIC_FORCEINLINE uint32_t __get_APSR(void)
ARM GAS  /tmp/cc2AD7kg.s 			page 51


 220:Drivers/CMSIS/Include/cmsis_gcc.h **** {
 221:Drivers/CMSIS/Include/cmsis_gcc.h ****   uint32_t result;
 222:Drivers/CMSIS/Include/cmsis_gcc.h **** 
 223:Drivers/CMSIS/Include/cmsis_gcc.h ****   __ASM volatile ("MRS %0, apsr" : "=r" (result) );
 224:Drivers/CMSIS/Include/cmsis_gcc.h ****   return(result);
 225:Drivers/CMSIS/Include/cmsis_gcc.h **** }
 226:Drivers/CMSIS/Include/cmsis_gcc.h **** 
 227:Drivers/CMSIS/Include/cmsis_gcc.h **** 
 228:Drivers/CMSIS/Include/cmsis_gcc.h **** /**
 229:Drivers/CMSIS/Include/cmsis_gcc.h ****   \brief   Get xPSR Register
 230:Drivers/CMSIS/Include/cmsis_gcc.h ****   \details Returns the content of the xPSR Register.
 231:Drivers/CMSIS/Include/cmsis_gcc.h ****   \return               xPSR Register value
 232:Drivers/CMSIS/Include/cmsis_gcc.h ****  */
 233:Drivers/CMSIS/Include/cmsis_gcc.h **** __STATIC_FORCEINLINE uint32_t __get_xPSR(void)
 234:Drivers/CMSIS/Include/cmsis_gcc.h **** {
 235:Drivers/CMSIS/Include/cmsis_gcc.h ****   uint32_t result;
 236:Drivers/CMSIS/Include/cmsis_gcc.h **** 
 237:Drivers/CMSIS/Include/cmsis_gcc.h ****   __ASM volatile ("MRS %0, xpsr" : "=r" (result) );
 238:Drivers/CMSIS/Include/cmsis_gcc.h ****   return(result);
 239:Drivers/CMSIS/Include/cmsis_gcc.h **** }
 240:Drivers/CMSIS/Include/cmsis_gcc.h **** 
 241:Drivers/CMSIS/Include/cmsis_gcc.h **** 
 242:Drivers/CMSIS/Include/cmsis_gcc.h **** /**
 243:Drivers/CMSIS/Include/cmsis_gcc.h ****   \brief   Get Process Stack Pointer
 244:Drivers/CMSIS/Include/cmsis_gcc.h ****   \details Returns the current value of the Process Stack Pointer (PSP).
 245:Drivers/CMSIS/Include/cmsis_gcc.h ****   \return               PSP Register value
 246:Drivers/CMSIS/Include/cmsis_gcc.h ****  */
 247:Drivers/CMSIS/Include/cmsis_gcc.h **** __STATIC_FORCEINLINE uint32_t __get_PSP(void)
 248:Drivers/CMSIS/Include/cmsis_gcc.h **** {
 249:Drivers/CMSIS/Include/cmsis_gcc.h ****   uint32_t result;
 250:Drivers/CMSIS/Include/cmsis_gcc.h **** 
 251:Drivers/CMSIS/Include/cmsis_gcc.h ****   __ASM volatile ("MRS %0, psp"  : "=r" (result) );
 252:Drivers/CMSIS/Include/cmsis_gcc.h ****   return(result);
 253:Drivers/CMSIS/Include/cmsis_gcc.h **** }
 254:Drivers/CMSIS/Include/cmsis_gcc.h **** 
 255:Drivers/CMSIS/Include/cmsis_gcc.h **** 
 256:Drivers/CMSIS/Include/cmsis_gcc.h **** #if (defined (__ARM_FEATURE_CMSE ) && (__ARM_FEATURE_CMSE == 3))
 257:Drivers/CMSIS/Include/cmsis_gcc.h **** /**
 258:Drivers/CMSIS/Include/cmsis_gcc.h ****   \brief   Get Process Stack Pointer (non-secure)
 259:Drivers/CMSIS/Include/cmsis_gcc.h ****   \details Returns the current value of the non-secure Process Stack Pointer (PSP) when in secure s
 260:Drivers/CMSIS/Include/cmsis_gcc.h ****   \return               PSP Register value
 261:Drivers/CMSIS/Include/cmsis_gcc.h ****  */
 262:Drivers/CMSIS/Include/cmsis_gcc.h **** __STATIC_FORCEINLINE uint32_t __TZ_get_PSP_NS(void)
 263:Drivers/CMSIS/Include/cmsis_gcc.h **** {
 264:Drivers/CMSIS/Include/cmsis_gcc.h ****   uint32_t result;
 265:Drivers/CMSIS/Include/cmsis_gcc.h **** 
 266:Drivers/CMSIS/Include/cmsis_gcc.h ****   __ASM volatile ("MRS %0, psp_ns"  : "=r" (result) );
 267:Drivers/CMSIS/Include/cmsis_gcc.h ****   return(result);
 268:Drivers/CMSIS/Include/cmsis_gcc.h **** }
 269:Drivers/CMSIS/Include/cmsis_gcc.h **** #endif
 270:Drivers/CMSIS/Include/cmsis_gcc.h **** 
 271:Drivers/CMSIS/Include/cmsis_gcc.h **** 
 272:Drivers/CMSIS/Include/cmsis_gcc.h **** /**
 273:Drivers/CMSIS/Include/cmsis_gcc.h ****   \brief   Set Process Stack Pointer
 274:Drivers/CMSIS/Include/cmsis_gcc.h ****   \details Assigns the given value to the Process Stack Pointer (PSP).
 275:Drivers/CMSIS/Include/cmsis_gcc.h ****   \param [in]    topOfProcStack  Process Stack Pointer value to set
 276:Drivers/CMSIS/Include/cmsis_gcc.h ****  */
ARM GAS  /tmp/cc2AD7kg.s 			page 52


 277:Drivers/CMSIS/Include/cmsis_gcc.h **** __STATIC_FORCEINLINE void __set_PSP(uint32_t topOfProcStack)
 278:Drivers/CMSIS/Include/cmsis_gcc.h **** {
 279:Drivers/CMSIS/Include/cmsis_gcc.h ****   __ASM volatile ("MSR psp, %0" : : "r" (topOfProcStack) : );
 280:Drivers/CMSIS/Include/cmsis_gcc.h **** }
 281:Drivers/CMSIS/Include/cmsis_gcc.h **** 
 282:Drivers/CMSIS/Include/cmsis_gcc.h **** 
 283:Drivers/CMSIS/Include/cmsis_gcc.h **** #if (defined (__ARM_FEATURE_CMSE ) && (__ARM_FEATURE_CMSE == 3))
 284:Drivers/CMSIS/Include/cmsis_gcc.h **** /**
 285:Drivers/CMSIS/Include/cmsis_gcc.h ****   \brief   Set Process Stack Pointer (non-secure)
 286:Drivers/CMSIS/Include/cmsis_gcc.h ****   \details Assigns the given value to the non-secure Process Stack Pointer (PSP) when in secure sta
 287:Drivers/CMSIS/Include/cmsis_gcc.h ****   \param [in]    topOfProcStack  Process Stack Pointer value to set
 288:Drivers/CMSIS/Include/cmsis_gcc.h ****  */
 289:Drivers/CMSIS/Include/cmsis_gcc.h **** __STATIC_FORCEINLINE void __TZ_set_PSP_NS(uint32_t topOfProcStack)
 290:Drivers/CMSIS/Include/cmsis_gcc.h **** {
 291:Drivers/CMSIS/Include/cmsis_gcc.h ****   __ASM volatile ("MSR psp_ns, %0" : : "r" (topOfProcStack) : );
 292:Drivers/CMSIS/Include/cmsis_gcc.h **** }
 293:Drivers/CMSIS/Include/cmsis_gcc.h **** #endif
 294:Drivers/CMSIS/Include/cmsis_gcc.h **** 
 295:Drivers/CMSIS/Include/cmsis_gcc.h **** 
 296:Drivers/CMSIS/Include/cmsis_gcc.h **** /**
 297:Drivers/CMSIS/Include/cmsis_gcc.h ****   \brief   Get Main Stack Pointer
 298:Drivers/CMSIS/Include/cmsis_gcc.h ****   \details Returns the current value of the Main Stack Pointer (MSP).
 299:Drivers/CMSIS/Include/cmsis_gcc.h ****   \return               MSP Register value
 300:Drivers/CMSIS/Include/cmsis_gcc.h ****  */
 301:Drivers/CMSIS/Include/cmsis_gcc.h **** __STATIC_FORCEINLINE uint32_t __get_MSP(void)
 302:Drivers/CMSIS/Include/cmsis_gcc.h **** {
 303:Drivers/CMSIS/Include/cmsis_gcc.h ****   uint32_t result;
 304:Drivers/CMSIS/Include/cmsis_gcc.h **** 
 305:Drivers/CMSIS/Include/cmsis_gcc.h ****   __ASM volatile ("MRS %0, msp" : "=r" (result) );
 306:Drivers/CMSIS/Include/cmsis_gcc.h ****   return(result);
 307:Drivers/CMSIS/Include/cmsis_gcc.h **** }
 308:Drivers/CMSIS/Include/cmsis_gcc.h **** 
 309:Drivers/CMSIS/Include/cmsis_gcc.h **** 
 310:Drivers/CMSIS/Include/cmsis_gcc.h **** #if (defined (__ARM_FEATURE_CMSE ) && (__ARM_FEATURE_CMSE == 3))
 311:Drivers/CMSIS/Include/cmsis_gcc.h **** /**
 312:Drivers/CMSIS/Include/cmsis_gcc.h ****   \brief   Get Main Stack Pointer (non-secure)
 313:Drivers/CMSIS/Include/cmsis_gcc.h ****   \details Returns the current value of the non-secure Main Stack Pointer (MSP) when in secure stat
 314:Drivers/CMSIS/Include/cmsis_gcc.h ****   \return               MSP Register value
 315:Drivers/CMSIS/Include/cmsis_gcc.h ****  */
 316:Drivers/CMSIS/Include/cmsis_gcc.h **** __STATIC_FORCEINLINE uint32_t __TZ_get_MSP_NS(void)
 317:Drivers/CMSIS/Include/cmsis_gcc.h **** {
 318:Drivers/CMSIS/Include/cmsis_gcc.h ****   uint32_t result;
 319:Drivers/CMSIS/Include/cmsis_gcc.h **** 
 320:Drivers/CMSIS/Include/cmsis_gcc.h ****   __ASM volatile ("MRS %0, msp_ns" : "=r" (result) );
 321:Drivers/CMSIS/Include/cmsis_gcc.h ****   return(result);
 322:Drivers/CMSIS/Include/cmsis_gcc.h **** }
 323:Drivers/CMSIS/Include/cmsis_gcc.h **** #endif
 324:Drivers/CMSIS/Include/cmsis_gcc.h **** 
 325:Drivers/CMSIS/Include/cmsis_gcc.h **** 
 326:Drivers/CMSIS/Include/cmsis_gcc.h **** /**
 327:Drivers/CMSIS/Include/cmsis_gcc.h ****   \brief   Set Main Stack Pointer
 328:Drivers/CMSIS/Include/cmsis_gcc.h ****   \details Assigns the given value to the Main Stack Pointer (MSP).
 329:Drivers/CMSIS/Include/cmsis_gcc.h ****   \param [in]    topOfMainStack  Main Stack Pointer value to set
 330:Drivers/CMSIS/Include/cmsis_gcc.h ****  */
 331:Drivers/CMSIS/Include/cmsis_gcc.h **** __STATIC_FORCEINLINE void __set_MSP(uint32_t topOfMainStack)
 332:Drivers/CMSIS/Include/cmsis_gcc.h **** {
 333:Drivers/CMSIS/Include/cmsis_gcc.h ****   __ASM volatile ("MSR msp, %0" : : "r" (topOfMainStack) : );
ARM GAS  /tmp/cc2AD7kg.s 			page 53


 334:Drivers/CMSIS/Include/cmsis_gcc.h **** }
 335:Drivers/CMSIS/Include/cmsis_gcc.h **** 
 336:Drivers/CMSIS/Include/cmsis_gcc.h **** 
 337:Drivers/CMSIS/Include/cmsis_gcc.h **** #if (defined (__ARM_FEATURE_CMSE ) && (__ARM_FEATURE_CMSE == 3))
 338:Drivers/CMSIS/Include/cmsis_gcc.h **** /**
 339:Drivers/CMSIS/Include/cmsis_gcc.h ****   \brief   Set Main Stack Pointer (non-secure)
 340:Drivers/CMSIS/Include/cmsis_gcc.h ****   \details Assigns the given value to the non-secure Main Stack Pointer (MSP) when in secure state.
 341:Drivers/CMSIS/Include/cmsis_gcc.h ****   \param [in]    topOfMainStack  Main Stack Pointer value to set
 342:Drivers/CMSIS/Include/cmsis_gcc.h ****  */
 343:Drivers/CMSIS/Include/cmsis_gcc.h **** __STATIC_FORCEINLINE void __TZ_set_MSP_NS(uint32_t topOfMainStack)
 344:Drivers/CMSIS/Include/cmsis_gcc.h **** {
 345:Drivers/CMSIS/Include/cmsis_gcc.h ****   __ASM volatile ("MSR msp_ns, %0" : : "r" (topOfMainStack) : );
 346:Drivers/CMSIS/Include/cmsis_gcc.h **** }
 347:Drivers/CMSIS/Include/cmsis_gcc.h **** #endif
 348:Drivers/CMSIS/Include/cmsis_gcc.h **** 
 349:Drivers/CMSIS/Include/cmsis_gcc.h **** 
 350:Drivers/CMSIS/Include/cmsis_gcc.h **** #if (defined (__ARM_FEATURE_CMSE ) && (__ARM_FEATURE_CMSE == 3))
 351:Drivers/CMSIS/Include/cmsis_gcc.h **** /**
 352:Drivers/CMSIS/Include/cmsis_gcc.h ****   \brief   Get Stack Pointer (non-secure)
 353:Drivers/CMSIS/Include/cmsis_gcc.h ****   \details Returns the current value of the non-secure Stack Pointer (SP) when in secure state.
 354:Drivers/CMSIS/Include/cmsis_gcc.h ****   \return               SP Register value
 355:Drivers/CMSIS/Include/cmsis_gcc.h ****  */
 356:Drivers/CMSIS/Include/cmsis_gcc.h **** __STATIC_FORCEINLINE uint32_t __TZ_get_SP_NS(void)
 357:Drivers/CMSIS/Include/cmsis_gcc.h **** {
 358:Drivers/CMSIS/Include/cmsis_gcc.h ****   uint32_t result;
 359:Drivers/CMSIS/Include/cmsis_gcc.h **** 
 360:Drivers/CMSIS/Include/cmsis_gcc.h ****   __ASM volatile ("MRS %0, sp_ns" : "=r" (result) );
 361:Drivers/CMSIS/Include/cmsis_gcc.h ****   return(result);
 362:Drivers/CMSIS/Include/cmsis_gcc.h **** }
 363:Drivers/CMSIS/Include/cmsis_gcc.h **** 
 364:Drivers/CMSIS/Include/cmsis_gcc.h **** 
 365:Drivers/CMSIS/Include/cmsis_gcc.h **** /**
 366:Drivers/CMSIS/Include/cmsis_gcc.h ****   \brief   Set Stack Pointer (non-secure)
 367:Drivers/CMSIS/Include/cmsis_gcc.h ****   \details Assigns the given value to the non-secure Stack Pointer (SP) when in secure state.
 368:Drivers/CMSIS/Include/cmsis_gcc.h ****   \param [in]    topOfStack  Stack Pointer value to set
 369:Drivers/CMSIS/Include/cmsis_gcc.h ****  */
 370:Drivers/CMSIS/Include/cmsis_gcc.h **** __STATIC_FORCEINLINE void __TZ_set_SP_NS(uint32_t topOfStack)
 371:Drivers/CMSIS/Include/cmsis_gcc.h **** {
 372:Drivers/CMSIS/Include/cmsis_gcc.h ****   __ASM volatile ("MSR sp_ns, %0" : : "r" (topOfStack) : );
 373:Drivers/CMSIS/Include/cmsis_gcc.h **** }
 374:Drivers/CMSIS/Include/cmsis_gcc.h **** #endif
 375:Drivers/CMSIS/Include/cmsis_gcc.h **** 
 376:Drivers/CMSIS/Include/cmsis_gcc.h **** 
 377:Drivers/CMSIS/Include/cmsis_gcc.h **** /**
 378:Drivers/CMSIS/Include/cmsis_gcc.h ****   \brief   Get Priority Mask
 379:Drivers/CMSIS/Include/cmsis_gcc.h ****   \details Returns the current state of the priority mask bit from the Priority Mask Register.
 380:Drivers/CMSIS/Include/cmsis_gcc.h ****   \return               Priority Mask value
 381:Drivers/CMSIS/Include/cmsis_gcc.h ****  */
 382:Drivers/CMSIS/Include/cmsis_gcc.h **** __STATIC_FORCEINLINE uint32_t __get_PRIMASK(void)
 383:Drivers/CMSIS/Include/cmsis_gcc.h **** {
 384:Drivers/CMSIS/Include/cmsis_gcc.h ****   uint32_t result;
 385:Drivers/CMSIS/Include/cmsis_gcc.h **** 
 386:Drivers/CMSIS/Include/cmsis_gcc.h ****   __ASM volatile ("MRS %0, primask" : "=r" (result) :: "memory");
 387:Drivers/CMSIS/Include/cmsis_gcc.h ****   return(result);
 388:Drivers/CMSIS/Include/cmsis_gcc.h **** }
 389:Drivers/CMSIS/Include/cmsis_gcc.h **** 
 390:Drivers/CMSIS/Include/cmsis_gcc.h **** 
ARM GAS  /tmp/cc2AD7kg.s 			page 54


 391:Drivers/CMSIS/Include/cmsis_gcc.h **** #if (defined (__ARM_FEATURE_CMSE ) && (__ARM_FEATURE_CMSE == 3))
 392:Drivers/CMSIS/Include/cmsis_gcc.h **** /**
 393:Drivers/CMSIS/Include/cmsis_gcc.h ****   \brief   Get Priority Mask (non-secure)
 394:Drivers/CMSIS/Include/cmsis_gcc.h ****   \details Returns the current state of the non-secure priority mask bit from the Priority Mask Reg
 395:Drivers/CMSIS/Include/cmsis_gcc.h ****   \return               Priority Mask value
 396:Drivers/CMSIS/Include/cmsis_gcc.h ****  */
 397:Drivers/CMSIS/Include/cmsis_gcc.h **** __STATIC_FORCEINLINE uint32_t __TZ_get_PRIMASK_NS(void)
 398:Drivers/CMSIS/Include/cmsis_gcc.h **** {
 399:Drivers/CMSIS/Include/cmsis_gcc.h ****   uint32_t result;
 400:Drivers/CMSIS/Include/cmsis_gcc.h **** 
 401:Drivers/CMSIS/Include/cmsis_gcc.h ****   __ASM volatile ("MRS %0, primask_ns" : "=r" (result) :: "memory");
 402:Drivers/CMSIS/Include/cmsis_gcc.h ****   return(result);
 403:Drivers/CMSIS/Include/cmsis_gcc.h **** }
 404:Drivers/CMSIS/Include/cmsis_gcc.h **** #endif
 405:Drivers/CMSIS/Include/cmsis_gcc.h **** 
 406:Drivers/CMSIS/Include/cmsis_gcc.h **** 
 407:Drivers/CMSIS/Include/cmsis_gcc.h **** /**
 408:Drivers/CMSIS/Include/cmsis_gcc.h ****   \brief   Set Priority Mask
 409:Drivers/CMSIS/Include/cmsis_gcc.h ****   \details Assigns the given value to the Priority Mask Register.
 410:Drivers/CMSIS/Include/cmsis_gcc.h ****   \param [in]    priMask  Priority Mask
 411:Drivers/CMSIS/Include/cmsis_gcc.h ****  */
 412:Drivers/CMSIS/Include/cmsis_gcc.h **** __STATIC_FORCEINLINE void __set_PRIMASK(uint32_t priMask)
 413:Drivers/CMSIS/Include/cmsis_gcc.h **** {
 414:Drivers/CMSIS/Include/cmsis_gcc.h ****   __ASM volatile ("MSR primask, %0" : : "r" (priMask) : "memory");
 415:Drivers/CMSIS/Include/cmsis_gcc.h **** }
 416:Drivers/CMSIS/Include/cmsis_gcc.h **** 
 417:Drivers/CMSIS/Include/cmsis_gcc.h **** 
 418:Drivers/CMSIS/Include/cmsis_gcc.h **** #if (defined (__ARM_FEATURE_CMSE ) && (__ARM_FEATURE_CMSE == 3))
 419:Drivers/CMSIS/Include/cmsis_gcc.h **** /**
 420:Drivers/CMSIS/Include/cmsis_gcc.h ****   \brief   Set Priority Mask (non-secure)
 421:Drivers/CMSIS/Include/cmsis_gcc.h ****   \details Assigns the given value to the non-secure Priority Mask Register when in secure state.
 422:Drivers/CMSIS/Include/cmsis_gcc.h ****   \param [in]    priMask  Priority Mask
 423:Drivers/CMSIS/Include/cmsis_gcc.h ****  */
 424:Drivers/CMSIS/Include/cmsis_gcc.h **** __STATIC_FORCEINLINE void __TZ_set_PRIMASK_NS(uint32_t priMask)
 425:Drivers/CMSIS/Include/cmsis_gcc.h **** {
 426:Drivers/CMSIS/Include/cmsis_gcc.h ****   __ASM volatile ("MSR primask_ns, %0" : : "r" (priMask) : "memory");
 427:Drivers/CMSIS/Include/cmsis_gcc.h **** }
 428:Drivers/CMSIS/Include/cmsis_gcc.h **** #endif
 429:Drivers/CMSIS/Include/cmsis_gcc.h **** 
 430:Drivers/CMSIS/Include/cmsis_gcc.h **** 
 431:Drivers/CMSIS/Include/cmsis_gcc.h **** #if ((defined (__ARM_ARCH_7M__      ) && (__ARM_ARCH_7M__      == 1)) || \
 432:Drivers/CMSIS/Include/cmsis_gcc.h ****      (defined (__ARM_ARCH_7EM__     ) && (__ARM_ARCH_7EM__     == 1)) || \
